ARM GAS  C:\Windows\TEMP\ccKNjEsk.s 			page 1


   1              		.syntax unified
   2              		.cpu cortex-m0
   3              		.fpu softvfp
   4              		.eabi_attribute 20, 1
   5              		.eabi_attribute 21, 1
   6              		.eabi_attribute 23, 3
   7              		.eabi_attribute 24, 1
   8              		.eabi_attribute 25, 1
   9              		.eabi_attribute 26, 1
  10              		.eabi_attribute 30, 1
  11              		.eabi_attribute 34, 0
  12              		.eabi_attribute 18, 4
  13              		.thumb
  14              		.syntax unified
  15              		.file	"cyfitter_cfg.c"
  16              		.text
  17              	.Ltext0:
  18              		.cfi_sections	.debug_frame
  19              		.section	.text.cfg_write_bytes32,"ax",%progbits
  20              		.align	2
  21              		.code	16
  22              		.thumb_func
  23              		.type	cfg_write_bytes32, %function
  24              	cfg_write_bytes32:
  25              	.LFB5:
  26              		.file 1 "Generated_Source\\PSoC4\\cyfitter_cfg.c"
   1:Generated_Source\PSoC4/cyfitter_cfg.c **** 
   2:Generated_Source\PSoC4/cyfitter_cfg.c **** /*******************************************************************************
   3:Generated_Source\PSoC4/cyfitter_cfg.c **** * File Name: cyfitter_cfg.c
   4:Generated_Source\PSoC4/cyfitter_cfg.c **** * 
   5:Generated_Source\PSoC4/cyfitter_cfg.c **** * PSoC Creator  4.4
   6:Generated_Source\PSoC4/cyfitter_cfg.c **** *
   7:Generated_Source\PSoC4/cyfitter_cfg.c **** * Description:
   8:Generated_Source\PSoC4/cyfitter_cfg.c **** * This file contains device initialization code.
   9:Generated_Source\PSoC4/cyfitter_cfg.c **** * Except for the user defined sections in CyClockStartupError(), this file should not be modified.
  10:Generated_Source\PSoC4/cyfitter_cfg.c **** * This file is automatically generated by PSoC Creator.
  11:Generated_Source\PSoC4/cyfitter_cfg.c **** *
  12:Generated_Source\PSoC4/cyfitter_cfg.c **** ********************************************************************************
  13:Generated_Source\PSoC4/cyfitter_cfg.c **** * Copyright (c) 2007-2020 Cypress Semiconductor.  All rights reserved.
  14:Generated_Source\PSoC4/cyfitter_cfg.c **** * You may use this file only in accordance with the license, terms, conditions, 
  15:Generated_Source\PSoC4/cyfitter_cfg.c **** * disclaimers, and limitations in the end user license agreement accompanying 
  16:Generated_Source\PSoC4/cyfitter_cfg.c **** * the software package with which this file was provided.
  17:Generated_Source\PSoC4/cyfitter_cfg.c **** ********************************************************************************/
  18:Generated_Source\PSoC4/cyfitter_cfg.c **** 
  19:Generated_Source\PSoC4/cyfitter_cfg.c **** #include <string.h>
  20:Generated_Source\PSoC4/cyfitter_cfg.c **** #include "cytypes.h"
  21:Generated_Source\PSoC4/cyfitter_cfg.c **** #include "cydevice_trm.h"
  22:Generated_Source\PSoC4/cyfitter_cfg.c **** #include "cyfitter.h"
  23:Generated_Source\PSoC4/cyfitter_cfg.c **** #include "CyLib.h"
  24:Generated_Source\PSoC4/cyfitter_cfg.c **** #include "CyLFClk.h"
  25:Generated_Source\PSoC4/cyfitter_cfg.c **** #include "cyfitter_cfg.h"
  26:Generated_Source\PSoC4/cyfitter_cfg.c **** #include "cyapicallbacks.h"
  27:Generated_Source\PSoC4/cyfitter_cfg.c **** 
  28:Generated_Source\PSoC4/cyfitter_cfg.c **** 
  29:Generated_Source\PSoC4/cyfitter_cfg.c **** #if defined(__GNUC__) || defined(__ARMCC_VERSION)
  30:Generated_Source\PSoC4/cyfitter_cfg.c ****     #define CYPACKED 
  31:Generated_Source\PSoC4/cyfitter_cfg.c ****     #define CYPACKED_ATTR __attribute__ ((packed))
ARM GAS  C:\Windows\TEMP\ccKNjEsk.s 			page 2


  32:Generated_Source\PSoC4/cyfitter_cfg.c ****     #define CYALIGNED __attribute__ ((aligned))
  33:Generated_Source\PSoC4/cyfitter_cfg.c ****     #define CY_CFG_UNUSED __attribute__ ((unused))
  34:Generated_Source\PSoC4/cyfitter_cfg.c ****     #ifndef CY_CFG_SECTION
  35:Generated_Source\PSoC4/cyfitter_cfg.c ****         #define CY_CFG_SECTION __attribute__ ((section(".psocinit")))
  36:Generated_Source\PSoC4/cyfitter_cfg.c ****     #endif
  37:Generated_Source\PSoC4/cyfitter_cfg.c ****     
  38:Generated_Source\PSoC4/cyfitter_cfg.c ****     #if defined(__ARMCC_VERSION)
  39:Generated_Source\PSoC4/cyfitter_cfg.c ****         #define CY_CFG_MEMORY_BARRIER() __memory_changed()
  40:Generated_Source\PSoC4/cyfitter_cfg.c ****     #else
  41:Generated_Source\PSoC4/cyfitter_cfg.c ****         #define CY_CFG_MEMORY_BARRIER() __sync_synchronize()
  42:Generated_Source\PSoC4/cyfitter_cfg.c ****     #endif
  43:Generated_Source\PSoC4/cyfitter_cfg.c ****     
  44:Generated_Source\PSoC4/cyfitter_cfg.c **** #elif defined(__ICCARM__)
  45:Generated_Source\PSoC4/cyfitter_cfg.c ****     #include <intrinsics.h>
  46:Generated_Source\PSoC4/cyfitter_cfg.c **** 
  47:Generated_Source\PSoC4/cyfitter_cfg.c ****     #define CYPACKED __packed
  48:Generated_Source\PSoC4/cyfitter_cfg.c ****     #define CYPACKED_ATTR 
  49:Generated_Source\PSoC4/cyfitter_cfg.c ****     #define CYALIGNED _Pragma("data_alignment=4")
  50:Generated_Source\PSoC4/cyfitter_cfg.c ****     #define CY_CFG_UNUSED _Pragma("diag_suppress=Pe177")
  51:Generated_Source\PSoC4/cyfitter_cfg.c ****     #define CY_CFG_SECTION _Pragma("location=\".psocinit\"")
  52:Generated_Source\PSoC4/cyfitter_cfg.c ****     
  53:Generated_Source\PSoC4/cyfitter_cfg.c ****     #define CY_CFG_MEMORY_BARRIER() __DMB()
  54:Generated_Source\PSoC4/cyfitter_cfg.c ****     
  55:Generated_Source\PSoC4/cyfitter_cfg.c **** #else
  56:Generated_Source\PSoC4/cyfitter_cfg.c ****     #error Unsupported toolchain
  57:Generated_Source\PSoC4/cyfitter_cfg.c **** #endif
  58:Generated_Source\PSoC4/cyfitter_cfg.c **** 
  59:Generated_Source\PSoC4/cyfitter_cfg.c **** #ifndef CYCODE
  60:Generated_Source\PSoC4/cyfitter_cfg.c ****     #define CYCODE
  61:Generated_Source\PSoC4/cyfitter_cfg.c **** #endif
  62:Generated_Source\PSoC4/cyfitter_cfg.c **** #ifndef CYDATA
  63:Generated_Source\PSoC4/cyfitter_cfg.c ****     #define CYDATA
  64:Generated_Source\PSoC4/cyfitter_cfg.c **** #endif
  65:Generated_Source\PSoC4/cyfitter_cfg.c **** #ifndef CYFAR
  66:Generated_Source\PSoC4/cyfitter_cfg.c ****     #define CYFAR
  67:Generated_Source\PSoC4/cyfitter_cfg.c **** #endif
  68:Generated_Source\PSoC4/cyfitter_cfg.c **** #ifndef CYXDATA
  69:Generated_Source\PSoC4/cyfitter_cfg.c ****     #define CYXDATA
  70:Generated_Source\PSoC4/cyfitter_cfg.c **** #endif
  71:Generated_Source\PSoC4/cyfitter_cfg.c **** 
  72:Generated_Source\PSoC4/cyfitter_cfg.c **** 
  73:Generated_Source\PSoC4/cyfitter_cfg.c **** CY_CFG_UNUSED
  74:Generated_Source\PSoC4/cyfitter_cfg.c **** static void CYMEMZERO(void *s, size_t n);
  75:Generated_Source\PSoC4/cyfitter_cfg.c **** CY_CFG_UNUSED
  76:Generated_Source\PSoC4/cyfitter_cfg.c **** static void CYMEMZERO(void *s, size_t n)
  77:Generated_Source\PSoC4/cyfitter_cfg.c **** {
  78:Generated_Source\PSoC4/cyfitter_cfg.c **** 	(void)memset(s, 0, n);
  79:Generated_Source\PSoC4/cyfitter_cfg.c **** }
  80:Generated_Source\PSoC4/cyfitter_cfg.c **** CY_CFG_UNUSED
  81:Generated_Source\PSoC4/cyfitter_cfg.c **** static void CYCONFIGCPY(void *dest, const void *src, size_t n);
  82:Generated_Source\PSoC4/cyfitter_cfg.c **** CY_CFG_UNUSED
  83:Generated_Source\PSoC4/cyfitter_cfg.c **** static void CYCONFIGCPY(void *dest, const void *src, size_t n)
  84:Generated_Source\PSoC4/cyfitter_cfg.c **** {
  85:Generated_Source\PSoC4/cyfitter_cfg.c **** 	(void)memcpy(dest, src, n);
  86:Generated_Source\PSoC4/cyfitter_cfg.c **** }
  87:Generated_Source\PSoC4/cyfitter_cfg.c **** CY_CFG_UNUSED
  88:Generated_Source\PSoC4/cyfitter_cfg.c **** static void CYCONFIGCPYCODE(void *dest, const void *src, size_t n);
ARM GAS  C:\Windows\TEMP\ccKNjEsk.s 			page 3


  89:Generated_Source\PSoC4/cyfitter_cfg.c **** CY_CFG_UNUSED
  90:Generated_Source\PSoC4/cyfitter_cfg.c **** static void CYCONFIGCPYCODE(void *dest, const void *src, size_t n)
  91:Generated_Source\PSoC4/cyfitter_cfg.c **** {
  92:Generated_Source\PSoC4/cyfitter_cfg.c **** 	(void)memcpy(dest, src, n);
  93:Generated_Source\PSoC4/cyfitter_cfg.c **** }
  94:Generated_Source\PSoC4/cyfitter_cfg.c **** 
  95:Generated_Source\PSoC4/cyfitter_cfg.c **** 
  96:Generated_Source\PSoC4/cyfitter_cfg.c **** 
  97:Generated_Source\PSoC4/cyfitter_cfg.c **** 
  98:Generated_Source\PSoC4/cyfitter_cfg.c **** /* Clock startup error codes                                                   */
  99:Generated_Source\PSoC4/cyfitter_cfg.c **** #define CYCLOCKSTART_NO_ERROR    0u
 100:Generated_Source\PSoC4/cyfitter_cfg.c **** #define CYCLOCKSTART_XTAL_ERROR  1u
 101:Generated_Source\PSoC4/cyfitter_cfg.c **** #define CYCLOCKSTART_32KHZ_ERROR 2u
 102:Generated_Source\PSoC4/cyfitter_cfg.c **** #define CYCLOCKSTART_PLL_ERROR   3u
 103:Generated_Source\PSoC4/cyfitter_cfg.c **** #define CYCLOCKSTART_FLL_ERROR   4u
 104:Generated_Source\PSoC4/cyfitter_cfg.c **** #define CYCLOCKSTART_WCO_ERROR   5u
 105:Generated_Source\PSoC4/cyfitter_cfg.c **** 
 106:Generated_Source\PSoC4/cyfitter_cfg.c **** 
 107:Generated_Source\PSoC4/cyfitter_cfg.c **** #ifdef CY_NEED_CYCLOCKSTARTUPERROR
 108:Generated_Source\PSoC4/cyfitter_cfg.c **** /*******************************************************************************
 109:Generated_Source\PSoC4/cyfitter_cfg.c **** * Function Name: CyClockStartupError
 110:Generated_Source\PSoC4/cyfitter_cfg.c **** ********************************************************************************
 111:Generated_Source\PSoC4/cyfitter_cfg.c **** * Summary:
 112:Generated_Source\PSoC4/cyfitter_cfg.c **** *  If an error is encountered during clock configuration (crystal startup error,
 113:Generated_Source\PSoC4/cyfitter_cfg.c **** *  PLL lock error, etc.), the system will end up here.  Unless reimplemented by
 114:Generated_Source\PSoC4/cyfitter_cfg.c **** *  the customer, this function will stop in an infinite loop.
 115:Generated_Source\PSoC4/cyfitter_cfg.c **** *
 116:Generated_Source\PSoC4/cyfitter_cfg.c **** * Parameters:
 117:Generated_Source\PSoC4/cyfitter_cfg.c **** *   void
 118:Generated_Source\PSoC4/cyfitter_cfg.c **** *
 119:Generated_Source\PSoC4/cyfitter_cfg.c **** * Return:
 120:Generated_Source\PSoC4/cyfitter_cfg.c **** *   void
 121:Generated_Source\PSoC4/cyfitter_cfg.c **** *
 122:Generated_Source\PSoC4/cyfitter_cfg.c **** *******************************************************************************/
 123:Generated_Source\PSoC4/cyfitter_cfg.c **** CY_CFG_UNUSED
 124:Generated_Source\PSoC4/cyfitter_cfg.c **** static void CyClockStartupError(uint8 errorCode);
 125:Generated_Source\PSoC4/cyfitter_cfg.c **** CY_CFG_UNUSED
 126:Generated_Source\PSoC4/cyfitter_cfg.c **** static void CyClockStartupError(uint8 errorCode)
 127:Generated_Source\PSoC4/cyfitter_cfg.c **** {
 128:Generated_Source\PSoC4/cyfitter_cfg.c ****     /* To remove the compiler warning if errorCode not used.                */
 129:Generated_Source\PSoC4/cyfitter_cfg.c ****     errorCode = errorCode;
 130:Generated_Source\PSoC4/cyfitter_cfg.c **** 
 131:Generated_Source\PSoC4/cyfitter_cfg.c ****     /* If we have a clock startup error (bad MHz crystal, PLL lock, etc.),  */
 132:Generated_Source\PSoC4/cyfitter_cfg.c ****     /* we will end up here to allow the customer to implement something to  */
 133:Generated_Source\PSoC4/cyfitter_cfg.c ****     /* deal with the clock condition.                                       */
 134:Generated_Source\PSoC4/cyfitter_cfg.c **** 
 135:Generated_Source\PSoC4/cyfitter_cfg.c **** #ifdef CY_CFG_CLOCK_STARTUP_ERROR_CALLBACK
 136:Generated_Source\PSoC4/cyfitter_cfg.c ****     CY_CFG_Clock_Startup_ErrorCallback();
 137:Generated_Source\PSoC4/cyfitter_cfg.c **** #else
 138:Generated_Source\PSoC4/cyfitter_cfg.c ****     /*  If not using CY_CFG_CLOCK_STARTUP_ERROR_CALLBACK, place your clock startup code here. */
 139:Generated_Source\PSoC4/cyfitter_cfg.c ****     /* `#START CyClockStartupError` */
 140:Generated_Source\PSoC4/cyfitter_cfg.c **** 
 141:Generated_Source\PSoC4/cyfitter_cfg.c **** 
 142:Generated_Source\PSoC4/cyfitter_cfg.c **** 
 143:Generated_Source\PSoC4/cyfitter_cfg.c ****     /* `#END` */
 144:Generated_Source\PSoC4/cyfitter_cfg.c **** 
 145:Generated_Source\PSoC4/cyfitter_cfg.c ****     while(1) {}
ARM GAS  C:\Windows\TEMP\ccKNjEsk.s 			page 4


 146:Generated_Source\PSoC4/cyfitter_cfg.c **** #endif /* CY_CFG_CLOCK_STARTUP_ERROR_CALLBACK */
 147:Generated_Source\PSoC4/cyfitter_cfg.c **** }
 148:Generated_Source\PSoC4/cyfitter_cfg.c **** #endif
 149:Generated_Source\PSoC4/cyfitter_cfg.c **** 
 150:Generated_Source\PSoC4/cyfitter_cfg.c **** #define CY_CFG_BASE_ADDR_COUNT 10u
 151:Generated_Source\PSoC4/cyfitter_cfg.c **** CYPACKED typedef struct
 152:Generated_Source\PSoC4/cyfitter_cfg.c **** {
 153:Generated_Source\PSoC4/cyfitter_cfg.c **** 	uint8 offset;
 154:Generated_Source\PSoC4/cyfitter_cfg.c **** 	uint8 value;
 155:Generated_Source\PSoC4/cyfitter_cfg.c **** } CYPACKED_ATTR cy_cfg_addrvalue_t;
 156:Generated_Source\PSoC4/cyfitter_cfg.c **** 
 157:Generated_Source\PSoC4/cyfitter_cfg.c **** 
 158:Generated_Source\PSoC4/cyfitter_cfg.c **** 
 159:Generated_Source\PSoC4/cyfitter_cfg.c **** /*******************************************************************************
 160:Generated_Source\PSoC4/cyfitter_cfg.c **** * Function Name: cfg_write_bytes32
 161:Generated_Source\PSoC4/cyfitter_cfg.c **** ********************************************************************************
 162:Generated_Source\PSoC4/cyfitter_cfg.c **** * Summary:
 163:Generated_Source\PSoC4/cyfitter_cfg.c **** *  This function is used for setting up the chip configuration areas that
 164:Generated_Source\PSoC4/cyfitter_cfg.c **** *  contain relatively sparse data.
 165:Generated_Source\PSoC4/cyfitter_cfg.c **** *
 166:Generated_Source\PSoC4/cyfitter_cfg.c **** * Parameters:
 167:Generated_Source\PSoC4/cyfitter_cfg.c **** *   void
 168:Generated_Source\PSoC4/cyfitter_cfg.c **** *
 169:Generated_Source\PSoC4/cyfitter_cfg.c **** * Return:
 170:Generated_Source\PSoC4/cyfitter_cfg.c **** *   void
 171:Generated_Source\PSoC4/cyfitter_cfg.c **** *
 172:Generated_Source\PSoC4/cyfitter_cfg.c **** *******************************************************************************/
 173:Generated_Source\PSoC4/cyfitter_cfg.c **** static void cfg_write_bytes32(const uint32 addr_table[], const cy_cfg_addrvalue_t data_table[]);
 174:Generated_Source\PSoC4/cyfitter_cfg.c **** static void cfg_write_bytes32(const uint32 addr_table[], const cy_cfg_addrvalue_t data_table[])
 175:Generated_Source\PSoC4/cyfitter_cfg.c **** {
  27              		.loc 1 175 0
  28              		.cfi_startproc
  29              		@ args = 0, pretend = 0, frame = 0
  30              		@ frame_needed = 0, uses_anonymous_args = 0
  31              	.LVL0:
  32 0000 F0B5     		push	{r4, r5, r6, r7, lr}
  33              		.cfi_def_cfa_offset 20
  34              		.cfi_offset 4, -20
  35              		.cfi_offset 5, -16
  36              		.cfi_offset 6, -12
  37              		.cfi_offset 7, -8
  38              		.cfi_offset 14, -4
  39              	.LVL1:
 176:Generated_Source\PSoC4/cyfitter_cfg.c **** 	/* For 32-bit little-endian architectures */
 177:Generated_Source\PSoC4/cyfitter_cfg.c **** 	uint32 i, j = 0u;
  40              		.loc 1 177 0
  41 0002 0025     		movs	r5, #0
 178:Generated_Source\PSoC4/cyfitter_cfg.c **** 	for (i = 0u; i < CY_CFG_BASE_ADDR_COUNT; i++)
  42              		.loc 1 178 0
  43 0004 0027     		movs	r7, #0
  44 0006 11E0     		b	.L2
  45              	.LVL2:
  46              	.L5:
  47              	.LBB2:
 179:Generated_Source\PSoC4/cyfitter_cfg.c **** 	{
 180:Generated_Source\PSoC4/cyfitter_cfg.c **** 		uint32 baseAddr = addr_table[i];
  48              		.loc 1 180 0
ARM GAS  C:\Windows\TEMP\ccKNjEsk.s 			page 5


  49 0008 BB00     		lsls	r3, r7, #2
  50 000a C658     		ldr	r6, [r0, r3]
  51              	.LVL3:
 181:Generated_Source\PSoC4/cyfitter_cfg.c **** 		uint8 count = (uint8)baseAddr;
  52              		.loc 1 181 0
  53 000c F3B2     		uxtb	r3, r6
  54              	.LVL4:
 182:Generated_Source\PSoC4/cyfitter_cfg.c **** 		baseAddr &= 0xFFFFFF00u;
  55              		.loc 1 182 0
  56 000e FF22     		movs	r2, #255
  57 0010 9643     		bics	r6, r2
  58              	.LVL5:
 183:Generated_Source\PSoC4/cyfitter_cfg.c **** 		while (count != 0u)
  59              		.loc 1 183 0
  60 0012 08E0     		b	.L3
  61              	.L4:
 184:Generated_Source\PSoC4/cyfitter_cfg.c **** 		{
 185:Generated_Source\PSoC4/cyfitter_cfg.c **** 			CY_SET_REG8((void *)(baseAddr + data_table[j].offset), data_table[j].value);
  62              		.loc 1 185 0
  63 0014 6A00     		lsls	r2, r5, #1
  64 0016 8A18     		adds	r2, r1, r2
  65 0018 1478     		ldrb	r4, [r2]
  66 001a A419     		adds	r4, r4, r6
  67 001c 5278     		ldrb	r2, [r2, #1]
  68 001e 2270     		strb	r2, [r4]
 186:Generated_Source\PSoC4/cyfitter_cfg.c **** 			j++;
  69              		.loc 1 186 0
  70 0020 0135     		adds	r5, r5, #1
  71              	.LVL6:
 187:Generated_Source\PSoC4/cyfitter_cfg.c **** 			count--;
  72              		.loc 1 187 0
  73 0022 013B     		subs	r3, r3, #1
  74              	.LVL7:
  75 0024 DBB2     		uxtb	r3, r3
  76              	.LVL8:
  77              	.L3:
 183:Generated_Source\PSoC4/cyfitter_cfg.c **** 		{
  78              		.loc 1 183 0
  79 0026 002B     		cmp	r3, #0
  80 0028 F4D1     		bne	.L4
  81              	.LBE2:
 178:Generated_Source\PSoC4/cyfitter_cfg.c **** 	{
  82              		.loc 1 178 0 discriminator 2
  83 002a 0137     		adds	r7, r7, #1
  84              	.LVL9:
  85              	.L2:
 178:Generated_Source\PSoC4/cyfitter_cfg.c **** 	{
  86              		.loc 1 178 0 is_stmt 0 discriminator 1
  87 002c 092F     		cmp	r7, #9
  88 002e EBD9     		bls	.L5
 188:Generated_Source\PSoC4/cyfitter_cfg.c **** 		}
 189:Generated_Source\PSoC4/cyfitter_cfg.c **** 	}
 190:Generated_Source\PSoC4/cyfitter_cfg.c **** }
  89              		.loc 1 190 0 is_stmt 1
  90              		@ sp needed
  91              	.LVL10:
  92              	.LVL11:
ARM GAS  C:\Windows\TEMP\ccKNjEsk.s 			page 6


  93 0030 F0BD     		pop	{r4, r5, r6, r7, pc}
  94              		.cfi_endproc
  95              	.LFE5:
  96              		.size	cfg_write_bytes32, .-cfg_write_bytes32
  97 0032 C046     		.section	.text.AnalogSetDefault,"ax",%progbits
  98              		.align	2
  99              		.code	16
 100              		.thumb_func
 101              		.type	AnalogSetDefault, %function
 102              	AnalogSetDefault:
 103              	.LFB7:
 191:Generated_Source\PSoC4/cyfitter_cfg.c **** 
 192:Generated_Source\PSoC4/cyfitter_cfg.c **** 
 193:Generated_Source\PSoC4/cyfitter_cfg.c **** /*******************************************************************************
 194:Generated_Source\PSoC4/cyfitter_cfg.c **** * Function Name: ClockSetup
 195:Generated_Source\PSoC4/cyfitter_cfg.c **** ********************************************************************************
 196:Generated_Source\PSoC4/cyfitter_cfg.c **** *
 197:Generated_Source\PSoC4/cyfitter_cfg.c **** * Summary:
 198:Generated_Source\PSoC4/cyfitter_cfg.c **** *   Performs the initialization of all of the clocks in the device based on the
 199:Generated_Source\PSoC4/cyfitter_cfg.c **** *   settings in the Clock tab of the DWR.  This includes enabling the requested
 200:Generated_Source\PSoC4/cyfitter_cfg.c **** *   clocks and setting the necessary dividers to produce the desired frequency. 
 201:Generated_Source\PSoC4/cyfitter_cfg.c **** *
 202:Generated_Source\PSoC4/cyfitter_cfg.c **** * Parameters:
 203:Generated_Source\PSoC4/cyfitter_cfg.c **** *   void
 204:Generated_Source\PSoC4/cyfitter_cfg.c **** *
 205:Generated_Source\PSoC4/cyfitter_cfg.c **** * Return:
 206:Generated_Source\PSoC4/cyfitter_cfg.c **** *   void
 207:Generated_Source\PSoC4/cyfitter_cfg.c **** *
 208:Generated_Source\PSoC4/cyfitter_cfg.c **** *******************************************************************************/
 209:Generated_Source\PSoC4/cyfitter_cfg.c **** static void ClockSetup(void);
 210:Generated_Source\PSoC4/cyfitter_cfg.c **** CY_CFG_SECTION
 211:Generated_Source\PSoC4/cyfitter_cfg.c **** static void ClockSetup(void)
 212:Generated_Source\PSoC4/cyfitter_cfg.c **** {
 213:Generated_Source\PSoC4/cyfitter_cfg.c **** 
 214:Generated_Source\PSoC4/cyfitter_cfg.c **** 	/* Set Flash Cycles based on max possible frequency in case a glitch occurs during ClockSetup(). *
 215:Generated_Source\PSoC4/cyfitter_cfg.c **** 	CY_SET_REG32((void CYXDATA *)(CYREG_CPUSS_FLASH_CTL), (0x0012u));
 216:Generated_Source\PSoC4/cyfitter_cfg.c **** 
 217:Generated_Source\PSoC4/cyfitter_cfg.c **** 	/* Start the WCO */
 218:Generated_Source\PSoC4/cyfitter_cfg.c **** 	CySysClkWcoStart();
 219:Generated_Source\PSoC4/cyfitter_cfg.c **** 	CyDelayCycles(12000000u); /* WCO may take up to 500ms to start */
 220:Generated_Source\PSoC4/cyfitter_cfg.c **** 	(void)CySysClkWcoSetPowerMode(CY_SYS_CLK_WCO_LPM);    /* Switch to the low power mode */
 221:Generated_Source\PSoC4/cyfitter_cfg.c **** 
 222:Generated_Source\PSoC4/cyfitter_cfg.c **** 	/* Setup and trim IMO based on desired frequency. */
 223:Generated_Source\PSoC4/cyfitter_cfg.c **** 	CySysClkWriteImoFreq(48u);
 224:Generated_Source\PSoC4/cyfitter_cfg.c **** 	/* CYDEV_CLK_ILO_CONFIG Starting address: CYDEV_CLK_ILO_CONFIG */
 225:Generated_Source\PSoC4/cyfitter_cfg.c **** 	CY_SET_REG32((void *)(CYREG_CLK_ILO_CONFIG), 0x80000006u);
 226:Generated_Source\PSoC4/cyfitter_cfg.c **** 
 227:Generated_Source\PSoC4/cyfitter_cfg.c **** 	/* CYDEV_WDT_CONFIG Starting address: CYDEV_WDT_CONFIG */
 228:Generated_Source\PSoC4/cyfitter_cfg.c **** 	CY_SET_REG32((void *)(CYREG_WDT_CONFIG), 0x40000000u);
 229:Generated_Source\PSoC4/cyfitter_cfg.c **** 
 230:Generated_Source\PSoC4/cyfitter_cfg.c **** 
 231:Generated_Source\PSoC4/cyfitter_cfg.c **** 	/* Enable fast start mode for XO */
 232:Generated_Source\PSoC4/cyfitter_cfg.c **** 	CY_SET_REG32((void*)CYREG_BLE_BLERD_BB_XO, CY_GET_REG32((void*)CYREG_BLE_BLERD_BB_XO) | (uint32)0x
 233:Generated_Source\PSoC4/cyfitter_cfg.c **** 	CY_SET_REG32((void *)(CYREG_BLE_BLERD_BB_XO_CAPTRIM), 0x00003E2Du);
 234:Generated_Source\PSoC4/cyfitter_cfg.c **** 	/*Set XTAL(ECO) divider*/
 235:Generated_Source\PSoC4/cyfitter_cfg.c **** 	CY_SET_REG32((void *)(CYREG_BLE_BLESS_XTAL_CLK_DIV_CONFIG), 0x00000000u);
 236:Generated_Source\PSoC4/cyfitter_cfg.c **** 	/* Disable Crystal Stable Interrupt before enabling ECO */
ARM GAS  C:\Windows\TEMP\ccKNjEsk.s 			page 7


 237:Generated_Source\PSoC4/cyfitter_cfg.c **** 	CY_SET_REG32((void*)CYREG_BLE_BLESS_LL_DSM_CTRL, CY_GET_REG32((void*)CYREG_BLE_BLESS_LL_DSM_CTRL) 
 238:Generated_Source\PSoC4/cyfitter_cfg.c **** 	/* Start the ECO and do not check status since it is not needed for HFCLK */
 239:Generated_Source\PSoC4/cyfitter_cfg.c **** 	(void)CySysClkEcoStart(2000u);
 240:Generated_Source\PSoC4/cyfitter_cfg.c **** 	CyDelayUs(1500u); /* Wait to stabilize */
 241:Generated_Source\PSoC4/cyfitter_cfg.c **** 
 242:Generated_Source\PSoC4/cyfitter_cfg.c **** 	/* Setup phase aligned clocks */
 243:Generated_Source\PSoC4/cyfitter_cfg.c **** 	CY_SET_REG32((void *)CYREG_PERI_DIV_16_CTL2, 0x00005F00u);
 244:Generated_Source\PSoC4/cyfitter_cfg.c **** 	CY_SET_REG32((void *)CYREG_PERI_DIV_CMD, 0x8000FF42u);
 245:Generated_Source\PSoC4/cyfitter_cfg.c **** 	CY_SET_REG32((void *)CYREG_PERI_DIV_16_CTL0, 0x00000100u);
 246:Generated_Source\PSoC4/cyfitter_cfg.c **** 	CY_SET_REG32((void *)CYREG_PERI_DIV_CMD, 0x8000FF40u);
 247:Generated_Source\PSoC4/cyfitter_cfg.c **** 	CY_SET_REG32((void *)CYREG_PERI_DIV_16_CTL1, 0x00002200u);
 248:Generated_Source\PSoC4/cyfitter_cfg.c **** 	CY_SET_REG32((void *)CYREG_PERI_DIV_CMD, 0x8000FF41u);
 249:Generated_Source\PSoC4/cyfitter_cfg.c **** 
 250:Generated_Source\PSoC4/cyfitter_cfg.c **** 	/* CYDEV_CLK_IMO_CONFIG Starting address: CYDEV_CLK_IMO_CONFIG */
 251:Generated_Source\PSoC4/cyfitter_cfg.c **** 	CY_SET_REG32((void *)(CYREG_CLK_IMO_CONFIG), 0x80000000u);
 252:Generated_Source\PSoC4/cyfitter_cfg.c **** 
 253:Generated_Source\PSoC4/cyfitter_cfg.c **** 	/* CYDEV_CLK_SELECT Starting address: CYDEV_CLK_SELECT */
 254:Generated_Source\PSoC4/cyfitter_cfg.c **** 	CY_SET_REG32((void *)(CYREG_CLK_SELECT), 0x00040000u);
 255:Generated_Source\PSoC4/cyfitter_cfg.c **** 
 256:Generated_Source\PSoC4/cyfitter_cfg.c **** 	/* CYDEV_PERI_PCLK_CTL14 Starting address: CYDEV_PERI_PCLK_CTL14 */
 257:Generated_Source\PSoC4/cyfitter_cfg.c **** 	CY_SET_REG32((void *)(CYREG_PERI_PCLK_CTL14), 0x00000042u);
 258:Generated_Source\PSoC4/cyfitter_cfg.c **** 
 259:Generated_Source\PSoC4/cyfitter_cfg.c **** 	/* CYDEV_PERI_PCLK_CTL12 Starting address: CYDEV_PERI_PCLK_CTL12 */
 260:Generated_Source\PSoC4/cyfitter_cfg.c **** 	CY_SET_REG32((void *)(CYREG_PERI_PCLK_CTL12), 0x00000040u);
 261:Generated_Source\PSoC4/cyfitter_cfg.c **** 
 262:Generated_Source\PSoC4/cyfitter_cfg.c **** 	/* CYDEV_PERI_PCLK_CTL10 Starting address: CYDEV_PERI_PCLK_CTL10 */
 263:Generated_Source\PSoC4/cyfitter_cfg.c **** 	CY_SET_REG32((void *)(CYREG_PERI_PCLK_CTL10), 0x00000040u);
 264:Generated_Source\PSoC4/cyfitter_cfg.c **** 
 265:Generated_Source\PSoC4/cyfitter_cfg.c **** 	/* CYDEV_PERI_PCLK_CTL9 Starting address: CYDEV_PERI_PCLK_CTL9 */
 266:Generated_Source\PSoC4/cyfitter_cfg.c **** 	CY_SET_REG32((void *)(CYREG_PERI_PCLK_CTL9), 0x00000040u);
 267:Generated_Source\PSoC4/cyfitter_cfg.c **** 
 268:Generated_Source\PSoC4/cyfitter_cfg.c **** 	/* CYDEV_PERI_PCLK_CTL8 Starting address: CYDEV_PERI_PCLK_CTL8 */
 269:Generated_Source\PSoC4/cyfitter_cfg.c **** 	CY_SET_REG32((void *)(CYREG_PERI_PCLK_CTL8), 0x00000040u);
 270:Generated_Source\PSoC4/cyfitter_cfg.c **** 
 271:Generated_Source\PSoC4/cyfitter_cfg.c **** 	/* CYDEV_PERI_PCLK_CTL7 Starting address: CYDEV_PERI_PCLK_CTL7 */
 272:Generated_Source\PSoC4/cyfitter_cfg.c **** 	CY_SET_REG32((void *)(CYREG_PERI_PCLK_CTL7), 0x00000040u);
 273:Generated_Source\PSoC4/cyfitter_cfg.c **** 
 274:Generated_Source\PSoC4/cyfitter_cfg.c **** 	/* CYDEV_PERI_PCLK_CTL1 Starting address: CYDEV_PERI_PCLK_CTL1 */
 275:Generated_Source\PSoC4/cyfitter_cfg.c **** 	CY_SET_REG32((void *)(CYREG_PERI_PCLK_CTL1), 0x00000041u);
 276:Generated_Source\PSoC4/cyfitter_cfg.c **** 
 277:Generated_Source\PSoC4/cyfitter_cfg.c **** 	(void)CyIntSetVector(8u, &CySysWdtIsr);
 278:Generated_Source\PSoC4/cyfitter_cfg.c **** 	CyIntEnable(8u);
 279:Generated_Source\PSoC4/cyfitter_cfg.c **** 	CY_SET_REG32((void *)(CYREG_WDT_CONFIG), 0x40000000u);
 280:Generated_Source\PSoC4/cyfitter_cfg.c **** }
 281:Generated_Source\PSoC4/cyfitter_cfg.c **** 
 282:Generated_Source\PSoC4/cyfitter_cfg.c **** 
 283:Generated_Source\PSoC4/cyfitter_cfg.c **** /* Analog API Functions */
 284:Generated_Source\PSoC4/cyfitter_cfg.c **** 
 285:Generated_Source\PSoC4/cyfitter_cfg.c **** 
 286:Generated_Source\PSoC4/cyfitter_cfg.c **** /*******************************************************************************
 287:Generated_Source\PSoC4/cyfitter_cfg.c **** * Function Name: AnalogSetDefault
 288:Generated_Source\PSoC4/cyfitter_cfg.c **** ********************************************************************************
 289:Generated_Source\PSoC4/cyfitter_cfg.c **** *
 290:Generated_Source\PSoC4/cyfitter_cfg.c **** * Summary:
 291:Generated_Source\PSoC4/cyfitter_cfg.c **** *  Sets up the analog portions of the chip to default values based on chip
 292:Generated_Source\PSoC4/cyfitter_cfg.c **** *  configuration options from the project.
 293:Generated_Source\PSoC4/cyfitter_cfg.c **** *
ARM GAS  C:\Windows\TEMP\ccKNjEsk.s 			page 8


 294:Generated_Source\PSoC4/cyfitter_cfg.c **** * Parameters:
 295:Generated_Source\PSoC4/cyfitter_cfg.c **** *  void
 296:Generated_Source\PSoC4/cyfitter_cfg.c **** *
 297:Generated_Source\PSoC4/cyfitter_cfg.c **** * Return:
 298:Generated_Source\PSoC4/cyfitter_cfg.c **** *  void
 299:Generated_Source\PSoC4/cyfitter_cfg.c **** *
 300:Generated_Source\PSoC4/cyfitter_cfg.c **** *******************************************************************************/
 301:Generated_Source\PSoC4/cyfitter_cfg.c **** static void AnalogSetDefault(void);
 302:Generated_Source\PSoC4/cyfitter_cfg.c **** static void AnalogSetDefault(void)
 303:Generated_Source\PSoC4/cyfitter_cfg.c **** {
 104              		.loc 1 303 0
 105              		.cfi_startproc
 106              		@ args = 0, pretend = 0, frame = 0
 107              		@ frame_needed = 0, uses_anonymous_args = 0
 108              		@ link register save eliminated.
 304:Generated_Source\PSoC4/cyfitter_cfg.c **** 	CY_SET_XTND_REG32((void CYFAR *)CYREG_CTBM0_DFT_CTRL, 0x00000003u);
 109              		.loc 1 304 0
 110 0000 0323     		movs	r3, #3
 111 0002 044A     		ldr	r2, .L7
 112 0004 1360     		str	r3, [r2]
 305:Generated_Source\PSoC4/cyfitter_cfg.c **** 	CY_SET_XTND_REG32((void CYFAR *)CYREG_CTBM1_DFT_CTRL, 0x00000003u);
 113              		.loc 1 305 0
 114 0006 044A     		ldr	r2, .L7+4
 115 0008 1360     		str	r3, [r2]
 306:Generated_Source\PSoC4/cyfitter_cfg.c **** 	CY_SET_XTND_REG32((void CYFAR *)CYREG_PASS_DSAB_DSAB_CTRL, 0x00000000u);
 116              		.loc 1 306 0
 117 000a 0022     		movs	r2, #0
 118 000c 034B     		ldr	r3, .L7+8
 119 000e 1A60     		str	r2, [r3]
 307:Generated_Source\PSoC4/cyfitter_cfg.c **** }
 120              		.loc 1 307 0
 121              		@ sp needed
 122 0010 7047     		bx	lr
 123              	.L8:
 124 0012 C046     		.align	2
 125              	.L7:
 126 0014 30003040 		.word	1076887600
 127 0018 30003140 		.word	1076953136
 128 001c 000E3F40 		.word	1077874176
 129              		.cfi_endproc
 130              	.LFE7:
 131              		.size	AnalogSetDefault, .-AnalogSetDefault
 132              		.section	.text.CYMEMZERO,"ax",%progbits
 133              		.align	2
 134              		.code	16
 135              		.thumb_func
 136              		.type	CYMEMZERO, %function
 137              	CYMEMZERO:
 138              	.LFB2:
  77:Generated_Source\PSoC4/cyfitter_cfg.c **** 	(void)memset(s, 0, n);
 139              		.loc 1 77 0
 140              		.cfi_startproc
 141              		@ args = 0, pretend = 0, frame = 0
 142              		@ frame_needed = 0, uses_anonymous_args = 0
 143              	.LVL12:
 144 0000 10B5     		push	{r4, lr}
 145              		.cfi_def_cfa_offset 8
ARM GAS  C:\Windows\TEMP\ccKNjEsk.s 			page 9


 146              		.cfi_offset 4, -8
 147              		.cfi_offset 14, -4
 148 0002 0A00     		movs	r2, r1
  78:Generated_Source\PSoC4/cyfitter_cfg.c **** }
 149              		.loc 1 78 0
 150 0004 0021     		movs	r1, #0
 151              	.LVL13:
 152 0006 FFF7FEFF 		bl	memset
 153              	.LVL14:
  79:Generated_Source\PSoC4/cyfitter_cfg.c **** CY_CFG_UNUSED
 154              		.loc 1 79 0
 155              		@ sp needed
 156 000a 10BD     		pop	{r4, pc}
 157              		.cfi_endproc
 158              	.LFE2:
 159              		.size	CYMEMZERO, .-CYMEMZERO
 160              		.section	.text.CYCONFIGCPYCODE,"ax",%progbits
 161              		.align	2
 162              		.code	16
 163              		.thumb_func
 164              		.type	CYCONFIGCPYCODE, %function
 165              	CYCONFIGCPYCODE:
 166              	.LFB4:
  91:Generated_Source\PSoC4/cyfitter_cfg.c **** 	(void)memcpy(dest, src, n);
 167              		.loc 1 91 0
 168              		.cfi_startproc
 169              		@ args = 0, pretend = 0, frame = 0
 170              		@ frame_needed = 0, uses_anonymous_args = 0
 171              	.LVL15:
 172 0000 10B5     		push	{r4, lr}
 173              		.cfi_def_cfa_offset 8
 174              		.cfi_offset 4, -8
 175              		.cfi_offset 14, -4
  92:Generated_Source\PSoC4/cyfitter_cfg.c **** }
 176              		.loc 1 92 0
 177 0002 FFF7FEFF 		bl	memcpy
 178              	.LVL16:
  93:Generated_Source\PSoC4/cyfitter_cfg.c **** 
 179              		.loc 1 93 0
 180              		@ sp needed
 181 0006 10BD     		pop	{r4, pc}
 182              		.cfi_endproc
 183              	.LFE4:
 184              		.size	CYCONFIGCPYCODE, .-CYCONFIGCPYCODE
 185              		.section	.psocinit,"ax",%progbits
 186              		.align	2
 187              		.code	16
 188              		.thumb_func
 189              		.type	ClockSetup, %function
 190              	ClockSetup:
 191              	.LFB6:
 212:Generated_Source\PSoC4/cyfitter_cfg.c **** 
 192              		.loc 1 212 0
 193              		.cfi_startproc
 194              		@ args = 0, pretend = 0, frame = 0
 195              		@ frame_needed = 0, uses_anonymous_args = 0
 196 0000 70B5     		push	{r4, r5, r6, lr}
ARM GAS  C:\Windows\TEMP\ccKNjEsk.s 			page 10


 197              		.cfi_def_cfa_offset 16
 198              		.cfi_offset 4, -16
 199              		.cfi_offset 5, -12
 200              		.cfi_offset 6, -8
 201              		.cfi_offset 14, -4
 215:Generated_Source\PSoC4/cyfitter_cfg.c **** 
 202              		.loc 1 215 0
 203 0002 1222     		movs	r2, #18
 204 0004 2F4B     		ldr	r3, .L12
 205 0006 1A60     		str	r2, [r3]
 218:Generated_Source\PSoC4/cyfitter_cfg.c **** 	CyDelayCycles(12000000u); /* WCO may take up to 500ms to start */
 206              		.loc 1 218 0
 207 0008 FFF7FEFF 		bl	CySysClkWcoStart
 208              	.LVL17:
 219:Generated_Source\PSoC4/cyfitter_cfg.c **** 	(void)CySysClkWcoSetPowerMode(CY_SYS_CLK_WCO_LPM);    /* Switch to the low power mode */
 209              		.loc 1 219 0
 210 000c 2E48     		ldr	r0, .L12+4
 211 000e FFF7FEFF 		bl	CyDelayCycles
 212              	.LVL18:
 220:Generated_Source\PSoC4/cyfitter_cfg.c **** 
 213              		.loc 1 220 0
 214 0012 0120     		movs	r0, #1
 215 0014 FFF7FEFF 		bl	CySysClkWcoSetPowerMode
 216              	.LVL19:
 223:Generated_Source\PSoC4/cyfitter_cfg.c **** 	/* CYDEV_CLK_ILO_CONFIG Starting address: CYDEV_CLK_ILO_CONFIG */
 217              		.loc 1 223 0
 218 0018 3020     		movs	r0, #48
 219 001a FFF7FEFF 		bl	CySysClkWriteImoFreq
 220              	.LVL20:
 225:Generated_Source\PSoC4/cyfitter_cfg.c **** 
 221              		.loc 1 225 0
 222 001e 2B4A     		ldr	r2, .L12+8
 223 0020 2B4B     		ldr	r3, .L12+12
 224 0022 1A60     		str	r2, [r3]
 228:Generated_Source\PSoC4/cyfitter_cfg.c **** 
 225              		.loc 1 228 0
 226 0024 2B4C     		ldr	r4, .L12+16
 227 0026 8025     		movs	r5, #128
 228 0028 ED05     		lsls	r5, r5, #23
 229 002a 2560     		str	r5, [r4]
 232:Generated_Source\PSoC4/cyfitter_cfg.c **** 	CY_SET_REG32((void *)(CYREG_BLE_BLERD_BB_XO_CAPTRIM), 0x00003E2Du);
 230              		.loc 1 232 0
 231 002c 2A4A     		ldr	r2, .L12+20
 232 002e 1168     		ldr	r1, [r2]
 233 0030 0223     		movs	r3, #2
 234 0032 0B43     		orrs	r3, r1
 235 0034 1360     		str	r3, [r2]
 233:Generated_Source\PSoC4/cyfitter_cfg.c **** 	/*Set XTAL(ECO) divider*/
 236              		.loc 1 233 0
 237 0036 294A     		ldr	r2, .L12+24
 238 0038 294B     		ldr	r3, .L12+28
 239 003a 1A60     		str	r2, [r3]
 235:Generated_Source\PSoC4/cyfitter_cfg.c **** 	/* Disable Crystal Stable Interrupt before enabling ECO */
 240              		.loc 1 235 0
 241 003c 0022     		movs	r2, #0
 242 003e 294B     		ldr	r3, .L12+32
 243 0040 1A60     		str	r2, [r3]
ARM GAS  C:\Windows\TEMP\ccKNjEsk.s 			page 11


 237:Generated_Source\PSoC4/cyfitter_cfg.c **** 	/* Start the ECO and do not check status since it is not needed for HFCLK */
 244              		.loc 1 237 0
 245 0042 294A     		ldr	r2, .L12+36
 246 0044 1368     		ldr	r3, [r2]
 247 0046 0821     		movs	r1, #8
 248 0048 8B43     		bics	r3, r1
 249 004a 1360     		str	r3, [r2]
 239:Generated_Source\PSoC4/cyfitter_cfg.c **** 	CyDelayUs(1500u); /* Wait to stabilize */
 250              		.loc 1 239 0
 251 004c FA20     		movs	r0, #250
 252 004e C000     		lsls	r0, r0, #3
 253 0050 FFF7FEFF 		bl	CySysClkEcoStart
 254              	.LVL21:
 240:Generated_Source\PSoC4/cyfitter_cfg.c **** 
 255              		.loc 1 240 0
 256 0054 2548     		ldr	r0, .L12+40
 257 0056 FFF7FEFF 		bl	CyDelayUs
 258              	.LVL22:
 243:Generated_Source\PSoC4/cyfitter_cfg.c **** 	CY_SET_REG32((void *)CYREG_PERI_DIV_CMD, 0x8000FF42u);
 259              		.loc 1 243 0
 260 005a BE22     		movs	r2, #190
 261 005c D201     		lsls	r2, r2, #7
 262 005e 244B     		ldr	r3, .L12+44
 263 0060 1A60     		str	r2, [r3]
 244:Generated_Source\PSoC4/cyfitter_cfg.c **** 	CY_SET_REG32((void *)CYREG_PERI_DIV_16_CTL0, 0x00000100u);
 264              		.loc 1 244 0
 265 0062 244B     		ldr	r3, .L12+48
 266 0064 244A     		ldr	r2, .L12+52
 267 0066 1A60     		str	r2, [r3]
 245:Generated_Source\PSoC4/cyfitter_cfg.c **** 	CY_SET_REG32((void *)CYREG_PERI_DIV_CMD, 0x8000FF40u);
 268              		.loc 1 245 0
 269 0068 8021     		movs	r1, #128
 270 006a 4900     		lsls	r1, r1, #1
 271 006c 234A     		ldr	r2, .L12+56
 272 006e 1160     		str	r1, [r2]
 246:Generated_Source\PSoC4/cyfitter_cfg.c **** 	CY_SET_REG32((void *)CYREG_PERI_DIV_16_CTL1, 0x00002200u);
 273              		.loc 1 246 0
 274 0070 234A     		ldr	r2, .L12+60
 275 0072 1A60     		str	r2, [r3]
 247:Generated_Source\PSoC4/cyfitter_cfg.c **** 	CY_SET_REG32((void *)CYREG_PERI_DIV_CMD, 0x8000FF41u);
 276              		.loc 1 247 0
 277 0074 8821     		movs	r1, #136
 278 0076 8901     		lsls	r1, r1, #6
 279 0078 224A     		ldr	r2, .L12+64
 280 007a 1160     		str	r1, [r2]
 248:Generated_Source\PSoC4/cyfitter_cfg.c **** 
 281              		.loc 1 248 0
 282 007c 224A     		ldr	r2, .L12+68
 283 007e 1A60     		str	r2, [r3]
 251:Generated_Source\PSoC4/cyfitter_cfg.c **** 
 284              		.loc 1 251 0
 285 0080 8022     		movs	r2, #128
 286 0082 1206     		lsls	r2, r2, #24
 287 0084 214B     		ldr	r3, .L12+72
 288 0086 1A60     		str	r2, [r3]
 254:Generated_Source\PSoC4/cyfitter_cfg.c **** 
 289              		.loc 1 254 0
ARM GAS  C:\Windows\TEMP\ccKNjEsk.s 			page 12


 290 0088 8022     		movs	r2, #128
 291 008a D202     		lsls	r2, r2, #11
 292 008c 204B     		ldr	r3, .L12+76
 293 008e 1A60     		str	r2, [r3]
 257:Generated_Source\PSoC4/cyfitter_cfg.c **** 
 294              		.loc 1 257 0
 295 0090 4222     		movs	r2, #66
 296 0092 204B     		ldr	r3, .L12+80
 297 0094 1A60     		str	r2, [r3]
 260:Generated_Source\PSoC4/cyfitter_cfg.c **** 
 298              		.loc 1 260 0
 299 0096 4023     		movs	r3, #64
 300 0098 1F4A     		ldr	r2, .L12+84
 301 009a 1360     		str	r3, [r2]
 263:Generated_Source\PSoC4/cyfitter_cfg.c **** 
 302              		.loc 1 263 0
 303 009c 1F4A     		ldr	r2, .L12+88
 304 009e 1360     		str	r3, [r2]
 266:Generated_Source\PSoC4/cyfitter_cfg.c **** 
 305              		.loc 1 266 0
 306 00a0 1F4A     		ldr	r2, .L12+92
 307 00a2 1360     		str	r3, [r2]
 269:Generated_Source\PSoC4/cyfitter_cfg.c **** 
 308              		.loc 1 269 0
 309 00a4 1F4A     		ldr	r2, .L12+96
 310 00a6 1360     		str	r3, [r2]
 272:Generated_Source\PSoC4/cyfitter_cfg.c **** 
 311              		.loc 1 272 0
 312 00a8 1F4A     		ldr	r2, .L12+100
 313 00aa 1360     		str	r3, [r2]
 275:Generated_Source\PSoC4/cyfitter_cfg.c **** 
 314              		.loc 1 275 0
 315 00ac 4122     		movs	r2, #65
 316 00ae 1F4B     		ldr	r3, .L12+104
 317 00b0 1A60     		str	r2, [r3]
 277:Generated_Source\PSoC4/cyfitter_cfg.c **** 	CyIntEnable(8u);
 318              		.loc 1 277 0
 319 00b2 1F49     		ldr	r1, .L12+108
 320 00b4 0820     		movs	r0, #8
 321 00b6 FFF7FEFF 		bl	CyIntSetVector
 322              	.LVL23:
 278:Generated_Source\PSoC4/cyfitter_cfg.c **** 	CY_SET_REG32((void *)(CYREG_WDT_CONFIG), 0x40000000u);
 323              		.loc 1 278 0
 324 00ba 0820     		movs	r0, #8
 325 00bc FFF7FEFF 		bl	CyIntEnable
 326              	.LVL24:
 279:Generated_Source\PSoC4/cyfitter_cfg.c **** }
 327              		.loc 1 279 0
 328 00c0 2560     		str	r5, [r4]
 280:Generated_Source\PSoC4/cyfitter_cfg.c **** 
 329              		.loc 1 280 0
 330              		@ sp needed
 331 00c2 70BD     		pop	{r4, r5, r6, pc}
 332              	.L13:
 333              		.align	2
 334              	.L12:
 335 00c4 30001040 		.word	1074790448
ARM GAS  C:\Windows\TEMP\ccKNjEsk.s 			page 13


 336 00c8 001BB700 		.word	12000000
 337 00cc 06000080 		.word	-2147483642
 338 00d0 04010B40 		.word	1074462980
 339 00d4 0C020B40 		.word	1074463244
 340 00d8 78002E40 		.word	1076756600
 341 00dc 2D3E0000 		.word	15917
 342 00e0 7C002E40 		.word	1076756604
 343 00e4 64F02E40 		.word	1076818020
 344 00e8 6CF02E40 		.word	1076818028
 345 00ec DC050000 		.word	1500
 346 00f0 08030140 		.word	1073808136
 347 00f4 00000140 		.word	1073807360
 348 00f8 42FF0080 		.word	-2147418302
 349 00fc 00030140 		.word	1073808128
 350 0100 40FF0080 		.word	-2147418304
 351 0104 04030140 		.word	1073808132
 352 0108 41FF0080 		.word	-2147418303
 353 010c 08010B40 		.word	1074462984
 354 0110 00010B40 		.word	1074462976
 355 0114 38010140 		.word	1073807672
 356 0118 30010140 		.word	1073807664
 357 011c 28010140 		.word	1073807656
 358 0120 24010140 		.word	1073807652
 359 0124 20010140 		.word	1073807648
 360 0128 1C010140 		.word	1073807644
 361 012c 04010140 		.word	1073807620
 362 0130 00000000 		.word	CySysWdtIsr
 363              		.cfi_endproc
 364              	.LFE6:
 365              		.size	ClockSetup, .-ClockSetup
 366              		.align	2
 367              		.global	cyfitter_cfg
 368              		.code	16
 369              		.thumb_func
 370              		.type	cyfitter_cfg, %function
 371              	cyfitter_cfg:
 372              	.LFB8:
 308:Generated_Source\PSoC4/cyfitter_cfg.c **** 
 309:Generated_Source\PSoC4/cyfitter_cfg.c **** 
 310:Generated_Source\PSoC4/cyfitter_cfg.c **** 
 311:Generated_Source\PSoC4/cyfitter_cfg.c **** 
 312:Generated_Source\PSoC4/cyfitter_cfg.c **** /*******************************************************************************
 313:Generated_Source\PSoC4/cyfitter_cfg.c **** * Function Name: cyfitter_cfg
 314:Generated_Source\PSoC4/cyfitter_cfg.c **** ********************************************************************************
 315:Generated_Source\PSoC4/cyfitter_cfg.c **** * Summary:
 316:Generated_Source\PSoC4/cyfitter_cfg.c **** *  This function is called by the start-up code for the selected device. It
 317:Generated_Source\PSoC4/cyfitter_cfg.c **** *  performs all of the necessary device configuration based on the design
 318:Generated_Source\PSoC4/cyfitter_cfg.c **** *  settings.  This includes settings from the Design Wide Resources (DWR) such
 319:Generated_Source\PSoC4/cyfitter_cfg.c **** *  as Clocks and Pins as well as any component configuration that is necessary.
 320:Generated_Source\PSoC4/cyfitter_cfg.c **** *
 321:Generated_Source\PSoC4/cyfitter_cfg.c **** * Parameters:
 322:Generated_Source\PSoC4/cyfitter_cfg.c **** *   void
 323:Generated_Source\PSoC4/cyfitter_cfg.c **** *
 324:Generated_Source\PSoC4/cyfitter_cfg.c **** * Return:
 325:Generated_Source\PSoC4/cyfitter_cfg.c **** *   void
 326:Generated_Source\PSoC4/cyfitter_cfg.c **** *
 327:Generated_Source\PSoC4/cyfitter_cfg.c **** *******************************************************************************/
ARM GAS  C:\Windows\TEMP\ccKNjEsk.s 			page 14


 328:Generated_Source\PSoC4/cyfitter_cfg.c **** CY_CFG_SECTION
 329:Generated_Source\PSoC4/cyfitter_cfg.c **** void cyfitter_cfg(void)
 330:Generated_Source\PSoC4/cyfitter_cfg.c **** {
 373              		.loc 1 330 0
 374              		.cfi_startproc
 375              		@ args = 0, pretend = 0, frame = 0
 376              		@ frame_needed = 0, uses_anonymous_args = 0
 377 0134 70B5     		push	{r4, r5, r6, lr}
 378              		.cfi_def_cfa_offset 16
 379              		.cfi_offset 4, -16
 380              		.cfi_offset 5, -12
 381              		.cfi_offset 6, -8
 382              		.cfi_offset 14, -4
 331:Generated_Source\PSoC4/cyfitter_cfg.c **** 	/* Disable interrupts by default. Let user enable if/when they want. */
 332:Generated_Source\PSoC4/cyfitter_cfg.c **** 	CyGlobalIntDisable;
 383              		.loc 1 332 0
 384              		.syntax divided
 385              	@ 332 "Generated_Source\PSoC4\cyfitter_cfg.c" 1
 386 0136 72B6     		CPSID   i
 387              	@ 0 "" 2
 333:Generated_Source\PSoC4/cyfitter_cfg.c **** 
 334:Generated_Source\PSoC4/cyfitter_cfg.c **** 	CY_SET_REG32((void *)(CYREG_BLE_BLESS_LL_DSM_CTRL), 0x00000000u);
 388              		.loc 1 334 0
 389              		.thumb
 390              		.syntax unified
 391 0138 0022     		movs	r2, #0
 392 013a 454B     		ldr	r3, .L19
 393 013c 1A60     		str	r2, [r3]
 335:Generated_Source\PSoC4/cyfitter_cfg.c **** 
 336:Generated_Source\PSoC4/cyfitter_cfg.c **** 	/* Enable the clock in the interrupt controller for the routed interrupts */
 337:Generated_Source\PSoC4/cyfitter_cfg.c **** 	CY_SET_REG8((void *)CYREG_UDB_UDBIF_INT_CLK_CTL, 0x01u);
 394              		.loc 1 337 0
 395 013e 0132     		adds	r2, r2, #1
 396 0140 444B     		ldr	r3, .L19+4
 397 0142 1A70     		strb	r2, [r3]
 398              	.LVL25:
 399              	.LBB3:
 338:Generated_Source\PSoC4/cyfitter_cfg.c **** 	{
 339:Generated_Source\PSoC4/cyfitter_cfg.c **** 		static const uint32 CYCODE cy_cfg_addr_table[] = {
 340:Generated_Source\PSoC4/cyfitter_cfg.c **** 			0x400F0002u, /* Base address: 0x400F0000 Count: 2 */
 341:Generated_Source\PSoC4/cyfitter_cfg.c **** 			0x400F3032u, /* Base address: 0x400F3000 Count: 50 */
 342:Generated_Source\PSoC4/cyfitter_cfg.c **** 			0x400F314Cu, /* Base address: 0x400F3100 Count: 76 */
 343:Generated_Source\PSoC4/cyfitter_cfg.c **** 			0x400F323Au, /* Base address: 0x400F3200 Count: 58 */
 344:Generated_Source\PSoC4/cyfitter_cfg.c **** 			0x400F3353u, /* Base address: 0x400F3300 Count: 83 */
 345:Generated_Source\PSoC4/cyfitter_cfg.c **** 			0x400F400Au, /* Base address: 0x400F4000 Count: 10 */
 346:Generated_Source\PSoC4/cyfitter_cfg.c **** 			0x400F4112u, /* Base address: 0x400F4100 Count: 18 */
 347:Generated_Source\PSoC4/cyfitter_cfg.c **** 			0x400F4211u, /* Base address: 0x400F4200 Count: 17 */
 348:Generated_Source\PSoC4/cyfitter_cfg.c **** 			0x400F430Du, /* Base address: 0x400F4300 Count: 13 */
 349:Generated_Source\PSoC4/cyfitter_cfg.c **** 			0x400F6002u, /* Base address: 0x400F6000 Count: 2 */
 350:Generated_Source\PSoC4/cyfitter_cfg.c **** 		};
 351:Generated_Source\PSoC4/cyfitter_cfg.c **** 
 352:Generated_Source\PSoC4/cyfitter_cfg.c **** 		static const cy_cfg_addrvalue_t CYCODE cy_cfg_data_table[] = {
 353:Generated_Source\PSoC4/cyfitter_cfg.c **** 			{0x70u, 0x0Fu},
 354:Generated_Source\PSoC4/cyfitter_cfg.c **** 			{0x80u, 0x03u},
 355:Generated_Source\PSoC4/cyfitter_cfg.c **** 			{0x07u, 0x08u},
 356:Generated_Source\PSoC4/cyfitter_cfg.c **** 			{0x0Eu, 0x06u},
 357:Generated_Source\PSoC4/cyfitter_cfg.c **** 			{0x0Fu, 0x01u},
ARM GAS  C:\Windows\TEMP\ccKNjEsk.s 			page 15


 358:Generated_Source\PSoC4/cyfitter_cfg.c **** 			{0x11u, 0x02u},
 359:Generated_Source\PSoC4/cyfitter_cfg.c **** 			{0x13u, 0x04u},
 360:Generated_Source\PSoC4/cyfitter_cfg.c **** 			{0x15u, 0x08u},
 361:Generated_Source\PSoC4/cyfitter_cfg.c **** 			{0x17u, 0x01u},
 362:Generated_Source\PSoC4/cyfitter_cfg.c **** 			{0x1Bu, 0x01u},
 363:Generated_Source\PSoC4/cyfitter_cfg.c **** 			{0x22u, 0x01u},
 364:Generated_Source\PSoC4/cyfitter_cfg.c **** 			{0x24u, 0x02u},
 365:Generated_Source\PSoC4/cyfitter_cfg.c **** 			{0x26u, 0x04u},
 366:Generated_Source\PSoC4/cyfitter_cfg.c **** 			{0x2Fu, 0x06u},
 367:Generated_Source\PSoC4/cyfitter_cfg.c **** 			{0x30u, 0x01u},
 368:Generated_Source\PSoC4/cyfitter_cfg.c **** 			{0x31u, 0x02u},
 369:Generated_Source\PSoC4/cyfitter_cfg.c **** 			{0x32u, 0x02u},
 370:Generated_Source\PSoC4/cyfitter_cfg.c **** 			{0x33u, 0x08u},
 371:Generated_Source\PSoC4/cyfitter_cfg.c **** 			{0x35u, 0x01u},
 372:Generated_Source\PSoC4/cyfitter_cfg.c **** 			{0x36u, 0x04u},
 373:Generated_Source\PSoC4/cyfitter_cfg.c **** 			{0x37u, 0x04u},
 374:Generated_Source\PSoC4/cyfitter_cfg.c **** 			{0x3Eu, 0x44u},
 375:Generated_Source\PSoC4/cyfitter_cfg.c **** 			{0x3Fu, 0x41u},
 376:Generated_Source\PSoC4/cyfitter_cfg.c **** 			{0x40u, 0x62u},
 377:Generated_Source\PSoC4/cyfitter_cfg.c **** 			{0x41u, 0x03u},
 378:Generated_Source\PSoC4/cyfitter_cfg.c **** 			{0x46u, 0x26u},
 379:Generated_Source\PSoC4/cyfitter_cfg.c **** 			{0x48u, 0x0Cu},
 380:Generated_Source\PSoC4/cyfitter_cfg.c **** 			{0x49u, 0xFFu},
 381:Generated_Source\PSoC4/cyfitter_cfg.c **** 			{0x4Au, 0xFFu},
 382:Generated_Source\PSoC4/cyfitter_cfg.c **** 			{0x4Bu, 0xFFu},
 383:Generated_Source\PSoC4/cyfitter_cfg.c **** 			{0x4Cu, 0xEAu},
 384:Generated_Source\PSoC4/cyfitter_cfg.c **** 			{0x4Du, 0x04u},
 385:Generated_Source\PSoC4/cyfitter_cfg.c **** 			{0x4Fu, 0x04u},
 386:Generated_Source\PSoC4/cyfitter_cfg.c **** 			{0x50u, 0x08u},
 387:Generated_Source\PSoC4/cyfitter_cfg.c **** 			{0x54u, 0x03u},
 388:Generated_Source\PSoC4/cyfitter_cfg.c **** 			{0x56u, 0x04u},
 389:Generated_Source\PSoC4/cyfitter_cfg.c **** 			{0x58u, 0x04u},
 390:Generated_Source\PSoC4/cyfitter_cfg.c **** 			{0x59u, 0x0Eu},
 391:Generated_Source\PSoC4/cyfitter_cfg.c **** 			{0x5Au, 0x0Eu},
 392:Generated_Source\PSoC4/cyfitter_cfg.c **** 			{0x5Bu, 0x04u},
 393:Generated_Source\PSoC4/cyfitter_cfg.c **** 			{0x5Cu, 0x31u},
 394:Generated_Source\PSoC4/cyfitter_cfg.c **** 			{0x5Du, 0x13u},
 395:Generated_Source\PSoC4/cyfitter_cfg.c **** 			{0x5Fu, 0x01u},
 396:Generated_Source\PSoC4/cyfitter_cfg.c **** 			{0x66u, 0xA0u},
 397:Generated_Source\PSoC4/cyfitter_cfg.c **** 			{0x68u, 0x40u},
 398:Generated_Source\PSoC4/cyfitter_cfg.c **** 			{0x69u, 0x40u},
 399:Generated_Source\PSoC4/cyfitter_cfg.c **** 			{0x6Au, 0x90u},
 400:Generated_Source\PSoC4/cyfitter_cfg.c **** 			{0x6Bu, 0x50u},
 401:Generated_Source\PSoC4/cyfitter_cfg.c **** 			{0x6Cu, 0x60u},
 402:Generated_Source\PSoC4/cyfitter_cfg.c **** 			{0x6Du, 0x40u},
 403:Generated_Source\PSoC4/cyfitter_cfg.c **** 			{0x6Eu, 0xA0u},
 404:Generated_Source\PSoC4/cyfitter_cfg.c **** 			{0x6Fu, 0x08u},
 405:Generated_Source\PSoC4/cyfitter_cfg.c **** 			{0x00u, 0x80u},
 406:Generated_Source\PSoC4/cyfitter_cfg.c **** 			{0x04u, 0x02u},
 407:Generated_Source\PSoC4/cyfitter_cfg.c **** 			{0x05u, 0x20u},
 408:Generated_Source\PSoC4/cyfitter_cfg.c **** 			{0x07u, 0x21u},
 409:Generated_Source\PSoC4/cyfitter_cfg.c **** 			{0x0Eu, 0x4Au},
 410:Generated_Source\PSoC4/cyfitter_cfg.c **** 			{0x12u, 0x40u},
 411:Generated_Source\PSoC4/cyfitter_cfg.c **** 			{0x13u, 0x08u},
 412:Generated_Source\PSoC4/cyfitter_cfg.c **** 			{0x14u, 0x80u},
 413:Generated_Source\PSoC4/cyfitter_cfg.c **** 			{0x18u, 0x50u},
 414:Generated_Source\PSoC4/cyfitter_cfg.c **** 			{0x19u, 0x80u},
ARM GAS  C:\Windows\TEMP\ccKNjEsk.s 			page 16


 415:Generated_Source\PSoC4/cyfitter_cfg.c **** 			{0x1Du, 0x80u},
 416:Generated_Source\PSoC4/cyfitter_cfg.c **** 			{0x1Eu, 0x50u},
 417:Generated_Source\PSoC4/cyfitter_cfg.c **** 			{0x1Fu, 0x20u},
 418:Generated_Source\PSoC4/cyfitter_cfg.c **** 			{0x20u, 0x08u},
 419:Generated_Source\PSoC4/cyfitter_cfg.c **** 			{0x22u, 0x0Au},
 420:Generated_Source\PSoC4/cyfitter_cfg.c **** 			{0x23u, 0x01u},
 421:Generated_Source\PSoC4/cyfitter_cfg.c **** 			{0x26u, 0x20u},
 422:Generated_Source\PSoC4/cyfitter_cfg.c **** 			{0x27u, 0x52u},
 423:Generated_Source\PSoC4/cyfitter_cfg.c **** 			{0x28u, 0x02u},
 424:Generated_Source\PSoC4/cyfitter_cfg.c **** 			{0x2Cu, 0x80u},
 425:Generated_Source\PSoC4/cyfitter_cfg.c **** 			{0x2Fu, 0x02u},
 426:Generated_Source\PSoC4/cyfitter_cfg.c **** 			{0x31u, 0x20u},
 427:Generated_Source\PSoC4/cyfitter_cfg.c **** 			{0x32u, 0x09u},
 428:Generated_Source\PSoC4/cyfitter_cfg.c **** 			{0x34u, 0x08u},
 429:Generated_Source\PSoC4/cyfitter_cfg.c **** 			{0x36u, 0x10u},
 430:Generated_Source\PSoC4/cyfitter_cfg.c **** 			{0x37u, 0x42u},
 431:Generated_Source\PSoC4/cyfitter_cfg.c **** 			{0x38u, 0x80u},
 432:Generated_Source\PSoC4/cyfitter_cfg.c **** 			{0x39u, 0x04u},
 433:Generated_Source\PSoC4/cyfitter_cfg.c **** 			{0x3Au, 0x08u},
 434:Generated_Source\PSoC4/cyfitter_cfg.c **** 			{0x3Cu, 0x20u},
 435:Generated_Source\PSoC4/cyfitter_cfg.c **** 			{0x3Fu, 0x06u},
 436:Generated_Source\PSoC4/cyfitter_cfg.c **** 			{0x41u, 0x20u},
 437:Generated_Source\PSoC4/cyfitter_cfg.c **** 			{0x42u, 0x20u},
 438:Generated_Source\PSoC4/cyfitter_cfg.c **** 			{0x46u, 0x20u},
 439:Generated_Source\PSoC4/cyfitter_cfg.c **** 			{0x47u, 0x10u},
 440:Generated_Source\PSoC4/cyfitter_cfg.c **** 			{0x48u, 0x04u},
 441:Generated_Source\PSoC4/cyfitter_cfg.c **** 			{0x4Bu, 0x10u},
 442:Generated_Source\PSoC4/cyfitter_cfg.c **** 			{0x4Eu, 0x08u},
 443:Generated_Source\PSoC4/cyfitter_cfg.c **** 			{0x4Fu, 0x04u},
 444:Generated_Source\PSoC4/cyfitter_cfg.c **** 			{0x50u, 0x40u},
 445:Generated_Source\PSoC4/cyfitter_cfg.c **** 			{0x51u, 0x20u},
 446:Generated_Source\PSoC4/cyfitter_cfg.c **** 			{0x56u, 0x20u},
 447:Generated_Source\PSoC4/cyfitter_cfg.c **** 			{0x59u, 0x40u},
 448:Generated_Source\PSoC4/cyfitter_cfg.c **** 			{0x5Au, 0x10u},
 449:Generated_Source\PSoC4/cyfitter_cfg.c **** 			{0x60u, 0x80u},
 450:Generated_Source\PSoC4/cyfitter_cfg.c **** 			{0x69u, 0x80u},
 451:Generated_Source\PSoC4/cyfitter_cfg.c **** 			{0x6Au, 0x02u},
 452:Generated_Source\PSoC4/cyfitter_cfg.c **** 			{0x6Bu, 0x28u},
 453:Generated_Source\PSoC4/cyfitter_cfg.c **** 			{0x6Cu, 0x01u},
 454:Generated_Source\PSoC4/cyfitter_cfg.c **** 			{0x6Du, 0x10u},
 455:Generated_Source\PSoC4/cyfitter_cfg.c **** 			{0x6Eu, 0x0Au},
 456:Generated_Source\PSoC4/cyfitter_cfg.c **** 			{0x76u, 0x48u},
 457:Generated_Source\PSoC4/cyfitter_cfg.c **** 			{0x77u, 0x01u},
 458:Generated_Source\PSoC4/cyfitter_cfg.c **** 			{0x79u, 0x04u},
 459:Generated_Source\PSoC4/cyfitter_cfg.c **** 			{0x7Du, 0x04u},
 460:Generated_Source\PSoC4/cyfitter_cfg.c **** 			{0x80u, 0x90u},
 461:Generated_Source\PSoC4/cyfitter_cfg.c **** 			{0x82u, 0x02u},
 462:Generated_Source\PSoC4/cyfitter_cfg.c **** 			{0x84u, 0x04u},
 463:Generated_Source\PSoC4/cyfitter_cfg.c **** 			{0x87u, 0x01u},
 464:Generated_Source\PSoC4/cyfitter_cfg.c **** 			{0x88u, 0x40u},
 465:Generated_Source\PSoC4/cyfitter_cfg.c **** 			{0x89u, 0x20u},
 466:Generated_Source\PSoC4/cyfitter_cfg.c **** 			{0x8Du, 0x80u},
 467:Generated_Source\PSoC4/cyfitter_cfg.c **** 			{0xC0u, 0xF1u},
 468:Generated_Source\PSoC4/cyfitter_cfg.c **** 			{0xC2u, 0xD0u},
 469:Generated_Source\PSoC4/cyfitter_cfg.c **** 			{0xC4u, 0x1Cu},
 470:Generated_Source\PSoC4/cyfitter_cfg.c **** 			{0xCAu, 0x98u},
 471:Generated_Source\PSoC4/cyfitter_cfg.c **** 			{0xCCu, 0xF7u},
ARM GAS  C:\Windows\TEMP\ccKNjEsk.s 			page 17


 472:Generated_Source\PSoC4/cyfitter_cfg.c **** 			{0xCEu, 0xEAu},
 473:Generated_Source\PSoC4/cyfitter_cfg.c **** 			{0xD0u, 0x66u},
 474:Generated_Source\PSoC4/cyfitter_cfg.c **** 			{0xD2u, 0x24u},
 475:Generated_Source\PSoC4/cyfitter_cfg.c **** 			{0xD6u, 0x0Cu},
 476:Generated_Source\PSoC4/cyfitter_cfg.c **** 			{0xD8u, 0x01u},
 477:Generated_Source\PSoC4/cyfitter_cfg.c **** 			{0xDEu, 0x42u},
 478:Generated_Source\PSoC4/cyfitter_cfg.c **** 			{0xE0u, 0x01u},
 479:Generated_Source\PSoC4/cyfitter_cfg.c **** 			{0xE2u, 0x08u},
 480:Generated_Source\PSoC4/cyfitter_cfg.c **** 			{0xE4u, 0x01u},
 481:Generated_Source\PSoC4/cyfitter_cfg.c **** 			{0x82u, 0x01u},
 482:Generated_Source\PSoC4/cyfitter_cfg.c **** 			{0x84u, 0x12u},
 483:Generated_Source\PSoC4/cyfitter_cfg.c **** 			{0x86u, 0x24u},
 484:Generated_Source\PSoC4/cyfitter_cfg.c **** 			{0x8Du, 0x01u},
 485:Generated_Source\PSoC4/cyfitter_cfg.c **** 			{0x8Eu, 0x80u},
 486:Generated_Source\PSoC4/cyfitter_cfg.c **** 			{0x8Fu, 0x02u},
 487:Generated_Source\PSoC4/cyfitter_cfg.c **** 			{0x92u, 0x10u},
 488:Generated_Source\PSoC4/cyfitter_cfg.c **** 			{0x94u, 0x20u},
 489:Generated_Source\PSoC4/cyfitter_cfg.c **** 			{0x96u, 0x5Cu},
 490:Generated_Source\PSoC4/cyfitter_cfg.c **** 			{0x97u, 0x03u},
 491:Generated_Source\PSoC4/cyfitter_cfg.c **** 			{0x98u, 0x20u},
 492:Generated_Source\PSoC4/cyfitter_cfg.c **** 			{0x9Au, 0x42u},
 493:Generated_Source\PSoC4/cyfitter_cfg.c **** 			{0xA2u, 0x0Au},
 494:Generated_Source\PSoC4/cyfitter_cfg.c **** 			{0xA4u, 0x0Eu},
 495:Generated_Source\PSoC4/cyfitter_cfg.c **** 			{0xA6u, 0x10u},
 496:Generated_Source\PSoC4/cyfitter_cfg.c **** 			{0xAAu, 0x80u},
 497:Generated_Source\PSoC4/cyfitter_cfg.c **** 			{0xB0u, 0x01u},
 498:Generated_Source\PSoC4/cyfitter_cfg.c **** 			{0xB2u, 0x7Eu},
 499:Generated_Source\PSoC4/cyfitter_cfg.c **** 			{0xB3u, 0x02u},
 500:Generated_Source\PSoC4/cyfitter_cfg.c **** 			{0xB4u, 0x40u},
 501:Generated_Source\PSoC4/cyfitter_cfg.c **** 			{0xB6u, 0x80u},
 502:Generated_Source\PSoC4/cyfitter_cfg.c **** 			{0xB7u, 0x01u},
 503:Generated_Source\PSoC4/cyfitter_cfg.c **** 			{0xBEu, 0x40u},
 504:Generated_Source\PSoC4/cyfitter_cfg.c **** 			{0xBFu, 0x44u},
 505:Generated_Source\PSoC4/cyfitter_cfg.c **** 			{0xC0u, 0x52u},
 506:Generated_Source\PSoC4/cyfitter_cfg.c **** 			{0xC1u, 0x03u},
 507:Generated_Source\PSoC4/cyfitter_cfg.c **** 			{0xC2u, 0x06u},
 508:Generated_Source\PSoC4/cyfitter_cfg.c **** 			{0xC5u, 0x90u},
 509:Generated_Source\PSoC4/cyfitter_cfg.c **** 			{0xC8u, 0x02u},
 510:Generated_Source\PSoC4/cyfitter_cfg.c **** 			{0xC9u, 0xFFu},
 511:Generated_Source\PSoC4/cyfitter_cfg.c **** 			{0xCAu, 0xFFu},
 512:Generated_Source\PSoC4/cyfitter_cfg.c **** 			{0xCBu, 0xFFu},
 513:Generated_Source\PSoC4/cyfitter_cfg.c **** 			{0xCCu, 0x0Fu},
 514:Generated_Source\PSoC4/cyfitter_cfg.c **** 			{0xCDu, 0x0Fu},
 515:Generated_Source\PSoC4/cyfitter_cfg.c **** 			{0xCEu, 0x0Fu},
 516:Generated_Source\PSoC4/cyfitter_cfg.c **** 			{0xCFu, 0x01u},
 517:Generated_Source\PSoC4/cyfitter_cfg.c **** 			{0xD8u, 0x0Eu},
 518:Generated_Source\PSoC4/cyfitter_cfg.c **** 			{0xD9u, 0x04u},
 519:Generated_Source\PSoC4/cyfitter_cfg.c **** 			{0xDAu, 0x0Eu},
 520:Generated_Source\PSoC4/cyfitter_cfg.c **** 			{0xDCu, 0x03u},
 521:Generated_Source\PSoC4/cyfitter_cfg.c **** 			{0xDDu, 0x03u},
 522:Generated_Source\PSoC4/cyfitter_cfg.c **** 			{0xDFu, 0x01u},
 523:Generated_Source\PSoC4/cyfitter_cfg.c **** 			{0xE0u, 0x40u},
 524:Generated_Source\PSoC4/cyfitter_cfg.c **** 			{0xE1u, 0xA8u},
 525:Generated_Source\PSoC4/cyfitter_cfg.c **** 			{0xE2u, 0x40u},
 526:Generated_Source\PSoC4/cyfitter_cfg.c **** 			{0xE3u, 0x20u},
 527:Generated_Source\PSoC4/cyfitter_cfg.c **** 			{0xE4u, 0x40u},
 528:Generated_Source\PSoC4/cyfitter_cfg.c **** 			{0xE5u, 0xA8u},
ARM GAS  C:\Windows\TEMP\ccKNjEsk.s 			page 18


 529:Generated_Source\PSoC4/cyfitter_cfg.c **** 			{0xE6u, 0x40u},
 530:Generated_Source\PSoC4/cyfitter_cfg.c **** 			{0xE7u, 0x20u},
 531:Generated_Source\PSoC4/cyfitter_cfg.c **** 			{0xE8u, 0x40u},
 532:Generated_Source\PSoC4/cyfitter_cfg.c **** 			{0xE9u, 0x20u},
 533:Generated_Source\PSoC4/cyfitter_cfg.c **** 			{0xEAu, 0x10u},
 534:Generated_Source\PSoC4/cyfitter_cfg.c **** 			{0xEBu, 0x80u},
 535:Generated_Source\PSoC4/cyfitter_cfg.c **** 			{0xECu, 0x40u},
 536:Generated_Source\PSoC4/cyfitter_cfg.c **** 			{0xEDu, 0xA8u},
 537:Generated_Source\PSoC4/cyfitter_cfg.c **** 			{0xEEu, 0x40u},
 538:Generated_Source\PSoC4/cyfitter_cfg.c **** 			{0xEFu, 0xA8u},
 539:Generated_Source\PSoC4/cyfitter_cfg.c **** 			{0x00u, 0x42u},
 540:Generated_Source\PSoC4/cyfitter_cfg.c **** 			{0x01u, 0x08u},
 541:Generated_Source\PSoC4/cyfitter_cfg.c **** 			{0x04u, 0x20u},
 542:Generated_Source\PSoC4/cyfitter_cfg.c **** 			{0x05u, 0x01u},
 543:Generated_Source\PSoC4/cyfitter_cfg.c **** 			{0x07u, 0x10u},
 544:Generated_Source\PSoC4/cyfitter_cfg.c **** 			{0x09u, 0x07u},
 545:Generated_Source\PSoC4/cyfitter_cfg.c **** 			{0x0Bu, 0x08u},
 546:Generated_Source\PSoC4/cyfitter_cfg.c **** 			{0x0Du, 0x0Au},
 547:Generated_Source\PSoC4/cyfitter_cfg.c **** 			{0x0Fu, 0x08u},
 548:Generated_Source\PSoC4/cyfitter_cfg.c **** 			{0x10u, 0x90u},
 549:Generated_Source\PSoC4/cyfitter_cfg.c **** 			{0x11u, 0x10u},
 550:Generated_Source\PSoC4/cyfitter_cfg.c **** 			{0x12u, 0x20u},
 551:Generated_Source\PSoC4/cyfitter_cfg.c **** 			{0x13u, 0x08u},
 552:Generated_Source\PSoC4/cyfitter_cfg.c **** 			{0x17u, 0x0Au},
 553:Generated_Source\PSoC4/cyfitter_cfg.c **** 			{0x18u, 0x20u},
 554:Generated_Source\PSoC4/cyfitter_cfg.c **** 			{0x19u, 0x6Au},
 555:Generated_Source\PSoC4/cyfitter_cfg.c **** 			{0x1Du, 0x0Au},
 556:Generated_Source\PSoC4/cyfitter_cfg.c **** 			{0x1Eu, 0x04u},
 557:Generated_Source\PSoC4/cyfitter_cfg.c **** 			{0x1Fu, 0x04u},
 558:Generated_Source\PSoC4/cyfitter_cfg.c **** 			{0x22u, 0x44u},
 559:Generated_Source\PSoC4/cyfitter_cfg.c **** 			{0x25u, 0x04u},
 560:Generated_Source\PSoC4/cyfitter_cfg.c **** 			{0x26u, 0x80u},
 561:Generated_Source\PSoC4/cyfitter_cfg.c **** 			{0x27u, 0x32u},
 562:Generated_Source\PSoC4/cyfitter_cfg.c **** 			{0x2Cu, 0x10u},
 563:Generated_Source\PSoC4/cyfitter_cfg.c **** 			{0x2Du, 0x02u},
 564:Generated_Source\PSoC4/cyfitter_cfg.c **** 			{0x2Fu, 0x04u},
 565:Generated_Source\PSoC4/cyfitter_cfg.c **** 			{0x30u, 0x04u},
 566:Generated_Source\PSoC4/cyfitter_cfg.c **** 			{0x35u, 0x09u},
 567:Generated_Source\PSoC4/cyfitter_cfg.c **** 			{0x36u, 0x80u},
 568:Generated_Source\PSoC4/cyfitter_cfg.c **** 			{0x37u, 0x20u},
 569:Generated_Source\PSoC4/cyfitter_cfg.c **** 			{0x39u, 0x80u},
 570:Generated_Source\PSoC4/cyfitter_cfg.c **** 			{0x3Du, 0x02u},
 571:Generated_Source\PSoC4/cyfitter_cfg.c **** 			{0x3Eu, 0x08u},
 572:Generated_Source\PSoC4/cyfitter_cfg.c **** 			{0x3Fu, 0x90u},
 573:Generated_Source\PSoC4/cyfitter_cfg.c **** 			{0x41u, 0x08u},
 574:Generated_Source\PSoC4/cyfitter_cfg.c **** 			{0x43u, 0x10u},
 575:Generated_Source\PSoC4/cyfitter_cfg.c **** 			{0x45u, 0x08u},
 576:Generated_Source\PSoC4/cyfitter_cfg.c **** 			{0x47u, 0x20u},
 577:Generated_Source\PSoC4/cyfitter_cfg.c **** 			{0x48u, 0x80u},
 578:Generated_Source\PSoC4/cyfitter_cfg.c **** 			{0x49u, 0x21u},
 579:Generated_Source\PSoC4/cyfitter_cfg.c **** 			{0x4Bu, 0x40u},
 580:Generated_Source\PSoC4/cyfitter_cfg.c **** 			{0x4Du, 0x60u},
 581:Generated_Source\PSoC4/cyfitter_cfg.c **** 			{0x4Fu, 0x48u},
 582:Generated_Source\PSoC4/cyfitter_cfg.c **** 			{0x57u, 0x40u},
 583:Generated_Source\PSoC4/cyfitter_cfg.c **** 			{0x6Eu, 0x20u},
 584:Generated_Source\PSoC4/cyfitter_cfg.c **** 			{0x6Fu, 0x02u},
 585:Generated_Source\PSoC4/cyfitter_cfg.c **** 			{0x74u, 0x01u},
ARM GAS  C:\Windows\TEMP\ccKNjEsk.s 			page 19


 586:Generated_Source\PSoC4/cyfitter_cfg.c **** 			{0x79u, 0x04u},
 587:Generated_Source\PSoC4/cyfitter_cfg.c **** 			{0x7Du, 0x04u},
 588:Generated_Source\PSoC4/cyfitter_cfg.c **** 			{0x81u, 0x48u},
 589:Generated_Source\PSoC4/cyfitter_cfg.c **** 			{0x82u, 0x40u},
 590:Generated_Source\PSoC4/cyfitter_cfg.c **** 			{0x86u, 0x04u},
 591:Generated_Source\PSoC4/cyfitter_cfg.c **** 			{0x8Au, 0x04u},
 592:Generated_Source\PSoC4/cyfitter_cfg.c **** 			{0x8Bu, 0x10u},
 593:Generated_Source\PSoC4/cyfitter_cfg.c **** 			{0x8Fu, 0x20u},
 594:Generated_Source\PSoC4/cyfitter_cfg.c **** 			{0x90u, 0x40u},
 595:Generated_Source\PSoC4/cyfitter_cfg.c **** 			{0x91u, 0x94u},
 596:Generated_Source\PSoC4/cyfitter_cfg.c **** 			{0x93u, 0x10u},
 597:Generated_Source\PSoC4/cyfitter_cfg.c **** 			{0x98u, 0x04u},
 598:Generated_Source\PSoC4/cyfitter_cfg.c **** 			{0x9Au, 0x08u},
 599:Generated_Source\PSoC4/cyfitter_cfg.c **** 			{0x9Du, 0x40u},
 600:Generated_Source\PSoC4/cyfitter_cfg.c **** 			{0xA2u, 0x20u},
 601:Generated_Source\PSoC4/cyfitter_cfg.c **** 			{0xA3u, 0x20u},
 602:Generated_Source\PSoC4/cyfitter_cfg.c **** 			{0xA6u, 0x10u},
 603:Generated_Source\PSoC4/cyfitter_cfg.c **** 			{0xA7u, 0x02u},
 604:Generated_Source\PSoC4/cyfitter_cfg.c **** 			{0xABu, 0x01u},
 605:Generated_Source\PSoC4/cyfitter_cfg.c **** 			{0xACu, 0x10u},
 606:Generated_Source\PSoC4/cyfitter_cfg.c **** 			{0xB1u, 0x80u},
 607:Generated_Source\PSoC4/cyfitter_cfg.c **** 			{0xB4u, 0x0Au},
 608:Generated_Source\PSoC4/cyfitter_cfg.c **** 			{0xC0u, 0x7Du},
 609:Generated_Source\PSoC4/cyfitter_cfg.c **** 			{0xC2u, 0x7Eu},
 610:Generated_Source\PSoC4/cyfitter_cfg.c **** 			{0xC4u, 0x3Eu},
 611:Generated_Source\PSoC4/cyfitter_cfg.c **** 			{0xCAu, 0xE0u},
 612:Generated_Source\PSoC4/cyfitter_cfg.c **** 			{0xCCu, 0xF2u},
 613:Generated_Source\PSoC4/cyfitter_cfg.c **** 			{0xCEu, 0xF8u},
 614:Generated_Source\PSoC4/cyfitter_cfg.c **** 			{0xD0u, 0x66u},
 615:Generated_Source\PSoC4/cyfitter_cfg.c **** 			{0xD2u, 0x3Cu},
 616:Generated_Source\PSoC4/cyfitter_cfg.c **** 			{0xDEu, 0x42u},
 617:Generated_Source\PSoC4/cyfitter_cfg.c **** 			{0xE2u, 0x40u},
 618:Generated_Source\PSoC4/cyfitter_cfg.c **** 			{0xE4u, 0x01u},
 619:Generated_Source\PSoC4/cyfitter_cfg.c **** 			{0xE6u, 0x80u},
 620:Generated_Source\PSoC4/cyfitter_cfg.c **** 			{0xE8u, 0x41u},
 621:Generated_Source\PSoC4/cyfitter_cfg.c **** 			{0xEAu, 0x20u},
 622:Generated_Source\PSoC4/cyfitter_cfg.c **** 			{0x03u, 0x82u},
 623:Generated_Source\PSoC4/cyfitter_cfg.c **** 			{0x07u, 0x10u},
 624:Generated_Source\PSoC4/cyfitter_cfg.c **** 			{0x0Au, 0x20u},
 625:Generated_Source\PSoC4/cyfitter_cfg.c **** 			{0x0Fu, 0x80u},
 626:Generated_Source\PSoC4/cyfitter_cfg.c **** 			{0x83u, 0x40u},
 627:Generated_Source\PSoC4/cyfitter_cfg.c **** 			{0x87u, 0x80u},
 628:Generated_Source\PSoC4/cyfitter_cfg.c **** 			{0xC0u, 0x70u},
 629:Generated_Source\PSoC4/cyfitter_cfg.c **** 			{0xC2u, 0x30u},
 630:Generated_Source\PSoC4/cyfitter_cfg.c **** 			{0xE0u, 0x20u},
 631:Generated_Source\PSoC4/cyfitter_cfg.c **** 			{0xE4u, 0x10u},
 632:Generated_Source\PSoC4/cyfitter_cfg.c **** 			{0x53u, 0x10u},
 633:Generated_Source\PSoC4/cyfitter_cfg.c **** 			{0x57u, 0x04u},
 634:Generated_Source\PSoC4/cyfitter_cfg.c **** 			{0x6Bu, 0x80u},
 635:Generated_Source\PSoC4/cyfitter_cfg.c **** 			{0x6Fu, 0x10u},
 636:Generated_Source\PSoC4/cyfitter_cfg.c **** 			{0x77u, 0x08u},
 637:Generated_Source\PSoC4/cyfitter_cfg.c **** 			{0x87u, 0x80u},
 638:Generated_Source\PSoC4/cyfitter_cfg.c **** 			{0x8Bu, 0x08u},
 639:Generated_Source\PSoC4/cyfitter_cfg.c **** 			{0x8Fu, 0x04u},
 640:Generated_Source\PSoC4/cyfitter_cfg.c **** 			{0x93u, 0x20u},
 641:Generated_Source\PSoC4/cyfitter_cfg.c **** 			{0x9Bu, 0x10u},
 642:Generated_Source\PSoC4/cyfitter_cfg.c **** 			{0xAFu, 0x02u},
ARM GAS  C:\Windows\TEMP\ccKNjEsk.s 			page 20


 643:Generated_Source\PSoC4/cyfitter_cfg.c **** 			{0xB3u, 0x10u},
 644:Generated_Source\PSoC4/cyfitter_cfg.c **** 			{0xB6u, 0x10u},
 645:Generated_Source\PSoC4/cyfitter_cfg.c **** 			{0xD4u, 0x60u},
 646:Generated_Source\PSoC4/cyfitter_cfg.c **** 			{0xDAu, 0x80u},
 647:Generated_Source\PSoC4/cyfitter_cfg.c **** 			{0xDCu, 0x60u},
 648:Generated_Source\PSoC4/cyfitter_cfg.c **** 			{0xE2u, 0x40u},
 649:Generated_Source\PSoC4/cyfitter_cfg.c **** 			{0xE8u, 0x10u},
 650:Generated_Source\PSoC4/cyfitter_cfg.c **** 			{0x11u, 0x02u},
 651:Generated_Source\PSoC4/cyfitter_cfg.c **** 			{0x13u, 0x40u},
 652:Generated_Source\PSoC4/cyfitter_cfg.c **** 			{0x15u, 0x08u},
 653:Generated_Source\PSoC4/cyfitter_cfg.c **** 			{0x17u, 0x80u},
 654:Generated_Source\PSoC4/cyfitter_cfg.c **** 			{0x55u, 0x08u},
 655:Generated_Source\PSoC4/cyfitter_cfg.c **** 			{0x5Au, 0x80u},
 656:Generated_Source\PSoC4/cyfitter_cfg.c **** 			{0x5Cu, 0x10u},
 657:Generated_Source\PSoC4/cyfitter_cfg.c **** 			{0x82u, 0x44u},
 658:Generated_Source\PSoC4/cyfitter_cfg.c **** 			{0x85u, 0x04u},
 659:Generated_Source\PSoC4/cyfitter_cfg.c **** 			{0x8Bu, 0xC0u},
 660:Generated_Source\PSoC4/cyfitter_cfg.c **** 			{0x8Du, 0x20u},
 661:Generated_Source\PSoC4/cyfitter_cfg.c **** 			{0xC4u, 0x0Fu},
 662:Generated_Source\PSoC4/cyfitter_cfg.c **** 			{0xD4u, 0x03u},
 663:Generated_Source\PSoC4/cyfitter_cfg.c **** 			{0xD6u, 0x04u},
 664:Generated_Source\PSoC4/cyfitter_cfg.c **** 			{0xE2u, 0x04u},
 665:Generated_Source\PSoC4/cyfitter_cfg.c **** 			{0xE4u, 0x02u},
 666:Generated_Source\PSoC4/cyfitter_cfg.c **** 			{0xE6u, 0x04u},
 667:Generated_Source\PSoC4/cyfitter_cfg.c **** 			{0x51u, 0x20u},
 668:Generated_Source\PSoC4/cyfitter_cfg.c **** 			{0x56u, 0x04u},
 669:Generated_Source\PSoC4/cyfitter_cfg.c **** 			{0x59u, 0x40u},
 670:Generated_Source\PSoC4/cyfitter_cfg.c **** 			{0x80u, 0x10u},
 671:Generated_Source\PSoC4/cyfitter_cfg.c **** 			{0x89u, 0x40u},
 672:Generated_Source\PSoC4/cyfitter_cfg.c **** 			{0x94u, 0x10u},
 673:Generated_Source\PSoC4/cyfitter_cfg.c **** 			{0x9Au, 0x04u},
 674:Generated_Source\PSoC4/cyfitter_cfg.c **** 			{0xA1u, 0x20u},
 675:Generated_Source\PSoC4/cyfitter_cfg.c **** 			{0xA9u, 0x08u},
 676:Generated_Source\PSoC4/cyfitter_cfg.c **** 			{0xB5u, 0x01u},
 677:Generated_Source\PSoC4/cyfitter_cfg.c **** 			{0xD4u, 0x07u},
 678:Generated_Source\PSoC4/cyfitter_cfg.c **** 			{0xE0u, 0x01u},
 679:Generated_Source\PSoC4/cyfitter_cfg.c **** 			{0xEAu, 0x08u},
 680:Generated_Source\PSoC4/cyfitter_cfg.c **** 			{0x01u, 0x0Au},
 681:Generated_Source\PSoC4/cyfitter_cfg.c **** 			{0x10u, 0x0Au},
 682:Generated_Source\PSoC4/cyfitter_cfg.c **** 		};
 683:Generated_Source\PSoC4/cyfitter_cfg.c **** 
 684:Generated_Source\PSoC4/cyfitter_cfg.c **** 
 685:Generated_Source\PSoC4/cyfitter_cfg.c **** 
 686:Generated_Source\PSoC4/cyfitter_cfg.c **** 		CYPACKED typedef struct {
 687:Generated_Source\PSoC4/cyfitter_cfg.c **** 			void CYFAR *address;
 688:Generated_Source\PSoC4/cyfitter_cfg.c **** 			uint16 size;
 689:Generated_Source\PSoC4/cyfitter_cfg.c **** 		} CYPACKED_ATTR cfg_memset_t;
 690:Generated_Source\PSoC4/cyfitter_cfg.c **** 
 691:Generated_Source\PSoC4/cyfitter_cfg.c **** 
 692:Generated_Source\PSoC4/cyfitter_cfg.c **** 		CYPACKED typedef struct {
 693:Generated_Source\PSoC4/cyfitter_cfg.c **** 			void CYFAR *dest;
 694:Generated_Source\PSoC4/cyfitter_cfg.c **** 			const void CYCODE *src;
 695:Generated_Source\PSoC4/cyfitter_cfg.c **** 			uint16 size;
 696:Generated_Source\PSoC4/cyfitter_cfg.c **** 		} CYPACKED_ATTR cfg_memcpy_t;
 697:Generated_Source\PSoC4/cyfitter_cfg.c **** 
 698:Generated_Source\PSoC4/cyfitter_cfg.c **** 		static const cfg_memset_t CYCODE cfg_memset_list[] = {
 699:Generated_Source\PSoC4/cyfitter_cfg.c **** 			/* address, size */
ARM GAS  C:\Windows\TEMP\ccKNjEsk.s 			page 21


 700:Generated_Source\PSoC4/cyfitter_cfg.c **** 			{(void CYFAR *)(CYDEV_UDB_P0_U0_BASE), 128u},
 701:Generated_Source\PSoC4/cyfitter_cfg.c **** 			{(void CYFAR *)(CYDEV_UDB_P0_ROUTE_BASE), 256u},
 702:Generated_Source\PSoC4/cyfitter_cfg.c **** 			{(void CYFAR *)(CYDEV_UDB_P1_U1_BASE), 384u},
 703:Generated_Source\PSoC4/cyfitter_cfg.c **** 			{(void CYFAR *)(CYDEV_UDB_DSI0_BASE), 1024u},
 704:Generated_Source\PSoC4/cyfitter_cfg.c **** 		};
 705:Generated_Source\PSoC4/cyfitter_cfg.c **** 
 706:Generated_Source\PSoC4/cyfitter_cfg.c **** 		/* UDB_0_1_1_CONFIG Address: CYDEV_UDB_P0_U1_BASE Size (bytes): 128 */
 707:Generated_Source\PSoC4/cyfitter_cfg.c **** 		static const uint8 CYCODE BS_UDB_0_1_1_CONFIG_VAL[] = {
 708:Generated_Source\PSoC4/cyfitter_cfg.c **** 			0x00u, 0x00u, 0x01u, 0x01u, 0x04u, 0x00u, 0x08u, 0xC0u, 0x00u, 0x00u, 0x0Cu, 0x02u, 0x00u, 0x00u
 709:Generated_Source\PSoC4/cyfitter_cfg.c **** 			0x00u, 0x50u, 0x02u, 0xA0u, 0x00u, 0x00u, 0x00u, 0x08u, 0x00u, 0x03u, 0x10u, 0x0Cu, 0x02u, 0x00u
 710:Generated_Source\PSoC4/cyfitter_cfg.c **** 			0x00u, 0x00u, 0x03u, 0x04u, 0x00u, 0x00u, 0x00u, 0x00u, 0x00u, 0x00u, 0x00u, 0x00u, 0x00u, 0x05u
 711:Generated_Source\PSoC4/cyfitter_cfg.c **** 			0x03u, 0x0Fu, 0x10u, 0x10u, 0x04u, 0x80u, 0x08u, 0x60u, 0x00u, 0x08u, 0x00u, 0x00u, 0x00u, 0x00u
 712:Generated_Source\PSoC4/cyfitter_cfg.c **** 			0x32u, 0x06u, 0x00u, 0x00u, 0x00u, 0x02u, 0x60u, 0x00u, 0x09u, 0xFFu, 0xFFu, 0xFFu, 0xEAu, 0x04u
 713:Generated_Source\PSoC4/cyfitter_cfg.c **** 			0x08u, 0x00u, 0xBFu, 0x18u, 0x00u, 0x00u, 0x00u, 0x00u, 0x04u, 0x0Eu, 0x0Eu, 0x04u, 0x31u, 0x13u
 714:Generated_Source\PSoC4/cyfitter_cfg.c **** 			0x40u, 0x40u, 0x80u, 0x00u, 0x60u, 0x40u, 0xA0u, 0x00u, 0x10u, 0x50u, 0x90u, 0x50u, 0x20u, 0x00u
 715:Generated_Source\PSoC4/cyfitter_cfg.c **** 			0x00u, 0x00u, 0x00u, 0x00u, 0x00u, 0x00u, 0x00u, 0x00u, 0x00u, 0x00u, 0x00u, 0x00u, 0x00u, 0x00u
 716:Generated_Source\PSoC4/cyfitter_cfg.c **** 
 717:Generated_Source\PSoC4/cyfitter_cfg.c **** 		/* UDB_0_0_1_CONFIG Address: CYDEV_UDB_P1_U0_BASE Size (bytes): 128 */
 718:Generated_Source\PSoC4/cyfitter_cfg.c **** 		static const uint8 CYCODE BS_UDB_0_0_1_CONFIG_VAL[] = {
 719:Generated_Source\PSoC4/cyfitter_cfg.c **** 			0x00u, 0x08u, 0x08u, 0x00u, 0x22u, 0x00u, 0x1Cu, 0x40u, 0x06u, 0x80u, 0x30u, 0x40u, 0x00u, 0x01u
 720:Generated_Source\PSoC4/cyfitter_cfg.c **** 			0x04u, 0x00u, 0x02u, 0x20u, 0x1Eu, 0x2Cu, 0x20u, 0x10u, 0x02u, 0x35u, 0x01u, 0x0Au, 0x00u, 0x00u
 721:Generated_Source\PSoC4/cyfitter_cfg.c **** 			0x00u, 0x80u, 0x02u, 0x00u, 0x08u, 0x02u, 0x14u, 0x04u, 0x00u, 0x1Bu, 0x00u, 0x24u, 0x00u, 0x00u
 722:Generated_Source\PSoC4/cyfitter_cfg.c **** 			0x06u, 0x00u, 0x38u, 0x3Fu, 0x01u, 0x00u, 0x00u, 0xC0u, 0x00u, 0x00u, 0x0Au, 0x00u, 0x00u, 0x00u
 723:Generated_Source\PSoC4/cyfitter_cfg.c **** 			0x52u, 0x03u, 0x06u, 0x00u, 0x00u, 0x0Eu, 0x0Eu, 0x00u, 0x05u, 0xFFu, 0xFFu, 0xFFu, 0x00u, 0x00u
 724:Generated_Source\PSoC4/cyfitter_cfg.c **** 			0x00u, 0x00u, 0x83u, 0x80u, 0x00u, 0x00u, 0x00u, 0x00u, 0x0Eu, 0x0Eu, 0x0Eu, 0x0Eu, 0x33u, 0x33u
 725:Generated_Source\PSoC4/cyfitter_cfg.c **** 			0x40u, 0xA8u, 0x40u, 0x20u, 0x40u, 0xA8u, 0x40u, 0x20u, 0x40u, 0x20u, 0x10u, 0x80u, 0x40u, 0xA8u
 726:Generated_Source\PSoC4/cyfitter_cfg.c **** 			0x00u, 0x00u, 0x00u, 0x00u, 0x00u, 0x00u, 0x00u, 0x00u, 0x00u, 0x00u, 0x00u, 0x00u, 0x00u, 0x00u
 727:Generated_Source\PSoC4/cyfitter_cfg.c **** 
 728:Generated_Source\PSoC4/cyfitter_cfg.c **** 		static const cfg_memcpy_t CYCODE cfg_memcpy_list [] = {
 729:Generated_Source\PSoC4/cyfitter_cfg.c **** 			/* dest, src, size */
 730:Generated_Source\PSoC4/cyfitter_cfg.c **** 			{(void CYFAR *)(CYDEV_UDB_P0_U1_BASE), BS_UDB_0_1_1_CONFIG_VAL, 128u},
 731:Generated_Source\PSoC4/cyfitter_cfg.c **** 			{(void CYFAR *)(CYDEV_UDB_P1_U0_BASE), BS_UDB_0_0_1_CONFIG_VAL, 128u},
 732:Generated_Source\PSoC4/cyfitter_cfg.c **** 		};
 733:Generated_Source\PSoC4/cyfitter_cfg.c **** 
 734:Generated_Source\PSoC4/cyfitter_cfg.c **** 		uint8 CYDATA i;
 735:Generated_Source\PSoC4/cyfitter_cfg.c **** 
 736:Generated_Source\PSoC4/cyfitter_cfg.c **** 		/* Zero out critical memory blocks before beginning configuration */
 737:Generated_Source\PSoC4/cyfitter_cfg.c **** 		for (i = 0u; i < (sizeof(cfg_memset_list)/sizeof(cfg_memset_list[0])); i++)
 400              		.loc 1 737 0
 401 0144 0024     		movs	r4, #0
 402 0146 0FE0     		b	.L15
 403              	.LVL26:
 404              	.L16:
 405              	.LBB4:
 738:Generated_Source\PSoC4/cyfitter_cfg.c **** 		{
 739:Generated_Source\PSoC4/cyfitter_cfg.c **** 			const cfg_memset_t CYCODE * CYDATA ms = &cfg_memset_list[i];
 740:Generated_Source\PSoC4/cyfitter_cfg.c **** 			CYMEMZERO(ms->address, (size_t)(uint32)(ms->size));
 406              		.loc 1 740 0 discriminator 3
 407 0148 4348     		ldr	r0, .L19+8
 408 014a 6200     		lsls	r2, r4, #1
 409 014c 1319     		adds	r3, r2, r4
 410 014e 5900     		lsls	r1, r3, #1
 411 0150 0B00     		movs	r3, r1
 412 0152 4118     		adds	r1, r0, r1
 413 0154 8988     		ldrh	r1, [r1, #4]
 414 0156 1A5A     		ldrh	r2, [r3, r0]
 415 0158 C318     		adds	r3, r0, r3
ARM GAS  C:\Windows\TEMP\ccKNjEsk.s 			page 22


 416 015a 5888     		ldrh	r0, [r3, #2]
 417 015c 0004     		lsls	r0, r0, #16
 418 015e 1043     		orrs	r0, r2
 419 0160 FFF7FEFF 		bl	CYMEMZERO
 420              	.LVL27:
 421              	.LBE4:
 737:Generated_Source\PSoC4/cyfitter_cfg.c **** 		{
 422              		.loc 1 737 0 discriminator 3
 423 0164 0134     		adds	r4, r4, #1
 424              	.LVL28:
 425 0166 E4B2     		uxtb	r4, r4
 426              	.LVL29:
 427              	.L15:
 737:Generated_Source\PSoC4/cyfitter_cfg.c **** 		{
 428              		.loc 1 737 0 is_stmt 0 discriminator 1
 429 0168 032C     		cmp	r4, #3
 430 016a EDD9     		bls	.L16
 431 016c 0024     		movs	r4, #0
 432              	.LVL30:
 433 016e 14E0     		b	.L17
 434              	.LVL31:
 435              	.L18:
 436              	.LBB5:
 741:Generated_Source\PSoC4/cyfitter_cfg.c **** 		}
 742:Generated_Source\PSoC4/cyfitter_cfg.c **** 
 743:Generated_Source\PSoC4/cyfitter_cfg.c **** 		/* Copy device configuration data into registers */
 744:Generated_Source\PSoC4/cyfitter_cfg.c **** 		for (i = 0u; i < (sizeof(cfg_memcpy_list)/sizeof(cfg_memcpy_list[0])); i++)
 745:Generated_Source\PSoC4/cyfitter_cfg.c **** 		{
 746:Generated_Source\PSoC4/cyfitter_cfg.c **** 			const cfg_memcpy_t CYCODE * CYDATA mc = &cfg_memcpy_list[i];
 747:Generated_Source\PSoC4/cyfitter_cfg.c **** 			void * CYDATA destPtr = mc->dest;
 437              		.loc 1 747 0 is_stmt 1 discriminator 3
 438 0170 394E     		ldr	r6, .L19+8
 439 0172 A200     		lsls	r2, r4, #2
 440 0174 1119     		adds	r1, r2, r4
 441 0176 4B00     		lsls	r3, r1, #1
 442 0178 F318     		adds	r3, r6, r3
 443 017a 198B     		ldrh	r1, [r3, #24]
 444 017c 588B     		ldrh	r0, [r3, #26]
 445 017e 0004     		lsls	r0, r0, #16
 446 0180 0843     		orrs	r0, r1
 447              	.LVL32:
 748:Generated_Source\PSoC4/cyfitter_cfg.c **** 			const void CYCODE * CYDATA srcPtr = mc->src;
 448              		.loc 1 748 0 discriminator 3
 449 0182 9D8B     		ldrh	r5, [r3, #28]
 450 0184 D98B     		ldrh	r1, [r3, #30]
 451 0186 0904     		lsls	r1, r1, #16
 452 0188 2943     		orrs	r1, r5
 453              	.LVL33:
 749:Generated_Source\PSoC4/cyfitter_cfg.c **** 			uint16 CYDATA numBytes = mc->size;
 454              		.loc 1 749 0 discriminator 3
 455 018a 1319     		adds	r3, r2, r4
 456 018c 5A00     		lsls	r2, r3, #1
 457 018e B218     		adds	r2, r6, r2
 458 0190 128C     		ldrh	r2, [r2, #32]
 459              	.LVL34:
 750:Generated_Source\PSoC4/cyfitter_cfg.c **** 			CYCONFIGCPYCODE(destPtr, srcPtr, numBytes);
 460              		.loc 1 750 0 discriminator 3
ARM GAS  C:\Windows\TEMP\ccKNjEsk.s 			page 23


 461 0192 FFF7FEFF 		bl	CYCONFIGCPYCODE
 462              	.LVL35:
 463              	.LBE5:
 744:Generated_Source\PSoC4/cyfitter_cfg.c **** 		{
 464              		.loc 1 744 0 discriminator 3
 465 0196 0134     		adds	r4, r4, #1
 466              	.LVL36:
 467 0198 E4B2     		uxtb	r4, r4
 468              	.LVL37:
 469              	.L17:
 744:Generated_Source\PSoC4/cyfitter_cfg.c **** 		{
 470              		.loc 1 744 0 is_stmt 0 discriminator 1
 471 019a 012C     		cmp	r4, #1
 472 019c E8D9     		bls	.L18
 751:Generated_Source\PSoC4/cyfitter_cfg.c **** 		}
 752:Generated_Source\PSoC4/cyfitter_cfg.c **** 
 753:Generated_Source\PSoC4/cyfitter_cfg.c **** 		cfg_write_bytes32(cy_cfg_addr_table, cy_cfg_data_table);
 473              		.loc 1 753 0 is_stmt 1
 474 019e 2E49     		ldr	r1, .L19+8
 475 01a0 2C31     		adds	r1, r1, #44
 476 01a2 2E48     		ldr	r0, .L19+12
 477 01a4 4030     		adds	r0, r0, #64
 478 01a6 FFF7FEFF 		bl	cfg_write_bytes32
 479              	.LVL38:
 754:Generated_Source\PSoC4/cyfitter_cfg.c **** 
 755:Generated_Source\PSoC4/cyfitter_cfg.c **** 		/* HSIOM Starting address: CYDEV_HSIOM_BASE */
 756:Generated_Source\PSoC4/cyfitter_cfg.c **** 		CY_SET_REG32((void *)(CYDEV_HSIOM_BASE), 0xEE000000u);
 480              		.loc 1 756 0
 481 01aa EE22     		movs	r2, #238
 482 01ac 1206     		lsls	r2, r2, #24
 483 01ae 2C4B     		ldr	r3, .L19+16
 484 01b0 1A60     		str	r2, [r3]
 757:Generated_Source\PSoC4/cyfitter_cfg.c **** 		CY_SET_REG32((void *)(CYREG_HSIOM_PORT_SEL1), 0x00990033u);
 485              		.loc 1 757 0
 486 01b2 2C4A     		ldr	r2, .L19+20
 487 01b4 2C4B     		ldr	r3, .L19+24
 488 01b6 1A60     		str	r2, [r3]
 758:Generated_Source\PSoC4/cyfitter_cfg.c **** 		CY_SET_REG32((void *)(CYREG_HSIOM_PORT_SEL2), 0x00003330u);
 489              		.loc 1 758 0
 490 01b8 2C4B     		ldr	r3, .L19+28
 491 01ba 2D4A     		ldr	r2, .L19+32
 492 01bc 1360     		str	r3, [r2]
 759:Generated_Source\PSoC4/cyfitter_cfg.c **** 		CY_SET_REG32((void *)(CYREG_HSIOM_PORT_SEL3), 0x00003330u);
 493              		.loc 1 759 0
 494 01be 2D4A     		ldr	r2, .L19+36
 495 01c0 1360     		str	r3, [r2]
 760:Generated_Source\PSoC4/cyfitter_cfg.c **** 
 761:Generated_Source\PSoC4/cyfitter_cfg.c **** 		/* UDB_PA_0 Starting address: CYDEV_UDB_PA0_BASE */
 762:Generated_Source\PSoC4/cyfitter_cfg.c **** 		CY_SET_REG32((void *)(CYDEV_UDB_PA0_BASE), 0x00990000u);
 496              		.loc 1 762 0
 497 01c2 9923     		movs	r3, #153
 498 01c4 1B04     		lsls	r3, r3, #16
 499 01c6 2C4A     		ldr	r2, .L19+40
 500 01c8 1360     		str	r3, [r2]
 763:Generated_Source\PSoC4/cyfitter_cfg.c **** 
 764:Generated_Source\PSoC4/cyfitter_cfg.c **** 		/* UDB_PA_1 Starting address: CYDEV_UDB_PA1_BASE */
 765:Generated_Source\PSoC4/cyfitter_cfg.c **** 		CY_SET_REG32((void *)(CYDEV_UDB_PA1_BASE), 0x00990000u);
ARM GAS  C:\Windows\TEMP\ccKNjEsk.s 			page 24


 501              		.loc 1 765 0
 502 01ca 2C4A     		ldr	r2, .L19+44
 503 01cc 1360     		str	r3, [r2]
 766:Generated_Source\PSoC4/cyfitter_cfg.c **** 		CY_SET_REG32((void *)(CYREG_UDB_PA1_CFG8), 0x00A40000u);
 504              		.loc 1 766 0
 505 01ce A421     		movs	r1, #164
 506 01d0 0904     		lsls	r1, r1, #16
 507 01d2 2B4A     		ldr	r2, .L19+48
 508 01d4 1160     		str	r1, [r2]
 767:Generated_Source\PSoC4/cyfitter_cfg.c **** 
 768:Generated_Source\PSoC4/cyfitter_cfg.c **** 		/* UDB_PA_2 Starting address: CYDEV_UDB_PA2_BASE */
 769:Generated_Source\PSoC4/cyfitter_cfg.c **** 		CY_SET_REG32((void *)(CYDEV_UDB_PA2_BASE), 0x00990000u);
 509              		.loc 1 769 0
 510 01d6 2B4A     		ldr	r2, .L19+52
 511 01d8 1360     		str	r3, [r2]
 770:Generated_Source\PSoC4/cyfitter_cfg.c **** 		CY_SET_REG32((void *)(CYREG_UDB_PA2_CFG8), 0x006C0000u);
 512              		.loc 1 770 0
 513 01da D821     		movs	r1, #216
 514 01dc C903     		lsls	r1, r1, #15
 515 01de 2A4A     		ldr	r2, .L19+56
 516 01e0 1160     		str	r1, [r2]
 771:Generated_Source\PSoC4/cyfitter_cfg.c **** 
 772:Generated_Source\PSoC4/cyfitter_cfg.c **** 		/* UDB_PA_3 Starting address: CYDEV_UDB_PA3_BASE */
 773:Generated_Source\PSoC4/cyfitter_cfg.c **** 		CY_SET_REG32((void *)(CYDEV_UDB_PA3_BASE), 0x00990000u);
 517              		.loc 1 773 0
 518 01e2 2A4A     		ldr	r2, .L19+60
 519 01e4 1360     		str	r3, [r2]
 774:Generated_Source\PSoC4/cyfitter_cfg.c **** 		CY_SET_REG32((void *)(CYREG_UDB_PA3_CFG8), 0x004B0000u);
 520              		.loc 1 774 0
 521 01e6 9622     		movs	r2, #150
 522 01e8 D203     		lsls	r2, r2, #15
 523 01ea 294B     		ldr	r3, .L19+64
 524 01ec 1A60     		str	r2, [r3]
 775:Generated_Source\PSoC4/cyfitter_cfg.c **** 
 776:Generated_Source\PSoC4/cyfitter_cfg.c **** 		/* INT_SELECT Starting address: CYDEV_CPUSS_INT_SEL */
 777:Generated_Source\PSoC4/cyfitter_cfg.c **** 		CY_SET_REG32((void *)(CYREG_CPUSS_INT_SEL), 0x0000000Eu);
 525              		.loc 1 777 0
 526 01ee 0E21     		movs	r1, #14
 527 01f0 284B     		ldr	r3, .L19+68
 528 01f2 1960     		str	r1, [r3]
 778:Generated_Source\PSoC4/cyfitter_cfg.c **** 
 779:Generated_Source\PSoC4/cyfitter_cfg.c **** 		/* INT_CONFIG Starting address: CYDEV_UDB_INT_CFG */
 780:Generated_Source\PSoC4/cyfitter_cfg.c **** 		CY_SET_REG32((void *)(CYREG_UDB_INT_CFG), 0x0000000Eu);
 529              		.loc 1 780 0
 530 01f4 284B     		ldr	r3, .L19+72
 531 01f6 1960     		str	r1, [r3]
 781:Generated_Source\PSoC4/cyfitter_cfg.c **** 
 782:Generated_Source\PSoC4/cyfitter_cfg.c **** 		/* Enable UDB array and digital routing */
 783:Generated_Source\PSoC4/cyfitter_cfg.c **** 		CY_SET_XTND_REG8((void *)CYREG_UDB_UDBIF_WAIT_CFG, (uint8)((CY_GET_XTND_REG8((void *)CYREG_UDB_UD
 532              		.loc 1 783 0
 533 01f8 2848     		ldr	r0, .L19+76
 534 01fa 0378     		ldrb	r3, [r0]
 535 01fc 3C22     		movs	r2, #60
 536 01fe 9343     		bics	r3, r2
 537 0200 1422     		movs	r2, #20
 538 0202 1343     		orrs	r3, r2
 539 0204 DBB2     		uxtb	r3, r3
ARM GAS  C:\Windows\TEMP\ccKNjEsk.s 			page 25


 540 0206 0370     		strb	r3, [r0]
 784:Generated_Source\PSoC4/cyfitter_cfg.c **** 		CY_SET_XTND_REG8((void *)CYREG_UDB_UDBIF_BANK_CTL, (uint8)(CY_GET_XTND_REG8((void *)CYREG_UDB_UDB
 541              		.loc 1 784 0
 542 0208 254A     		ldr	r2, .L19+80
 543 020a 1078     		ldrb	r0, [r2]
 544 020c 1623     		movs	r3, #22
 545 020e 0343     		orrs	r3, r0
 546 0210 DBB2     		uxtb	r3, r3
 547 0212 1370     		strb	r3, [r2]
 548              	.LBE3:
 785:Generated_Source\PSoC4/cyfitter_cfg.c **** 	}
 786:Generated_Source\PSoC4/cyfitter_cfg.c **** 
 787:Generated_Source\PSoC4/cyfitter_cfg.c **** 	/* Perform second pass device configuration. These items must be configured in specific order afte
 788:Generated_Source\PSoC4/cyfitter_cfg.c **** 	/* IOPINS0_0 Starting address: CYDEV_GPIO_PRT0_BASE */
 789:Generated_Source\PSoC4/cyfitter_cfg.c **** 	CY_SET_REG32((void *)(CYDEV_GPIO_PRT0_BASE), 0x00000037u);
 549              		.loc 1 789 0
 550 0214 3722     		movs	r2, #55
 551 0216 234B     		ldr	r3, .L19+84
 552 0218 1A60     		str	r2, [r3]
 790:Generated_Source\PSoC4/cyfitter_cfg.c **** 	CY_SET_REG32((void *)(CYREG_GPIO_PRT0_PC), 0x00D92C92u);
 553              		.loc 1 790 0
 554 021a 234A     		ldr	r2, .L19+88
 555 021c 234B     		ldr	r3, .L19+92
 556 021e 1A60     		str	r2, [r3]
 791:Generated_Source\PSoC4/cyfitter_cfg.c **** 
 792:Generated_Source\PSoC4/cyfitter_cfg.c **** 	/* IOPINS0_1 Starting address: CYDEV_GPIO_PRT1_BASE */
 793:Generated_Source\PSoC4/cyfitter_cfg.c **** 	CY_SET_REG32((void *)(CYDEV_GPIO_PRT1_BASE), 0x00000023u);
 557              		.loc 1 793 0
 558 0220 2322     		movs	r2, #35
 559 0222 234B     		ldr	r3, .L19+96
 560 0224 1A60     		str	r2, [r3]
 794:Generated_Source\PSoC4/cyfitter_cfg.c **** 	CY_SET_REG32((void *)(CYREG_GPIO_PRT1_PC), 0x00031036u);
 561              		.loc 1 794 0
 562 0226 234A     		ldr	r2, .L19+100
 563 0228 234B     		ldr	r3, .L19+104
 564 022a 1A60     		str	r2, [r3]
 795:Generated_Source\PSoC4/cyfitter_cfg.c **** 	CY_SET_REG32((void *)(CYREG_GPIO_PRT1_PC2), 0x00000020u);
 565              		.loc 1 795 0
 566 022c 2022     		movs	r2, #32
 567 022e 234B     		ldr	r3, .L19+108
 568 0230 1A60     		str	r2, [r3]
 796:Generated_Source\PSoC4/cyfitter_cfg.c **** 
 797:Generated_Source\PSoC4/cyfitter_cfg.c **** 	/* IOPINS0_2 Starting address: CYDEV_GPIO_PRT2_BASE */
 798:Generated_Source\PSoC4/cyfitter_cfg.c **** 	CY_SET_REG32((void *)(CYDEV_GPIO_PRT2_BASE), 0x0000000Eu);
 569              		.loc 1 798 0
 570 0232 234B     		ldr	r3, .L19+112
 571 0234 1960     		str	r1, [r3]
 799:Generated_Source\PSoC4/cyfitter_cfg.c **** 	CY_SET_REG32((void *)(CYREG_GPIO_PRT2_PC), 0x00000DB0u);
 572              		.loc 1 799 0
 573 0236 DB23     		movs	r3, #219
 574 0238 1B01     		lsls	r3, r3, #4
 575 023a 224A     		ldr	r2, .L19+116
 576 023c 1360     		str	r3, [r2]
 800:Generated_Source\PSoC4/cyfitter_cfg.c **** 
 801:Generated_Source\PSoC4/cyfitter_cfg.c **** 	/* IOPINS0_3 Starting address: CYDEV_GPIO_PRT3_BASE */
 802:Generated_Source\PSoC4/cyfitter_cfg.c **** 	CY_SET_REG32((void *)(CYDEV_GPIO_PRT3_BASE), 0x0000000Eu);
 577              		.loc 1 802 0
ARM GAS  C:\Windows\TEMP\ccKNjEsk.s 			page 26


 578 023e 224A     		ldr	r2, .L19+120
 579 0240 1160     		str	r1, [r2]
 803:Generated_Source\PSoC4/cyfitter_cfg.c **** 	CY_SET_REG32((void *)(CYREG_GPIO_PRT3_PC), 0x00000DB0u);
 580              		.loc 1 803 0
 581 0242 224A     		ldr	r2, .L19+124
 582 0244 1360     		str	r3, [r2]
 804:Generated_Source\PSoC4/cyfitter_cfg.c **** 
 805:Generated_Source\PSoC4/cyfitter_cfg.c **** 
 806:Generated_Source\PSoC4/cyfitter_cfg.c **** 	/* Setup clocks based on selections from Clock DWR */
 807:Generated_Source\PSoC4/cyfitter_cfg.c **** 	ClockSetup();
 583              		.loc 1 807 0
 584 0246 FFF7DBFE 		bl	ClockSetup
 585              	.LVL39:
 808:Generated_Source\PSoC4/cyfitter_cfg.c **** 
 809:Generated_Source\PSoC4/cyfitter_cfg.c **** 	/* Perform basic analog initialization to defaults */
 810:Generated_Source\PSoC4/cyfitter_cfg.c **** 	AnalogSetDefault();
 586              		.loc 1 810 0
 587 024a FFF7FEFF 		bl	AnalogSetDefault
 588              	.LVL40:
 811:Generated_Source\PSoC4/cyfitter_cfg.c **** 
 812:Generated_Source\PSoC4/cyfitter_cfg.c **** }
 589              		.loc 1 812 0
 590              		@ sp needed
 591              	.LVL41:
 592 024e 70BD     		pop	{r4, r5, r6, pc}
 593              	.L20:
 594              		.align	2
 595              	.L19:
 596 0250 6CF02E40 		.word	1076818028
 597 0254 1C700F40 		.word	1074753564
 598 0258 00000000 		.word	.LANCHOR0
 599 025c 80020000 		.word	.LANCHOR1
 600 0260 00000240 		.word	1073872896
 601 0264 33009900 		.word	10027059
 602 0268 00010240 		.word	1073873152
 603 026c 30330000 		.word	13104
 604 0270 00020240 		.word	1073873408
 605 0274 00030240 		.word	1073873664
 606 0278 00500F40 		.word	1074745344
 607 027c 10500F40 		.word	1074745360
 608 0280 18500F40 		.word	1074745368
 609 0284 20500F40 		.word	1074745376
 610 0288 28500F40 		.word	1074745384
 611 028c 30500F40 		.word	1074745392
 612 0290 38500F40 		.word	1074745400
 613 0294 20001040 		.word	1074790432
 614 0298 00800F40 		.word	1074757632
 615 029c 01700F40 		.word	1074753537
 616 02a0 00700F40 		.word	1074753536
 617 02a4 00000440 		.word	1074003968
 618 02a8 922CD900 		.word	14232722
 619 02ac 08000440 		.word	1074003976
 620 02b0 00010440 		.word	1074004224
 621 02b4 36100300 		.word	200758
 622 02b8 08010440 		.word	1074004232
 623 02bc 18010440 		.word	1074004248
 624 02c0 00020440 		.word	1074004480
ARM GAS  C:\Windows\TEMP\ccKNjEsk.s 			page 27


 625 02c4 08020440 		.word	1074004488
 626 02c8 00030440 		.word	1074004736
 627 02cc 08030440 		.word	1074004744
 628              		.cfi_endproc
 629              	.LFE8:
 630              		.size	cyfitter_cfg, .-cyfitter_cfg
 631              		.section	.rodata
 632              		.align	2
 633              		.set	.LANCHOR0,. + 0
 634              		.set	.LANCHOR1,. + 640
 635              		.type	cfg_memset_list.4921, %object
 636              		.size	cfg_memset_list.4921, 24
 637              	cfg_memset_list.4921:
 638 0000 00300F40 		.word	1074737152
 639 0004 8000     		.short	128
 640 0006 00310F40 		.4byte	1074737408
 641 000a 0001     		.short	256
 642 000c 80320F40 		.word	1074737792
 643 0010 8001     		.short	384
 644 0012 00400F40 		.4byte	1074741248
 645 0016 0004     		.short	1024
 646              		.type	cfg_memcpy_list.4924, %object
 647              		.size	cfg_memcpy_list.4924, 20
 648              	cfg_memcpy_list.4924:
 649 0018 80300F40 		.word	1074737280
 650 001c E8020000 		.word	BS_UDB_0_1_1_CONFIG_VAL.4922
 651 0020 8000     		.short	128
 652 0022 00320F40 		.4byte	1074737664
 653 0026 68030000 		.4byte	BS_UDB_0_0_1_CONFIG_VAL.4923
 654 002a 8000     		.short	128
 655              		.type	cy_cfg_data_table.4911, %object
 656              		.size	cy_cfg_data_table.4911, 658
 657              	cy_cfg_data_table.4911:
 658 002c 70       		.byte	112
 659 002d 0F       		.byte	15
 660 002e 80       		.byte	-128
 661 002f 03       		.byte	3
 662 0030 07       		.byte	7
 663 0031 08       		.byte	8
 664 0032 0E       		.byte	14
 665 0033 06       		.byte	6
 666 0034 0F       		.byte	15
 667 0035 01       		.byte	1
 668 0036 11       		.byte	17
 669 0037 02       		.byte	2
 670 0038 13       		.byte	19
 671 0039 04       		.byte	4
 672 003a 15       		.byte	21
 673 003b 08       		.byte	8
 674 003c 17       		.byte	23
 675 003d 01       		.byte	1
 676 003e 1B       		.byte	27
 677 003f 01       		.byte	1
 678 0040 22       		.byte	34
 679 0041 01       		.byte	1
 680 0042 24       		.byte	36
 681 0043 02       		.byte	2
ARM GAS  C:\Windows\TEMP\ccKNjEsk.s 			page 28


 682 0044 26       		.byte	38
 683 0045 04       		.byte	4
 684 0046 2F       		.byte	47
 685 0047 06       		.byte	6
 686 0048 30       		.byte	48
 687 0049 01       		.byte	1
 688 004a 31       		.byte	49
 689 004b 02       		.byte	2
 690 004c 32       		.byte	50
 691 004d 02       		.byte	2
 692 004e 33       		.byte	51
 693 004f 08       		.byte	8
 694 0050 35       		.byte	53
 695 0051 01       		.byte	1
 696 0052 36       		.byte	54
 697 0053 04       		.byte	4
 698 0054 37       		.byte	55
 699 0055 04       		.byte	4
 700 0056 3E       		.byte	62
 701 0057 44       		.byte	68
 702 0058 3F       		.byte	63
 703 0059 41       		.byte	65
 704 005a 40       		.byte	64
 705 005b 62       		.byte	98
 706 005c 41       		.byte	65
 707 005d 03       		.byte	3
 708 005e 46       		.byte	70
 709 005f 26       		.byte	38
 710 0060 48       		.byte	72
 711 0061 0C       		.byte	12
 712 0062 49       		.byte	73
 713 0063 FF       		.byte	-1
 714 0064 4A       		.byte	74
 715 0065 FF       		.byte	-1
 716 0066 4B       		.byte	75
 717 0067 FF       		.byte	-1
 718 0068 4C       		.byte	76
 719 0069 EA       		.byte	-22
 720 006a 4D       		.byte	77
 721 006b 04       		.byte	4
 722 006c 4F       		.byte	79
 723 006d 04       		.byte	4
 724 006e 50       		.byte	80
 725 006f 08       		.byte	8
 726 0070 54       		.byte	84
 727 0071 03       		.byte	3
 728 0072 56       		.byte	86
 729 0073 04       		.byte	4
 730 0074 58       		.byte	88
 731 0075 04       		.byte	4
 732 0076 59       		.byte	89
 733 0077 0E       		.byte	14
 734 0078 5A       		.byte	90
 735 0079 0E       		.byte	14
 736 007a 5B       		.byte	91
 737 007b 04       		.byte	4
 738 007c 5C       		.byte	92
ARM GAS  C:\Windows\TEMP\ccKNjEsk.s 			page 29


 739 007d 31       		.byte	49
 740 007e 5D       		.byte	93
 741 007f 13       		.byte	19
 742 0080 5F       		.byte	95
 743 0081 01       		.byte	1
 744 0082 66       		.byte	102
 745 0083 A0       		.byte	-96
 746 0084 68       		.byte	104
 747 0085 40       		.byte	64
 748 0086 69       		.byte	105
 749 0087 40       		.byte	64
 750 0088 6A       		.byte	106
 751 0089 90       		.byte	-112
 752 008a 6B       		.byte	107
 753 008b 50       		.byte	80
 754 008c 6C       		.byte	108
 755 008d 60       		.byte	96
 756 008e 6D       		.byte	109
 757 008f 40       		.byte	64
 758 0090 6E       		.byte	110
 759 0091 A0       		.byte	-96
 760 0092 6F       		.byte	111
 761 0093 08       		.byte	8
 762 0094 00       		.byte	0
 763 0095 80       		.byte	-128
 764 0096 04       		.byte	4
 765 0097 02       		.byte	2
 766 0098 05       		.byte	5
 767 0099 20       		.byte	32
 768 009a 07       		.byte	7
 769 009b 21       		.byte	33
 770 009c 0E       		.byte	14
 771 009d 4A       		.byte	74
 772 009e 12       		.byte	18
 773 009f 40       		.byte	64
 774 00a0 13       		.byte	19
 775 00a1 08       		.byte	8
 776 00a2 14       		.byte	20
 777 00a3 80       		.byte	-128
 778 00a4 18       		.byte	24
 779 00a5 50       		.byte	80
 780 00a6 19       		.byte	25
 781 00a7 80       		.byte	-128
 782 00a8 1D       		.byte	29
 783 00a9 80       		.byte	-128
 784 00aa 1E       		.byte	30
 785 00ab 50       		.byte	80
 786 00ac 1F       		.byte	31
 787 00ad 20       		.byte	32
 788 00ae 20       		.byte	32
 789 00af 08       		.byte	8
 790 00b0 22       		.byte	34
 791 00b1 0A       		.byte	10
 792 00b2 23       		.byte	35
 793 00b3 01       		.byte	1
 794 00b4 26       		.byte	38
 795 00b5 20       		.byte	32
ARM GAS  C:\Windows\TEMP\ccKNjEsk.s 			page 30


 796 00b6 27       		.byte	39
 797 00b7 52       		.byte	82
 798 00b8 28       		.byte	40
 799 00b9 02       		.byte	2
 800 00ba 2C       		.byte	44
 801 00bb 80       		.byte	-128
 802 00bc 2F       		.byte	47
 803 00bd 02       		.byte	2
 804 00be 31       		.byte	49
 805 00bf 20       		.byte	32
 806 00c0 32       		.byte	50
 807 00c1 09       		.byte	9
 808 00c2 34       		.byte	52
 809 00c3 08       		.byte	8
 810 00c4 36       		.byte	54
 811 00c5 10       		.byte	16
 812 00c6 37       		.byte	55
 813 00c7 42       		.byte	66
 814 00c8 38       		.byte	56
 815 00c9 80       		.byte	-128
 816 00ca 39       		.byte	57
 817 00cb 04       		.byte	4
 818 00cc 3A       		.byte	58
 819 00cd 08       		.byte	8
 820 00ce 3C       		.byte	60
 821 00cf 20       		.byte	32
 822 00d0 3F       		.byte	63
 823 00d1 06       		.byte	6
 824 00d2 41       		.byte	65
 825 00d3 20       		.byte	32
 826 00d4 42       		.byte	66
 827 00d5 20       		.byte	32
 828 00d6 46       		.byte	70
 829 00d7 20       		.byte	32
 830 00d8 47       		.byte	71
 831 00d9 10       		.byte	16
 832 00da 48       		.byte	72
 833 00db 04       		.byte	4
 834 00dc 4B       		.byte	75
 835 00dd 10       		.byte	16
 836 00de 4E       		.byte	78
 837 00df 08       		.byte	8
 838 00e0 4F       		.byte	79
 839 00e1 04       		.byte	4
 840 00e2 50       		.byte	80
 841 00e3 40       		.byte	64
 842 00e4 51       		.byte	81
 843 00e5 20       		.byte	32
 844 00e6 56       		.byte	86
 845 00e7 20       		.byte	32
 846 00e8 59       		.byte	89
 847 00e9 40       		.byte	64
 848 00ea 5A       		.byte	90
 849 00eb 10       		.byte	16
 850 00ec 60       		.byte	96
 851 00ed 80       		.byte	-128
 852 00ee 69       		.byte	105
ARM GAS  C:\Windows\TEMP\ccKNjEsk.s 			page 31


 853 00ef 80       		.byte	-128
 854 00f0 6A       		.byte	106
 855 00f1 02       		.byte	2
 856 00f2 6B       		.byte	107
 857 00f3 28       		.byte	40
 858 00f4 6C       		.byte	108
 859 00f5 01       		.byte	1
 860 00f6 6D       		.byte	109
 861 00f7 10       		.byte	16
 862 00f8 6E       		.byte	110
 863 00f9 0A       		.byte	10
 864 00fa 76       		.byte	118
 865 00fb 48       		.byte	72
 866 00fc 77       		.byte	119
 867 00fd 01       		.byte	1
 868 00fe 79       		.byte	121
 869 00ff 04       		.byte	4
 870 0100 7D       		.byte	125
 871 0101 04       		.byte	4
 872 0102 80       		.byte	-128
 873 0103 90       		.byte	-112
 874 0104 82       		.byte	-126
 875 0105 02       		.byte	2
 876 0106 84       		.byte	-124
 877 0107 04       		.byte	4
 878 0108 87       		.byte	-121
 879 0109 01       		.byte	1
 880 010a 88       		.byte	-120
 881 010b 40       		.byte	64
 882 010c 89       		.byte	-119
 883 010d 20       		.byte	32
 884 010e 8D       		.byte	-115
 885 010f 80       		.byte	-128
 886 0110 C0       		.byte	-64
 887 0111 F1       		.byte	-15
 888 0112 C2       		.byte	-62
 889 0113 D0       		.byte	-48
 890 0114 C4       		.byte	-60
 891 0115 1C       		.byte	28
 892 0116 CA       		.byte	-54
 893 0117 98       		.byte	-104
 894 0118 CC       		.byte	-52
 895 0119 F7       		.byte	-9
 896 011a CE       		.byte	-50
 897 011b EA       		.byte	-22
 898 011c D0       		.byte	-48
 899 011d 66       		.byte	102
 900 011e D2       		.byte	-46
 901 011f 24       		.byte	36
 902 0120 D6       		.byte	-42
 903 0121 0C       		.byte	12
 904 0122 D8       		.byte	-40
 905 0123 01       		.byte	1
 906 0124 DE       		.byte	-34
 907 0125 42       		.byte	66
 908 0126 E0       		.byte	-32
 909 0127 01       		.byte	1
ARM GAS  C:\Windows\TEMP\ccKNjEsk.s 			page 32


 910 0128 E2       		.byte	-30
 911 0129 08       		.byte	8
 912 012a E4       		.byte	-28
 913 012b 01       		.byte	1
 914 012c 82       		.byte	-126
 915 012d 01       		.byte	1
 916 012e 84       		.byte	-124
 917 012f 12       		.byte	18
 918 0130 86       		.byte	-122
 919 0131 24       		.byte	36
 920 0132 8D       		.byte	-115
 921 0133 01       		.byte	1
 922 0134 8E       		.byte	-114
 923 0135 80       		.byte	-128
 924 0136 8F       		.byte	-113
 925 0137 02       		.byte	2
 926 0138 92       		.byte	-110
 927 0139 10       		.byte	16
 928 013a 94       		.byte	-108
 929 013b 20       		.byte	32
 930 013c 96       		.byte	-106
 931 013d 5C       		.byte	92
 932 013e 97       		.byte	-105
 933 013f 03       		.byte	3
 934 0140 98       		.byte	-104
 935 0141 20       		.byte	32
 936 0142 9A       		.byte	-102
 937 0143 42       		.byte	66
 938 0144 A2       		.byte	-94
 939 0145 0A       		.byte	10
 940 0146 A4       		.byte	-92
 941 0147 0E       		.byte	14
 942 0148 A6       		.byte	-90
 943 0149 10       		.byte	16
 944 014a AA       		.byte	-86
 945 014b 80       		.byte	-128
 946 014c B0       		.byte	-80
 947 014d 01       		.byte	1
 948 014e B2       		.byte	-78
 949 014f 7E       		.byte	126
 950 0150 B3       		.byte	-77
 951 0151 02       		.byte	2
 952 0152 B4       		.byte	-76
 953 0153 40       		.byte	64
 954 0154 B6       		.byte	-74
 955 0155 80       		.byte	-128
 956 0156 B7       		.byte	-73
 957 0157 01       		.byte	1
 958 0158 BE       		.byte	-66
 959 0159 40       		.byte	64
 960 015a BF       		.byte	-65
 961 015b 44       		.byte	68
 962 015c C0       		.byte	-64
 963 015d 52       		.byte	82
 964 015e C1       		.byte	-63
 965 015f 03       		.byte	3
 966 0160 C2       		.byte	-62
ARM GAS  C:\Windows\TEMP\ccKNjEsk.s 			page 33


 967 0161 06       		.byte	6
 968 0162 C5       		.byte	-59
 969 0163 90       		.byte	-112
 970 0164 C8       		.byte	-56
 971 0165 02       		.byte	2
 972 0166 C9       		.byte	-55
 973 0167 FF       		.byte	-1
 974 0168 CA       		.byte	-54
 975 0169 FF       		.byte	-1
 976 016a CB       		.byte	-53
 977 016b FF       		.byte	-1
 978 016c CC       		.byte	-52
 979 016d 0F       		.byte	15
 980 016e CD       		.byte	-51
 981 016f 0F       		.byte	15
 982 0170 CE       		.byte	-50
 983 0171 0F       		.byte	15
 984 0172 CF       		.byte	-49
 985 0173 01       		.byte	1
 986 0174 D8       		.byte	-40
 987 0175 0E       		.byte	14
 988 0176 D9       		.byte	-39
 989 0177 04       		.byte	4
 990 0178 DA       		.byte	-38
 991 0179 0E       		.byte	14
 992 017a DC       		.byte	-36
 993 017b 03       		.byte	3
 994 017c DD       		.byte	-35
 995 017d 03       		.byte	3
 996 017e DF       		.byte	-33
 997 017f 01       		.byte	1
 998 0180 E0       		.byte	-32
 999 0181 40       		.byte	64
 1000 0182 E1       		.byte	-31
 1001 0183 A8       		.byte	-88
 1002 0184 E2       		.byte	-30
 1003 0185 40       		.byte	64
 1004 0186 E3       		.byte	-29
 1005 0187 20       		.byte	32
 1006 0188 E4       		.byte	-28
 1007 0189 40       		.byte	64
 1008 018a E5       		.byte	-27
 1009 018b A8       		.byte	-88
 1010 018c E6       		.byte	-26
 1011 018d 40       		.byte	64
 1012 018e E7       		.byte	-25
 1013 018f 20       		.byte	32
 1014 0190 E8       		.byte	-24
 1015 0191 40       		.byte	64
 1016 0192 E9       		.byte	-23
 1017 0193 20       		.byte	32
 1018 0194 EA       		.byte	-22
 1019 0195 10       		.byte	16
 1020 0196 EB       		.byte	-21
 1021 0197 80       		.byte	-128
 1022 0198 EC       		.byte	-20
 1023 0199 40       		.byte	64
ARM GAS  C:\Windows\TEMP\ccKNjEsk.s 			page 34


 1024 019a ED       		.byte	-19
 1025 019b A8       		.byte	-88
 1026 019c EE       		.byte	-18
 1027 019d 40       		.byte	64
 1028 019e EF       		.byte	-17
 1029 019f A8       		.byte	-88
 1030 01a0 00       		.byte	0
 1031 01a1 42       		.byte	66
 1032 01a2 01       		.byte	1
 1033 01a3 08       		.byte	8
 1034 01a4 04       		.byte	4
 1035 01a5 20       		.byte	32
 1036 01a6 05       		.byte	5
 1037 01a7 01       		.byte	1
 1038 01a8 07       		.byte	7
 1039 01a9 10       		.byte	16
 1040 01aa 09       		.byte	9
 1041 01ab 07       		.byte	7
 1042 01ac 0B       		.byte	11
 1043 01ad 08       		.byte	8
 1044 01ae 0D       		.byte	13
 1045 01af 0A       		.byte	10
 1046 01b0 0F       		.byte	15
 1047 01b1 08       		.byte	8
 1048 01b2 10       		.byte	16
 1049 01b3 90       		.byte	-112
 1050 01b4 11       		.byte	17
 1051 01b5 10       		.byte	16
 1052 01b6 12       		.byte	18
 1053 01b7 20       		.byte	32
 1054 01b8 13       		.byte	19
 1055 01b9 08       		.byte	8
 1056 01ba 17       		.byte	23
 1057 01bb 0A       		.byte	10
 1058 01bc 18       		.byte	24
 1059 01bd 20       		.byte	32
 1060 01be 19       		.byte	25
 1061 01bf 6A       		.byte	106
 1062 01c0 1D       		.byte	29
 1063 01c1 0A       		.byte	10
 1064 01c2 1E       		.byte	30
 1065 01c3 04       		.byte	4
 1066 01c4 1F       		.byte	31
 1067 01c5 04       		.byte	4
 1068 01c6 22       		.byte	34
 1069 01c7 44       		.byte	68
 1070 01c8 25       		.byte	37
 1071 01c9 04       		.byte	4
 1072 01ca 26       		.byte	38
 1073 01cb 80       		.byte	-128
 1074 01cc 27       		.byte	39
 1075 01cd 32       		.byte	50
 1076 01ce 2C       		.byte	44
 1077 01cf 10       		.byte	16
 1078 01d0 2D       		.byte	45
 1079 01d1 02       		.byte	2
 1080 01d2 2F       		.byte	47
ARM GAS  C:\Windows\TEMP\ccKNjEsk.s 			page 35


 1081 01d3 04       		.byte	4
 1082 01d4 30       		.byte	48
 1083 01d5 04       		.byte	4
 1084 01d6 35       		.byte	53
 1085 01d7 09       		.byte	9
 1086 01d8 36       		.byte	54
 1087 01d9 80       		.byte	-128
 1088 01da 37       		.byte	55
 1089 01db 20       		.byte	32
 1090 01dc 39       		.byte	57
 1091 01dd 80       		.byte	-128
 1092 01de 3D       		.byte	61
 1093 01df 02       		.byte	2
 1094 01e0 3E       		.byte	62
 1095 01e1 08       		.byte	8
 1096 01e2 3F       		.byte	63
 1097 01e3 90       		.byte	-112
 1098 01e4 41       		.byte	65
 1099 01e5 08       		.byte	8
 1100 01e6 43       		.byte	67
 1101 01e7 10       		.byte	16
 1102 01e8 45       		.byte	69
 1103 01e9 08       		.byte	8
 1104 01ea 47       		.byte	71
 1105 01eb 20       		.byte	32
 1106 01ec 48       		.byte	72
 1107 01ed 80       		.byte	-128
 1108 01ee 49       		.byte	73
 1109 01ef 21       		.byte	33
 1110 01f0 4B       		.byte	75
 1111 01f1 40       		.byte	64
 1112 01f2 4D       		.byte	77
 1113 01f3 60       		.byte	96
 1114 01f4 4F       		.byte	79
 1115 01f5 48       		.byte	72
 1116 01f6 57       		.byte	87
 1117 01f7 40       		.byte	64
 1118 01f8 6E       		.byte	110
 1119 01f9 20       		.byte	32
 1120 01fa 6F       		.byte	111
 1121 01fb 02       		.byte	2
 1122 01fc 74       		.byte	116
 1123 01fd 01       		.byte	1
 1124 01fe 79       		.byte	121
 1125 01ff 04       		.byte	4
 1126 0200 7D       		.byte	125
 1127 0201 04       		.byte	4
 1128 0202 81       		.byte	-127
 1129 0203 48       		.byte	72
 1130 0204 82       		.byte	-126
 1131 0205 40       		.byte	64
 1132 0206 86       		.byte	-122
 1133 0207 04       		.byte	4
 1134 0208 8A       		.byte	-118
 1135 0209 04       		.byte	4
 1136 020a 8B       		.byte	-117
 1137 020b 10       		.byte	16
ARM GAS  C:\Windows\TEMP\ccKNjEsk.s 			page 36


 1138 020c 8F       		.byte	-113
 1139 020d 20       		.byte	32
 1140 020e 90       		.byte	-112
 1141 020f 40       		.byte	64
 1142 0210 91       		.byte	-111
 1143 0211 94       		.byte	-108
 1144 0212 93       		.byte	-109
 1145 0213 10       		.byte	16
 1146 0214 98       		.byte	-104
 1147 0215 04       		.byte	4
 1148 0216 9A       		.byte	-102
 1149 0217 08       		.byte	8
 1150 0218 9D       		.byte	-99
 1151 0219 40       		.byte	64
 1152 021a A2       		.byte	-94
 1153 021b 20       		.byte	32
 1154 021c A3       		.byte	-93
 1155 021d 20       		.byte	32
 1156 021e A6       		.byte	-90
 1157 021f 10       		.byte	16
 1158 0220 A7       		.byte	-89
 1159 0221 02       		.byte	2
 1160 0222 AB       		.byte	-85
 1161 0223 01       		.byte	1
 1162 0224 AC       		.byte	-84
 1163 0225 10       		.byte	16
 1164 0226 B1       		.byte	-79
 1165 0227 80       		.byte	-128
 1166 0228 B4       		.byte	-76
 1167 0229 0A       		.byte	10
 1168 022a C0       		.byte	-64
 1169 022b 7D       		.byte	125
 1170 022c C2       		.byte	-62
 1171 022d 7E       		.byte	126
 1172 022e C4       		.byte	-60
 1173 022f 3E       		.byte	62
 1174 0230 CA       		.byte	-54
 1175 0231 E0       		.byte	-32
 1176 0232 CC       		.byte	-52
 1177 0233 F2       		.byte	-14
 1178 0234 CE       		.byte	-50
 1179 0235 F8       		.byte	-8
 1180 0236 D0       		.byte	-48
 1181 0237 66       		.byte	102
 1182 0238 D2       		.byte	-46
 1183 0239 3C       		.byte	60
 1184 023a DE       		.byte	-34
 1185 023b 42       		.byte	66
 1186 023c E2       		.byte	-30
 1187 023d 40       		.byte	64
 1188 023e E4       		.byte	-28
 1189 023f 01       		.byte	1
 1190 0240 E6       		.byte	-26
 1191 0241 80       		.byte	-128
 1192 0242 E8       		.byte	-24
 1193 0243 41       		.byte	65
 1194 0244 EA       		.byte	-22
ARM GAS  C:\Windows\TEMP\ccKNjEsk.s 			page 37


 1195 0245 20       		.byte	32
 1196 0246 03       		.byte	3
 1197 0247 82       		.byte	-126
 1198 0248 07       		.byte	7
 1199 0249 10       		.byte	16
 1200 024a 0A       		.byte	10
 1201 024b 20       		.byte	32
 1202 024c 0F       		.byte	15
 1203 024d 80       		.byte	-128
 1204 024e 83       		.byte	-125
 1205 024f 40       		.byte	64
 1206 0250 87       		.byte	-121
 1207 0251 80       		.byte	-128
 1208 0252 C0       		.byte	-64
 1209 0253 70       		.byte	112
 1210 0254 C2       		.byte	-62
 1211 0255 30       		.byte	48
 1212 0256 E0       		.byte	-32
 1213 0257 20       		.byte	32
 1214 0258 E4       		.byte	-28
 1215 0259 10       		.byte	16
 1216 025a 53       		.byte	83
 1217 025b 10       		.byte	16
 1218 025c 57       		.byte	87
 1219 025d 04       		.byte	4
 1220 025e 6B       		.byte	107
 1221 025f 80       		.byte	-128
 1222 0260 6F       		.byte	111
 1223 0261 10       		.byte	16
 1224 0262 77       		.byte	119
 1225 0263 08       		.byte	8
 1226 0264 87       		.byte	-121
 1227 0265 80       		.byte	-128
 1228 0266 8B       		.byte	-117
 1229 0267 08       		.byte	8
 1230 0268 8F       		.byte	-113
 1231 0269 04       		.byte	4
 1232 026a 93       		.byte	-109
 1233 026b 20       		.byte	32
 1234 026c 9B       		.byte	-101
 1235 026d 10       		.byte	16
 1236 026e AF       		.byte	-81
 1237 026f 02       		.byte	2
 1238 0270 B3       		.byte	-77
 1239 0271 10       		.byte	16
 1240 0272 B6       		.byte	-74
 1241 0273 10       		.byte	16
 1242 0274 D4       		.byte	-44
 1243 0275 60       		.byte	96
 1244 0276 DA       		.byte	-38
 1245 0277 80       		.byte	-128
 1246 0278 DC       		.byte	-36
 1247 0279 60       		.byte	96
 1248 027a E2       		.byte	-30
 1249 027b 40       		.byte	64
 1250 027c E8       		.byte	-24
 1251 027d 10       		.byte	16
ARM GAS  C:\Windows\TEMP\ccKNjEsk.s 			page 38


 1252 027e 11       		.byte	17
 1253 027f 02       		.byte	2
 1254 0280 13       		.byte	19
 1255 0281 40       		.byte	64
 1256 0282 15       		.byte	21
 1257 0283 08       		.byte	8
 1258 0284 17       		.byte	23
 1259 0285 80       		.byte	-128
 1260 0286 55       		.byte	85
 1261 0287 08       		.byte	8
 1262 0288 5A       		.byte	90
 1263 0289 80       		.byte	-128
 1264 028a 5C       		.byte	92
 1265 028b 10       		.byte	16
 1266 028c 82       		.byte	-126
 1267 028d 44       		.byte	68
 1268 028e 85       		.byte	-123
 1269 028f 04       		.byte	4
 1270 0290 8B       		.byte	-117
 1271 0291 C0       		.byte	-64
 1272 0292 8D       		.byte	-115
 1273 0293 20       		.byte	32
 1274 0294 C4       		.byte	-60
 1275 0295 0F       		.byte	15
 1276 0296 D4       		.byte	-44
 1277 0297 03       		.byte	3
 1278 0298 D6       		.byte	-42
 1279 0299 04       		.byte	4
 1280 029a E2       		.byte	-30
 1281 029b 04       		.byte	4
 1282 029c E4       		.byte	-28
 1283 029d 02       		.byte	2
 1284 029e E6       		.byte	-26
 1285 029f 04       		.byte	4
 1286 02a0 51       		.byte	81
 1287 02a1 20       		.byte	32
 1288 02a2 56       		.byte	86
 1289 02a3 04       		.byte	4
 1290 02a4 59       		.byte	89
 1291 02a5 40       		.byte	64
 1292 02a6 80       		.byte	-128
 1293 02a7 10       		.byte	16
 1294 02a8 89       		.byte	-119
 1295 02a9 40       		.byte	64
 1296 02aa 94       		.byte	-108
 1297 02ab 10       		.byte	16
 1298 02ac 9A       		.byte	-102
 1299 02ad 04       		.byte	4
 1300 02ae A1       		.byte	-95
 1301 02af 20       		.byte	32
 1302 02b0 A9       		.byte	-87
 1303 02b1 08       		.byte	8
 1304 02b2 B5       		.byte	-75
 1305 02b3 01       		.byte	1
 1306 02b4 D4       		.byte	-44
 1307 02b5 07       		.byte	7
 1308 02b6 E0       		.byte	-32
ARM GAS  C:\Windows\TEMP\ccKNjEsk.s 			page 39


 1309 02b7 01       		.byte	1
 1310 02b8 EA       		.byte	-22
 1311 02b9 08       		.byte	8
 1312 02ba 01       		.byte	1
 1313 02bb 0A       		.byte	10
 1314 02bc 10       		.byte	16
 1315 02bd 0A       		.byte	10
 1316 02be 0000     		.space	2
 1317              		.type	cy_cfg_addr_table.4910, %object
 1318              		.size	cy_cfg_addr_table.4910, 40
 1319              	cy_cfg_addr_table.4910:
 1320 02c0 02000F40 		.word	1074724866
 1321 02c4 32300F40 		.word	1074737202
 1322 02c8 4C310F40 		.word	1074737484
 1323 02cc 3A320F40 		.word	1074737722
 1324 02d0 53330F40 		.word	1074738003
 1325 02d4 0A400F40 		.word	1074741258
 1326 02d8 12410F40 		.word	1074741522
 1327 02dc 11420F40 		.word	1074741777
 1328 02e0 0D430F40 		.word	1074742029
 1329 02e4 02600F40 		.word	1074749442
 1330              		.type	BS_UDB_0_1_1_CONFIG_VAL.4922, %object
 1331              		.size	BS_UDB_0_1_1_CONFIG_VAL.4922, 128
 1332              	BS_UDB_0_1_1_CONFIG_VAL.4922:
 1333 02e8 00       		.byte	0
 1334 02e9 00       		.byte	0
 1335 02ea 01       		.byte	1
 1336 02eb 01       		.byte	1
 1337 02ec 04       		.byte	4
 1338 02ed 00       		.byte	0
 1339 02ee 08       		.byte	8
 1340 02ef C0       		.byte	-64
 1341 02f0 00       		.byte	0
 1342 02f1 00       		.byte	0
 1343 02f2 0C       		.byte	12
 1344 02f3 02       		.byte	2
 1345 02f4 00       		.byte	0
 1346 02f5 00       		.byte	0
 1347 02f6 10       		.byte	16
 1348 02f7 00       		.byte	0
 1349 02f8 00       		.byte	0
 1350 02f9 50       		.byte	80
 1351 02fa 02       		.byte	2
 1352 02fb A0       		.byte	-96
 1353 02fc 00       		.byte	0
 1354 02fd 00       		.byte	0
 1355 02fe 00       		.byte	0
 1356 02ff 08       		.byte	8
 1357 0300 00       		.byte	0
 1358 0301 03       		.byte	3
 1359 0302 10       		.byte	16
 1360 0303 0C       		.byte	12
 1361 0304 02       		.byte	2
 1362 0305 00       		.byte	0
 1363 0306 01       		.byte	1
 1364 0307 30       		.byte	48
 1365 0308 00       		.byte	0
ARM GAS  C:\Windows\TEMP\ccKNjEsk.s 			page 40


 1366 0309 00       		.byte	0
 1367 030a 03       		.byte	3
 1368 030b 04       		.byte	4
 1369 030c 00       		.byte	0
 1370 030d 00       		.byte	0
 1371 030e 00       		.byte	0
 1372 030f 00       		.byte	0
 1373 0310 00       		.byte	0
 1374 0311 00       		.byte	0
 1375 0312 00       		.byte	0
 1376 0313 00       		.byte	0
 1377 0314 00       		.byte	0
 1378 0315 05       		.byte	5
 1379 0316 00       		.byte	0
 1380 0317 0A       		.byte	10
 1381 0318 03       		.byte	3
 1382 0319 0F       		.byte	15
 1383 031a 10       		.byte	16
 1384 031b 10       		.byte	16
 1385 031c 04       		.byte	4
 1386 031d 80       		.byte	-128
 1387 031e 08       		.byte	8
 1388 031f 60       		.byte	96
 1389 0320 00       		.byte	0
 1390 0321 08       		.byte	8
 1391 0322 00       		.byte	0
 1392 0323 00       		.byte	0
 1393 0324 00       		.byte	0
 1394 0325 00       		.byte	0
 1395 0326 54       		.byte	84
 1396 0327 00       		.byte	0
 1397 0328 32       		.byte	50
 1398 0329 06       		.byte	6
 1399 032a 00       		.byte	0
 1400 032b 00       		.byte	0
 1401 032c 00       		.byte	0
 1402 032d 02       		.byte	2
 1403 032e 60       		.byte	96
 1404 032f 00       		.byte	0
 1405 0330 09       		.byte	9
 1406 0331 FF       		.byte	-1
 1407 0332 FF       		.byte	-1
 1408 0333 FF       		.byte	-1
 1409 0334 EA       		.byte	-22
 1410 0335 04       		.byte	4
 1411 0336 00       		.byte	0
 1412 0337 04       		.byte	4
 1413 0338 08       		.byte	8
 1414 0339 00       		.byte	0
 1415 033a BF       		.byte	-65
 1416 033b 18       		.byte	24
 1417 033c 00       		.byte	0
 1418 033d 00       		.byte	0
 1419 033e 00       		.byte	0
 1420 033f 00       		.byte	0
 1421 0340 04       		.byte	4
 1422 0341 0E       		.byte	14
ARM GAS  C:\Windows\TEMP\ccKNjEsk.s 			page 41


 1423 0342 0E       		.byte	14
 1424 0343 04       		.byte	4
 1425 0344 31       		.byte	49
 1426 0345 13       		.byte	19
 1427 0346 00       		.byte	0
 1428 0347 01       		.byte	1
 1429 0348 40       		.byte	64
 1430 0349 40       		.byte	64
 1431 034a 80       		.byte	-128
 1432 034b 00       		.byte	0
 1433 034c 60       		.byte	96
 1434 034d 40       		.byte	64
 1435 034e A0       		.byte	-96
 1436 034f 00       		.byte	0
 1437 0350 10       		.byte	16
 1438 0351 50       		.byte	80
 1439 0352 90       		.byte	-112
 1440 0353 50       		.byte	80
 1441 0354 20       		.byte	32
 1442 0355 00       		.byte	0
 1443 0356 A0       		.byte	-96
 1444 0357 08       		.byte	8
 1445 0358 00       		.byte	0
 1446 0359 00       		.byte	0
 1447 035a 00       		.byte	0
 1448 035b 00       		.byte	0
 1449 035c 00       		.byte	0
 1450 035d 00       		.byte	0
 1451 035e 00       		.byte	0
 1452 035f 00       		.byte	0
 1453 0360 00       		.byte	0
 1454 0361 00       		.byte	0
 1455 0362 00       		.byte	0
 1456 0363 00       		.byte	0
 1457 0364 00       		.byte	0
 1458 0365 00       		.byte	0
 1459 0366 00       		.byte	0
 1460 0367 00       		.byte	0
 1461              		.type	BS_UDB_0_0_1_CONFIG_VAL.4923, %object
 1462              		.size	BS_UDB_0_0_1_CONFIG_VAL.4923, 128
 1463              	BS_UDB_0_0_1_CONFIG_VAL.4923:
 1464 0368 00       		.byte	0
 1465 0369 08       		.byte	8
 1466 036a 08       		.byte	8
 1467 036b 00       		.byte	0
 1468 036c 22       		.byte	34
 1469 036d 00       		.byte	0
 1470 036e 1C       		.byte	28
 1471 036f 40       		.byte	64
 1472 0370 06       		.byte	6
 1473 0371 80       		.byte	-128
 1474 0372 30       		.byte	48
 1475 0373 40       		.byte	64
 1476 0374 00       		.byte	0
 1477 0375 01       		.byte	1
 1478 0376 00       		.byte	0
 1479 0377 00       		.byte	0
ARM GAS  C:\Windows\TEMP\ccKNjEsk.s 			page 42


 1480 0378 04       		.byte	4
 1481 0379 00       		.byte	0
 1482 037a 02       		.byte	2
 1483 037b 20       		.byte	32
 1484 037c 1E       		.byte	30
 1485 037d 2C       		.byte	44
 1486 037e 20       		.byte	32
 1487 037f 10       		.byte	16
 1488 0380 02       		.byte	2
 1489 0381 35       		.byte	53
 1490 0382 01       		.byte	1
 1491 0383 0A       		.byte	10
 1492 0384 00       		.byte	0
 1493 0385 00       		.byte	0
 1494 0386 00       		.byte	0
 1495 0387 81       		.byte	-127
 1496 0388 00       		.byte	0
 1497 0389 80       		.byte	-128
 1498 038a 02       		.byte	2
 1499 038b 00       		.byte	0
 1500 038c 08       		.byte	8
 1501 038d 02       		.byte	2
 1502 038e 14       		.byte	20
 1503 038f 04       		.byte	4
 1504 0390 00       		.byte	0
 1505 0391 1B       		.byte	27
 1506 0392 00       		.byte	0
 1507 0393 24       		.byte	36
 1508 0394 00       		.byte	0
 1509 0395 00       		.byte	0
 1510 0396 00       		.byte	0
 1511 0397 00       		.byte	0
 1512 0398 06       		.byte	6
 1513 0399 00       		.byte	0
 1514 039a 38       		.byte	56
 1515 039b 3F       		.byte	63
 1516 039c 01       		.byte	1
 1517 039d 00       		.byte	0
 1518 039e 00       		.byte	0
 1519 039f C0       		.byte	-64
 1520 03a0 00       		.byte	0
 1521 03a1 00       		.byte	0
 1522 03a2 0A       		.byte	10
 1523 03a3 00       		.byte	0
 1524 03a4 00       		.byte	0
 1525 03a5 00       		.byte	0
 1526 03a6 00       		.byte	0
 1527 03a7 00       		.byte	0
 1528 03a8 52       		.byte	82
 1529 03a9 03       		.byte	3
 1530 03aa 06       		.byte	6
 1531 03ab 00       		.byte	0
 1532 03ac 00       		.byte	0
 1533 03ad 0E       		.byte	14
 1534 03ae 0E       		.byte	14
 1535 03af 00       		.byte	0
 1536 03b0 05       		.byte	5
ARM GAS  C:\Windows\TEMP\ccKNjEsk.s 			page 43


 1537 03b1 FF       		.byte	-1
 1538 03b2 FF       		.byte	-1
 1539 03b3 FF       		.byte	-1
 1540 03b4 00       		.byte	0
 1541 03b5 00       		.byte	0
 1542 03b6 00       		.byte	0
 1543 03b7 01       		.byte	1
 1544 03b8 00       		.byte	0
 1545 03b9 00       		.byte	0
 1546 03ba 83       		.byte	-125
 1547 03bb 80       		.byte	-128
 1548 03bc 00       		.byte	0
 1549 03bd 00       		.byte	0
 1550 03be 00       		.byte	0
 1551 03bf 00       		.byte	0
 1552 03c0 0E       		.byte	14
 1553 03c1 0E       		.byte	14
 1554 03c2 0E       		.byte	14
 1555 03c3 0E       		.byte	14
 1556 03c4 33       		.byte	51
 1557 03c5 33       		.byte	51
 1558 03c6 00       		.byte	0
 1559 03c7 01       		.byte	1
 1560 03c8 40       		.byte	64
 1561 03c9 A8       		.byte	-88
 1562 03ca 40       		.byte	64
 1563 03cb 20       		.byte	32
 1564 03cc 40       		.byte	64
 1565 03cd A8       		.byte	-88
 1566 03ce 40       		.byte	64
 1567 03cf 20       		.byte	32
 1568 03d0 40       		.byte	64
 1569 03d1 20       		.byte	32
 1570 03d2 10       		.byte	16
 1571 03d3 80       		.byte	-128
 1572 03d4 40       		.byte	64
 1573 03d5 A8       		.byte	-88
 1574 03d6 40       		.byte	64
 1575 03d7 A8       		.byte	-88
 1576 03d8 00       		.byte	0
 1577 03d9 00       		.byte	0
 1578 03da 00       		.byte	0
 1579 03db 00       		.byte	0
 1580 03dc 00       		.byte	0
 1581 03dd 00       		.byte	0
 1582 03de 00       		.byte	0
 1583 03df 00       		.byte	0
 1584 03e0 00       		.byte	0
 1585 03e1 00       		.byte	0
 1586 03e2 00       		.byte	0
 1587 03e3 00       		.byte	0
 1588 03e4 00       		.byte	0
 1589 03e5 00       		.byte	0
 1590 03e6 00       		.byte	0
 1591 03e7 00       		.byte	0
 1592              		.text
 1593              	.Letext0:
ARM GAS  C:\Windows\TEMP\ccKNjEsk.s 			page 44


 1594              		.file 2 "c:\\program files (x86)\\cypress\\psoc creator\\4.4\\psoc creator\\import\\gnu\\arm\\5.4.
 1595              		.file 3 "Generated_Source\\PSoC4\\cytypes.h"
 1596              		.file 4 "Generated_Source\\PSoC4\\CyLFClk.h"
 1597              		.file 5 "Generated_Source\\PSoC4\\CyLib.h"