ARM GAS  C:\Windows\TEMP\ccklpxms.s 			page 1


   1              		.syntax unified
   2              		.cpu cortex-m0
   3              		.fpu softvfp
   4              		.eabi_attribute 20, 1
   5              		.eabi_attribute 21, 1
   6              		.eabi_attribute 23, 3
   7              		.eabi_attribute 24, 1
   8              		.eabi_attribute 25, 1
   9              		.eabi_attribute 26, 1
  10              		.eabi_attribute 30, 1
  11              		.eabi_attribute 34, 0
  12              		.eabi_attribute 18, 4
  13              		.thumb
  14              		.syntax unified
  15              		.file	"aios.c"
  16              		.text
  17              	.Ltext0:
  18              		.cfi_sections	.debug_frame
  19              		.section	.text.AIOS_Handler,"ax",%progbits
  20              		.align	2
  21              		.global	AIOS_Handler
  22              		.code	16
  23              		.thumb_func
  24              		.type	AIOS_Handler, %function
  25              	AIOS_Handler:
  26              	.LFB36:
  27              		.file 1 "aios.c"
   1:aios.c        **** #include "aios.h"
   2:aios.c        **** #include "ballServeController.h"
   3:aios.c        **** 
   4:aios.c        **** void AIOS_Handler(uint32 eventCode, void *eventParams)
   5:aios.c        **** {
  28              		.loc 1 5 0
  29              		.cfi_startproc
  30              		@ args = 0, pretend = 0, frame = 0
  31              		@ frame_needed = 0, uses_anonymous_args = 0
  32              	.LVL0:
  33 0000 10B5     		push	{r4, lr}
  34              		.cfi_def_cfa_offset 8
  35              		.cfi_offset 4, -8
  36              		.cfi_offset 14, -4
   6:aios.c        ****     switch(eventCode){
  37              		.loc 1 6 0
  38 0002 0128     		cmp	r0, #1
  39 0004 01D0     		beq	.L3
  40 0006 2828     		cmp	r0, #40
  41 0008 02D1     		bne	.L1
  42              	.L3:
   7:aios.c        ****         case CYBLE_EVT_STACK_ON:
   8:aios.c        ****         case CYBLE_EVT_GAP_DEVICE_DISCONNECTED:
   9:aios.c        ****             CyBle_GappStartAdvertisement(CYBLE_ADVERTISING_FAST);
  43              		.loc 1 9 0
  44 000a 0020     		movs	r0, #0
  45              	.LVL1:
  46 000c FFF7FEFF 		bl	CyBle_GappStartAdvertisement
  47              	.LVL2:
  48              	.L1:
ARM GAS  C:\Windows\TEMP\ccklpxms.s 			page 2


  10:aios.c        ****             break;
  11:aios.c        ****     }
  12:aios.c        **** }
  49              		.loc 1 12 0
  50              		@ sp needed
  51 0010 10BD     		pop	{r4, pc}
  52              		.cfi_endproc
  53              	.LFE36:
  54              		.size	AIOS_Handler, .-AIOS_Handler
  55 0012 C046     		.section	.text.AIOS_Callback,"ax",%progbits
  56              		.align	2
  57              		.global	AIOS_Callback
  58              		.code	16
  59              		.thumb_func
  60              		.type	AIOS_Callback, %function
  61              	AIOS_Callback:
  62              	.LFB37:
  13:aios.c        **** void AIOS_Callback(uint32 eventCode, void *eventParam){
  63              		.loc 1 13 0
  64              		.cfi_startproc
  65              		@ args = 0, pretend = 0, frame = 8
  66              		@ frame_needed = 0, uses_anonymous_args = 0
  67              	.LVL3:
  68 0000 30B5     		push	{r4, r5, lr}
  69              		.cfi_def_cfa_offset 12
  70              		.cfi_offset 4, -12
  71              		.cfi_offset 5, -8
  72              		.cfi_offset 14, -4
  73 0002 83B0     		sub	sp, sp, #12
  74              		.cfi_def_cfa_offset 24
  75 0004 0C00     		movs	r4, r1
  76              	.LVL4:
  14:aios.c        ****     CYBLE_AIOS_CHAR_VALUE_T *locCharValue = eventParam;
  15:aios.c        **** 
  16:aios.c        ****     switch(eventCode)
  77              		.loc 1 16 0
  78 0006 8C23     		movs	r3, #140
  79 0008 5B00     		lsls	r3, r3, #1
  80 000a 9842     		cmp	r0, r3
  81 000c 35D1     		bne	.L4
  82              	.LBB2:
  17:aios.c        ****     {
  18:aios.c        ****     case CYBLE_EVT_AIOSS_CHAR_WRITE: {
  19:aios.c        ****         uint16 motorSpeed;
  20:aios.c        ****         
  21:aios.c        ****         motorSpeed = CyBle_AiosGet16ByPtr(locCharValue->value->val);
  83              		.loc 1 21 0
  84 000e 4B68     		ldr	r3, [r1, #4]
  85 0010 1868     		ldr	r0, [r3]
  86              	.LVL5:
  87 0012 FFF7FEFF 		bl	CyBle_Get16ByPtr
  88              	.LVL6:
  89 0016 0100     		movs	r1, r0
  90              	.LVL7:
  22:aios.c        ****         SetMotorSpeed_Single(0, motorSpeed);
  91              		.loc 1 22 0
  92 0018 0020     		movs	r0, #0
ARM GAS  C:\Windows\TEMP\ccklpxms.s 			page 3


  93 001a FFF7FEFF 		bl	SetMotorSpeed_Single
  94              	.LVL8:
  23:aios.c        ****         motorSpeed = CyBle_AiosGet16ByPtr(locCharValue->value->val+2);
  95              		.loc 1 23 0
  96 001e 6368     		ldr	r3, [r4, #4]
  97 0020 1868     		ldr	r0, [r3]
  98 0022 0230     		adds	r0, r0, #2
  99 0024 FFF7FEFF 		bl	CyBle_Get16ByPtr
 100              	.LVL9:
 101 0028 0100     		movs	r1, r0
 102              	.LVL10:
  24:aios.c        ****         SetMotorSpeed_Single(1, motorSpeed);
 103              		.loc 1 24 0
 104 002a 0120     		movs	r0, #1
 105 002c FFF7FEFF 		bl	SetMotorSpeed_Single
 106              	.LVL11:
  25:aios.c        ****         motorSpeed = CyBle_AiosGet16ByPtr(locCharValue->value->val+4);
 107              		.loc 1 25 0
 108 0030 6368     		ldr	r3, [r4, #4]
 109 0032 1868     		ldr	r0, [r3]
 110 0034 0430     		adds	r0, r0, #4
 111 0036 FFF7FEFF 		bl	CyBle_Get16ByPtr
 112              	.LVL12:
 113 003a 0100     		movs	r1, r0
 114              	.LVL13:
  26:aios.c        ****         SetMotorSpeed_Single(2, motorSpeed);
 115              		.loc 1 26 0
 116 003c 0220     		movs	r0, #2
 117 003e FFF7FEFF 		bl	SetMotorSpeed_Single
 118              	.LVL14:
  27:aios.c        ****         motorSpeed = CyBle_AiosGet16ByPtr(locCharValue->value->val+6);
 119              		.loc 1 27 0
 120 0042 6368     		ldr	r3, [r4, #4]
 121 0044 1868     		ldr	r0, [r3]
 122 0046 0630     		adds	r0, r0, #6
 123 0048 FFF7FEFF 		bl	CyBle_Get16ByPtr
 124              	.LVL15:
 125 004c 0100     		movs	r1, r0
 126              	.LVL16:
  28:aios.c        ****         SetMotorSpeed_Single(3, motorSpeed);
 127              		.loc 1 28 0
 128 004e 0320     		movs	r0, #3
 129 0050 FFF7FEFF 		bl	SetMotorSpeed_Single
 130              	.LVL17:
  29:aios.c        ****         
  30:aios.c        ****         uint8 zero = 0;
 131              		.loc 1 30 0
 132 0054 6B46     		mov	r3, sp
 133 0056 DD1D     		adds	r5, r3, #7
 134 0058 0023     		movs	r3, #0
 135 005a 2B70     		strb	r3, [r5]
  31:aios.c        ****         doServe = CyBle_AiosGet16ByPtr(locCharValue->value->val+8);
 136              		.loc 1 31 0
 137 005c 6368     		ldr	r3, [r4, #4]
 138 005e 1868     		ldr	r0, [r3]
 139 0060 0830     		adds	r0, r0, #8
 140 0062 FFF7FEFF 		bl	CyBle_Get16ByPtr
ARM GAS  C:\Windows\TEMP\ccklpxms.s 			page 4


 141              	.LVL18:
 142 0066 431E     		subs	r3, r0, #1
 143 0068 9841     		sbcs	r0, r0, r3
 144 006a 054B     		ldr	r3, .L7
 145 006c 1870     		strb	r0, [r3]
  32:aios.c        ****         CyBle_AiossSetCharacteristicValue(CYBLE_AIOS_ANALOG, 4, 2, &zero);
 146              		.loc 1 32 0
 147 006e 2B00     		movs	r3, r5
 148 0070 0222     		movs	r2, #2
 149 0072 0421     		movs	r1, #4
 150 0074 0120     		movs	r0, #1
 151 0076 FFF7FEFF 		bl	CyBle_AiossSetCharacteristicValue
 152              	.LVL19:
 153              	.L4:
 154              	.LBE2:
  33:aios.c        ****         break;
  34:aios.c        ****         }
  35:aios.c        ****     }
  36:aios.c        ****     
  37:aios.c        ****     //Control_Rotation_Write(0b1100);
  38:aios.c        **** } 
 155              		.loc 1 38 0
 156 007a 03B0     		add	sp, sp, #12
 157              		@ sp needed
 158              	.LVL20:
 159 007c 30BD     		pop	{r4, r5, pc}
 160              	.L8:
 161 007e C046     		.align	2
 162              	.L7:
 163 0080 00000000 		.word	doServe
 164              		.cfi_endproc
 165              	.LFE37:
 166              		.size	AIOS_Callback, .-AIOS_Callback
 167              		.comm	counter,4,4
 168              		.comm	isServing,1,1
 169              		.comm	doServe,1,1
 170              		.comm	disablePrintIfZeroRPM,1,1
 171              		.comm	str,16,4
 172              		.comm	uart_rpm_buff,4,4
 173              		.text
 174              	.Letext0:
 175              		.file 2 "Generated_Source\\PSoC4/cytypes.h"
 176              		.file 3 "Generated_Source\\PSoC4/Bluetooth_Stack.h"
 177              		.file 4 "Generated_Source\\PSoC4/Bluetooth_StackGatt.h"
 178              		.file 5 "Generated_Source\\PSoC4/Bluetooth_aios.h"
 179              		.file 6 "Generated_Source\\PSoC4/Bluetooth_eventHandler.h"
 180              		.file 7 "main_data.h"
 181              		.file 8 "debug.h"
 182              		.file 9 "ballServeController.h"
 183              		.file 10 "Generated_Source\\PSoC4/Bluetooth.h"
 184              		.file 11 "motorController.h"