ARM GAS  C:\Windows\TEMP\ccS6xh7D.s 			page 1


   1              		.syntax unified
   2              		.cpu cortex-m0
   3              		.fpu softvfp
   4              		.eabi_attribute 20, 1
   5              		.eabi_attribute 21, 1
   6              		.eabi_attribute 23, 3
   7              		.eabi_attribute 24, 1
   8              		.eabi_attribute 25, 1
   9              		.eabi_attribute 26, 1
  10              		.eabi_attribute 30, 1
  11              		.eabi_attribute 34, 0
  12              		.eabi_attribute 18, 4
  13              		.thumb
  14              		.syntax unified
  15              		.file	"ballServeController.c"
  16              		.text
  17              	.Ltext0:
  18              		.cfi_sections	.debug_frame
  19              		.section	.text.CheckForBallServeRequest,"ax",%progbits
  20              		.align	2
  21              		.global	CheckForBallServeRequest
  22              		.code	16
  23              		.thumb_func
  24              		.type	CheckForBallServeRequest, %function
  25              	CheckForBallServeRequest:
  26              	.LFB35:
  27              		.file 1 "ballServeController.c"
   1:ballServeController.c **** #include "ballServeController.h"
   2:ballServeController.c **** 
   3:ballServeController.c **** void CheckForBallServeRequest() {
  28              		.loc 1 3 0
  29              		.cfi_startproc
  30              		@ args = 0, pretend = 0, frame = 0
  31              		@ frame_needed = 0, uses_anonymous_args = 0
  32 0000 10B5     		push	{r4, lr}
  33              		.cfi_def_cfa_offset 8
  34              		.cfi_offset 4, -8
  35              		.cfi_offset 14, -4
   4:ballServeController.c ****     if(doServe) {
  36              		.loc 1 4 0
  37 0002 074B     		ldr	r3, .L3
  38 0004 1B78     		ldrb	r3, [r3]
  39 0006 002B     		cmp	r3, #0
  40 0008 08D0     		beq	.L1
   5:ballServeController.c ****         doServe = false;
  41              		.loc 1 5 0
  42 000a 0022     		movs	r2, #0
  43 000c 044B     		ldr	r3, .L3
  44 000e 1A70     		strb	r2, [r3]
   6:ballServeController.c ****         isServing = true;
  45              		.loc 1 6 0
  46 0010 0132     		adds	r2, r2, #1
  47 0012 044B     		ldr	r3, .L3+4
  48 0014 1A70     		strb	r2, [r3]
   7:ballServeController.c ****         Pin_Output_Serve_Write(1);
  49              		.loc 1 7 0
  50 0016 0120     		movs	r0, #1
ARM GAS  C:\Windows\TEMP\ccS6xh7D.s 			page 2


  51 0018 FFF7FEFF 		bl	Pin_Output_Serve_Write
  52              	.LVL0:
  53              	.L1:
   8:ballServeController.c ****     }
   9:ballServeController.c **** }
  54              		.loc 1 9 0
  55              		@ sp needed
  56 001c 10BD     		pop	{r4, pc}
  57              	.L4:
  58 001e C046     		.align	2
  59              	.L3:
  60 0020 00000000 		.word	doServe
  61 0024 00000000 		.word	isServing
  62              		.cfi_endproc
  63              	.LFE35:
  64              		.size	CheckForBallServeRequest, .-CheckForBallServeRequest
  65              		.section	.text.StopBallServe,"ax",%progbits
  66              		.align	2
  67              		.global	StopBallServe
  68              		.code	16
  69              		.thumb_func
  70              		.type	StopBallServe, %function
  71              	StopBallServe:
  72              	.LFB36:
  10:ballServeController.c **** 
  11:ballServeController.c **** void StopBallServe() {
  73              		.loc 1 11 0
  74              		.cfi_startproc
  75              		@ args = 0, pretend = 0, frame = 0
  76              		@ frame_needed = 0, uses_anonymous_args = 0
  77 0000 10B5     		push	{r4, lr}
  78              		.cfi_def_cfa_offset 8
  79              		.cfi_offset 4, -8
  80              		.cfi_offset 14, -4
  12:ballServeController.c ****     Pin_Output_Serve_Write(0);
  81              		.loc 1 12 0
  82 0002 0020     		movs	r0, #0
  83 0004 FFF7FEFF 		bl	Pin_Output_Serve_Write
  84              	.LVL1:
  13:ballServeController.c ****     isServing = false;
  85              		.loc 1 13 0
  86 0008 0022     		movs	r2, #0
  87 000a 014B     		ldr	r3, .L6
  88 000c 1A70     		strb	r2, [r3]
  14:ballServeController.c **** }
  89              		.loc 1 14 0
  90              		@ sp needed
  91 000e 10BD     		pop	{r4, pc}
  92              	.L7:
  93              		.align	2
  94              	.L6:
  95 0010 00000000 		.word	isServing
  96              		.cfi_endproc
  97              	.LFE36:
  98              		.size	StopBallServe, .-StopBallServe
  99              		.section	.text.UpdateServing,"ax",%progbits
 100              		.align	2
ARM GAS  C:\Windows\TEMP\ccS6xh7D.s 			page 3


 101              		.global	UpdateServing
 102              		.code	16
 103              		.thumb_func
 104              		.type	UpdateServing, %function
 105              	UpdateServing:
 106              	.LFB37:
  15:ballServeController.c **** 
  16:ballServeController.c **** void UpdateServing() {
 107              		.loc 1 16 0
 108              		.cfi_startproc
 109              		@ args = 0, pretend = 0, frame = 0
 110              		@ frame_needed = 0, uses_anonymous_args = 0
 111 0000 10B5     		push	{r4, lr}
 112              		.cfi_def_cfa_offset 8
 113              		.cfi_offset 4, -8
 114              		.cfi_offset 14, -4
  17:ballServeController.c ****     // turn on and off to reduce speed
  18:ballServeController.c ****     if(isServing) {
 115              		.loc 1 18 0
 116 0002 0B4B     		ldr	r3, .L11
 117 0004 1B78     		ldrb	r3, [r3]
 118 0006 002B     		cmp	r3, #0
 119 0008 10D0     		beq	.L8
  19:ballServeController.c ****         counter = (counter + 1) % 8;
 120              		.loc 1 19 0
 121 000a 0A48     		ldr	r0, .L11+4
 122 000c 0368     		ldr	r3, [r0]
 123 000e 5A1C     		adds	r2, r3, #1
 124 0010 D317     		asrs	r3, r2, #31
 125 0012 590F     		lsrs	r1, r3, #29
 126 0014 5218     		adds	r2, r2, r1
 127 0016 0723     		movs	r3, #7
 128 0018 1A40     		ands	r2, r3
 129 001a 531A     		subs	r3, r2, r1
 130 001c 0360     		str	r3, [r0]
  20:ballServeController.c ****         Pin_Output_Serve_Write(counter > 5);
 131              		.loc 1 20 0
 132 001e 0120     		movs	r0, #1
 133 0020 052B     		cmp	r3, #5
 134 0022 00DC     		bgt	.L10
 135 0024 0020     		movs	r0, #0
 136              	.L10:
 137 0026 C0B2     		uxtb	r0, r0
 138 0028 FFF7FEFF 		bl	Pin_Output_Serve_Write
 139              	.LVL2:
 140              	.L8:
  21:ballServeController.c ****     }
  22:ballServeController.c **** }
 141              		.loc 1 22 0
 142              		@ sp needed
 143 002c 10BD     		pop	{r4, pc}
 144              	.L12:
 145 002e C046     		.align	2
 146              	.L11:
 147 0030 00000000 		.word	isServing
 148 0034 00000000 		.word	counter
 149              		.cfi_endproc
ARM GAS  C:\Windows\TEMP\ccS6xh7D.s 			page 4


 150              	.LFE37:
 151              		.size	UpdateServing, .-UpdateServing
 152              		.section	.text.Pin_Input_BallTrigger_Handler,"ax",%progbits
 153              		.align	2
 154              		.global	Pin_Input_BallTrigger_Handler
 155              		.code	16
 156              		.thumb_func
 157              		.type	Pin_Input_BallTrigger_Handler, %function
 158              	Pin_Input_BallTrigger_Handler:
 159              	.LFB38:
  23:ballServeController.c **** 
  24:ballServeController.c **** 
  25:ballServeController.c **** CY_ISR(Pin_Input_BallTrigger_Handler){
 160              		.loc 1 25 0
 161              		.cfi_startproc
 162              		@ args = 0, pretend = 0, frame = 0
 163              		@ frame_needed = 0, uses_anonymous_args = 0
 164 0000 10B5     		push	{r4, lr}
 165              		.cfi_def_cfa_offset 8
 166              		.cfi_offset 4, -8
 167              		.cfi_offset 14, -4
  26:ballServeController.c ****     StopBallServe();
 168              		.loc 1 26 0
 169 0002 FFF7FEFF 		bl	StopBallServe
 170              	.LVL3:
  27:ballServeController.c **** 
  28:ballServeController.c ****     Pin_Input_BallTrigger_ClearInterrupt();
 171              		.loc 1 28 0
 172 0006 FFF7FEFF 		bl	Pin_Input_BallTrigger_ClearInterrupt
 173              	.LVL4:
  29:ballServeController.c **** }...
 174              		.loc 1 29 0
 175              		@ sp needed
 176 000a 10BD     		pop	{r4, pc}
 177              		.cfi_endproc
 178              	.LFE38:
 179              		.size	Pin_Input_BallTrigger_Handler, .-Pin_Input_BallTrigger_Handler
 180              		.comm	counter,4,4
 181              		.comm	isServing,1,1
 182              		.comm	doServe,1,1
 183              		.text
 184              	.Letext0:
 185              		.file 2 "Generated_Source\\PSoC4/Bluetooth_Stack.h"
 186              		.file 3 "Generated_Source\\PSoC4/Bluetooth_aios.h"
 187              		.file 4 "ballServeController.h"
 188              		.file 5 "Generated_Source\\PSoC4/Pin_Output_Serve.h"
 189              		.file 6 "Generated_Source\\PSoC4/Pin_Input_BallTrigger.h"