ARM GAS  C:\Windows\TEMP\cc5RoFpJ.s 			page 1


   1              		.syntax unified
   2              		.cpu cortex-m0
   3              		.fpu softvfp
   4              		.eabi_attribute 20, 1
   5              		.eabi_attribute 21, 1
   6              		.eabi_attribute 23, 3
   7              		.eabi_attribute 24, 1
   8              		.eabi_attribute 25, 1
   9              		.eabi_attribute 26, 1
  10              		.eabi_attribute 30, 1
  11              		.eabi_attribute 34, 0
  12              		.eabi_attribute 18, 4
  13              		.thumb
  14              		.syntax unified
  15              		.file	"BLE_1_aios.c"
  16              		.text
  17              	.Ltext0:
  18              		.cfi_sections	.debug_frame
  19              		.section	.text.CyBle_AiosRegisterAttrCallback,"ax",%progbits
  20              		.align	2
  21              		.global	CyBle_AiosRegisterAttrCallback
  22              		.code	16
  23              		.thumb_func
  24              		.type	CyBle_AiosRegisterAttrCallback, %function
  25              	CyBle_AiosRegisterAttrCallback:
  26              	.LFB3:
  27              		.file 1 "Generated_Source\\PSoC4\\BLE_1_aios.c"
   1:Generated_Source\PSoC4/BLE_1_aios.c **** /***************************************************************************//**
   2:Generated_Source\PSoC4/BLE_1_aios.c **** * \file CYBLE_aios.c
   3:Generated_Source\PSoC4/BLE_1_aios.c **** * \version 3.30
   4:Generated_Source\PSoC4/BLE_1_aios.c **** * 
   5:Generated_Source\PSoC4/BLE_1_aios.c **** * \brief
   6:Generated_Source\PSoC4/BLE_1_aios.c **** *  Contains the source code for Automation Input Output Service.
   7:Generated_Source\PSoC4/BLE_1_aios.c **** * 
   8:Generated_Source\PSoC4/BLE_1_aios.c **** ********************************************************************************
   9:Generated_Source\PSoC4/BLE_1_aios.c **** * \copyright
  10:Generated_Source\PSoC4/BLE_1_aios.c **** * Copyright 2016, Cypress Semiconductor Corporation.  All rights reserved.
  11:Generated_Source\PSoC4/BLE_1_aios.c **** * You may use this file only in accordance with the license, terms, conditions,
  12:Generated_Source\PSoC4/BLE_1_aios.c **** * disclaimers, and limitations in the end user license agreement accompanying
  13:Generated_Source\PSoC4/BLE_1_aios.c **** * the software package with which this file was provided.
  14:Generated_Source\PSoC4/BLE_1_aios.c **** *******************************************************************************/
  15:Generated_Source\PSoC4/BLE_1_aios.c **** 
  16:Generated_Source\PSoC4/BLE_1_aios.c **** #include "BLE_1_eventHandler.h"
  17:Generated_Source\PSoC4/BLE_1_aios.c **** #include "BLE_1_aios.h"
  18:Generated_Source\PSoC4/BLE_1_aios.c ****  
  19:Generated_Source\PSoC4/BLE_1_aios.c **** 
  20:Generated_Source\PSoC4/BLE_1_aios.c **** #ifdef CYBLE_AIOS_SERVER
  21:Generated_Source\PSoC4/BLE_1_aios.c **** /* Generated code */
  22:Generated_Source\PSoC4/BLE_1_aios.c **** /* Digital characteristic data */
  23:Generated_Source\PSoC4/BLE_1_aios.c **** static CYBLE_AIOSS_CHAR_T aiossCharIdx0[0x02u] = {
  24:Generated_Source\PSoC4/BLE_1_aios.c ****     {
  25:Generated_Source\PSoC4/BLE_1_aios.c ****         0x0010u, /* Handle of the Digital characteristic */ 
  26:Generated_Source\PSoC4/BLE_1_aios.c ****         
  27:Generated_Source\PSoC4/BLE_1_aios.c ****             /* Array of Descriptors handles */
  28:Generated_Source\PSoC4/BLE_1_aios.c ****             {
  29:Generated_Source\PSoC4/BLE_1_aios.c ****                 CYBLE_GATT_INVALID_ATTR_HANDLE_VALUE, /* Handle of the Client Characteristic Config
  30:Generated_Source\PSoC4/BLE_1_aios.c ****                 0x0011u, /* Handle of the Characteristic Presentation Format descriptor */ 
ARM GAS  C:\Windows\TEMP\cc5RoFpJ.s 			page 2


  31:Generated_Source\PSoC4/BLE_1_aios.c ****                 0x0012u, /* Handle of the Characteristic User Description descriptor */ 
  32:Generated_Source\PSoC4/BLE_1_aios.c ****                 CYBLE_GATT_INVALID_ATTR_HANDLE_VALUE, /* Handle of the Characteristic Extended Prop
  33:Generated_Source\PSoC4/BLE_1_aios.c ****                 0x0013u, /* Handle of the Value Trigger Setting descriptor */ 
  34:Generated_Source\PSoC4/BLE_1_aios.c ****                 0x0014u, /* Handle of the Time Trigger Setting descriptor */ 
  35:Generated_Source\PSoC4/BLE_1_aios.c ****                 0x0015u, /* Handle of the Number of Digitals descriptor */ 
  36:Generated_Source\PSoC4/BLE_1_aios.c ****             }, 
  37:Generated_Source\PSoC4/BLE_1_aios.c ****     },
  38:Generated_Source\PSoC4/BLE_1_aios.c ****     {
  39:Generated_Source\PSoC4/BLE_1_aios.c ****         0x0021u, /* Handle of the Digital 2 characteristic */ 
  40:Generated_Source\PSoC4/BLE_1_aios.c ****         
  41:Generated_Source\PSoC4/BLE_1_aios.c ****             /* Array of Descriptors handles */
  42:Generated_Source\PSoC4/BLE_1_aios.c ****             {
  43:Generated_Source\PSoC4/BLE_1_aios.c ****                 CYBLE_GATT_INVALID_ATTR_HANDLE_VALUE, /* Handle of the Client Characteristic Config
  44:Generated_Source\PSoC4/BLE_1_aios.c ****                 0x0022u, /* Handle of the Characteristic Presentation Format descriptor */ 
  45:Generated_Source\PSoC4/BLE_1_aios.c ****                 0x0023u, /* Handle of the Characteristic User Description descriptor */ 
  46:Generated_Source\PSoC4/BLE_1_aios.c ****                 CYBLE_GATT_INVALID_ATTR_HANDLE_VALUE, /* Handle of the Characteristic Extended Prop
  47:Generated_Source\PSoC4/BLE_1_aios.c ****                 0x0024u, /* Handle of the Value Trigger Setting descriptor */ 
  48:Generated_Source\PSoC4/BLE_1_aios.c ****                 0x0025u, /* Handle of the Time Trigger Setting descriptor */ 
  49:Generated_Source\PSoC4/BLE_1_aios.c ****                 0x0026u, /* Handle of the Number of Digitals descriptor */ 
  50:Generated_Source\PSoC4/BLE_1_aios.c ****             }, 
  51:Generated_Source\PSoC4/BLE_1_aios.c ****     },
  52:Generated_Source\PSoC4/BLE_1_aios.c **** };
  53:Generated_Source\PSoC4/BLE_1_aios.c **** 
  54:Generated_Source\PSoC4/BLE_1_aios.c **** /* Analog characteristic data */
  55:Generated_Source\PSoC4/BLE_1_aios.c **** static CYBLE_AIOSS_CHAR_T aiossCharIdx1[0x02u] = {
  56:Generated_Source\PSoC4/BLE_1_aios.c ****     {
  57:Generated_Source\PSoC4/BLE_1_aios.c ****         0x0017u, /* Handle of the Analog characteristic */ 
  58:Generated_Source\PSoC4/BLE_1_aios.c ****         
  59:Generated_Source\PSoC4/BLE_1_aios.c ****             /* Array of Descriptors handles */
  60:Generated_Source\PSoC4/BLE_1_aios.c ****             {
  61:Generated_Source\PSoC4/BLE_1_aios.c ****                 CYBLE_GATT_INVALID_ATTR_HANDLE_VALUE, /* Handle of the Client Characteristic Config
  62:Generated_Source\PSoC4/BLE_1_aios.c ****                 0x0018u, /* Handle of the Characteristic Presentation Format descriptor */ 
  63:Generated_Source\PSoC4/BLE_1_aios.c ****                 0x0019u, /* Handle of the Characteristic User Description descriptor */ 
  64:Generated_Source\PSoC4/BLE_1_aios.c ****                 CYBLE_GATT_INVALID_ATTR_HANDLE_VALUE, /* Handle of the Characteristic Extended Prop
  65:Generated_Source\PSoC4/BLE_1_aios.c ****                 0x001Au, /* Handle of the Value Trigger Setting descriptor */ 
  66:Generated_Source\PSoC4/BLE_1_aios.c ****                 0x001Bu, /* Handle of the Time Trigger Setting descriptor */ 
  67:Generated_Source\PSoC4/BLE_1_aios.c ****                 0x001Cu, /* Handle of the Valid Range descriptor */ 
  68:Generated_Source\PSoC4/BLE_1_aios.c ****             }, 
  69:Generated_Source\PSoC4/BLE_1_aios.c ****     },
  70:Generated_Source\PSoC4/BLE_1_aios.c ****     {
  71:Generated_Source\PSoC4/BLE_1_aios.c ****         0x0028u, /* Handle of the Analog 2 characteristic */ 
  72:Generated_Source\PSoC4/BLE_1_aios.c ****         
  73:Generated_Source\PSoC4/BLE_1_aios.c ****             /* Array of Descriptors handles */
  74:Generated_Source\PSoC4/BLE_1_aios.c ****             {
  75:Generated_Source\PSoC4/BLE_1_aios.c ****                 CYBLE_GATT_INVALID_ATTR_HANDLE_VALUE, /* Handle of the Client Characteristic Config
  76:Generated_Source\PSoC4/BLE_1_aios.c ****                 0x0029u, /* Handle of the Characteristic Presentation Format descriptor */ 
  77:Generated_Source\PSoC4/BLE_1_aios.c ****                 0x002Au, /* Handle of the Characteristic User Description descriptor */ 
  78:Generated_Source\PSoC4/BLE_1_aios.c ****                 CYBLE_GATT_INVALID_ATTR_HANDLE_VALUE, /* Handle of the Characteristic Extended Prop
  79:Generated_Source\PSoC4/BLE_1_aios.c ****                 0x002Bu, /* Handle of the Value Trigger Setting descriptor */ 
  80:Generated_Source\PSoC4/BLE_1_aios.c ****                 0x002Cu, /* Handle of the Time Trigger Setting descriptor */ 
  81:Generated_Source\PSoC4/BLE_1_aios.c ****                 0x002Du, /* Handle of the Valid Range descriptor */ 
  82:Generated_Source\PSoC4/BLE_1_aios.c ****             }, 
  83:Generated_Source\PSoC4/BLE_1_aios.c ****     },
  84:Generated_Source\PSoC4/BLE_1_aios.c **** };
  85:Generated_Source\PSoC4/BLE_1_aios.c **** 
  86:Generated_Source\PSoC4/BLE_1_aios.c **** /* Aggregate characteristic data */
  87:Generated_Source\PSoC4/BLE_1_aios.c **** static CYBLE_AIOSS_CHAR_T aiossCharIdx2[0x01u] = {
ARM GAS  C:\Windows\TEMP\cc5RoFpJ.s 			page 3


  88:Generated_Source\PSoC4/BLE_1_aios.c ****     {
  89:Generated_Source\PSoC4/BLE_1_aios.c ****         0x001Eu, /* Handle of the Aggregate characteristic */ 
  90:Generated_Source\PSoC4/BLE_1_aios.c ****         
  91:Generated_Source\PSoC4/BLE_1_aios.c ****             /* Array of Descriptors handles */
  92:Generated_Source\PSoC4/BLE_1_aios.c ****             {
  93:Generated_Source\PSoC4/BLE_1_aios.c ****                 0x001Fu, /* Handle of the Client Characteristic Configuration descriptor */ 
  94:Generated_Source\PSoC4/BLE_1_aios.c ****                 CYBLE_GATT_INVALID_ATTR_HANDLE_VALUE, 
  95:Generated_Source\PSoC4/BLE_1_aios.c ****                 CYBLE_GATT_INVALID_ATTR_HANDLE_VALUE, 
  96:Generated_Source\PSoC4/BLE_1_aios.c ****                 CYBLE_GATT_INVALID_ATTR_HANDLE_VALUE, 
  97:Generated_Source\PSoC4/BLE_1_aios.c ****                 CYBLE_GATT_INVALID_ATTR_HANDLE_VALUE, 
  98:Generated_Source\PSoC4/BLE_1_aios.c ****                 CYBLE_GATT_INVALID_ATTR_HANDLE_VALUE, 
  99:Generated_Source\PSoC4/BLE_1_aios.c ****                 CYBLE_GATT_INVALID_ATTR_HANDLE_VALUE, 
 100:Generated_Source\PSoC4/BLE_1_aios.c ****             }, 
 101:Generated_Source\PSoC4/BLE_1_aios.c ****     },
 102:Generated_Source\PSoC4/BLE_1_aios.c **** };
 103:Generated_Source\PSoC4/BLE_1_aios.c **** 
 104:Generated_Source\PSoC4/BLE_1_aios.c **** /* Number of AIOS characteristics instances */
 105:Generated_Source\PSoC4/BLE_1_aios.c **** uint8 cyBle_aiossCharInstances[0x03u] = {
 106:Generated_Source\PSoC4/BLE_1_aios.c ****     0x02u, 0x02u, 0x01u
 107:Generated_Source\PSoC4/BLE_1_aios.c **** };
 108:Generated_Source\PSoC4/BLE_1_aios.c **** 
 109:Generated_Source\PSoC4/BLE_1_aios.c **** const CYBLE_AIOSS_T cyBle_aioss =
 110:Generated_Source\PSoC4/BLE_1_aios.c **** {
 111:Generated_Source\PSoC4/BLE_1_aios.c ****     0x000Eu,    /* Handle of the AIOS service */
 112:Generated_Source\PSoC4/BLE_1_aios.c ****     {
 113:Generated_Source\PSoC4/BLE_1_aios.c ****         {
 114:Generated_Source\PSoC4/BLE_1_aios.c ****             &aiossCharIdx0[0], /* Handle of the Digital characteristic */ 
 115:Generated_Source\PSoC4/BLE_1_aios.c ****         }, 
 116:Generated_Source\PSoC4/BLE_1_aios.c ****         {
 117:Generated_Source\PSoC4/BLE_1_aios.c ****             &aiossCharIdx1[0], /* Handle of the Analog characteristic */ 
 118:Generated_Source\PSoC4/BLE_1_aios.c ****         }, 
 119:Generated_Source\PSoC4/BLE_1_aios.c ****         {
 120:Generated_Source\PSoC4/BLE_1_aios.c ****             &aiossCharIdx2[0], /* Handle of the Aggregate characteristic */ 
 121:Generated_Source\PSoC4/BLE_1_aios.c ****         }, 
 122:Generated_Source\PSoC4/BLE_1_aios.c ****     },
 123:Generated_Source\PSoC4/BLE_1_aios.c **** };
 124:Generated_Source\PSoC4/BLE_1_aios.c **** 
 125:Generated_Source\PSoC4/BLE_1_aios.c **** /* End of generated code */
 126:Generated_Source\PSoC4/BLE_1_aios.c ****     
 127:Generated_Source\PSoC4/BLE_1_aios.c **** static CYBLE_GATT_DB_ATTR_HANDLE_T cyBle_aiossReqHandle;
 128:Generated_Source\PSoC4/BLE_1_aios.c **** 
 129:Generated_Source\PSoC4/BLE_1_aios.c **** #endif /* CYBLE_AIOS_SERVER */
 130:Generated_Source\PSoC4/BLE_1_aios.c **** 
 131:Generated_Source\PSoC4/BLE_1_aios.c **** #ifdef CYBLE_AIOS_CLIENT
 132:Generated_Source\PSoC4/BLE_1_aios.c **** /* Generated code */
 133:Generated_Source\PSoC4/BLE_1_aios.c **** 
 134:Generated_Source\PSoC4/BLE_1_aios.c **** /* End of generated code */
 135:Generated_Source\PSoC4/BLE_1_aios.c **** 
 136:Generated_Source\PSoC4/BLE_1_aios.c **** static CYBLE_GATT_DB_ATTR_HANDLE_T cyBle_aioscReqHandle;
 137:Generated_Source\PSoC4/BLE_1_aios.c **** 
 138:Generated_Source\PSoC4/BLE_1_aios.c **** uint8 cyBle_aioscActiveCharIndex = 0u;
 139:Generated_Source\PSoC4/BLE_1_aios.c **** uint8 cyBle_aioscActiveCharInstance = 0u;
 140:Generated_Source\PSoC4/BLE_1_aios.c **** uint8 cyBle_aioscPrevCharInstIndex;
 141:Generated_Source\PSoC4/BLE_1_aios.c **** 
 142:Generated_Source\PSoC4/BLE_1_aios.c **** #endif /* (CYBLE_AIOS_CLIENT) */
 143:Generated_Source\PSoC4/BLE_1_aios.c **** 
 144:Generated_Source\PSoC4/BLE_1_aios.c **** static CYBLE_CALLBACK_T CyBle_AiosApplCallback = NULL;
ARM GAS  C:\Windows\TEMP\cc5RoFpJ.s 			page 4


 145:Generated_Source\PSoC4/BLE_1_aios.c **** 
 146:Generated_Source\PSoC4/BLE_1_aios.c **** /******************************************************************************
 147:Generated_Source\PSoC4/BLE_1_aios.c **** * Function Name: CyBle_AiosInit
 148:Generated_Source\PSoC4/BLE_1_aios.c **** ***************************************************************************//**
 149:Generated_Source\PSoC4/BLE_1_aios.c **** * 
 150:Generated_Source\PSoC4/BLE_1_aios.c **** *  This function initializes the Automation IO Service.
 151:Generated_Source\PSoC4/BLE_1_aios.c **** * 
 152:Generated_Source\PSoC4/BLE_1_aios.c **** ******************************************************************************/
 153:Generated_Source\PSoC4/BLE_1_aios.c **** void CyBle_AiosInit(void)
 154:Generated_Source\PSoC4/BLE_1_aios.c **** {
 155:Generated_Source\PSoC4/BLE_1_aios.c **** #ifdef CYBLE_AIOS_CLIENT
 156:Generated_Source\PSoC4/BLE_1_aios.c ****    
 157:Generated_Source\PSoC4/BLE_1_aios.c ****     uint8 i;
 158:Generated_Source\PSoC4/BLE_1_aios.c ****     uint8 j;
 159:Generated_Source\PSoC4/BLE_1_aios.c **** 
 160:Generated_Source\PSoC4/BLE_1_aios.c ****     cyBle_aioscActiveCharIndex = 0u;
 161:Generated_Source\PSoC4/BLE_1_aios.c ****     cyBle_aioscActiveCharInstance = 0u;
 162:Generated_Source\PSoC4/BLE_1_aios.c ****     cyBle_aioscPrevCharInstIndex = 0u;
 163:Generated_Source\PSoC4/BLE_1_aios.c **** 
 164:Generated_Source\PSoC4/BLE_1_aios.c ****     if(cyBle_serverInfo[CYBLE_SRVI_AIOS].range.startHandle == CYBLE_GATT_INVALID_ATTR_HANDLE_VALUE)
 165:Generated_Source\PSoC4/BLE_1_aios.c ****     {
 166:Generated_Source\PSoC4/BLE_1_aios.c ****         for(i = (uint8) CYBLE_AIOS_DIGITAL; (i < ((uint8) CYBLE_AIOS_CHAR_COUNT)); i++)
 167:Generated_Source\PSoC4/BLE_1_aios.c ****         {
 168:Generated_Source\PSoC4/BLE_1_aios.c ****             for(j = 0u; j < cyBle_aioscCharInstances[i]; j++)
 169:Generated_Source\PSoC4/BLE_1_aios.c ****             {
 170:Generated_Source\PSoC4/BLE_1_aios.c ****                 (void) memset(&cyBle_aiosc.charInfoAddr[i].charInfoPtr[j], 0, sizeof(CYBLE_AIOSC_CH
 171:Generated_Source\PSoC4/BLE_1_aios.c ****             }
 172:Generated_Source\PSoC4/BLE_1_aios.c ****         }
 173:Generated_Source\PSoC4/BLE_1_aios.c ****     }
 174:Generated_Source\PSoC4/BLE_1_aios.c ****     cyBle_aioscReqHandle = CYBLE_GATT_INVALID_ATTR_HANDLE_VALUE;
 175:Generated_Source\PSoC4/BLE_1_aios.c ****     
 176:Generated_Source\PSoC4/BLE_1_aios.c **** #endif /* CYBLE_AIOS_CLIENT */
 177:Generated_Source\PSoC4/BLE_1_aios.c **** 
 178:Generated_Source\PSoC4/BLE_1_aios.c **** #ifdef CYBLE_AIOS_SERVER
 179:Generated_Source\PSoC4/BLE_1_aios.c ****     (void)CyBle_AiosSetAggregateChar();
 180:Generated_Source\PSoC4/BLE_1_aios.c **** #endif /* CYBLE_AIOS_SERVER */
 181:Generated_Source\PSoC4/BLE_1_aios.c **** 
 182:Generated_Source\PSoC4/BLE_1_aios.c **** }
 183:Generated_Source\PSoC4/BLE_1_aios.c **** 
 184:Generated_Source\PSoC4/BLE_1_aios.c **** /******************************************************************************
 185:Generated_Source\PSoC4/BLE_1_aios.c **** * Function Name: CyBle_AiosRegisterAttrCallback
 186:Generated_Source\PSoC4/BLE_1_aios.c **** ***************************************************************************//**
 187:Generated_Source\PSoC4/BLE_1_aios.c **** * 
 188:Generated_Source\PSoC4/BLE_1_aios.c **** *  Registers a callback function for service specific attribute operations.
 189:Generated_Source\PSoC4/BLE_1_aios.c **** *  Service specific write requests from peer device will not be handled with
 190:Generated_Source\PSoC4/BLE_1_aios.c **** *  unregistered callback function.
 191:Generated_Source\PSoC4/BLE_1_aios.c **** * 
 192:Generated_Source\PSoC4/BLE_1_aios.c **** *  \param callbackFunc:  An application layer event callback function to receive
 193:Generated_Source\PSoC4/BLE_1_aios.c **** *                 events from the BLE Component. The definition of
 194:Generated_Source\PSoC4/BLE_1_aios.c **** *                 CYBLE_CALLBACK_T for AIOS Service is:\n
 195:Generated_Source\PSoC4/BLE_1_aios.c **** *                 typedef void (* CYBLE_CALLBACK_T) (uint32 eventCode,
 196:Generated_Source\PSoC4/BLE_1_aios.c **** *                                                    void *eventParam)
 197:Generated_Source\PSoC4/BLE_1_aios.c **** *                 * eventCode:  Indicates the event that triggered this callback
 198:Generated_Source\PSoC4/BLE_1_aios.c **** *                   (e.g. CYBLE_EVT_AIOS_NOTIFICATION_ENABLED).
 199:Generated_Source\PSoC4/BLE_1_aios.c **** *                 * eventParam: Contains the parameters corresponding to the
 200:Generated_Source\PSoC4/BLE_1_aios.c **** *                   current event. (e.g. Pointer to CYBLE_AIOS_CHAR_VALUE_T
 201:Generated_Source\PSoC4/BLE_1_aios.c **** *                   structure that contains details of the characteristic
ARM GAS  C:\Windows\TEMP\cc5RoFpJ.s 			page 5


 202:Generated_Source\PSoC4/BLE_1_aios.c **** *                   for which the notification enabled event was triggered).
 203:Generated_Source\PSoC4/BLE_1_aios.c **** * 
 204:Generated_Source\PSoC4/BLE_1_aios.c **** ******************************************************************************/
 205:Generated_Source\PSoC4/BLE_1_aios.c **** void CyBle_AiosRegisterAttrCallback(CYBLE_CALLBACK_T callbackFunc)
 206:Generated_Source\PSoC4/BLE_1_aios.c **** {
  28              		.loc 1 206 0
  29              		.cfi_startproc
  30              		@ args = 0, pretend = 0, frame = 0
  31              		@ frame_needed = 0, uses_anonymous_args = 0
  32              		@ link register save eliminated.
  33              	.LVL0:
 207:Generated_Source\PSoC4/BLE_1_aios.c ****     CyBle_AiosApplCallback = callbackFunc;
  34              		.loc 1 207 0
  35 0000 014B     		ldr	r3, .L2
  36 0002 1860     		str	r0, [r3]
 208:Generated_Source\PSoC4/BLE_1_aios.c ****     
 209:Generated_Source\PSoC4/BLE_1_aios.c **** }
  37              		.loc 1 209 0
  38              		@ sp needed
  39 0004 7047     		bx	lr
  40              	.L3:
  41 0006 C046     		.align	2
  42              	.L2:
  43 0008 00000000 		.word	.LANCHOR0
  44              		.cfi_endproc
  45              	.LFE3:
  46              		.size	CyBle_AiosRegisterAttrCallback, .-CyBle_AiosRegisterAttrCallback
  47              		.section	.text.CyBle_AiossGetCharacteristicValue,"ax",%progbits
  48              		.align	2
  49              		.global	CyBle_AiossGetCharacteristicValue
  50              		.code	16
  51              		.thumb_func
  52              		.type	CyBle_AiossGetCharacteristicValue, %function
  53              	CyBle_AiossGetCharacteristicValue:
  54              	.LFB6:
 210:Generated_Source\PSoC4/BLE_1_aios.c **** 
 211:Generated_Source\PSoC4/BLE_1_aios.c **** #ifdef CYBLE_AIOS_SERVER
 212:Generated_Source\PSoC4/BLE_1_aios.c **** 
 213:Generated_Source\PSoC4/BLE_1_aios.c **** /******************************************************************************
 214:Generated_Source\PSoC4/BLE_1_aios.c **** * Function Name: CyBle_AiossWriteEventHandler
 215:Generated_Source\PSoC4/BLE_1_aios.c **** ***************************************************************************//**
 216:Generated_Source\PSoC4/BLE_1_aios.c **** * 
 217:Generated_Source\PSoC4/BLE_1_aios.c **** *  Handles the Write Request Event.
 218:Generated_Source\PSoC4/BLE_1_aios.c **** * 
 219:Generated_Source\PSoC4/BLE_1_aios.c **** *  \param eventParam: The pointer to the data structure specified by the event.
 220:Generated_Source\PSoC4/BLE_1_aios.c **** * 
 221:Generated_Source\PSoC4/BLE_1_aios.c **** * \return
 222:Generated_Source\PSoC4/BLE_1_aios.c **** *  CYBLE_GATT_ERR_CODE_T - An API result state if the API succeeded
 223:Generated_Source\PSoC4/BLE_1_aios.c **** *  (CYBLE_GATT_ERR_NONE) or failed with error codes:
 224:Generated_Source\PSoC4/BLE_1_aios.c **** *   * CYBLE_GATTS_ERR_PROCEDURE_ALREADY_IN_PROGRESS - profile or service
 225:Generated_Source\PSoC4/BLE_1_aios.c **** *                           request cannot be serviced because an operation t
 226:Generated_Source\PSoC4/BLE_1_aios.c **** *                           hat has been previously triggered is still in progress.
 227:Generated_Source\PSoC4/BLE_1_aios.c **** *   * CYBLE_GATTS_ERR_CCCD_IMPROPERLY_CONFIGURED - Client Characteristic Configuration 
 228:Generated_Source\PSoC4/BLE_1_aios.c **** *                           descriptor is not configured according to the requirements
 229:Generated_Source\PSoC4/BLE_1_aios.c **** *                           of the profile or service.
 230:Generated_Source\PSoC4/BLE_1_aios.c **** * 
 231:Generated_Source\PSoC4/BLE_1_aios.c **** ******************************************************************************/
ARM GAS  C:\Windows\TEMP\cc5RoFpJ.s 			page 6


 232:Generated_Source\PSoC4/BLE_1_aios.c **** CYBLE_GATT_ERR_CODE_T CyBle_AiossWriteEventHandler(CYBLE_GATTS_WRITE_REQ_PARAM_T *eventParam)
 233:Generated_Source\PSoC4/BLE_1_aios.c **** {
 234:Generated_Source\PSoC4/BLE_1_aios.c ****     uint8 i;
 235:Generated_Source\PSoC4/BLE_1_aios.c ****     uint8 j;
 236:Generated_Source\PSoC4/BLE_1_aios.c ****     CYBLE_GATT_ERR_CODE_T gattErr = CYBLE_GATT_ERR_NONE;
 237:Generated_Source\PSoC4/BLE_1_aios.c ****     CYBLE_GATT_DB_ATTR_HANDLE_T tmpHandle;
 238:Generated_Source\PSoC4/BLE_1_aios.c ****     uint8 foundItem = CYBLE_AIOS_UNDEFINED_ITEM;
 239:Generated_Source\PSoC4/BLE_1_aios.c ****     CYBLE_AIOSS_CHAR_T *aiosCharInfoPtr;
 240:Generated_Source\PSoC4/BLE_1_aios.c ****     CYBLE_AIOS_DESCR_VALUE_T wrDescrReqParam;
 241:Generated_Source\PSoC4/BLE_1_aios.c ****     uint32 event = 0u;
 242:Generated_Source\PSoC4/BLE_1_aios.c ****     CYBLE_AIOS_CHAR_VALUE_T wrCharReqParam;
 243:Generated_Source\PSoC4/BLE_1_aios.c ****     uint8 descInd;
 244:Generated_Source\PSoC4/BLE_1_aios.c ****     
 245:Generated_Source\PSoC4/BLE_1_aios.c ****     tmpHandle = eventParam->handleValPair.attrHandle;
 246:Generated_Source\PSoC4/BLE_1_aios.c ****     
 247:Generated_Source\PSoC4/BLE_1_aios.c ****     if(CyBle_AiosApplCallback != NULL)
 248:Generated_Source\PSoC4/BLE_1_aios.c ****     {
 249:Generated_Source\PSoC4/BLE_1_aios.c ****         /* Go through all possible Service characteristics.
 250:Generated_Source\PSoC4/BLE_1_aios.c ****         * Exit the handler in following conditions:
 251:Generated_Source\PSoC4/BLE_1_aios.c ****         * 1) No more characteristic left;
 252:Generated_Source\PSoC4/BLE_1_aios.c ****         * 2) Characteristic or descriptor was successfully written;
 253:Generated_Source\PSoC4/BLE_1_aios.c ****         * 3) Error occurred while writing characteristic or descriptor.
 254:Generated_Source\PSoC4/BLE_1_aios.c ****         */
 255:Generated_Source\PSoC4/BLE_1_aios.c ****         for(i = 0u; ((i < ((uint8) CYBLE_AIOS_CHAR_COUNT)) && (foundItem == 0u) && (gattErr == CYBL
 256:Generated_Source\PSoC4/BLE_1_aios.c ****             i++)
 257:Generated_Source\PSoC4/BLE_1_aios.c ****         {
 258:Generated_Source\PSoC4/BLE_1_aios.c ****             /* Check if characteristic is enabled. If the pointer to the characteristic
 259:Generated_Source\PSoC4/BLE_1_aios.c ****             * is not "NULL", there is at least one instance of the characteristic in
 260:Generated_Source\PSoC4/BLE_1_aios.c ****             * the AIO Service.
 261:Generated_Source\PSoC4/BLE_1_aios.c ****             */
 262:Generated_Source\PSoC4/BLE_1_aios.c ****             
 263:Generated_Source\PSoC4/BLE_1_aios.c ****             if(cyBle_aioss.charInfoAddr[i].charInfoPtr != NULL)
 264:Generated_Source\PSoC4/BLE_1_aios.c ****             {   
 265:Generated_Source\PSoC4/BLE_1_aios.c ****                 for(j = 0u; j < cyBle_aiossCharInstances[i]; j++)
 266:Generated_Source\PSoC4/BLE_1_aios.c ****                 {
 267:Generated_Source\PSoC4/BLE_1_aios.c ****                     aiosCharInfoPtr = &cyBle_aioss.charInfoAddr[i].charInfoPtr[j];
 268:Generated_Source\PSoC4/BLE_1_aios.c ****                     
 269:Generated_Source\PSoC4/BLE_1_aios.c ****                     /* Client Characteristic Write Request handling */
 270:Generated_Source\PSoC4/BLE_1_aios.c ****                     if(tmpHandle == aiosCharInfoPtr->charHandle)
 271:Generated_Source\PSoC4/BLE_1_aios.c ****                     {
 272:Generated_Source\PSoC4/BLE_1_aios.c ****                         wrDescrReqParam.descrIndex = CYBLE_AIOS_DESCR_COUNT;
 273:Generated_Source\PSoC4/BLE_1_aios.c ****                         foundItem = CYBLE_AIOS_CHARACTERISTIC_ITEM;
 274:Generated_Source\PSoC4/BLE_1_aios.c ****                     }                
 275:Generated_Source\PSoC4/BLE_1_aios.c ****                     
 276:Generated_Source\PSoC4/BLE_1_aios.c ****                     /* Client Characteristic Descriptor Write Request handling */
 277:Generated_Source\PSoC4/BLE_1_aios.c ****                     else
 278:Generated_Source\PSoC4/BLE_1_aios.c ****                     {
 279:Generated_Source\PSoC4/BLE_1_aios.c ****                         /* No handle match was found */
 280:Generated_Source\PSoC4/BLE_1_aios.c ****                         wrDescrReqParam.descrIndex = CYBLE_AIOS_DESCR_COUNT;
 281:Generated_Source\PSoC4/BLE_1_aios.c ****                         
 282:Generated_Source\PSoC4/BLE_1_aios.c ****                         for(descInd = 0u; (descInd < (uint8)CYBLE_AIOS_DESCR_COUNT) && (foundItem !
 283:Generated_Source\PSoC4/BLE_1_aios.c ****                         {
 284:Generated_Source\PSoC4/BLE_1_aios.c **** 	                        if(aiosCharInfoPtr->descrHandle[descInd] == tmpHandle)
 285:Generated_Source\PSoC4/BLE_1_aios.c **** 	                        {
 286:Generated_Source\PSoC4/BLE_1_aios.c **** 		                        wrDescrReqParam.descrIndex = (CYBLE_AIOS_DESCR_INDEX_T)descInd;
 287:Generated_Source\PSoC4/BLE_1_aios.c **** 		                        foundItem = CYBLE_AIOS_DESCRIPTOR_ITEM;
 288:Generated_Source\PSoC4/BLE_1_aios.c **** 	                        }
ARM GAS  C:\Windows\TEMP\cc5RoFpJ.s 			page 7


 289:Generated_Source\PSoC4/BLE_1_aios.c ****                         }
 290:Generated_Source\PSoC4/BLE_1_aios.c ****                     }
 291:Generated_Source\PSoC4/BLE_1_aios.c ****                        
 292:Generated_Source\PSoC4/BLE_1_aios.c ****                     /* Verify if requested handle was found and successfully handled */
 293:Generated_Source\PSoC4/BLE_1_aios.c ****                     if((gattErr == CYBLE_GATT_ERR_NONE) && (foundItem == CYBLE_AIOS_DESCRIPTOR_ITEM
 294:Generated_Source\PSoC4/BLE_1_aios.c ****                     {
 295:Generated_Source\PSoC4/BLE_1_aios.c ****                         switch(wrDescrReqParam.descrIndex)
 296:Generated_Source\PSoC4/BLE_1_aios.c ****                         {
 297:Generated_Source\PSoC4/BLE_1_aios.c ****                         case CYBLE_AIOS_CCCD :
 298:Generated_Source\PSoC4/BLE_1_aios.c ****                              /* Verify that optional notification property is enabled for character
 299:Generated_Source\PSoC4/BLE_1_aios.c ****                             if(CYBLE_IS_NOTIFICATION_SUPPORTED(aiosCharInfoPtr->charHandle))
 300:Generated_Source\PSoC4/BLE_1_aios.c ****                             {
 301:Generated_Source\PSoC4/BLE_1_aios.c ****                                 if(CYBLE_IS_NOTIFICATION_ENABLED_IN_PTR(eventParam->handleValPair.v
 302:Generated_Source\PSoC4/BLE_1_aios.c ****                                 {
 303:Generated_Source\PSoC4/BLE_1_aios.c ****                                     event = (uint32)CYBLE_EVT_AIOSS_NOTIFICATION_ENABLED;
 304:Generated_Source\PSoC4/BLE_1_aios.c ****                                 }
 305:Generated_Source\PSoC4/BLE_1_aios.c ****                                 else
 306:Generated_Source\PSoC4/BLE_1_aios.c ****                                 {
 307:Generated_Source\PSoC4/BLE_1_aios.c ****                                     event = (uint32)CYBLE_EVT_AIOSS_NOTIFICATION_DISABLED;
 308:Generated_Source\PSoC4/BLE_1_aios.c ****                                 }
 309:Generated_Source\PSoC4/BLE_1_aios.c **** 
 310:Generated_Source\PSoC4/BLE_1_aios.c ****                             #if((CYBLE_GAP_ROLE_PERIPHERAL || CYBLE_GAP_ROLE_CENTRAL) && \
 311:Generated_Source\PSoC4/BLE_1_aios.c ****                                 (CYBLE_BONDING_REQUIREMENT == CYBLE_BONDING_YES))
 312:Generated_Source\PSoC4/BLE_1_aios.c ****                                 /* Set flag to store bonding data to flash */
 313:Generated_Source\PSoC4/BLE_1_aios.c ****                                 if(cyBle_peerBonding == CYBLE_GAP_BONDING)
 314:Generated_Source\PSoC4/BLE_1_aios.c ****                                 {
 315:Generated_Source\PSoC4/BLE_1_aios.c ****                                     cyBle_pendingFlashWrite |= CYBLE_PENDING_CCCD_FLASH_WRITE_BIT;
 316:Generated_Source\PSoC4/BLE_1_aios.c ****                                 }
 317:Generated_Source\PSoC4/BLE_1_aios.c ****                             #endif /* (CYBLE_BONDING_REQUIREMENT == CYBLE_BONDING_YES) */
 318:Generated_Source\PSoC4/BLE_1_aios.c ****                             }
 319:Generated_Source\PSoC4/BLE_1_aios.c ****                             else if(CYBLE_IS_INDICATION_SUPPORTED(aiosCharInfoPtr->charHandle))
 320:Generated_Source\PSoC4/BLE_1_aios.c ****                             {
 321:Generated_Source\PSoC4/BLE_1_aios.c ****                                 if(CYBLE_IS_INDICATION_ENABLED_IN_PTR(eventParam->handleValPair.val
 322:Generated_Source\PSoC4/BLE_1_aios.c ****                                 {
 323:Generated_Source\PSoC4/BLE_1_aios.c ****                                     event = (uint32)CYBLE_EVT_AIOSS_INDICATION_ENABLED;
 324:Generated_Source\PSoC4/BLE_1_aios.c ****                                 }
 325:Generated_Source\PSoC4/BLE_1_aios.c ****                                 else
 326:Generated_Source\PSoC4/BLE_1_aios.c ****                                 {
 327:Generated_Source\PSoC4/BLE_1_aios.c ****                                     event = (uint32)CYBLE_EVT_AIOSS_INDICATION_DISABLED;
 328:Generated_Source\PSoC4/BLE_1_aios.c ****                                 }
 329:Generated_Source\PSoC4/BLE_1_aios.c **** 
 330:Generated_Source\PSoC4/BLE_1_aios.c ****                             #if((CYBLE_GAP_ROLE_PERIPHERAL || CYBLE_GAP_ROLE_CENTRAL) && \
 331:Generated_Source\PSoC4/BLE_1_aios.c ****                                 (CYBLE_BONDING_REQUIREMENT == CYBLE_BONDING_YES))
 332:Generated_Source\PSoC4/BLE_1_aios.c ****                                 /* Set flag to store bonding data to flash */
 333:Generated_Source\PSoC4/BLE_1_aios.c ****                                 if(cyBle_peerBonding == CYBLE_GAP_BONDING)
 334:Generated_Source\PSoC4/BLE_1_aios.c ****                                 {
 335:Generated_Source\PSoC4/BLE_1_aios.c ****                                     cyBle_pendingFlashWrite |= CYBLE_PENDING_CCCD_FLASH_WRITE_BIT;
 336:Generated_Source\PSoC4/BLE_1_aios.c ****                                 }
 337:Generated_Source\PSoC4/BLE_1_aios.c ****                             #endif /* (CYBLE_BONDING_REQUIREMENT == CYBLE_BONDING_YES) */
 338:Generated_Source\PSoC4/BLE_1_aios.c ****                             }
 339:Generated_Source\PSoC4/BLE_1_aios.c ****                             else
 340:Generated_Source\PSoC4/BLE_1_aios.c ****                             {
 341:Generated_Source\PSoC4/BLE_1_aios.c ****                                 gattErr = CYBLE_GATT_ERR_REQUEST_NOT_SUPPORTED;
 342:Generated_Source\PSoC4/BLE_1_aios.c ****                             }
 343:Generated_Source\PSoC4/BLE_1_aios.c ****                             break;
 344:Generated_Source\PSoC4/BLE_1_aios.c ****                             
 345:Generated_Source\PSoC4/BLE_1_aios.c ****                         case CYBLE_AIOS_CHAR_USER_DESCRIPTION_DESCR:
ARM GAS  C:\Windows\TEMP\cc5RoFpJ.s 			page 8


 346:Generated_Source\PSoC4/BLE_1_aios.c ****                             if(CYBLE_GATT_DB_ATTR_GET_ATTR_GEN_MAX_LEN(
 347:Generated_Source\PSoC4/BLE_1_aios.c ****                                 aiosCharInfoPtr->descrHandle[CYBLE_AIOS_CHAR_USER_DESCRIPTION_DESCR
 348:Generated_Source\PSoC4/BLE_1_aios.c ****                                     eventParam->handleValPair.value.len)
 349:Generated_Source\PSoC4/BLE_1_aios.c ****                             {
 350:Generated_Source\PSoC4/BLE_1_aios.c ****                                 /* Set new length of the descriptor value */
 351:Generated_Source\PSoC4/BLE_1_aios.c ****                                 CYBLE_GATT_DB_ATTR_SET_ATTR_GEN_LEN(
 352:Generated_Source\PSoC4/BLE_1_aios.c ****                                     aiosCharInfoPtr->descrHandle[CYBLE_AIOS_CHAR_USER_DESCRIPTION_D
 353:Generated_Source\PSoC4/BLE_1_aios.c ****                                         eventParam->handleValPair.value.len);
 354:Generated_Source\PSoC4/BLE_1_aios.c ****                             }
 355:Generated_Source\PSoC4/BLE_1_aios.c ****                             else
 356:Generated_Source\PSoC4/BLE_1_aios.c ****                             {
 357:Generated_Source\PSoC4/BLE_1_aios.c ****                                 gattErr = CYBLE_GATT_ERR_INVALID_ATTRIBUTE_LEN;
 358:Generated_Source\PSoC4/BLE_1_aios.c ****                             }
 359:Generated_Source\PSoC4/BLE_1_aios.c ****                             break;
 360:Generated_Source\PSoC4/BLE_1_aios.c ****                         
 361:Generated_Source\PSoC4/BLE_1_aios.c ****                         case CYBLE_AIOS_VALUE_TRIGGER_SETTINGS:  
 362:Generated_Source\PSoC4/BLE_1_aios.c ****                             /* Trigger condition value not supported.*/
 363:Generated_Source\PSoC4/BLE_1_aios.c ****                             if( eventParam->handleValPair.value.val[0u] >= CYBLE_AIOS_VALUE_TRIGGER
 364:Generated_Source\PSoC4/BLE_1_aios.c ****                             {
 365:Generated_Source\PSoC4/BLE_1_aios.c ****                                 gattErr = CYBLE_GATT_ERR_TRIGGER_CODITION_VALUE_NOT_SUPPORTED;
 366:Generated_Source\PSoC4/BLE_1_aios.c ****                             }
 367:Generated_Source\PSoC4/BLE_1_aios.c ****                             break;
 368:Generated_Source\PSoC4/BLE_1_aios.c **** 
 369:Generated_Source\PSoC4/BLE_1_aios.c ****                         case CYBLE_AIOS_TIME_TRIGGER_SETTINGS:     
 370:Generated_Source\PSoC4/BLE_1_aios.c ****                             /* Trigger condition value not supported.*/
 371:Generated_Source\PSoC4/BLE_1_aios.c ****                             if( eventParam->handleValPair.value.val[0u] >= CYBLE_AIOS_TIME_TRIGGER_
 372:Generated_Source\PSoC4/BLE_1_aios.c ****                             {
 373:Generated_Source\PSoC4/BLE_1_aios.c ****                                 gattErr = CYBLE_GATT_ERR_TRIGGER_CODITION_VALUE_NOT_SUPPORTED;
 374:Generated_Source\PSoC4/BLE_1_aios.c ****                             }
 375:Generated_Source\PSoC4/BLE_1_aios.c ****                             break;
 376:Generated_Source\PSoC4/BLE_1_aios.c ****                             
 377:Generated_Source\PSoC4/BLE_1_aios.c ****                         default:
 378:Generated_Source\PSoC4/BLE_1_aios.c ****                             break;
 379:Generated_Source\PSoC4/BLE_1_aios.c ****                         }    
 380:Generated_Source\PSoC4/BLE_1_aios.c ****                     }                    
 381:Generated_Source\PSoC4/BLE_1_aios.c ****                     
 382:Generated_Source\PSoC4/BLE_1_aios.c ****                     /* Check is there no error conditions happen yet */
 383:Generated_Source\PSoC4/BLE_1_aios.c ****                     if((gattErr == CYBLE_GATT_ERR_NONE)
 384:Generated_Source\PSoC4/BLE_1_aios.c ****                     && ( (foundItem == CYBLE_AIOS_CHARACTERISTIC_ITEM) || (foundItem == CYBLE_AIOS_
 385:Generated_Source\PSoC4/BLE_1_aios.c ****                     {
 386:Generated_Source\PSoC4/BLE_1_aios.c ****                         gattErr = CyBle_GattDbCheckPermission(eventParam->handleValPair.attrHandle,
 387:Generated_Source\PSoC4/BLE_1_aios.c ****                                                               &eventParam->connHandle,
 388:Generated_Source\PSoC4/BLE_1_aios.c ****                                                               CYBLE_GATT_DB_WRITE | CYBLE_GATT_DB_P
 389:Generated_Source\PSoC4/BLE_1_aios.c ****                         
 390:Generated_Source\PSoC4/BLE_1_aios.c ****                         if(gattErr == CYBLE_GATT_ERR_NONE)
 391:Generated_Source\PSoC4/BLE_1_aios.c ****                         {
 392:Generated_Source\PSoC4/BLE_1_aios.c ****                             /* Fill data and pass it to user */
 393:Generated_Source\PSoC4/BLE_1_aios.c ****                                                           
 394:Generated_Source\PSoC4/BLE_1_aios.c ****                             if( foundItem == CYBLE_AIOS_CHARACTERISTIC_ITEM)
 395:Generated_Source\PSoC4/BLE_1_aios.c ****                             {
 396:Generated_Source\PSoC4/BLE_1_aios.c ****                                 wrCharReqParam.connHandle = eventParam->connHandle;
 397:Generated_Source\PSoC4/BLE_1_aios.c ****                                 wrCharReqParam.charIndex = (CYBLE_AIOS_CHAR_INDEX_T) i;
 398:Generated_Source\PSoC4/BLE_1_aios.c ****                                 wrCharReqParam.charInstance = j;
 399:Generated_Source\PSoC4/BLE_1_aios.c ****                                 wrCharReqParam.gattErrorCode = CYBLE_GATT_ERR_NONE;
 400:Generated_Source\PSoC4/BLE_1_aios.c ****                                 wrCharReqParam.value = &eventParam->handleValPair.value;
 401:Generated_Source\PSoC4/BLE_1_aios.c ****                             
 402:Generated_Source\PSoC4/BLE_1_aios.c ****                                 CyBle_AiosApplCallback(CYBLE_EVT_AIOSS_CHAR_WRITE, &wrCharReqParam)
ARM GAS  C:\Windows\TEMP\cc5RoFpJ.s 			page 9


 403:Generated_Source\PSoC4/BLE_1_aios.c ****                             }
 404:Generated_Source\PSoC4/BLE_1_aios.c ****                             else if (foundItem == CYBLE_AIOS_DESCRIPTOR_ITEM)
 405:Generated_Source\PSoC4/BLE_1_aios.c ****                             {
 406:Generated_Source\PSoC4/BLE_1_aios.c ****                                 wrDescrReqParam.connHandle = eventParam->connHandle;
 407:Generated_Source\PSoC4/BLE_1_aios.c ****                                 wrDescrReqParam.charIndex = (CYBLE_AIOS_CHAR_INDEX_T) i;
 408:Generated_Source\PSoC4/BLE_1_aios.c ****                                 wrDescrReqParam.charInstance = j;
 409:Generated_Source\PSoC4/BLE_1_aios.c ****                                 wrDescrReqParam.gattErrorCode = CYBLE_GATT_ERR_NONE;
 410:Generated_Source\PSoC4/BLE_1_aios.c ****                                 wrDescrReqParam.value = &eventParam->handleValPair.value;
 411:Generated_Source\PSoC4/BLE_1_aios.c ****                             
 412:Generated_Source\PSoC4/BLE_1_aios.c ****                                 CyBle_AiosApplCallback(CYBLE_EVT_AIOSS_DESCR_WRITE, &wrDescrReqPara
 413:Generated_Source\PSoC4/BLE_1_aios.c ****                             }
 414:Generated_Source\PSoC4/BLE_1_aios.c ****                             else 
 415:Generated_Source\PSoC4/BLE_1_aios.c ****                             {
 416:Generated_Source\PSoC4/BLE_1_aios.c ****                                 /* No handle match was found */
 417:Generated_Source\PSoC4/BLE_1_aios.c ****                             }
 418:Generated_Source\PSoC4/BLE_1_aios.c **** 
 419:Generated_Source\PSoC4/BLE_1_aios.c ****                             /* Write value to GATT database */
 420:Generated_Source\PSoC4/BLE_1_aios.c ****                             gattErr = CyBle_GattsWriteAttributeValue(&eventParam->handleValPair, 0u
 421:Generated_Source\PSoC4/BLE_1_aios.c ****                                 &eventParam->connHandle, CYBLE_GATT_DB_PEER_INITIATED);
 422:Generated_Source\PSoC4/BLE_1_aios.c ****                             
 423:Generated_Source\PSoC4/BLE_1_aios.c ****                             if( event != 0u )
 424:Generated_Source\PSoC4/BLE_1_aios.c ****                             {   
 425:Generated_Source\PSoC4/BLE_1_aios.c ****                                 CyBle_AiosApplCallback(event, &wrDescrReqParam);
 426:Generated_Source\PSoC4/BLE_1_aios.c ****                             }
 427:Generated_Source\PSoC4/BLE_1_aios.c ****                             else 
 428:Generated_Source\PSoC4/BLE_1_aios.c ****                             {
 429:Generated_Source\PSoC4/BLE_1_aios.c ****                                 /* No event was found */
 430:Generated_Source\PSoC4/BLE_1_aios.c ****                             }
 431:Generated_Source\PSoC4/BLE_1_aios.c ****                         }
 432:Generated_Source\PSoC4/BLE_1_aios.c ****                         cyBle_eventHandlerFlag &= (uint8)~CYBLE_CALLBACK;
 433:Generated_Source\PSoC4/BLE_1_aios.c ****                         break;
 434:Generated_Source\PSoC4/BLE_1_aios.c ****                     }
 435:Generated_Source\PSoC4/BLE_1_aios.c ****                 }
 436:Generated_Source\PSoC4/BLE_1_aios.c ****             }
 437:Generated_Source\PSoC4/BLE_1_aios.c ****         }
 438:Generated_Source\PSoC4/BLE_1_aios.c ****     }
 439:Generated_Source\PSoC4/BLE_1_aios.c **** 
 440:Generated_Source\PSoC4/BLE_1_aios.c ****     if(gattErr != CYBLE_GATT_ERR_NONE )
 441:Generated_Source\PSoC4/BLE_1_aios.c ****     {
 442:Generated_Source\PSoC4/BLE_1_aios.c ****         /* Indicate that request was handled */
 443:Generated_Source\PSoC4/BLE_1_aios.c ****         cyBle_eventHandlerFlag &= (uint8)~CYBLE_CALLBACK;
 444:Generated_Source\PSoC4/BLE_1_aios.c ****     }
 445:Generated_Source\PSoC4/BLE_1_aios.c ****     else
 446:Generated_Source\PSoC4/BLE_1_aios.c ****     {   
 447:Generated_Source\PSoC4/BLE_1_aios.c ****         if( foundItem == CYBLE_AIOS_CHARACTERISTIC_ITEM )
 448:Generated_Source\PSoC4/BLE_1_aios.c ****         {
 449:Generated_Source\PSoC4/BLE_1_aios.c ****             gattErr = CyBle_AiosSetAggregateChar();
 450:Generated_Source\PSoC4/BLE_1_aios.c ****         }
 451:Generated_Source\PSoC4/BLE_1_aios.c ****     }
 452:Generated_Source\PSoC4/BLE_1_aios.c ****     
 453:Generated_Source\PSoC4/BLE_1_aios.c ****     return (gattErr);
 454:Generated_Source\PSoC4/BLE_1_aios.c **** }
 455:Generated_Source\PSoC4/BLE_1_aios.c **** 
 456:Generated_Source\PSoC4/BLE_1_aios.c **** /******************************************************************************
 457:Generated_Source\PSoC4/BLE_1_aios.c **** * Function Name: CyBle_AiossSetCharacteristicValue
 458:Generated_Source\PSoC4/BLE_1_aios.c **** ***************************************************************************//**
 459:Generated_Source\PSoC4/BLE_1_aios.c **** * 
ARM GAS  C:\Windows\TEMP\cc5RoFpJ.s 			page 10


 460:Generated_Source\PSoC4/BLE_1_aios.c **** *  Sets the characteristic value of the service in the local database.
 461:Generated_Source\PSoC4/BLE_1_aios.c **** * 
 462:Generated_Source\PSoC4/BLE_1_aios.c **** *  \param charIndex: The index of the service characteristic. Starts with zero.
 463:Generated_Source\PSoC4/BLE_1_aios.c **** *  \param charInstance: The instance number of the characteristic specified by
 464:Generated_Source\PSoC4/BLE_1_aios.c **** *                "charIndex".
 465:Generated_Source\PSoC4/BLE_1_aios.c **** *  \param attrSize: The size (in bytes) of the characteristic value attribute.
 466:Generated_Source\PSoC4/BLE_1_aios.c **** *  \param attrValue: The pointer to the characteristic value data that should be
 467:Generated_Source\PSoC4/BLE_1_aios.c **** *             stored in the GATT database.
 468:Generated_Source\PSoC4/BLE_1_aios.c **** * 
 469:Generated_Source\PSoC4/BLE_1_aios.c **** * \return
 470:Generated_Source\PSoC4/BLE_1_aios.c **** *  A return value is of type CYBLE_API_RESULT_T.
 471:Generated_Source\PSoC4/BLE_1_aios.c **** *  * CYBLE_ERROR_OK - The request handled successfully.
 472:Generated_Source\PSoC4/BLE_1_aios.c **** *  * CYBLE_ERROR_INVALID_PARAMETER - Validation of the input parameter failed.
 473:Generated_Source\PSoC4/BLE_1_aios.c **** *  * CYBLE_ERROR_GATT_DB_INVALID_ATTR_HANDLE - An optional characteristic is
 474:Generated_Source\PSoC4/BLE_1_aios.c **** *                                               absent.
 475:Generated_Source\PSoC4/BLE_1_aios.c **** ******************************************************************************/
 476:Generated_Source\PSoC4/BLE_1_aios.c **** CYBLE_API_RESULT_T CyBle_AiossSetCharacteristicValue(CYBLE_AIOS_CHAR_INDEX_T charIndex,
 477:Generated_Source\PSoC4/BLE_1_aios.c ****     uint8 charInstance, uint8 attrSize, uint8 *attrValue)
 478:Generated_Source\PSoC4/BLE_1_aios.c **** {
 479:Generated_Source\PSoC4/BLE_1_aios.c ****     CYBLE_API_RESULT_T apiResult = CYBLE_ERROR_INVALID_PARAMETER;
 480:Generated_Source\PSoC4/BLE_1_aios.c **** 
 481:Generated_Source\PSoC4/BLE_1_aios.c ****     /* Validate range of AIOS characteristics */
 482:Generated_Source\PSoC4/BLE_1_aios.c ****     if((charIndex < CYBLE_AIOS_CHAR_COUNT) && (charInstance < cyBle_aiossCharInstances[charIndex]))
 483:Generated_Source\PSoC4/BLE_1_aios.c ****     {
 484:Generated_Source\PSoC4/BLE_1_aios.c ****         /* Check if requested characteristic is present in Service.
 485:Generated_Source\PSoC4/BLE_1_aios.c ****         * There are three conditions which should be checked: 1) The pointer to
 486:Generated_Source\PSoC4/BLE_1_aios.c ****         * "CYBLE_AIOS_CHAR_T" is not NULL, 2) The handle of the characteristic is
 487:Generated_Source\PSoC4/BLE_1_aios.c ****         * a valid handle, 3) The requested instance is a valid characteristic
 488:Generated_Source\PSoC4/BLE_1_aios.c ****         * instance.
 489:Generated_Source\PSoC4/BLE_1_aios.c ****         */
 490:Generated_Source\PSoC4/BLE_1_aios.c ****         if((cyBle_aioss.charInfoAddr[charIndex].charInfoPtr != NULL) &&
 491:Generated_Source\PSoC4/BLE_1_aios.c ****             (CYBLE_GATT_INVALID_ATTR_HANDLE_VALUE !=
 492:Generated_Source\PSoC4/BLE_1_aios.c ****                 cyBle_aioss.charInfoAddr[charIndex].charInfoPtr[charInstance].charHandle))
 493:Generated_Source\PSoC4/BLE_1_aios.c ****         {
 494:Generated_Source\PSoC4/BLE_1_aios.c ****             CYBLE_GATT_HANDLE_VALUE_PAIR_T locHandleValuePair;
 495:Generated_Source\PSoC4/BLE_1_aios.c **** 
 496:Generated_Source\PSoC4/BLE_1_aios.c ****             locHandleValuePair.attrHandle =
 497:Generated_Source\PSoC4/BLE_1_aios.c ****                 cyBle_aioss.charInfoAddr[charIndex].charInfoPtr[charInstance].charHandle;
 498:Generated_Source\PSoC4/BLE_1_aios.c ****             locHandleValuePair.value.len = attrSize;
 499:Generated_Source\PSoC4/BLE_1_aios.c ****             locHandleValuePair.value.val = attrValue;
 500:Generated_Source\PSoC4/BLE_1_aios.c **** 
 501:Generated_Source\PSoC4/BLE_1_aios.c ****             /* Store data in database */
 502:Generated_Source\PSoC4/BLE_1_aios.c ****             if(CyBle_GattsWriteAttributeValue(&locHandleValuePair, 0u, NULL, CYBLE_GATT_DB_LOCALLY_
 503:Generated_Source\PSoC4/BLE_1_aios.c ****                 CYBLE_GATT_ERR_NONE)
 504:Generated_Source\PSoC4/BLE_1_aios.c ****             {
 505:Generated_Source\PSoC4/BLE_1_aios.c ****                 apiResult = CYBLE_ERROR_OK;
 506:Generated_Source\PSoC4/BLE_1_aios.c ****             }
 507:Generated_Source\PSoC4/BLE_1_aios.c ****         }
 508:Generated_Source\PSoC4/BLE_1_aios.c ****         else
 509:Generated_Source\PSoC4/BLE_1_aios.c ****         {
 510:Generated_Source\PSoC4/BLE_1_aios.c ****             apiResult = CYBLE_ERROR_GATT_DB_INVALID_ATTR_HANDLE;
 511:Generated_Source\PSoC4/BLE_1_aios.c ****         }
 512:Generated_Source\PSoC4/BLE_1_aios.c ****     }
 513:Generated_Source\PSoC4/BLE_1_aios.c ****     
 514:Generated_Source\PSoC4/BLE_1_aios.c ****     if ( apiResult == CYBLE_ERROR_OK )
 515:Generated_Source\PSoC4/BLE_1_aios.c ****     {   
 516:Generated_Source\PSoC4/BLE_1_aios.c ****         if(CyBle_AiosSetAggregateChar() != CYBLE_GATT_ERR_NONE)
ARM GAS  C:\Windows\TEMP\cc5RoFpJ.s 			page 11


 517:Generated_Source\PSoC4/BLE_1_aios.c ****         {   
 518:Generated_Source\PSoC4/BLE_1_aios.c ****             apiResult = CYBLE_ERROR_GATT_DB_INVALID_ATTR_HANDLE;
 519:Generated_Source\PSoC4/BLE_1_aios.c ****         }
 520:Generated_Source\PSoC4/BLE_1_aios.c ****     }
 521:Generated_Source\PSoC4/BLE_1_aios.c ****     
 522:Generated_Source\PSoC4/BLE_1_aios.c ****     return (apiResult);
 523:Generated_Source\PSoC4/BLE_1_aios.c **** }
 524:Generated_Source\PSoC4/BLE_1_aios.c **** 
 525:Generated_Source\PSoC4/BLE_1_aios.c **** /******************************************************************************
 526:Generated_Source\PSoC4/BLE_1_aios.c **** * Function Name: CyBle_AiossGetCharacteristicValue
 527:Generated_Source\PSoC4/BLE_1_aios.c **** ***************************************************************************//**
 528:Generated_Source\PSoC4/BLE_1_aios.c **** * 
 529:Generated_Source\PSoC4/BLE_1_aios.c **** *  Gets the characteristic value of the service, which is a value identified by
 530:Generated_Source\PSoC4/BLE_1_aios.c **** *  charIndex.
 531:Generated_Source\PSoC4/BLE_1_aios.c **** * 
 532:Generated_Source\PSoC4/BLE_1_aios.c **** *  \param charIndex: The index of the service characteristic. Starts with zero.
 533:Generated_Source\PSoC4/BLE_1_aios.c **** *  \param charInstance: The instance number of the characteristic specified by
 534:Generated_Source\PSoC4/BLE_1_aios.c **** *                "charIndex".
 535:Generated_Source\PSoC4/BLE_1_aios.c **** *  \param attrSize: The size of the characteristic value attribute.
 536:Generated_Source\PSoC4/BLE_1_aios.c **** *  \param attrValue: The pointer to the location where characteristic value data
 537:Generated_Source\PSoC4/BLE_1_aios.c **** *             should be stored.
 538:Generated_Source\PSoC4/BLE_1_aios.c **** * 
 539:Generated_Source\PSoC4/BLE_1_aios.c **** * \return
 540:Generated_Source\PSoC4/BLE_1_aios.c **** *  A return value is of type CYBLE_API_RESULT_T.
 541:Generated_Source\PSoC4/BLE_1_aios.c **** *  * CYBLE_ERROR_OK - The request handled successfully
 542:Generated_Source\PSoC4/BLE_1_aios.c **** *  * CYBLE_ERROR_INVALID_PARAMETER - Validation of the input parameter failed
 543:Generated_Source\PSoC4/BLE_1_aios.c **** *  * CYBLE_ERROR_GATT_DB_INVALID_ATTR_HANDLE - An optional characteristic is
 544:Generated_Source\PSoC4/BLE_1_aios.c **** *                                               absent.
 545:Generated_Source\PSoC4/BLE_1_aios.c **** *
 546:Generated_Source\PSoC4/BLE_1_aios.c **** ******************************************************************************/
 547:Generated_Source\PSoC4/BLE_1_aios.c **** CYBLE_API_RESULT_T CyBle_AiossGetCharacteristicValue(CYBLE_AIOS_CHAR_INDEX_T charIndex, 
 548:Generated_Source\PSoC4/BLE_1_aios.c ****     uint8 charInstance, uint8 attrSize, uint8 *attrValue)
 549:Generated_Source\PSoC4/BLE_1_aios.c **** {
  55              		.loc 1 549 0
  56              		.cfi_startproc
  57              		@ args = 0, pretend = 0, frame = 16
  58              		@ frame_needed = 0, uses_anonymous_args = 0
  59              	.LVL1:
  60 0000 30B5     		push	{r4, r5, lr}
  61              		.cfi_def_cfa_offset 12
  62              		.cfi_offset 4, -12
  63              		.cfi_offset 5, -8
  64              		.cfi_offset 14, -4
  65 0002 85B0     		sub	sp, sp, #20
  66              		.cfi_def_cfa_offset 32
  67              	.LVL2:
 550:Generated_Source\PSoC4/BLE_1_aios.c ****      CYBLE_API_RESULT_T apiResult = CYBLE_ERROR_INVALID_PARAMETER;
 551:Generated_Source\PSoC4/BLE_1_aios.c **** 
 552:Generated_Source\PSoC4/BLE_1_aios.c ****     if((charIndex < CYBLE_AIOS_CHAR_COUNT) && (charInstance < cyBle_aiossCharInstances[charIndex]))
  68              		.loc 1 552 0
  69 0004 0228     		cmp	r0, #2
  70 0006 25D8     		bhi	.L7
  71              		.loc 1 552 0 is_stmt 0 discriminator 1
  72 0008 174C     		ldr	r4, .L12
  73 000a 245C     		ldrb	r4, [r4, r0]
  74 000c 8C42     		cmp	r4, r1
  75 000e 23D9     		bls	.L8
ARM GAS  C:\Windows\TEMP\cc5RoFpJ.s 			page 12


 553:Generated_Source\PSoC4/BLE_1_aios.c ****     {
 554:Generated_Source\PSoC4/BLE_1_aios.c ****         /* Check if requested characteristic is present in Service. There are three
 555:Generated_Source\PSoC4/BLE_1_aios.c ****         * conditions to be checked: 1) The pointer to "CYBLE_AIOSS_CHAR_T" record in
 556:Generated_Source\PSoC4/BLE_1_aios.c ****         * the cyBle_aioss struct is not NULL, 2) The handle of the characteristic is a 
 557:Generated_Source\PSoC4/BLE_1_aios.c ****         * valid handle, 3) The requested instance is a valid characteristic instance.
 558:Generated_Source\PSoC4/BLE_1_aios.c ****         */
 559:Generated_Source\PSoC4/BLE_1_aios.c ****         if((cyBle_aioss.charInfoAddr[charIndex].charInfoPtr != NULL) &&
  76              		.loc 1 559 0 is_stmt 1
  77 0010 8000     		lsls	r0, r0, #2
  78              	.LVL3:
  79 0012 164C     		ldr	r4, .L12+4
  80 0014 2018     		adds	r0, r4, r0
  81 0016 4468     		ldr	r4, [r0, #4]
  82 0018 002C     		cmp	r4, #0
  83 001a 1FD0     		beq	.L9
 560:Generated_Source\PSoC4/BLE_1_aios.c ****             (cyBle_aioss.charInfoAddr[charIndex].charInfoPtr[charInstance].charHandle != CYBLE_GATT
  84              		.loc 1 560 0 discriminator 1
  85 001c 0901     		lsls	r1, r1, #4
  86              	.LVL4:
  87 001e 6418     		adds	r4, r4, r1
  88 0020 2188     		ldrh	r1, [r4]
 559:Generated_Source\PSoC4/BLE_1_aios.c ****             (cyBle_aioss.charInfoAddr[charIndex].charInfoPtr[charInstance].charHandle != CYBLE_GATT
  89              		.loc 1 559 0 discriminator 1
  90 0022 0029     		cmp	r1, #0
  91 0024 1CD0     		beq	.L10
  92              	.LBB2:
 561:Generated_Source\PSoC4/BLE_1_aios.c ****         {
 562:Generated_Source\PSoC4/BLE_1_aios.c ****             CYBLE_GATT_HANDLE_VALUE_PAIR_T locHandleValuePair;
 563:Generated_Source\PSoC4/BLE_1_aios.c **** 
 564:Generated_Source\PSoC4/BLE_1_aios.c ****             locHandleValuePair.attrHandle = cyBle_aioss.charInfoAddr[charIndex].charInfoPtr[charIns
  93              		.loc 1 564 0
  94 0026 01A8     		add	r0, sp, #4
  95 0028 0181     		strh	r1, [r0, #8]
 565:Generated_Source\PSoC4/BLE_1_aios.c ****             locHandleValuePair.value.len = attrSize;
  96              		.loc 1 565 0
  97 002a 95B2     		uxth	r5, r2
  98 002c 8580     		strh	r5, [r0, #4]
 566:Generated_Source\PSoC4/BLE_1_aios.c ****             locHandleValuePair.value.val = attrValue;
  99              		.loc 1 566 0
 100 002e 0193     		str	r3, [sp, #4]
 567:Generated_Source\PSoC4/BLE_1_aios.c **** 
 568:Generated_Source\PSoC4/BLE_1_aios.c ****             /* Read characteristic value from database */
 569:Generated_Source\PSoC4/BLE_1_aios.c ****             if(CyBle_GattsReadAttributeValue(&locHandleValuePair, NULL, CYBLE_GATT_DB_LOCALLY_INITI
 101              		.loc 1 569 0
 102 0030 0022     		movs	r2, #0
 103              	.LVL5:
 104 0032 0021     		movs	r1, #0
 105 0034 FFF7FEFF 		bl	CyBle_GattsReadAttributeValue
 106              	.LVL6:
 107 0038 0028     		cmp	r0, #0
 108 003a 09D1     		bne	.L11
 109              	.LVL7:
 570:Generated_Source\PSoC4/BLE_1_aios.c ****                 CYBLE_GATT_ERR_NONE)
 571:Generated_Source\PSoC4/BLE_1_aios.c ****             {
 572:Generated_Source\PSoC4/BLE_1_aios.c ****                 apiResult = CYBLE_ERROR_OK;
 573:Generated_Source\PSoC4/BLE_1_aios.c ****                 
 574:Generated_Source\PSoC4/BLE_1_aios.c ****             /* Set new length of the descriptor value */
ARM GAS  C:\Windows\TEMP\cc5RoFpJ.s 			page 13


 575:Generated_Source\PSoC4/BLE_1_aios.c ****             CYBLE_GATT_DB_ATTR_SET_ATTR_GEN_LEN(cyBle_aioss.charInfoAddr[charIndex].charInfoPtr[cha
 110              		.loc 1 575 0
 111 003c 2388     		ldrh	r3, [r4]
 112 003e 013B     		subs	r3, r3, #1
 113 0040 9A00     		lsls	r2, r3, #2
 114 0042 D318     		adds	r3, r2, r3
 115 0044 9A00     		lsls	r2, r3, #2
 116 0046 0A4B     		ldr	r3, .L12+8
 117 0048 9A18     		adds	r2, r3, r2
 118 004a 1369     		ldr	r3, [r2, #16]
 119 004c 1D80     		strh	r5, [r3]
 120 004e 08E0     		b	.L5
 121              	.LVL8:
 122              	.L11:
 123              	.LBE2:
 550:Generated_Source\PSoC4/BLE_1_aios.c **** 
 124              		.loc 1 550 0
 125 0050 0120     		movs	r0, #1
 561:Generated_Source\PSoC4/BLE_1_aios.c ****             CYBLE_GATT_HANDLE_VALUE_PAIR_T locHandleValuePair;
 126              		.loc 1 561 0
 127 0052 06E0     		b	.L5
 128              	.LVL9:
 129              	.L7:
 550:Generated_Source\PSoC4/BLE_1_aios.c **** 
 130              		.loc 1 550 0
 131 0054 0120     		movs	r0, #1
 132              	.LVL10:
 133 0056 04E0     		b	.L5
 134              	.LVL11:
 135              	.L8:
 136 0058 0120     		movs	r0, #1
 137              	.LVL12:
 138 005a 02E0     		b	.L5
 139              	.L9:
 576:Generated_Source\PSoC4/BLE_1_aios.c ****                                                 attrSize);
 577:Generated_Source\PSoC4/BLE_1_aios.c ****             }
 578:Generated_Source\PSoC4/BLE_1_aios.c ****         }
 579:Generated_Source\PSoC4/BLE_1_aios.c ****         else
 580:Generated_Source\PSoC4/BLE_1_aios.c ****         {
 581:Generated_Source\PSoC4/BLE_1_aios.c ****             apiResult = CYBLE_ERROR_GATT_DB_INVALID_ATTR_HANDLE;
 140              		.loc 1 581 0
 141 005c 1320     		movs	r0, #19
 142 005e 00E0     		b	.L5
 143              	.LVL13:
 144              	.L10:
 145 0060 1320     		movs	r0, #19
 146              	.LVL14:
 147              	.L5:
 582:Generated_Source\PSoC4/BLE_1_aios.c ****         }
 583:Generated_Source\PSoC4/BLE_1_aios.c ****     }
 584:Generated_Source\PSoC4/BLE_1_aios.c **** 
 585:Generated_Source\PSoC4/BLE_1_aios.c ****     return (apiResult);
 586:Generated_Source\PSoC4/BLE_1_aios.c ****     
 587:Generated_Source\PSoC4/BLE_1_aios.c **** }
 148              		.loc 1 587 0
 149 0062 05B0     		add	sp, sp, #20
 150              		@ sp needed
ARM GAS  C:\Windows\TEMP\cc5RoFpJ.s 			page 14


 151 0064 30BD     		pop	{r4, r5, pc}
 152              	.L13:
 153 0066 C046     		.align	2
 154              	.L12:
 155 0068 00000000 		.word	.LANCHOR1
 156 006c 00000000 		.word	.LANCHOR2
 157 0070 00000000 		.word	cyBle_gattDB
 158              		.cfi_endproc
 159              	.LFE6:
 160              		.size	CyBle_AiossGetCharacteristicValue, .-CyBle_AiossGetCharacteristicValue
 161              		.section	.text.CyBle_AiossGetCharacteristicDescriptor,"ax",%progbits
 162              		.align	2
 163              		.global	CyBle_AiossGetCharacteristicDescriptor
 164              		.code	16
 165              		.thumb_func
 166              		.type	CyBle_AiossGetCharacteristicDescriptor, %function
 167              	CyBle_AiossGetCharacteristicDescriptor:
 168              	.LFB7:
 588:Generated_Source\PSoC4/BLE_1_aios.c **** 
 589:Generated_Source\PSoC4/BLE_1_aios.c **** /******************************************************************************
 590:Generated_Source\PSoC4/BLE_1_aios.c **** * Function Name: CyBle_AiossGetCharacteristicDescriptor
 591:Generated_Source\PSoC4/BLE_1_aios.c **** ***************************************************************************//**
 592:Generated_Source\PSoC4/BLE_1_aios.c **** * 
 593:Generated_Source\PSoC4/BLE_1_aios.c **** *  Gets a characteristic descriptor of a specified characteristic of the
 594:Generated_Source\PSoC4/BLE_1_aios.c **** *  Automation Input Outtput Service from the local GATT database.
 595:Generated_Source\PSoC4/BLE_1_aios.c **** * 
 596:Generated_Source\PSoC4/BLE_1_aios.c **** *  \param charIndex: The index of the characteristic.
 597:Generated_Source\PSoC4/BLE_1_aios.c **** *  \param charInstance: The instance number of the characteristic specified by
 598:Generated_Source\PSoC4/BLE_1_aios.c **** *                "charIndex".
 599:Generated_Source\PSoC4/BLE_1_aios.c **** *  \param descrIndex: The index of the characteristic descriptor.
 600:Generated_Source\PSoC4/BLE_1_aios.c **** *  \param attrSize: The size of the characteristic descriptor attribute.
 601:Generated_Source\PSoC4/BLE_1_aios.c **** *  \param attrValue: The pointer to the location where characteristic descriptor 
 602:Generated_Source\PSoC4/BLE_1_aios.c **** *               value data should be stored.
 603:Generated_Source\PSoC4/BLE_1_aios.c **** * 
 604:Generated_Source\PSoC4/BLE_1_aios.c **** * \return
 605:Generated_Source\PSoC4/BLE_1_aios.c **** *  Return value is of type CYBLE_API_RESULT_T.
 606:Generated_Source\PSoC4/BLE_1_aios.c **** *  * CYBLE_ERROR_OK - The request handled successfully
 607:Generated_Source\PSoC4/BLE_1_aios.c **** *  * CYBLE_ERROR_INVALID_PARAMETER - Validation of the input parameter failed
 608:Generated_Source\PSoC4/BLE_1_aios.c **** *  * CYBLE_ERROR_GATT_DB_INVALID_ATTR_HANDLE - Optional descriptor is absent
 609:Generated_Source\PSoC4/BLE_1_aios.c **** *
 610:Generated_Source\PSoC4/BLE_1_aios.c **** ******************************************************************************/
 611:Generated_Source\PSoC4/BLE_1_aios.c **** CYBLE_API_RESULT_T CyBle_AiossGetCharacteristicDescriptor(CYBLE_AIOS_CHAR_INDEX_T charIndex, 
 612:Generated_Source\PSoC4/BLE_1_aios.c ****      uint8 charInstance, CYBLE_AIOS_DESCR_INDEX_T descrIndex, uint8 attrSize, uint8 *attrValue)
 613:Generated_Source\PSoC4/BLE_1_aios.c **** {
 169              		.loc 1 613 0
 170              		.cfi_startproc
 171              		@ args = 4, pretend = 0, frame = 16
 172              		@ frame_needed = 0, uses_anonymous_args = 0
 173              	.LVL15:
 174 0000 70B5     		push	{r4, r5, r6, lr}
 175              		.cfi_def_cfa_offset 16
 176              		.cfi_offset 4, -16
 177              		.cfi_offset 5, -12
 178              		.cfi_offset 6, -8
 179              		.cfi_offset 14, -4
 180 0002 84B0     		sub	sp, sp, #16
 181              		.cfi_def_cfa_offset 32
ARM GAS  C:\Windows\TEMP\cc5RoFpJ.s 			page 15


 182 0004 1400     		movs	r4, r2
 183              	.LVL16:
 614:Generated_Source\PSoC4/BLE_1_aios.c ****     
 615:Generated_Source\PSoC4/BLE_1_aios.c ****      CYBLE_API_RESULT_T apiResult = CYBLE_ERROR_INVALID_PARAMETER;
 616:Generated_Source\PSoC4/BLE_1_aios.c **** 
 617:Generated_Source\PSoC4/BLE_1_aios.c ****     if((charIndex < CYBLE_AIOS_CHAR_COUNT) && (charInstance < cyBle_aiossCharInstances[charIndex]) 
 184              		.loc 1 617 0
 185 0006 0228     		cmp	r0, #2
 186 0008 2FD8     		bhi	.L17
 187              		.loc 1 617 0 is_stmt 0 discriminator 1
 188 000a 1E4A     		ldr	r2, .L24
 189              	.LVL17:
 190 000c 125C     		ldrb	r2, [r2, r0]
 191 000e 8A42     		cmp	r2, r1
 192 0010 2DD9     		bls	.L18
 193              		.loc 1 617 0 discriminator 2
 194 0012 062C     		cmp	r4, #6
 195 0014 2DD8     		bhi	.L19
 618:Generated_Source\PSoC4/BLE_1_aios.c ****         (descrIndex < CYBLE_AIOS_DESCR_COUNT ))
 619:Generated_Source\PSoC4/BLE_1_aios.c ****     {
 620:Generated_Source\PSoC4/BLE_1_aios.c ****         /* Check if requested descriptor is present in Service.
 621:Generated_Source\PSoC4/BLE_1_aios.c ****         * There are three conditions to be checked: 1) The pointer to
 622:Generated_Source\PSoC4/BLE_1_aios.c ****         * "CYBLE_AiosS_CHAR_T" is not NULL, 2) The handle of the characteristic is
 623:Generated_Source\PSoC4/BLE_1_aios.c ****         * a valid handle, 3) The handle of the descriptor is a valid handle.
 624:Generated_Source\PSoC4/BLE_1_aios.c ****         */
 625:Generated_Source\PSoC4/BLE_1_aios.c ****         if((cyBle_aioss.charInfoAddr[charIndex].charInfoPtr != NULL) &&
 196              		.loc 1 625 0 is_stmt 1
 197 0016 8000     		lsls	r0, r0, #2
 198              	.LVL18:
 199 0018 1B4A     		ldr	r2, .L24+4
 200 001a 1018     		adds	r0, r2, r0
 201 001c 4568     		ldr	r5, [r0, #4]
 202 001e 002D     		cmp	r5, #0
 203 0020 29D0     		beq	.L20
 626:Generated_Source\PSoC4/BLE_1_aios.c ****             (cyBle_aioss.charInfoAddr[charIndex].charInfoPtr[charInstance].charHandle != CYBLE_GATT
 204              		.loc 1 626 0 discriminator 1
 205 0022 0901     		lsls	r1, r1, #4
 206              	.LVL19:
 207 0024 6D18     		adds	r5, r5, r1
 208 0026 2A88     		ldrh	r2, [r5]
 625:Generated_Source\PSoC4/BLE_1_aios.c ****             (cyBle_aioss.charInfoAddr[charIndex].charInfoPtr[charInstance].charHandle != CYBLE_GATT
 209              		.loc 1 625 0 discriminator 1
 210 0028 002A     		cmp	r2, #0
 211 002a 26D0     		beq	.L21
 627:Generated_Source\PSoC4/BLE_1_aios.c ****                     (cyBle_aioss.charInfoAddr[charIndex].charInfoPtr[charInstance].descrHandle[desc
 212              		.loc 1 627 0
 213 002c 6200     		lsls	r2, r4, #1
 214 002e AA18     		adds	r2, r5, r2
 215 0030 5288     		ldrh	r2, [r2, #2]
 626:Generated_Source\PSoC4/BLE_1_aios.c ****             (cyBle_aioss.charInfoAddr[charIndex].charInfoPtr[charInstance].charHandle != CYBLE_GATT
 216              		.loc 1 626 0
 217 0032 002A     		cmp	r2, #0
 218 0034 23D0     		beq	.L22
 219              	.LBB3:
 628:Generated_Source\PSoC4/BLE_1_aios.c ****         {
 629:Generated_Source\PSoC4/BLE_1_aios.c ****             CYBLE_GATT_HANDLE_VALUE_PAIR_T locHandleValuePair;
 630:Generated_Source\PSoC4/BLE_1_aios.c **** 
ARM GAS  C:\Windows\TEMP\cc5RoFpJ.s 			page 16


 631:Generated_Source\PSoC4/BLE_1_aios.c ****             locHandleValuePair.attrHandle =
 220              		.loc 1 631 0
 221 0036 01A8     		add	r0, sp, #4
 222 0038 0281     		strh	r2, [r0, #8]
 632:Generated_Source\PSoC4/BLE_1_aios.c ****                 cyBle_aioss.charInfoAddr[charIndex].charInfoPtr[charInstance].descrHandle[descrInde
 633:Generated_Source\PSoC4/BLE_1_aios.c ****             locHandleValuePair.value.len = attrSize;
 223              		.loc 1 633 0
 224 003a 9EB2     		uxth	r6, r3
 225 003c 8680     		strh	r6, [r0, #4]
 634:Generated_Source\PSoC4/BLE_1_aios.c ****             locHandleValuePair.value.val = attrValue;
 226              		.loc 1 634 0
 227 003e 089B     		ldr	r3, [sp, #32]
 228              	.LVL20:
 229 0040 0193     		str	r3, [sp, #4]
 635:Generated_Source\PSoC4/BLE_1_aios.c ****                         
 636:Generated_Source\PSoC4/BLE_1_aios.c ****             /* Read characteristic value from database */
 637:Generated_Source\PSoC4/BLE_1_aios.c ****             if(CyBle_GattsReadAttributeValue(&locHandleValuePair, NULL, CYBLE_GATT_DB_LOCALLY_INITI
 230              		.loc 1 637 0
 231 0042 0022     		movs	r2, #0
 232 0044 0021     		movs	r1, #0
 233 0046 FFF7FEFF 		bl	CyBle_GattsReadAttributeValue
 234              	.LVL21:
 235 004a 0028     		cmp	r0, #0
 236 004c 0BD1     		bne	.L23
 237              	.LVL22:
 638:Generated_Source\PSoC4/BLE_1_aios.c ****                 CYBLE_GATT_ERR_NONE)
 639:Generated_Source\PSoC4/BLE_1_aios.c ****             {
 640:Generated_Source\PSoC4/BLE_1_aios.c ****                 apiResult = CYBLE_ERROR_OK;
 641:Generated_Source\PSoC4/BLE_1_aios.c ****                 
 642:Generated_Source\PSoC4/BLE_1_aios.c ****                 /* Set new length of the descriptor value */
 643:Generated_Source\PSoC4/BLE_1_aios.c ****                 CYBLE_GATT_DB_ATTR_SET_ATTR_GEN_LEN(cyBle_aioss.charInfoAddr[charIndex].charInfoPtr
 238              		.loc 1 643 0
 239 004e 6400     		lsls	r4, r4, #1
 240 0050 2D19     		adds	r5, r5, r4
 241 0052 6B88     		ldrh	r3, [r5, #2]
 242 0054 013B     		subs	r3, r3, #1
 243 0056 9A00     		lsls	r2, r3, #2
 244 0058 D318     		adds	r3, r2, r3
 245 005a 9A00     		lsls	r2, r3, #2
 246 005c 0B4B     		ldr	r3, .L24+8
 247 005e 9A18     		adds	r2, r3, r2
 248 0060 1369     		ldr	r3, [r2, #16]
 249 0062 1E80     		strh	r6, [r3]
 250 0064 0CE0     		b	.L15
 251              	.LVL23:
 252              	.L23:
 253              	.LBE3:
 615:Generated_Source\PSoC4/BLE_1_aios.c **** 
 254              		.loc 1 615 0
 255 0066 0120     		movs	r0, #1
 628:Generated_Source\PSoC4/BLE_1_aios.c ****             CYBLE_GATT_HANDLE_VALUE_PAIR_T locHandleValuePair;
 256              		.loc 1 628 0
 257 0068 0AE0     		b	.L15
 258              	.LVL24:
 259              	.L17:
 615:Generated_Source\PSoC4/BLE_1_aios.c **** 
 260              		.loc 1 615 0
ARM GAS  C:\Windows\TEMP\cc5RoFpJ.s 			page 17


 261 006a 0120     		movs	r0, #1
 262              	.LVL25:
 263 006c 08E0     		b	.L15
 264              	.LVL26:
 265              	.L18:
 266 006e 0120     		movs	r0, #1
 267              	.LVL27:
 268 0070 06E0     		b	.L15
 269              	.LVL28:
 270              	.L19:
 271 0072 0120     		movs	r0, #1
 272              	.LVL29:
 273 0074 04E0     		b	.L15
 274              	.L20:
 644:Generated_Source\PSoC4/BLE_1_aios.c ****                                                     descrHandle[descrIndex],
 645:Generated_Source\PSoC4/BLE_1_aios.c ****                                                     attrSize);
 646:Generated_Source\PSoC4/BLE_1_aios.c ****             }
 647:Generated_Source\PSoC4/BLE_1_aios.c ****         }
 648:Generated_Source\PSoC4/BLE_1_aios.c ****         else
 649:Generated_Source\PSoC4/BLE_1_aios.c ****         {
 650:Generated_Source\PSoC4/BLE_1_aios.c ****             apiResult = CYBLE_ERROR_GATT_DB_INVALID_ATTR_HANDLE;
 275              		.loc 1 650 0
 276 0076 1320     		movs	r0, #19
 277 0078 02E0     		b	.L15
 278              	.LVL30:
 279              	.L21:
 280 007a 1320     		movs	r0, #19
 281 007c 00E0     		b	.L15
 282              	.L22:
 283 007e 1320     		movs	r0, #19
 284              	.LVL31:
 285              	.L15:
 651:Generated_Source\PSoC4/BLE_1_aios.c ****         }
 652:Generated_Source\PSoC4/BLE_1_aios.c ****     }
 653:Generated_Source\PSoC4/BLE_1_aios.c ****     return (apiResult);
 654:Generated_Source\PSoC4/BLE_1_aios.c **** }
 286              		.loc 1 654 0
 287 0080 04B0     		add	sp, sp, #16
 288              		@ sp needed
 289 0082 70BD     		pop	{r4, r5, r6, pc}
 290              	.L25:
 291              		.align	2
 292              	.L24:
 293 0084 00000000 		.word	.LANCHOR1
 294 0088 00000000 		.word	.LANCHOR2
 295 008c 00000000 		.word	cyBle_gattDB
 296              		.cfi_endproc
 297              	.LFE7:
 298              		.size	CyBle_AiossGetCharacteristicDescriptor, .-CyBle_AiossGetCharacteristicDescriptor
 299              		.section	.text.CyBle_AiossSetCharacteristicDescriptor,"ax",%progbits
 300              		.align	2
 301              		.global	CyBle_AiossSetCharacteristicDescriptor
 302              		.code	16
 303              		.thumb_func
 304              		.type	CyBle_AiossSetCharacteristicDescriptor, %function
 305              	CyBle_AiossSetCharacteristicDescriptor:
 306              	.LFB8:
ARM GAS  C:\Windows\TEMP\cc5RoFpJ.s 			page 18


 655:Generated_Source\PSoC4/BLE_1_aios.c **** 
 656:Generated_Source\PSoC4/BLE_1_aios.c **** /******************************************************************************
 657:Generated_Source\PSoC4/BLE_1_aios.c **** * Function Name: CyBle_AiossSetCharacteristicDescriptor
 658:Generated_Source\PSoC4/BLE_1_aios.c **** ***************************************************************************//**
 659:Generated_Source\PSoC4/BLE_1_aios.c **** * 
 660:Generated_Source\PSoC4/BLE_1_aios.c **** *  Set a characteristic descriptor of a specified characteristic of the Indoor 
 661:Generated_Source\PSoC4/BLE_1_aios.c **** *  Positioning Service from the local GATT database.
 662:Generated_Source\PSoC4/BLE_1_aios.c **** * 
 663:Generated_Source\PSoC4/BLE_1_aios.c **** *  \param charIndex: The index of the characteristic.
 664:Generated_Source\PSoC4/BLE_1_aios.c **** *  \param charInstance: The instance number of the characteristic specified by
 665:Generated_Source\PSoC4/BLE_1_aios.c **** *                "charIndex".
 666:Generated_Source\PSoC4/BLE_1_aios.c **** *  \param descrIndex: The index of the characteristic descriptor.
 667:Generated_Source\PSoC4/BLE_1_aios.c **** *  \param attrSize: The size of the characteristic descriptor attribute.
 668:Generated_Source\PSoC4/BLE_1_aios.c **** *  \param attrValue: The pointer to the descriptor value data to 
 669:Generated_Source\PSoC4/BLE_1_aios.c **** *             be stored in the GATT database.
 670:Generated_Source\PSoC4/BLE_1_aios.c **** * 
 671:Generated_Source\PSoC4/BLE_1_aios.c **** * \return
 672:Generated_Source\PSoC4/BLE_1_aios.c **** *  Return value is of type CYBLE_API_RESULT_T.
 673:Generated_Source\PSoC4/BLE_1_aios.c **** *  * CYBLE_ERROR_OK - The request handled successfully
 674:Generated_Source\PSoC4/BLE_1_aios.c **** *  * CYBLE_ERROR_INVALID_PARAMETER - Validation of the input parameter failed
 675:Generated_Source\PSoC4/BLE_1_aios.c **** *  * CYBLE_ERROR_GATT_DB_INVALID_ATTR_HANDLE - Optional descriptor is absent
 676:Generated_Source\PSoC4/BLE_1_aios.c **** *
 677:Generated_Source\PSoC4/BLE_1_aios.c **** ******************************************************************************/
 678:Generated_Source\PSoC4/BLE_1_aios.c **** CYBLE_API_RESULT_T CyBle_AiossSetCharacteristicDescriptor(CYBLE_AIOS_CHAR_INDEX_T charIndex, 
 679:Generated_Source\PSoC4/BLE_1_aios.c ****      uint8 charInstance, CYBLE_AIOS_DESCR_INDEX_T descrIndex, uint8 attrSize, uint8 *attrValue)
 680:Generated_Source\PSoC4/BLE_1_aios.c **** {
 307              		.loc 1 680 0
 308              		.cfi_startproc
 309              		@ args = 4, pretend = 0, frame = 16
 310              		@ frame_needed = 0, uses_anonymous_args = 0
 311              	.LVL32:
 312 0000 10B5     		push	{r4, lr}
 313              		.cfi_def_cfa_offset 8
 314              		.cfi_offset 4, -8
 315              		.cfi_offset 14, -4
 316 0002 84B0     		sub	sp, sp, #16
 317              		.cfi_def_cfa_offset 24
 318              	.LVL33:
 681:Generated_Source\PSoC4/BLE_1_aios.c ****       CYBLE_API_RESULT_T apiResult = CYBLE_ERROR_INVALID_PARAMETER;
 682:Generated_Source\PSoC4/BLE_1_aios.c **** 
 683:Generated_Source\PSoC4/BLE_1_aios.c ****     if((charIndex < CYBLE_AIOS_CHAR_COUNT) && (charInstance < cyBle_aiossCharInstances[charIndex]) 
 319              		.loc 1 683 0
 320 0004 0228     		cmp	r0, #2
 321 0006 25D8     		bhi	.L29
 322              		.loc 1 683 0 is_stmt 0 discriminator 1
 323 0008 194C     		ldr	r4, .L36
 324 000a 245C     		ldrb	r4, [r4, r0]
 325 000c 8C42     		cmp	r4, r1
 326 000e 23D9     		bls	.L30
 327              		.loc 1 683 0 discriminator 2
 328 0010 062A     		cmp	r2, #6
 329 0012 23D8     		bhi	.L31
 684:Generated_Source\PSoC4/BLE_1_aios.c ****         (descrIndex < CYBLE_AIOS_DESCR_COUNT))
 685:Generated_Source\PSoC4/BLE_1_aios.c ****     {
 686:Generated_Source\PSoC4/BLE_1_aios.c ****         /* Check if requested descriptor is present in Service.
 687:Generated_Source\PSoC4/BLE_1_aios.c ****         * There are three conditions to be checked: 1) The pointer to
 688:Generated_Source\PSoC4/BLE_1_aios.c ****         * "CYBLE_AiosS_CHAR_T" is not NULL, 2) The handle of the characteristic is
ARM GAS  C:\Windows\TEMP\cc5RoFpJ.s 			page 19


 689:Generated_Source\PSoC4/BLE_1_aios.c ****         * a valid handle, 3) The handle of the descriptor is a valid handle.
 690:Generated_Source\PSoC4/BLE_1_aios.c ****         */
 691:Generated_Source\PSoC4/BLE_1_aios.c ****         if((cyBle_aioss.charInfoAddr[charIndex].charInfoPtr != NULL) &&
 330              		.loc 1 691 0 is_stmt 1
 331 0014 8000     		lsls	r0, r0, #2
 332              	.LVL34:
 333 0016 174C     		ldr	r4, .L36+4
 334 0018 2018     		adds	r0, r4, r0
 335 001a 4068     		ldr	r0, [r0, #4]
 336 001c 0028     		cmp	r0, #0
 337 001e 1FD0     		beq	.L32
 692:Generated_Source\PSoC4/BLE_1_aios.c ****             (cyBle_aioss.charInfoAddr[charIndex].charInfoPtr[charInstance].charHandle != CYBLE_GATT
 338              		.loc 1 692 0 discriminator 1
 339 0020 0901     		lsls	r1, r1, #4
 340              	.LVL35:
 341 0022 4118     		adds	r1, r0, r1
 342 0024 0888     		ldrh	r0, [r1]
 691:Generated_Source\PSoC4/BLE_1_aios.c ****             (cyBle_aioss.charInfoAddr[charIndex].charInfoPtr[charInstance].charHandle != CYBLE_GATT
 343              		.loc 1 691 0 discriminator 1
 344 0026 0028     		cmp	r0, #0
 345 0028 1CD0     		beq	.L33
 693:Generated_Source\PSoC4/BLE_1_aios.c ****                         (cyBle_aioss.charInfoAddr[charIndex].charInfoPtr[charInstance].descrHandle[
 346              		.loc 1 693 0
 347 002a 5200     		lsls	r2, r2, #1
 348              	.LVL36:
 349 002c 8918     		adds	r1, r1, r2
 350 002e 4A88     		ldrh	r2, [r1, #2]
 692:Generated_Source\PSoC4/BLE_1_aios.c ****             (cyBle_aioss.charInfoAddr[charIndex].charInfoPtr[charInstance].charHandle != CYBLE_GATT
 351              		.loc 1 692 0
 352 0030 002A     		cmp	r2, #0
 353 0032 19D0     		beq	.L34
 354              	.LBB4:
 694:Generated_Source\PSoC4/BLE_1_aios.c ****         {
 695:Generated_Source\PSoC4/BLE_1_aios.c ****             CYBLE_GATT_HANDLE_VALUE_PAIR_T locHandleValuePair;
 696:Generated_Source\PSoC4/BLE_1_aios.c **** 
 697:Generated_Source\PSoC4/BLE_1_aios.c ****             locHandleValuePair.attrHandle =
 355              		.loc 1 697 0
 356 0034 01A8     		add	r0, sp, #4
 357 0036 0281     		strh	r2, [r0, #8]
 698:Generated_Source\PSoC4/BLE_1_aios.c ****                 cyBle_aioss.charInfoAddr[charIndex].charInfoPtr[charInstance].descrHandle[descrInde
 699:Generated_Source\PSoC4/BLE_1_aios.c ****             locHandleValuePair.value.len = attrSize;
 358              		.loc 1 699 0
 359 0038 8380     		strh	r3, [r0, #4]
 700:Generated_Source\PSoC4/BLE_1_aios.c ****             locHandleValuePair.value.val = attrValue;
 360              		.loc 1 700 0
 361 003a 069B     		ldr	r3, [sp, #24]
 362              	.LVL37:
 363 003c 0193     		str	r3, [sp, #4]
 701:Generated_Source\PSoC4/BLE_1_aios.c **** 
 702:Generated_Source\PSoC4/BLE_1_aios.c ****             if(CyBle_GattsWriteAttributeValue(&locHandleValuePair, 0u, NULL, CYBLE_GATT_DB_LOCALLY_
 364              		.loc 1 702 0
 365 003e 0023     		movs	r3, #0
 366 0040 0022     		movs	r2, #0
 367 0042 0021     		movs	r1, #0
 368 0044 FFF7FEFF 		bl	CyBle_GattsWriteAttributeValue
 369              	.LVL38:
 370 0048 0028     		cmp	r0, #0
ARM GAS  C:\Windows\TEMP\cc5RoFpJ.s 			page 20


 371 004a 01D0     		beq	.L35
 372              	.LBE4:
 681:Generated_Source\PSoC4/BLE_1_aios.c **** 
 373              		.loc 1 681 0
 374 004c 0120     		movs	r0, #1
 375 004e 0CE0     		b	.L27
 376              	.L35:
 377              	.LBB5:
 703:Generated_Source\PSoC4/BLE_1_aios.c ****                 CYBLE_GATT_ERR_NONE)
 704:Generated_Source\PSoC4/BLE_1_aios.c ****             {
 705:Generated_Source\PSoC4/BLE_1_aios.c ****                 apiResult = CYBLE_ERROR_OK;
 378              		.loc 1 705 0
 379 0050 0020     		movs	r0, #0
 380              	.LVL39:
 381              	.LBE5:
 694:Generated_Source\PSoC4/BLE_1_aios.c ****             CYBLE_GATT_HANDLE_VALUE_PAIR_T locHandleValuePair;
 382              		.loc 1 694 0
 383 0052 0AE0     		b	.L27
 384              	.LVL40:
 385              	.L29:
 681:Generated_Source\PSoC4/BLE_1_aios.c **** 
 386              		.loc 1 681 0
 387 0054 0120     		movs	r0, #1
 388              	.LVL41:
 389 0056 08E0     		b	.L27
 390              	.LVL42:
 391              	.L30:
 392 0058 0120     		movs	r0, #1
 393              	.LVL43:
 394 005a 06E0     		b	.L27
 395              	.LVL44:
 396              	.L31:
 397 005c 0120     		movs	r0, #1
 398              	.LVL45:
 399 005e 04E0     		b	.L27
 400              	.L32:
 706:Generated_Source\PSoC4/BLE_1_aios.c ****             }
 707:Generated_Source\PSoC4/BLE_1_aios.c ****         }
 708:Generated_Source\PSoC4/BLE_1_aios.c ****         else
 709:Generated_Source\PSoC4/BLE_1_aios.c ****         {
 710:Generated_Source\PSoC4/BLE_1_aios.c ****             apiResult = CYBLE_ERROR_GATT_DB_INVALID_ATTR_HANDLE;
 401              		.loc 1 710 0
 402 0060 1320     		movs	r0, #19
 403 0062 02E0     		b	.L27
 404              	.LVL46:
 405              	.L33:
 406 0064 1320     		movs	r0, #19
 407 0066 00E0     		b	.L27
 408              	.LVL47:
 409              	.L34:
 410 0068 1320     		movs	r0, #19
 411              	.LVL48:
 412              	.L27:
 711:Generated_Source\PSoC4/BLE_1_aios.c ****         }
 712:Generated_Source\PSoC4/BLE_1_aios.c ****     }
 713:Generated_Source\PSoC4/BLE_1_aios.c ****     return (apiResult);
 714:Generated_Source\PSoC4/BLE_1_aios.c **** }
ARM GAS  C:\Windows\TEMP\cc5RoFpJ.s 			page 21


 413              		.loc 1 714 0
 414 006a 04B0     		add	sp, sp, #16
 415              		@ sp needed
 416 006c 10BD     		pop	{r4, pc}
 417              	.L37:
 418 006e C046     		.align	2
 419              	.L36:
 420 0070 00000000 		.word	.LANCHOR1
 421 0074 00000000 		.word	.LANCHOR2
 422              		.cfi_endproc
 423              	.LFE8:
 424              		.size	CyBle_AiossSetCharacteristicDescriptor, .-CyBle_AiossSetCharacteristicDescriptor
 425              		.section	.text.CyBle_AiossSendNotification,"ax",%progbits
 426              		.align	2
 427              		.global	CyBle_AiossSendNotification
 428              		.code	16
 429              		.thumb_func
 430              		.type	CyBle_AiossSendNotification, %function
 431              	CyBle_AiossSendNotification:
 432              	.LFB9:
 715:Generated_Source\PSoC4/BLE_1_aios.c **** 
 716:Generated_Source\PSoC4/BLE_1_aios.c **** /******************************************************************************
 717:Generated_Source\PSoC4/BLE_1_aios.c **** * Function Name: CyBle_AiossSendNotification
 718:Generated_Source\PSoC4/BLE_1_aios.c **** ***************************************************************************//**
 719:Generated_Source\PSoC4/BLE_1_aios.c **** * 
 720:Generated_Source\PSoC4/BLE_1_aios.c **** *  Sends a notification with a characteristic value of the Automation Input Output
 721:Generated_Source\PSoC4/BLE_1_aios.c **** *  Service, which is a value specified by charIndex, to the client's device.
 722:Generated_Source\PSoC4/BLE_1_aios.c **** *
 723:Generated_Source\PSoC4/BLE_1_aios.c **** *  On enabling notification successfully for a service characteristic, if the GATT
 724:Generated_Source\PSoC4/BLE_1_aios.c **** *  server has an updated value to be notified to the GATT Client, it sends out a
 725:Generated_Source\PSoC4/BLE_1_aios.c **** *  'Handle Value Notification' which results in CYBLE_EVT_AIOSC_NOTIFICATION event
 726:Generated_Source\PSoC4/BLE_1_aios.c **** *  at the GATT Client's end.
 727:Generated_Source\PSoC4/BLE_1_aios.c **** * 
 728:Generated_Source\PSoC4/BLE_1_aios.c **** *  \param connHandle: The connection handle.
 729:Generated_Source\PSoC4/BLE_1_aios.c **** *  \param charIndex: The index of the service characteristic. Starts with zero.
 730:Generated_Source\PSoC4/BLE_1_aios.c **** *  \param charInstance: The instance number of the characteristic specified by 
 731:Generated_Source\PSoC4/BLE_1_aios.c **** *                "charIndex".
 732:Generated_Source\PSoC4/BLE_1_aios.c **** *  \param attrSize: The size of the characteristic value attribute.
 733:Generated_Source\PSoC4/BLE_1_aios.c **** *  \param attrValue: The pointer to the characteristic value data that should be
 734:Generated_Source\PSoC4/BLE_1_aios.c **** *               sent to the client's device.
 735:Generated_Source\PSoC4/BLE_1_aios.c **** * 
 736:Generated_Source\PSoC4/BLE_1_aios.c **** * \return
 737:Generated_Source\PSoC4/BLE_1_aios.c **** *  A return value is of type CYBLE_API_RESULT_T.
 738:Generated_Source\PSoC4/BLE_1_aios.c **** *   * CYBLE_ERROR_OK - The request handled successfully
 739:Generated_Source\PSoC4/BLE_1_aios.c **** *   * CYBLE_ERROR_INVALID_PARAMETER - Validation of the input parameter failed
 740:Generated_Source\PSoC4/BLE_1_aios.c **** *   * CYBLE_ERROR_INVALID_OPERATION - This operation is not permitted
 741:Generated_Source\PSoC4/BLE_1_aios.c **** *   * CYBLE_ERROR_INVALID_STATE - Connection with the client is not established
 742:Generated_Source\PSoC4/BLE_1_aios.c **** *   * CYBLE_ERROR_MEMORY_ALLOCATION_FAILED - Memory allocation failed.
 743:Generated_Source\PSoC4/BLE_1_aios.c **** *   * CYBLE_ERROR_NTF_DISABLED - A notification is not enabled by the client.
 744:Generated_Source\PSoC4/BLE_1_aios.c **** *   * CYBLE_ERROR_GATT_DB_INVALID_ATTR_HANDLE - An optional characteristic is
 745:Generated_Source\PSoC4/BLE_1_aios.c **** *                                               absent.
 746:Generated_Source\PSoC4/BLE_1_aios.c **** *
 747:Generated_Source\PSoC4/BLE_1_aios.c **** ******************************************************************************/
 748:Generated_Source\PSoC4/BLE_1_aios.c **** CYBLE_API_RESULT_T CyBle_AiossSendNotification(CYBLE_CONN_HANDLE_T connHandle,
 749:Generated_Source\PSoC4/BLE_1_aios.c ****     CYBLE_AIOS_CHAR_INDEX_T charIndex, uint8 charInstance, uint8 attrSize, uint8 *attrValue)
 750:Generated_Source\PSoC4/BLE_1_aios.c **** {
 433              		.loc 1 750 0
ARM GAS  C:\Windows\TEMP\cc5RoFpJ.s 			page 22


 434              		.cfi_startproc
 435              		@ args = 4, pretend = 0, frame = 24
 436              		@ frame_needed = 0, uses_anonymous_args = 0
 437              	.LVL49:
 438 0000 30B5     		push	{r4, r5, lr}
 439              		.cfi_def_cfa_offset 12
 440              		.cfi_offset 4, -12
 441              		.cfi_offset 5, -8
 442              		.cfi_offset 14, -4
 443 0002 87B0     		sub	sp, sp, #28
 444              		.cfi_def_cfa_offset 40
 445 0004 01AC     		add	r4, sp, #4
 446 0006 2080     		strh	r0, [r4]
 447 0008 1C00     		movs	r4, r3
 448              	.LVL50:
 751:Generated_Source\PSoC4/BLE_1_aios.c ****     CYBLE_API_RESULT_T apiResult = CYBLE_ERROR_INVALID_PARAMETER;
 752:Generated_Source\PSoC4/BLE_1_aios.c **** 
 753:Generated_Source\PSoC4/BLE_1_aios.c ****     if((charIndex < CYBLE_AIOS_CHAR_COUNT) && (charInstance < cyBle_aiossCharInstances[charIndex]))
 449              		.loc 1 753 0
 450 000a 0229     		cmp	r1, #2
 451 000c 28D8     		bhi	.L40
 452              		.loc 1 753 0 is_stmt 0 discriminator 1
 453 000e 1C4B     		ldr	r3, .L46
 454              	.LVL51:
 455 0010 5B5C     		ldrb	r3, [r3, r1]
 456 0012 9342     		cmp	r3, r2
 457 0014 26D9     		bls	.L41
 754:Generated_Source\PSoC4/BLE_1_aios.c ****     {
 755:Generated_Source\PSoC4/BLE_1_aios.c ****         if((cyBle_aioss.charInfoAddr[charIndex].charInfoPtr != NULL) && 
 458              		.loc 1 755 0 is_stmt 1
 459 0016 8900     		lsls	r1, r1, #2
 460              	.LVL52:
 461 0018 1A4B     		ldr	r3, .L46+4
 462 001a 5918     		adds	r1, r3, r1
 463 001c 4D68     		ldr	r5, [r1, #4]
 464 001e 002D     		cmp	r5, #0
 465 0020 22D0     		beq	.L42
 756:Generated_Source\PSoC4/BLE_1_aios.c ****             (cyBle_aioss.charInfoAddr[charIndex].charInfoPtr[charInstance].descrHandle[CYBLE_AIOS_C
 466              		.loc 1 756 0 discriminator 1
 467 0022 1201     		lsls	r2, r2, #4
 468              	.LVL53:
 469 0024 AD18     		adds	r5, r5, r2
 470 0026 6B88     		ldrh	r3, [r5, #2]
 755:Generated_Source\PSoC4/BLE_1_aios.c ****             (cyBle_aioss.charInfoAddr[charIndex].charInfoPtr[charInstance].descrHandle[CYBLE_AIOS_C
 471              		.loc 1 755 0 discriminator 1
 472 0028 002B     		cmp	r3, #0
 473 002a 1FD0     		beq	.L43
 757:Generated_Source\PSoC4/BLE_1_aios.c ****         {
 758:Generated_Source\PSoC4/BLE_1_aios.c ****             /* Send notification if it is enabled and connected */
 759:Generated_Source\PSoC4/BLE_1_aios.c ****             if(CyBle_GetState() != CYBLE_STATE_CONNECTED)
 474              		.loc 1 759 0
 475 002c 164A     		ldr	r2, .L46+8
 476 002e 1278     		ldrb	r2, [r2]
 477 0030 022A     		cmp	r2, #2
 478 0032 1DD1     		bne	.L44
 760:Generated_Source\PSoC4/BLE_1_aios.c ****             {
 761:Generated_Source\PSoC4/BLE_1_aios.c ****                 apiResult = CYBLE_ERROR_INVALID_STATE;
ARM GAS  C:\Windows\TEMP\cc5RoFpJ.s 			page 23


 762:Generated_Source\PSoC4/BLE_1_aios.c ****             }
 763:Generated_Source\PSoC4/BLE_1_aios.c ****             
 764:Generated_Source\PSoC4/BLE_1_aios.c ****             else if(!CYBLE_IS_NOTIFICATION_ENABLED(
 479              		.loc 1 764 0
 480 0034 013B     		subs	r3, r3, #1
 481 0036 9A00     		lsls	r2, r3, #2
 482 0038 D318     		adds	r3, r2, r3
 483 003a 9A00     		lsls	r2, r3, #2
 484 003c 134B     		ldr	r3, .L46+12
 485 003e 9A18     		adds	r2, r3, r2
 486 0040 1369     		ldr	r3, [r2, #16]
 487 0042 5868     		ldr	r0, [r3, #4]
 488 0044 FFF7FEFF 		bl	CyBle_Get16ByPtr
 489              	.LVL54:
 490 0048 C307     		lsls	r3, r0, #31
 491 004a 14D5     		bpl	.L45
 492              	.LBB6:
 765:Generated_Source\PSoC4/BLE_1_aios.c ****                 cyBle_aioss.charInfoAddr[charIndex].charInfoPtr[charInstance].descrHandle[CYBLE_AIO
 766:Generated_Source\PSoC4/BLE_1_aios.c ****             {
 767:Generated_Source\PSoC4/BLE_1_aios.c ****                 apiResult = CYBLE_ERROR_NTF_DISABLED;
 768:Generated_Source\PSoC4/BLE_1_aios.c ****             }
 769:Generated_Source\PSoC4/BLE_1_aios.c ****             else
 770:Generated_Source\PSoC4/BLE_1_aios.c ****             {
 771:Generated_Source\PSoC4/BLE_1_aios.c ****                 CYBLE_GATTS_HANDLE_VALUE_NTF_T ntfReqParam;
 772:Generated_Source\PSoC4/BLE_1_aios.c **** 
 773:Generated_Source\PSoC4/BLE_1_aios.c ****                 /* Fill all fields of write request structure ... */
 774:Generated_Source\PSoC4/BLE_1_aios.c ****                 ntfReqParam.attrHandle = cyBle_aioss.charInfoAddr[charIndex].charInfoPtr[charInstan
 493              		.loc 1 774 0
 494 004c 2B88     		ldrh	r3, [r5]
 495 004e 03A9     		add	r1, sp, #12
 496 0050 0B81     		strh	r3, [r1, #8]
 775:Generated_Source\PSoC4/BLE_1_aios.c ****                 ntfReqParam.value.val = attrValue;
 497              		.loc 1 775 0
 498 0052 0A9B     		ldr	r3, [sp, #40]
 499 0054 0393     		str	r3, [sp, #12]
 776:Generated_Source\PSoC4/BLE_1_aios.c ****                 ntfReqParam.value.len = attrSize;
 500              		.loc 1 776 0
 501 0056 8C80     		strh	r4, [r1, #4]
 777:Generated_Source\PSoC4/BLE_1_aios.c **** 
 778:Generated_Source\PSoC4/BLE_1_aios.c ****                 /* Send notification to client using previously filled structure */
 779:Generated_Source\PSoC4/BLE_1_aios.c ****                 apiResult = CyBle_GattsNotification(connHandle, &ntfReqParam);
 502              		.loc 1 779 0
 503 0058 0198     		ldr	r0, [sp, #4]
 504 005a FFF7FEFF 		bl	CyBle_GattsNotification
 505              	.LVL55:
 506 005e 0CE0     		b	.L39
 507              	.LVL56:
 508              	.L40:
 509              	.LBE6:
 751:Generated_Source\PSoC4/BLE_1_aios.c **** 
 510              		.loc 1 751 0
 511 0060 0120     		movs	r0, #1
 512 0062 0AE0     		b	.L39
 513              	.LVL57:
 514              	.L41:
 515 0064 0120     		movs	r0, #1
 516 0066 08E0     		b	.L39
ARM GAS  C:\Windows\TEMP\cc5RoFpJ.s 			page 24


 517              	.LVL58:
 518              	.L42:
 780:Generated_Source\PSoC4/BLE_1_aios.c ****             }
 781:Generated_Source\PSoC4/BLE_1_aios.c ****         }
 782:Generated_Source\PSoC4/BLE_1_aios.c ****         else
 783:Generated_Source\PSoC4/BLE_1_aios.c ****         {
 784:Generated_Source\PSoC4/BLE_1_aios.c ****             apiResult = CYBLE_ERROR_GATT_DB_INVALID_ATTR_HANDLE;
 519              		.loc 1 784 0
 520 0068 1320     		movs	r0, #19
 521 006a 06E0     		b	.L39
 522              	.LVL59:
 523              	.L43:
 524 006c 1320     		movs	r0, #19
 525 006e 04E0     		b	.L39
 526              	.L44:
 761:Generated_Source\PSoC4/BLE_1_aios.c ****             }
 527              		.loc 1 761 0
 528 0070 0420     		movs	r0, #4
 529 0072 FF30     		adds	r0, r0, #255
 530 0074 01E0     		b	.L39
 531              	.L45:
 767:Generated_Source\PSoC4/BLE_1_aios.c ****             }
 532              		.loc 1 767 0
 533 0076 8020     		movs	r0, #128
 534 0078 4000     		lsls	r0, r0, #1
 535              	.LVL60:
 536              	.L39:
 785:Generated_Source\PSoC4/BLE_1_aios.c ****         }
 786:Generated_Source\PSoC4/BLE_1_aios.c ****     }
 787:Generated_Source\PSoC4/BLE_1_aios.c **** 
 788:Generated_Source\PSoC4/BLE_1_aios.c ****     return (apiResult);
 789:Generated_Source\PSoC4/BLE_1_aios.c **** }
 537              		.loc 1 789 0
 538 007a 07B0     		add	sp, sp, #28
 539              		@ sp needed
 540 007c 30BD     		pop	{r4, r5, pc}
 541              	.L47:
 542 007e C046     		.align	2
 543              	.L46:
 544 0080 00000000 		.word	.LANCHOR1
 545 0084 00000000 		.word	.LANCHOR2
 546 0088 00000000 		.word	cyBle_state
 547 008c 00000000 		.word	cyBle_gattDB
 548              		.cfi_endproc
 549              	.LFE9:
 550              		.size	CyBle_AiossSendNotification, .-CyBle_AiossSendNotification
 551              		.section	.text.CyBle_AiossSendIndication,"ax",%progbits
 552              		.align	2
 553              		.global	CyBle_AiossSendIndication
 554              		.code	16
 555              		.thumb_func
 556              		.type	CyBle_AiossSendIndication, %function
 557              	CyBle_AiossSendIndication:
 558              	.LFB10:
 790:Generated_Source\PSoC4/BLE_1_aios.c **** 
 791:Generated_Source\PSoC4/BLE_1_aios.c **** /******************************************************************************
 792:Generated_Source\PSoC4/BLE_1_aios.c **** * Function Name: CyBle_AiossSendIndication
ARM GAS  C:\Windows\TEMP\cc5RoFpJ.s 			page 25


 793:Generated_Source\PSoC4/BLE_1_aios.c **** ***************************************************************************//**
 794:Generated_Source\PSoC4/BLE_1_aios.c **** * 
 795:Generated_Source\PSoC4/BLE_1_aios.c **** *  Sends an indication with a characteristic value of the Automation Input Output
 796:Generated_Source\PSoC4/BLE_1_aios.c **** *  Service, which is a value specified by charIndex, to the client's device.
 797:Generated_Source\PSoC4/BLE_1_aios.c **** *  
 798:Generated_Source\PSoC4/BLE_1_aios.c **** *  On enabling indication successfully, if the GATT server has an updated value to be 
 799:Generated_Source\PSoC4/BLE_1_aios.c **** *  indicated to the GATT Client, it sends out a 'Handle Value Indication' which
 800:Generated_Source\PSoC4/BLE_1_aios.c **** *  results in CYBLE_EVT_AIOSC_INDICATION or CYBLE_EVT_GATTC_HANDLE_VALUE_IND (if 
 801:Generated_Source\PSoC4/BLE_1_aios.c **** *  service specific callback function is not registered) event at the GATT Client's end.
 802:Generated_Source\PSoC4/BLE_1_aios.c **** *
 803:Generated_Source\PSoC4/BLE_1_aios.c **** *  \param connHandle: The connection handle.
 804:Generated_Source\PSoC4/BLE_1_aios.c **** *  \param charIndex: The index of the service characteristic.
 805:Generated_Source\PSoC4/BLE_1_aios.c **** *  \param charInstance: The instance number of the characteristic specified by 
 806:Generated_Source\PSoC4/BLE_1_aios.c **** *                "charIndex".
 807:Generated_Source\PSoC4/BLE_1_aios.c **** *  \param attrSize: The size of the characteristic value attribute.
 808:Generated_Source\PSoC4/BLE_1_aios.c **** *  \param attrValue: The pointer to the characteristic value data that should be
 809:Generated_Source\PSoC4/BLE_1_aios.c **** *               sent to the client's device.
 810:Generated_Source\PSoC4/BLE_1_aios.c **** * 
 811:Generated_Source\PSoC4/BLE_1_aios.c **** * \return
 812:Generated_Source\PSoC4/BLE_1_aios.c **** *  A return value is of type CYBLE_API_RESULT_T.
 813:Generated_Source\PSoC4/BLE_1_aios.c **** *   * CYBLE_ERROR_OK - The request handled successfully
 814:Generated_Source\PSoC4/BLE_1_aios.c **** *   * CYBLE_ERROR_INVALID_PARAMETER - Validation of the input parameter failed
 815:Generated_Source\PSoC4/BLE_1_aios.c **** *   * CYBLE_ERROR_INVALID_OPERATION - This operation is not permitted
 816:Generated_Source\PSoC4/BLE_1_aios.c **** *   * CYBLE_ERROR_INVALID_STATE - Connection with the client is not established
 817:Generated_Source\PSoC4/BLE_1_aios.c **** *   * CYBLE_ERROR_MEMORY_ALLOCATION_FAILED - Memory allocation failed.
 818:Generated_Source\PSoC4/BLE_1_aios.c **** *   * CYBLE_ERROR_IND_DISABLED - Indication is not enabled by the client.
 819:Generated_Source\PSoC4/BLE_1_aios.c **** *   * CYBLE_ERROR_GATT_DB_INVALID_ATTR_HANDLE - An optional characteristic is
 820:Generated_Source\PSoC4/BLE_1_aios.c **** *                                               absent.
 821:Generated_Source\PSoC4/BLE_1_aios.c **** *
 822:Generated_Source\PSoC4/BLE_1_aios.c **** * \events
 823:Generated_Source\PSoC4/BLE_1_aios.c **** *  In case of successful execution (return value = CYBLE_ERROR_OK)
 824:Generated_Source\PSoC4/BLE_1_aios.c **** *  the next events can appear: \n
 825:Generated_Source\PSoC4/BLE_1_aios.c **** *   If the Aios service-specific callback is registered 
 826:Generated_Source\PSoC4/BLE_1_aios.c **** *      (with CyBle_AiosRegisterAttrCallback):
 827:Generated_Source\PSoC4/BLE_1_aios.c **** *  * CYBLE_EVT_AiosS_INDICATION_CONFIRMED - in case if the indication is
 828:Generated_Source\PSoC4/BLE_1_aios.c **** *                                successfully delivered to the peer device.
 829:Generated_Source\PSoC4/BLE_1_aios.c **** *  .
 830:Generated_Source\PSoC4/BLE_1_aios.c **** *   Otherwise (if the Aios service-specific callback is not registered):
 831:Generated_Source\PSoC4/BLE_1_aios.c **** *  * CYBLE_EVT_GATTS_HANDLE_VALUE_CNF - in case if the indication is
 832:Generated_Source\PSoC4/BLE_1_aios.c **** *                                successfully delivered to the peer device.
 833:Generated_Source\PSoC4/BLE_1_aios.c **** *
 834:Generated_Source\PSoC4/BLE_1_aios.c **** ******************************************************************************/
 835:Generated_Source\PSoC4/BLE_1_aios.c **** CYBLE_API_RESULT_T CyBle_AiossSendIndication(CYBLE_CONN_HANDLE_T connHandle,
 836:Generated_Source\PSoC4/BLE_1_aios.c ****     CYBLE_AIOS_CHAR_INDEX_T charIndex, uint8 charInstance, uint8 attrSize, uint8 *attrValue)
 837:Generated_Source\PSoC4/BLE_1_aios.c **** {
 559              		.loc 1 837 0
 560              		.cfi_startproc
 561              		@ args = 4, pretend = 0, frame = 24
 562              		@ frame_needed = 0, uses_anonymous_args = 0
 563              	.LVL61:
 564 0000 30B5     		push	{r4, r5, lr}
 565              		.cfi_def_cfa_offset 12
 566              		.cfi_offset 4, -12
 567              		.cfi_offset 5, -8
 568              		.cfi_offset 14, -4
 569 0002 87B0     		sub	sp, sp, #28
 570              		.cfi_def_cfa_offset 40
ARM GAS  C:\Windows\TEMP\cc5RoFpJ.s 			page 26


 571 0004 01AC     		add	r4, sp, #4
 572 0006 2080     		strh	r0, [r4]
 573 0008 1C00     		movs	r4, r3
 574              	.LVL62:
 838:Generated_Source\PSoC4/BLE_1_aios.c ****     /* Store new data in database */
 839:Generated_Source\PSoC4/BLE_1_aios.c ****     CYBLE_API_RESULT_T apiResult = CYBLE_ERROR_OK;
 840:Generated_Source\PSoC4/BLE_1_aios.c ****     
 841:Generated_Source\PSoC4/BLE_1_aios.c ****     /* Send indication if it is enabled and connected */
 842:Generated_Source\PSoC4/BLE_1_aios.c ****     if(charIndex >= CYBLE_AIOS_CHAR_COUNT)
 575              		.loc 1 842 0
 576 000a 0229     		cmp	r1, #2
 577 000c 2CD8     		bhi	.L51
 843:Generated_Source\PSoC4/BLE_1_aios.c ****     {
 844:Generated_Source\PSoC4/BLE_1_aios.c ****         apiResult = CYBLE_ERROR_INVALID_PARAMETER;
 845:Generated_Source\PSoC4/BLE_1_aios.c ****     }
 846:Generated_Source\PSoC4/BLE_1_aios.c ****     else if(charInstance >= cyBle_aiossCharInstances[charIndex])
 578              		.loc 1 846 0
 579 000e 1D4B     		ldr	r3, .L56
 580              	.LVL63:
 581 0010 5B5C     		ldrb	r3, [r3, r1]
 582 0012 9342     		cmp	r3, r2
 583 0014 2AD9     		bls	.L52
 847:Generated_Source\PSoC4/BLE_1_aios.c ****     {
 848:Generated_Source\PSoC4/BLE_1_aios.c ****         apiResult = CYBLE_ERROR_INVALID_PARAMETER;
 849:Generated_Source\PSoC4/BLE_1_aios.c ****     }
 850:Generated_Source\PSoC4/BLE_1_aios.c ****     else if(CYBLE_STATE_CONNECTED != CyBle_GetState())
 584              		.loc 1 850 0
 585 0016 1C4B     		ldr	r3, .L56+4
 586 0018 1B78     		ldrb	r3, [r3]
 587 001a 022B     		cmp	r3, #2
 588 001c 28D1     		bne	.L53
 851:Generated_Source\PSoC4/BLE_1_aios.c ****     {
 852:Generated_Source\PSoC4/BLE_1_aios.c ****         apiResult = CYBLE_ERROR_INVALID_STATE;
 853:Generated_Source\PSoC4/BLE_1_aios.c ****     }
 854:Generated_Source\PSoC4/BLE_1_aios.c ****     else if(!CYBLE_IS_INDICATION_ENABLED(
 589              		.loc 1 854 0
 590 001e 8900     		lsls	r1, r1, #2
 591              	.LVL64:
 592 0020 1A4B     		ldr	r3, .L56+8
 593 0022 5918     		adds	r1, r3, r1
 594 0024 4D68     		ldr	r5, [r1, #4]
 595 0026 1201     		lsls	r2, r2, #4
 596              	.LVL65:
 597 0028 AD18     		adds	r5, r5, r2
 598 002a 6B88     		ldrh	r3, [r5, #2]
 599 002c 013B     		subs	r3, r3, #1
 600 002e 9A00     		lsls	r2, r3, #2
 601 0030 D318     		adds	r3, r2, r3
 602 0032 9A00     		lsls	r2, r3, #2
 603 0034 164B     		ldr	r3, .L56+12
 604 0036 9A18     		adds	r2, r3, r2
 605 0038 1369     		ldr	r3, [r2, #16]
 606 003a 5868     		ldr	r0, [r3, #4]
 607 003c FFF7FEFF 		bl	CyBle_Get16ByPtr
 608              	.LVL66:
 609 0040 8307     		lsls	r3, r0, #30
 610 0042 18D5     		bpl	.L54
ARM GAS  C:\Windows\TEMP\cc5RoFpJ.s 			page 27


 855:Generated_Source\PSoC4/BLE_1_aios.c ****         cyBle_aioss.charInfoAddr[charIndex].charInfoPtr[charInstance].descrHandle[CYBLE_AIOS_CCCD])
 856:Generated_Source\PSoC4/BLE_1_aios.c ****     {
 857:Generated_Source\PSoC4/BLE_1_aios.c ****         apiResult = CYBLE_ERROR_IND_DISABLED;
 858:Generated_Source\PSoC4/BLE_1_aios.c ****     }
 859:Generated_Source\PSoC4/BLE_1_aios.c ****     else
 860:Generated_Source\PSoC4/BLE_1_aios.c ****     {
 861:Generated_Source\PSoC4/BLE_1_aios.c ****         if(cyBle_aioss.charInfoAddr[charIndex].charInfoPtr[charInstance].charHandle != CYBLE_GATT_I
 611              		.loc 1 861 0
 612 0044 2B88     		ldrh	r3, [r5]
 613 0046 002B     		cmp	r3, #0
 614 0048 18D0     		beq	.L55
 615              	.LBB7:
 862:Generated_Source\PSoC4/BLE_1_aios.c ****         {
 863:Generated_Source\PSoC4/BLE_1_aios.c ****             CYBLE_GATTS_HANDLE_VALUE_IND_T indReqParam;
 864:Generated_Source\PSoC4/BLE_1_aios.c **** 
 865:Generated_Source\PSoC4/BLE_1_aios.c ****             /* Fill all fields of write request structure ... */
 866:Generated_Source\PSoC4/BLE_1_aios.c ****             indReqParam.attrHandle = cyBle_aioss.charInfoAddr[charIndex].charInfoPtr[charInstance].
 616              		.loc 1 866 0
 617 004a 03A9     		add	r1, sp, #12
 618 004c 0B81     		strh	r3, [r1, #8]
 867:Generated_Source\PSoC4/BLE_1_aios.c ****             indReqParam.value.val = attrValue;
 619              		.loc 1 867 0
 620 004e 0A9B     		ldr	r3, [sp, #40]
 621 0050 0393     		str	r3, [sp, #12]
 868:Generated_Source\PSoC4/BLE_1_aios.c ****             indReqParam.value.len = attrSize;
 622              		.loc 1 868 0
 623 0052 8C80     		strh	r4, [r1, #4]
 869:Generated_Source\PSoC4/BLE_1_aios.c **** 
 870:Generated_Source\PSoC4/BLE_1_aios.c ****             /* Send indication to client using previously filled structure */
 871:Generated_Source\PSoC4/BLE_1_aios.c ****             apiResult = CyBle_GattsIndication(connHandle, &indReqParam);
 624              		.loc 1 871 0
 625 0054 0198     		ldr	r0, [sp, #4]
 626 0056 FFF7FEFF 		bl	CyBle_GattsIndication
 627              	.LVL67:
 872:Generated_Source\PSoC4/BLE_1_aios.c ****             /* Save handle to support service specific value confirmation response from client */
 873:Generated_Source\PSoC4/BLE_1_aios.c ****             if(apiResult == CYBLE_ERROR_OK)
 628              		.loc 1 873 0
 629 005a 0028     		cmp	r0, #0
 630 005c 0FD1     		bne	.L49
 874:Generated_Source\PSoC4/BLE_1_aios.c ****             {
 875:Generated_Source\PSoC4/BLE_1_aios.c ****                 cyBle_aiossReqHandle = indReqParam.attrHandle;
 631              		.loc 1 875 0
 632 005e 03AB     		add	r3, sp, #12
 633 0060 1A89     		ldrh	r2, [r3, #8]
 634 0062 0C4B     		ldr	r3, .L56+16
 635 0064 9A80     		strh	r2, [r3, #4]
 636 0066 0AE0     		b	.L49
 637              	.LVL68:
 638              	.L51:
 639              	.LBE7:
 844:Generated_Source\PSoC4/BLE_1_aios.c ****     }
 640              		.loc 1 844 0
 641 0068 0120     		movs	r0, #1
 642 006a 08E0     		b	.L49
 643              	.LVL69:
 644              	.L52:
 848:Generated_Source\PSoC4/BLE_1_aios.c ****     }
ARM GAS  C:\Windows\TEMP\cc5RoFpJ.s 			page 28


 645              		.loc 1 848 0
 646 006c 0120     		movs	r0, #1
 647 006e 06E0     		b	.L49
 648              	.L53:
 852:Generated_Source\PSoC4/BLE_1_aios.c ****     }
 649              		.loc 1 852 0
 650 0070 0420     		movs	r0, #4
 651 0072 FF30     		adds	r0, r0, #255
 652 0074 03E0     		b	.L49
 653              	.LVL70:
 654              	.L54:
 857:Generated_Source\PSoC4/BLE_1_aios.c ****     }
 655              		.loc 1 857 0
 656 0076 0220     		movs	r0, #2
 657 0078 FF30     		adds	r0, r0, #255
 658 007a 00E0     		b	.L49
 659              	.L55:
 876:Generated_Source\PSoC4/BLE_1_aios.c ****             }
 877:Generated_Source\PSoC4/BLE_1_aios.c ****         }
 878:Generated_Source\PSoC4/BLE_1_aios.c ****         else
 879:Generated_Source\PSoC4/BLE_1_aios.c ****         {
 880:Generated_Source\PSoC4/BLE_1_aios.c ****             apiResult = CYBLE_ERROR_GATT_DB_INVALID_ATTR_HANDLE;
 660              		.loc 1 880 0
 661 007c 1320     		movs	r0, #19
 662              	.LVL71:
 663              	.L49:
 881:Generated_Source\PSoC4/BLE_1_aios.c ****         }
 882:Generated_Source\PSoC4/BLE_1_aios.c ****     }
 883:Generated_Source\PSoC4/BLE_1_aios.c ****     return (apiResult);
 884:Generated_Source\PSoC4/BLE_1_aios.c **** }
 664              		.loc 1 884 0
 665 007e 07B0     		add	sp, sp, #28
 666              		@ sp needed
 667 0080 30BD     		pop	{r4, r5, pc}
 668              	.L57:
 669 0082 C046     		.align	2
 670              	.L56:
 671 0084 00000000 		.word	.LANCHOR1
 672 0088 00000000 		.word	cyBle_state
 673 008c 00000000 		.word	.LANCHOR2
 674 0090 00000000 		.word	cyBle_gattDB
 675 0094 00000000 		.word	.LANCHOR0
 676              		.cfi_endproc
 677              	.LFE10:
 678              		.size	CyBle_AiossSendIndication, .-CyBle_AiossSendIndication
 679              		.section	.text.CyBle_AiossConfirmationEventHandler,"ax",%progbits
 680              		.align	2
 681              		.global	CyBle_AiossConfirmationEventHandler
 682              		.code	16
 683              		.thumb_func
 684              		.type	CyBle_AiossConfirmationEventHandler, %function
 685              	CyBle_AiossConfirmationEventHandler:
 686              	.LFB11:
 885:Generated_Source\PSoC4/BLE_1_aios.c **** 
 886:Generated_Source\PSoC4/BLE_1_aios.c **** /******************************************************************************
 887:Generated_Source\PSoC4/BLE_1_aios.c **** * Function Name: CyBle_AiossConfirmationEventHandler
 888:Generated_Source\PSoC4/BLE_1_aios.c **** ***************************************************************************//**
ARM GAS  C:\Windows\TEMP\cc5RoFpJ.s 			page 29


 889:Generated_Source\PSoC4/BLE_1_aios.c **** * 
 890:Generated_Source\PSoC4/BLE_1_aios.c **** *  Handles a Value Confirmation request event from the BLE stack.
 891:Generated_Source\PSoC4/BLE_1_aios.c **** * 
 892:Generated_Source\PSoC4/BLE_1_aios.c **** *  eventParam - The pointer to a structure of type CYBLE_CONN_HANDLE_T.
 893:Generated_Source\PSoC4/BLE_1_aios.c **** *  
 894:Generated_Source\PSoC4/BLE_1_aios.c **** ******************************************************************************/
 895:Generated_Source\PSoC4/BLE_1_aios.c **** void CyBle_AiossConfirmationEventHandler(const CYBLE_CONN_HANDLE_T *eventParam)
 896:Generated_Source\PSoC4/BLE_1_aios.c **** {
 687              		.loc 1 896 0
 688              		.cfi_startproc
 689              		@ args = 0, pretend = 0, frame = 16
 690              		@ frame_needed = 0, uses_anonymous_args = 0
 691              	.LVL72:
 692 0000 F0B5     		push	{r4, r5, r6, r7, lr}
 693              		.cfi_def_cfa_offset 20
 694              		.cfi_offset 4, -20
 695              		.cfi_offset 5, -16
 696              		.cfi_offset 6, -12
 697              		.cfi_offset 7, -8
 698              		.cfi_offset 14, -4
 699 0002 85B0     		sub	sp, sp, #20
 700              		.cfi_def_cfa_offset 40
 701 0004 0500     		movs	r5, r0
 702              	.LVL73:
 897:Generated_Source\PSoC4/BLE_1_aios.c ****     CYBLE_AIOS_CHAR_INDEX_T locCharIndex;
 898:Generated_Source\PSoC4/BLE_1_aios.c ****     CYBLE_AIOS_CHAR_VALUE_T locCharValue;
 899:Generated_Source\PSoC4/BLE_1_aios.c ****     uint8 locCharInstance;
 900:Generated_Source\PSoC4/BLE_1_aios.c ****     uint8 locReqHandle = 0u;
 901:Generated_Source\PSoC4/BLE_1_aios.c **** 
 902:Generated_Source\PSoC4/BLE_1_aios.c ****     if((CyBle_AiosApplCallback != NULL) && (cyBle_aiossReqHandle != CYBLE_GATT_INVALID_ATTR_HANDLE_
 703              		.loc 1 902 0
 704 0006 204B     		ldr	r3, .L67
 705 0008 1B68     		ldr	r3, [r3]
 706 000a 002B     		cmp	r3, #0
 707 000c 39D0     		beq	.L58
 708              		.loc 1 902 0 is_stmt 0 discriminator 1
 709 000e 1E4B     		ldr	r3, .L67
 710 0010 9B88     		ldrh	r3, [r3, #4]
 711 0012 002B     		cmp	r3, #0
 712 0014 2FD1     		bne	.L65
 713 0016 34E0     		b	.L58
 714              	.LVL74:
 715              	.L63:
 903:Generated_Source\PSoC4/BLE_1_aios.c ****     {
 904:Generated_Source\PSoC4/BLE_1_aios.c ****         for(locCharIndex = CYBLE_AIOS_DIGITAL; (locCharIndex < CYBLE_AIOS_CHAR_COUNT) && (locReqHan
 905:Generated_Source\PSoC4/BLE_1_aios.c ****             locCharIndex++)
 906:Generated_Source\PSoC4/BLE_1_aios.c ****         {
 907:Generated_Source\PSoC4/BLE_1_aios.c ****             for(locCharInstance = 0u; (locCharInstance < cyBle_aiossCharInstances[locCharIndex]) &&
 908:Generated_Source\PSoC4/BLE_1_aios.c ****                 locCharInstance++)
 909:Generated_Source\PSoC4/BLE_1_aios.c ****             {
 910:Generated_Source\PSoC4/BLE_1_aios.c ****                 if(cyBle_aiossReqHandle == cyBle_aioss.charInfoAddr[locCharIndex].charInfoPtr[locCh
 716              		.loc 1 910 0 is_stmt 1
 717 0018 9B00     		lsls	r3, r3, #2
 718 001a 1C4A     		ldr	r2, .L67+4
 719 001c D318     		adds	r3, r2, r3
 720 001e 5A68     		ldr	r2, [r3, #4]
 721 0020 2301     		lsls	r3, r4, #4
ARM GAS  C:\Windows\TEMP\cc5RoFpJ.s 			page 30


 722 0022 D25A     		ldrh	r2, [r2, r3]
 723 0024 184B     		ldr	r3, .L67
 724 0026 9B88     		ldrh	r3, [r3, #4]
 725 0028 9A42     		cmp	r2, r3
 726 002a 16D1     		bne	.L61
 911:Generated_Source\PSoC4/BLE_1_aios.c ****                 {
 912:Generated_Source\PSoC4/BLE_1_aios.c ****                     locCharValue.connHandle = *eventParam;
 727              		.loc 1 912 0
 728 002c 01AF     		add	r7, sp, #4
 729 002e 0222     		movs	r2, #2
 730 0030 2900     		movs	r1, r5
 731              	.LVL75:
 732 0032 3800     		movs	r0, r7
 733 0034 FFF7FEFF 		bl	memcpy
 734              	.LVL76:
 913:Generated_Source\PSoC4/BLE_1_aios.c ****                     locCharValue.charIndex = locCharIndex;
 735              		.loc 1 913 0
 736 0038 BE70     		strb	r6, [r7, #2]
 914:Generated_Source\PSoC4/BLE_1_aios.c ****                     locCharValue.charInstance = locCharInstance;
 737              		.loc 1 914 0
 738 003a FC70     		strb	r4, [r7, #3]
 915:Generated_Source\PSoC4/BLE_1_aios.c ****                     locCharValue.value = NULL;
 739              		.loc 1 915 0
 740 003c 0022     		movs	r2, #0
 741 003e 7A60     		str	r2, [r7, #4]
 916:Generated_Source\PSoC4/BLE_1_aios.c ****                     cyBle_eventHandlerFlag &= (uint8)~CYBLE_CALLBACK;
 742              		.loc 1 916 0
 743 0040 1349     		ldr	r1, .L67+8
 744 0042 0B78     		ldrb	r3, [r1]
 745 0044 0120     		movs	r0, #1
 746 0046 8343     		bics	r3, r0
 747 0048 0B70     		strb	r3, [r1]
 917:Generated_Source\PSoC4/BLE_1_aios.c ****                     cyBle_aiossReqHandle = CYBLE_GATT_INVALID_ATTR_HANDLE_VALUE;
 748              		.loc 1 917 0
 749 004a 0F4B     		ldr	r3, .L67
 750 004c 9A80     		strh	r2, [r3, #4]
 918:Generated_Source\PSoC4/BLE_1_aios.c ****                     CyBle_AiosApplCallback((uint32)CYBLE_EVT_AIOSS_INDICATION_CONFIRMED, &locCharVa
 751              		.loc 1 918 0
 752 004e 1B68     		ldr	r3, [r3]
 753 0050 3900     		movs	r1, r7
 754 0052 1630     		adds	r0, r0, #22
 755 0054 FF30     		adds	r0, r0, #255
 756 0056 9847     		blx	r3
 757              	.LVL77:
 919:Generated_Source\PSoC4/BLE_1_aios.c ****                     locReqHandle = 1u;
 758              		.loc 1 919 0
 759 0058 0121     		movs	r1, #1
 760              	.LVL78:
 761              	.L61:
 908:Generated_Source\PSoC4/BLE_1_aios.c ****             {
 762              		.loc 1 908 0
 763 005a 0134     		adds	r4, r4, #1
 764              	.LVL79:
 765 005c E4B2     		uxtb	r4, r4
 766              	.LVL80:
 767 005e 00E0     		b	.L64
 768              	.LVL81:
ARM GAS  C:\Windows\TEMP\cc5RoFpJ.s 			page 31


 769              	.L66:
 770 0060 0024     		movs	r4, #0
 771              	.L64:
 772              	.LVL82:
 907:Generated_Source\PSoC4/BLE_1_aios.c ****                 locCharInstance++)
 773              		.loc 1 907 0 discriminator 1
 774 0062 3300     		movs	r3, r6
 775 0064 0B4A     		ldr	r2, .L67+12
 776 0066 925D     		ldrb	r2, [r2, r6]
 777 0068 9442     		cmp	r4, r2
 778 006a 01D2     		bcs	.L62
 907:Generated_Source\PSoC4/BLE_1_aios.c ****                 locCharInstance++)
 779              		.loc 1 907 0 is_stmt 0 discriminator 2
 780 006c 0029     		cmp	r1, #0
 781 006e D3D0     		beq	.L63
 782              	.L62:
 905:Generated_Source\PSoC4/BLE_1_aios.c ****         {
 783              		.loc 1 905 0 is_stmt 1
 784 0070 0136     		adds	r6, r6, #1
 785              	.LVL83:
 786 0072 F6B2     		uxtb	r6, r6
 787              	.LVL84:
 788 0074 01E0     		b	.L60
 789              	.LVL85:
 790              	.L65:
 791 0076 0021     		movs	r1, #0
 792 0078 0026     		movs	r6, #0
 793              	.LVL86:
 794              	.L60:
 904:Generated_Source\PSoC4/BLE_1_aios.c ****             locCharIndex++)
 795              		.loc 1 904 0 discriminator 1
 796 007a 022E     		cmp	r6, #2
 797 007c 01D8     		bhi	.L58
 904:Generated_Source\PSoC4/BLE_1_aios.c ****             locCharIndex++)
 798              		.loc 1 904 0 is_stmt 0 discriminator 2
 799 007e 0029     		cmp	r1, #0
 800 0080 EED0     		beq	.L66
 801              	.LVL87:
 802              	.L58:
 920:Generated_Source\PSoC4/BLE_1_aios.c ****                 }
 921:Generated_Source\PSoC4/BLE_1_aios.c ****             }
 922:Generated_Source\PSoC4/BLE_1_aios.c ****         }
 923:Generated_Source\PSoC4/BLE_1_aios.c ****     }
 924:Generated_Source\PSoC4/BLE_1_aios.c **** }
 803              		.loc 1 924 0 is_stmt 1
 804 0082 05B0     		add	sp, sp, #20
 805              		@ sp needed
 806              	.LVL88:
 807 0084 F0BD     		pop	{r4, r5, r6, r7, pc}
 808              	.L68:
 809 0086 C046     		.align	2
 810              	.L67:
 811 0088 00000000 		.word	.LANCHOR0
 812 008c 00000000 		.word	.LANCHOR2
 813 0090 00000000 		.word	cyBle_eventHandlerFlag
 814 0094 00000000 		.word	.LANCHOR1
 815              		.cfi_endproc
ARM GAS  C:\Windows\TEMP\cc5RoFpJ.s 			page 32


 816              	.LFE11:
 817              		.size	CyBle_AiossConfirmationEventHandler, .-CyBle_AiossConfirmationEventHandler
 818              		.section	.text.CyBle_AiosSetAggregateChar,"ax",%progbits
 819              		.align	2
 820              		.global	CyBle_AiosSetAggregateChar
 821              		.code	16
 822              		.thumb_func
 823              		.type	CyBle_AiosSetAggregateChar, %function
 824              	CyBle_AiosSetAggregateChar:
 825              	.LFB12:
 925:Generated_Source\PSoC4/BLE_1_aios.c **** 
 926:Generated_Source\PSoC4/BLE_1_aios.c **** /******************************************************************************
 927:Generated_Source\PSoC4/BLE_1_aios.c **** * Function Name: CyBle_AiosSetAggregateChar
 928:Generated_Source\PSoC4/BLE_1_aios.c **** ***************************************************************************//**
 929:Generated_Source\PSoC4/BLE_1_aios.c **** *
 930:Generated_Source\PSoC4/BLE_1_aios.c **** *  Sets the value for Aggregate characteristic. 
 931:Generated_Source\PSoC4/BLE_1_aios.c **** *  All of the defined Digital characteristics with the Read property set be
 932:Generated_Source\PSoC4/BLE_1_aios.c **** *  part of Aggregate (if available). The length of each of the Digital characteristics 
 933:Generated_Source\PSoC4/BLE_1_aios.c **** *  that is part of the Aggregate is determined from the number of signals defined in the 
 934:Generated_Source\PSoC4/BLE_1_aios.c **** *  Number of Digitals descriptor of the Digital characteristic. The Digital part byte 
 935:Generated_Source\PSoC4/BLE_1_aios.c **** *  aligned and trailing bits (if any) set to 0. The order of the Digital characteristics 
 936:Generated_Source\PSoC4/BLE_1_aios.c **** *  is determined by the value in the Description field of the Characteristic Presentation 
 937:Generated_Source\PSoC4/BLE_1_aios.c **** *  Format descriptor with the lowest value first. 
 938:Generated_Source\PSoC4/BLE_1_aios.c **** *  All of the defined Analog characteristics with Read property set part of the Aggregate
 939:Generated_Source\PSoC4/BLE_1_aios.c **** *  (if available). The order of the Analog characteristics is determined by the value in 
 940:Generated_Source\PSoC4/BLE_1_aios.c **** *  the Description field of the Characteristic Presentation Format descriptor with the 
 941:Generated_Source\PSoC4/BLE_1_aios.c **** *  lowest value first. 
 942:Generated_Source\PSoC4/BLE_1_aios.c **** *  The first analog input follows directly after the last Digital characteristic.
 943:Generated_Source\PSoC4/BLE_1_aios.c **** * 
 944:Generated_Source\PSoC4/BLE_1_aios.c **** * \return
 945:Generated_Source\PSoC4/BLE_1_aios.c **** *  A return value is of type CYBLE_GATT_ERR_CODE_T.
 946:Generated_Source\PSoC4/BLE_1_aios.c **** *  * CYBLE_GATT_ERR_NONE - The advertisement packet collected successfully.
 947:Generated_Source\PSoC4/BLE_1_aios.c **** *  * CYBLE_GATT_ERR_INVALID_HANDLE - 'handleValuePair.attrHandle' is not valid.
 948:Generated_Source\PSoC4/BLE_1_aios.c **** *
 949:Generated_Source\PSoC4/BLE_1_aios.c **** ******************************************************************************/
 950:Generated_Source\PSoC4/BLE_1_aios.c **** CYBLE_GATT_ERR_CODE_T CyBle_AiosSetAggregateChar(void)
 951:Generated_Source\PSoC4/BLE_1_aios.c **** {
 826              		.loc 1 951 0
 827              		.cfi_startproc
 828              		@ args = 0, pretend = 0, frame = 64
 829              		@ frame_needed = 0, uses_anonymous_args = 0
 830 0000 F0B5     		push	{r4, r5, r6, r7, lr}
 831              		.cfi_def_cfa_offset 20
 832              		.cfi_offset 4, -20
 833              		.cfi_offset 5, -16
 834              		.cfi_offset 6, -12
 835              		.cfi_offset 7, -8
 836              		.cfi_offset 14, -4
 837 0002 5F46     		mov	r7, fp
 838 0004 5646     		mov	r6, r10
 839 0006 4D46     		mov	r5, r9
 840 0008 4446     		mov	r4, r8
 841 000a F0B4     		push	{r4, r5, r6, r7}
 842              		.cfi_def_cfa_offset 36
 843              		.cfi_offset 8, -36
 844              		.cfi_offset 9, -32
 845              		.cfi_offset 10, -28
ARM GAS  C:\Windows\TEMP\cc5RoFpJ.s 			page 33


 846              		.cfi_offset 11, -24
 847 000c 91B0     		sub	sp, sp, #68
 848              		.cfi_def_cfa_offset 104
 849              	.LVL89:
 952:Generated_Source\PSoC4/BLE_1_aios.c ****     CYBLE_GATT_ERR_CODE_T gattErr = CYBLE_GATT_ERR_NONE;
 953:Generated_Source\PSoC4/BLE_1_aios.c ****     CYBLE_GATT_HANDLE_VALUE_PAIR_T locHandleValuePair;
 954:Generated_Source\PSoC4/BLE_1_aios.c ****     CYBLE_AIOS_CHAR_INDEX_T locCharIndex;
 955:Generated_Source\PSoC4/BLE_1_aios.c ****     uint8 locCharInstance;
 956:Generated_Source\PSoC4/BLE_1_aios.c ****     uint8 attrValue[CYBLE_AIOS_CHAR_PRESENTATION_FORMAT_LEN];
 957:Generated_Source\PSoC4/BLE_1_aios.c ****     uint8 aggregateChar[CYBLE_GATT_MTU-3];
 958:Generated_Source\PSoC4/BLE_1_aios.c ****     uint16 currentDescriptionValue;
 959:Generated_Source\PSoC4/BLE_1_aios.c ****     uint16 minDescriptionValue;
 960:Generated_Source\PSoC4/BLE_1_aios.c ****     uint16 minDescriptionValueTmp = 0xFFFFu;
 961:Generated_Source\PSoC4/BLE_1_aios.c ****     uint16 maxDescriptionValue;
 962:Generated_Source\PSoC4/BLE_1_aios.c ****     uint16 minDescriptionNumber;
 963:Generated_Source\PSoC4/BLE_1_aios.c ****     uint8 locCharInstanceNumber;
 964:Generated_Source\PSoC4/BLE_1_aios.c ****     uint8 aggregateCharIndex = 0u;
 965:Generated_Source\PSoC4/BLE_1_aios.c ****     uint8 aggregateDigitalBits = 0u;
 966:Generated_Source\PSoC4/BLE_1_aios.c ****     uint8 numOfDigital;
 967:Generated_Source\PSoC4/BLE_1_aios.c ****     uint8 i;
 968:Generated_Source\PSoC4/BLE_1_aios.c ****     
 969:Generated_Source\PSoC4/BLE_1_aios.c ****     for(i = 0; i < (CYBLE_GATT_MTU-3u); i++)
 850              		.loc 1 969 0
 851 000e 0023     		movs	r3, #0
 852 0010 04E0     		b	.L70
 853              	.LVL90:
 854              	.L71:
 970:Generated_Source\PSoC4/BLE_1_aios.c ****     {   
 971:Generated_Source\PSoC4/BLE_1_aios.c ****         aggregateChar[i] = 0u;
 855              		.loc 1 971 0 discriminator 3
 856 0012 0021     		movs	r1, #0
 857 0014 06AA     		add	r2, sp, #24
 858 0016 D154     		strb	r1, [r2, r3]
 969:Generated_Source\PSoC4/BLE_1_aios.c ****     {   
 859              		.loc 1 969 0 discriminator 3
 860 0018 0133     		adds	r3, r3, #1
 861              	.LVL91:
 862 001a DBB2     		uxtb	r3, r3
 863              	.LVL92:
 864              	.L70:
 969:Generated_Source\PSoC4/BLE_1_aios.c ****     {   
 865              		.loc 1 969 0 is_stmt 0 discriminator 1
 866 001c 132B     		cmp	r3, #19
 867 001e F8D9     		bls	.L71
 868 0020 0023     		movs	r3, #0
 869              	.LVL93:
 870 0022 04E0     		b	.L72
 871              	.LVL94:
 872              	.L73:
 972:Generated_Source\PSoC4/BLE_1_aios.c ****     }
 973:Generated_Source\PSoC4/BLE_1_aios.c ****     
 974:Generated_Source\PSoC4/BLE_1_aios.c ****     for(i = 0; i < CYBLE_AIOS_CHAR_PRESENTATION_FORMAT_LEN; i++)
 975:Generated_Source\PSoC4/BLE_1_aios.c ****     {   
 976:Generated_Source\PSoC4/BLE_1_aios.c ****         attrValue[i] = 0u;
 873              		.loc 1 976 0 is_stmt 1 discriminator 3
 874 0024 0021     		movs	r1, #0
 875 0026 0BAA     		add	r2, sp, #44
ARM GAS  C:\Windows\TEMP\cc5RoFpJ.s 			page 34


 876 0028 D154     		strb	r1, [r2, r3]
 974:Generated_Source\PSoC4/BLE_1_aios.c ****     {   
 877              		.loc 1 974 0 discriminator 3
 878 002a 0133     		adds	r3, r3, #1
 879              	.LVL95:
 880 002c DBB2     		uxtb	r3, r3
 881              	.LVL96:
 882              	.L72:
 974:Generated_Source\PSoC4/BLE_1_aios.c ****     {   
 883              		.loc 1 974 0 is_stmt 0 discriminator 1
 884 002e 062B     		cmp	r3, #6
 885 0030 F8D9     		bls	.L73
 977:Generated_Source\PSoC4/BLE_1_aios.c ****     }
 978:Generated_Source\PSoC4/BLE_1_aios.c ****    
 979:Generated_Source\PSoC4/BLE_1_aios.c ****     if((cyBle_aioss.charInfoAddr[CYBLE_AIOS_AGGREGATE].charInfoPtr != NULL) &&
 980:Generated_Source\PSoC4/BLE_1_aios.c ****         (CYBLE_GATT_INVALID_ATTR_HANDLE_VALUE != cyBle_aioss.charInfoAddr[CYBLE_AIOS_AGGREGATE].cha
 886              		.loc 1 980 0 is_stmt 1 discriminator 1
 887 0032 764B     		ldr	r3, .L95
 888              	.LVL97:
 889 0034 9B88     		ldrh	r3, [r3, #4]
 979:Generated_Source\PSoC4/BLE_1_aios.c ****         (CYBLE_GATT_INVALID_ATTR_HANDLE_VALUE != cyBle_aioss.charInfoAddr[CYBLE_AIOS_AGGREGATE].cha
 890              		.loc 1 979 0 discriminator 1
 891 0036 002B     		cmp	r3, #0
 892 0038 00D0     		beq	.LCB912
 893 003a C5E0     		b	.L88	@long jump
 894              	.LCB912:
 952:Generated_Source\PSoC4/BLE_1_aios.c ****     CYBLE_GATT_HANDLE_VALUE_PAIR_T locHandleValuePair;
 895              		.loc 1 952 0
 896 003c 0020     		movs	r0, #0
 897 003e DEE0     		b	.L75
 898              	.LVL98:
 899              	.L79:
 981:Generated_Source\PSoC4/BLE_1_aios.c ****     {
 982:Generated_Source\PSoC4/BLE_1_aios.c ****         for(locCharIndex = CYBLE_AIOS_DIGITAL; (locCharIndex <= CYBLE_AIOS_ANALOG) && (gattErr == C
 983:Generated_Source\PSoC4/BLE_1_aios.c ****                         locCharIndex++)
 984:Generated_Source\PSoC4/BLE_1_aios.c ****         {
 985:Generated_Source\PSoC4/BLE_1_aios.c ****             minDescriptionValue = 0u;
 986:Generated_Source\PSoC4/BLE_1_aios.c ****             minDescriptionNumber = 0u;
 987:Generated_Source\PSoC4/BLE_1_aios.c ****             
 988:Generated_Source\PSoC4/BLE_1_aios.c ****             for(locCharInstanceNumber = 0u; 
 989:Generated_Source\PSoC4/BLE_1_aios.c ****                     (locCharInstanceNumber < cyBle_aiossCharInstances[locCharIndex]) && (gattErr ==
 990:Generated_Source\PSoC4/BLE_1_aios.c ****                             locCharInstanceNumber++)
 991:Generated_Source\PSoC4/BLE_1_aios.c ****             {   
 992:Generated_Source\PSoC4/BLE_1_aios.c ****                 maxDescriptionValue = CYBLE_AIOS_MAX_CHAR_DESCRIPTION_VALUE;
 993:Generated_Source\PSoC4/BLE_1_aios.c ****                 
 994:Generated_Source\PSoC4/BLE_1_aios.c ****                 for(locCharInstance = 0u; 
 995:Generated_Source\PSoC4/BLE_1_aios.c ****                         (locCharInstance < cyBle_aiossCharInstances[locCharIndex]) && (gattErr == C
 996:Generated_Source\PSoC4/BLE_1_aios.c ****                                 locCharInstance++)
 997:Generated_Source\PSoC4/BLE_1_aios.c ****                 {
 998:Generated_Source\PSoC4/BLE_1_aios.c ****                     if((cyBle_aioss.charInfoAddr[locCharIndex].charInfoPtr != NULL) &&
 900              		.loc 1 998 0
 901 0040 AB00     		lsls	r3, r5, #2
 902 0042 734A     		ldr	r2, .L95+4
 903 0044 D318     		adds	r3, r2, r3
 904 0046 5A68     		ldr	r2, [r3, #4]
 905 0048 002A     		cmp	r2, #0
 906 004a 12D0     		beq	.L89
ARM GAS  C:\Windows\TEMP\cc5RoFpJ.s 			page 35


 999:Generated_Source\PSoC4/BLE_1_aios.c ****                         (cyBle_aioss.charInfoAddr[locCharIndex].charInfoPtr[locCharInstance].charHa
 907              		.loc 1 999 0 discriminator 1
 908 004c 2301     		lsls	r3, r4, #4
 909 004e D318     		adds	r3, r2, r3
 910 0050 1A88     		ldrh	r2, [r3]
 998:Generated_Source\PSoC4/BLE_1_aios.c ****                         (cyBle_aioss.charInfoAddr[locCharIndex].charInfoPtr[locCharInstance].charHa
 911              		.loc 1 998 0 discriminator 1
 912 0052 002A     		cmp	r2, #0
 913 0054 0FD0     		beq	.L90
1000:Generated_Source\PSoC4/BLE_1_aios.c ****                                 != CYBLE_GATT_INVALID_ATTR_HANDLE_VALUE) &&
1001:Generated_Source\PSoC4/BLE_1_aios.c ****                         (cyBle_aioss.charInfoAddr[locCharIndex].charInfoPtr[locCharInstance].descrH
 914              		.loc 1 1001 0
 915 0056 9B88     		ldrh	r3, [r3, #4]
1000:Generated_Source\PSoC4/BLE_1_aios.c ****                                 != CYBLE_GATT_INVALID_ATTR_HANDLE_VALUE) &&
 916              		.loc 1 1000 0
 917 0058 002B     		cmp	r3, #0
 918 005a 0ED0     		beq	.L91
1002:Generated_Source\PSoC4/BLE_1_aios.c ****                                 != CYBLE_GATT_INVALID_ATTR_HANDLE_VALUE))
1003:Generated_Source\PSoC4/BLE_1_aios.c ****                     {
1004:Generated_Source\PSoC4/BLE_1_aios.c ****                         locHandleValuePair.attrHandle =
 919              		.loc 1 1004 0
 920 005c 0DA8     		add	r0, sp, #52
 921              	.LVL99:
 922 005e 0381     		strh	r3, [r0, #8]
1005:Generated_Source\PSoC4/BLE_1_aios.c ****                             cyBle_aioss.charInfoAddr[locCharIndex].charInfoPtr[locCharInstance].des
1006:Generated_Source\PSoC4/BLE_1_aios.c ****                         locHandleValuePair.value.len = CYBLE_AIOS_CHAR_PRESENTATION_FORMAT_LEN;
 923              		.loc 1 1006 0
 924 0060 0723     		movs	r3, #7
 925 0062 8380     		strh	r3, [r0, #4]
1007:Generated_Source\PSoC4/BLE_1_aios.c ****                         locHandleValuePair.value.val = attrValue;
 926              		.loc 1 1007 0
 927 0064 0BAB     		add	r3, sp, #44
 928 0066 0D93     		str	r3, [sp, #52]
1008:Generated_Source\PSoC4/BLE_1_aios.c ****                            
1009:Generated_Source\PSoC4/BLE_1_aios.c ****                         gattErr = CyBle_GattsReadAttributeValue(&locHandleValuePair, NULL, CYBLE_GA
 929              		.loc 1 1009 0
 930 0068 0022     		movs	r2, #0
 931 006a 0021     		movs	r1, #0
 932 006c FFF7FEFF 		bl	CyBle_GattsReadAttributeValue
 933              	.LVL100:
 934 0070 04E0     		b	.L76
 935              	.L89:
1010:Generated_Source\PSoC4/BLE_1_aios.c ****                     }
1011:Generated_Source\PSoC4/BLE_1_aios.c ****                     else
1012:Generated_Source\PSoC4/BLE_1_aios.c ****                     {
1013:Generated_Source\PSoC4/BLE_1_aios.c ****                         gattErr = CYBLE_GATT_ERR_INVALID_HANDLE;
 936              		.loc 1 1013 0
 937 0072 0120     		movs	r0, #1
 938              	.LVL101:
 939 0074 02E0     		b	.L76
 940              	.LVL102:
 941              	.L90:
 942 0076 0120     		movs	r0, #1
 943              	.LVL103:
 944 0078 00E0     		b	.L76
 945              	.LVL104:
 946              	.L91:
ARM GAS  C:\Windows\TEMP\cc5RoFpJ.s 			page 36


 947 007a 0120     		movs	r0, #1
 948              	.LVL105:
 949              	.L76:
1014:Generated_Source\PSoC4/BLE_1_aios.c ****                     }
1015:Generated_Source\PSoC4/BLE_1_aios.c ****                    
1016:Generated_Source\PSoC4/BLE_1_aios.c ****                     if (gattErr == CYBLE_GATT_ERR_NONE)
 950              		.loc 1 1016 0
 951 007c 0028     		cmp	r0, #0
 952 007e 0CD1     		bne	.L77
1017:Generated_Source\PSoC4/BLE_1_aios.c ****                     {   
1018:Generated_Source\PSoC4/BLE_1_aios.c ****                         currentDescriptionValue = ((uint16)(((uint16)attrValue[CYBLE_AIOS_CHAR_PRES
 953              		.loc 1 1018 0
 954 0080 0BAA     		add	r2, sp, #44
 955 0082 9379     		ldrb	r3, [r2, #6]
 956 0084 1B02     		lsls	r3, r3, #8
 957 0086 5279     		ldrb	r2, [r2, #5]
 958 0088 1343     		orrs	r3, r2
 959              	.LVL106:
1019:Generated_Source\PSoC4/BLE_1_aios.c ****                         
1020:Generated_Source\PSoC4/BLE_1_aios.c ****                         if ((currentDescriptionValue < maxDescriptionValue) &&
 960              		.loc 1 1020 0
 961 008a 9E42     		cmp	r6, r3
 962 008c 05D9     		bls	.L77
 963              		.loc 1 1020 0 is_stmt 0 discriminator 1
 964 008e 9A45     		cmp	r10, r3
 965 0090 03D2     		bcs	.L77
 966              	.LVL107:
1021:Generated_Source\PSoC4/BLE_1_aios.c ****                             (currentDescriptionValue > minDescriptionValue) )
1022:Generated_Source\PSoC4/BLE_1_aios.c ****                         {
1023:Generated_Source\PSoC4/BLE_1_aios.c ****                             maxDescriptionValue = currentDescriptionValue;
1024:Generated_Source\PSoC4/BLE_1_aios.c ****                             minDescriptionNumber = locCharInstance;
 967              		.loc 1 1024 0 is_stmt 1
 968 0092 A2B2     		uxth	r2, r4
 969 0094 9346     		mov	fp, r2
 970              	.LVL108:
1023:Generated_Source\PSoC4/BLE_1_aios.c ****                             minDescriptionNumber = locCharInstance;
 971              		.loc 1 1023 0
 972 0096 1E00     		movs	r6, r3
1025:Generated_Source\PSoC4/BLE_1_aios.c ****                             minDescriptionValueTmp = currentDescriptionValue;
 973              		.loc 1 1025 0
 974 0098 0093     		str	r3, [sp]
 975              	.LVL109:
 976              	.L77:
 996:Generated_Source\PSoC4/BLE_1_aios.c ****                 {
 977              		.loc 1 996 0
 978 009a 0134     		adds	r4, r4, #1
 979              	.LVL110:
 980 009c E4B2     		uxtb	r4, r4
 981              	.LVL111:
 982 009e 01E0     		b	.L85
 983              	.LVL112:
 984              	.L93:
 985 00a0 5C4E     		ldr	r6, .L95+8
 986 00a2 0024     		movs	r4, #0
 987              	.L85:
 988              	.LVL113:
 995:Generated_Source\PSoC4/BLE_1_aios.c ****                                 locCharInstance++)
ARM GAS  C:\Windows\TEMP\cc5RoFpJ.s 			page 37


 989              		.loc 1 995 0 discriminator 1
 990 00a4 594B     		ldr	r3, .L95
 991 00a6 5B5D     		ldrb	r3, [r3, r5]
 994:Generated_Source\PSoC4/BLE_1_aios.c ****                         (locCharInstance < cyBle_aiossCharInstances[locCharIndex]) && (gattErr == C
 992              		.loc 1 994 0 discriminator 1
 993 00a8 9C42     		cmp	r4, r3
 994 00aa 01D2     		bcs	.L78
 995:Generated_Source\PSoC4/BLE_1_aios.c ****                                 locCharInstance++)
 995              		.loc 1 995 0
 996 00ac 0028     		cmp	r0, #0
 997 00ae C7D0     		beq	.L79
 998              	.L78:
 999              	.LVL114:
1026:Generated_Source\PSoC4/BLE_1_aios.c ****                         }
1027:Generated_Source\PSoC4/BLE_1_aios.c ****                     }
1028:Generated_Source\PSoC4/BLE_1_aios.c ****                 }
1029:Generated_Source\PSoC4/BLE_1_aios.c ****             
1030:Generated_Source\PSoC4/BLE_1_aios.c ****                 minDescriptionValue = minDescriptionValueTmp;
1031:Generated_Source\PSoC4/BLE_1_aios.c ****                 
1032:Generated_Source\PSoC4/BLE_1_aios.c ****                 if (locCharIndex == CYBLE_AIOS_DIGITAL)
 1000              		.loc 1 1032 0
 1001 00b0 4346     		mov	r3, r8
 1002 00b2 002B     		cmp	r3, #0
 1003 00b4 53D1     		bne	.L80
1033:Generated_Source\PSoC4/BLE_1_aios.c ****                 {   
1034:Generated_Source\PSoC4/BLE_1_aios.c ****                     /* Read descriptor CYBLE_AIOS_NUM_OF_DIGITAL_DESCR value from database */
1035:Generated_Source\PSoC4/BLE_1_aios.c ****                     locHandleValuePair.attrHandle =
1036:Generated_Source\PSoC4/BLE_1_aios.c ****                         cyBle_aioss.charInfoAddr[CYBLE_AIOS_DIGITAL].charInfoPtr[minDescriptionNumb
 1004              		.loc 1 1036 0
 1005 00b6 5B46     		mov	r3, fp
 1006 00b8 1B01     		lsls	r3, r3, #4
 1007 00ba 544C     		ldr	r4, .L95
 1008              	.LVL115:
 1009 00bc 1434     		adds	r4, r4, #20
 1010 00be E418     		adds	r4, r4, r3
 1011 00c0 E389     		ldrh	r3, [r4, #14]
1035:Generated_Source\PSoC4/BLE_1_aios.c ****                         cyBle_aioss.charInfoAddr[CYBLE_AIOS_DIGITAL].charInfoPtr[minDescriptionNumb
 1012              		.loc 1 1035 0
 1013 00c2 0DA8     		add	r0, sp, #52
 1014              	.LVL116:
 1015 00c4 0381     		strh	r3, [r0, #8]
1037:Generated_Source\PSoC4/BLE_1_aios.c ****                     locHandleValuePair.value.len = CYBLE_AIOS_NUM_OF_DIGITAL_DESCR_LEN;
 1016              		.loc 1 1037 0
 1017 00c6 0123     		movs	r3, #1
 1018 00c8 8380     		strh	r3, [r0, #4]
1038:Generated_Source\PSoC4/BLE_1_aios.c ****                     locHandleValuePair.value.val = &numOfDigital;
 1019              		.loc 1 1038 0
 1020 00ca 04AB     		add	r3, sp, #16
 1021 00cc 0733     		adds	r3, r3, #7
 1022 00ce 0D93     		str	r3, [sp, #52]
1039:Generated_Source\PSoC4/BLE_1_aios.c ****                     
1040:Generated_Source\PSoC4/BLE_1_aios.c ****                     gattErr = CyBle_GattsReadAttributeValue(&locHandleValuePair, NULL, CYBLE_GATT_D
 1023              		.loc 1 1040 0
 1024 00d0 0022     		movs	r2, #0
 1025 00d2 0021     		movs	r1, #0
 1026 00d4 FFF7FEFF 		bl	CyBle_GattsReadAttributeValue
 1027              	.LVL117:
ARM GAS  C:\Windows\TEMP\cc5RoFpJ.s 			page 38


1041:Generated_Source\PSoC4/BLE_1_aios.c ****                         
1042:Generated_Source\PSoC4/BLE_1_aios.c ****                     if (gattErr == CYBLE_GATT_ERR_NONE)    
 1028              		.loc 1 1042 0
 1029 00d8 0028     		cmp	r0, #0
 1030 00da 5BD1     		bne	.L81
1043:Generated_Source\PSoC4/BLE_1_aios.c ****                     {
1044:Generated_Source\PSoC4/BLE_1_aios.c ****                         locHandleValuePair.attrHandle =
1045:Generated_Source\PSoC4/BLE_1_aios.c ****                             cyBle_aioss.charInfoAddr[CYBLE_AIOS_DIGITAL].charInfoPtr[minDescription
 1031              		.loc 1 1045 0
 1032 00dc 2388     		ldrh	r3, [r4]
1044:Generated_Source\PSoC4/BLE_1_aios.c ****                             cyBle_aioss.charInfoAddr[CYBLE_AIOS_DIGITAL].charInfoPtr[minDescription
 1033              		.loc 1 1044 0
 1034 00de 0DA8     		add	r0, sp, #52
 1035              	.LVL118:
 1036 00e0 0381     		strh	r3, [r0, #8]
1046:Generated_Source\PSoC4/BLE_1_aios.c ****                         locHandleValuePair.value.len = (numOfDigital / 4) + 1;
 1037              		.loc 1 1046 0
 1038 00e2 04AB     		add	r3, sp, #16
 1039 00e4 0733     		adds	r3, r3, #7
 1040 00e6 1B78     		ldrb	r3, [r3]
 1041 00e8 9B08     		lsrs	r3, r3, #2
 1042 00ea 0133     		adds	r3, r3, #1
 1043 00ec 8380     		strh	r3, [r0, #4]
1047:Generated_Source\PSoC4/BLE_1_aios.c ****                         locHandleValuePair.value.val = &aggregateChar[aggregateCharIndex + 1];
 1044              		.loc 1 1047 0
 1045 00ee 4C46     		mov	r4, r9
 1046 00f0 4B46     		mov	r3, r9
 1047 00f2 0133     		adds	r3, r3, #1
 1048 00f4 06AA     		add	r2, sp, #24
 1049 00f6 9446     		mov	ip, r2
 1050 00f8 6344     		add	r3, r3, ip
 1051 00fa 0D93     		str	r3, [sp, #52]
1048:Generated_Source\PSoC4/BLE_1_aios.c ****                                             
1049:Generated_Source\PSoC4/BLE_1_aios.c ****                         gattErr = CyBle_GattsReadAttributeValue(&locHandleValuePair, NULL, CYBLE_GA
 1052              		.loc 1 1049 0
 1053 00fc 0022     		movs	r2, #0
 1054 00fe 0021     		movs	r1, #0
 1055 0100 FFF7FEFF 		bl	CyBle_GattsReadAttributeValue
 1056              	.LVL119:
1050:Generated_Source\PSoC4/BLE_1_aios.c ****                         
1051:Generated_Source\PSoC4/BLE_1_aios.c ****                         if (gattErr == CYBLE_GATT_ERR_NONE)    
 1057              		.loc 1 1051 0
 1058 0104 0028     		cmp	r0, #0
 1059 0106 14D0     		beq	.L92
 1060 0108 44E0     		b	.L81
 1061              	.LVL120:
 1062              	.L83:
1052:Generated_Source\PSoC4/BLE_1_aios.c ****                         {    
1053:Generated_Source\PSoC4/BLE_1_aios.c ****                             for (i = 0; i < ((numOfDigital / 4u) + 1u); i++)
1054:Generated_Source\PSoC4/BLE_1_aios.c ****                             {
1055:Generated_Source\PSoC4/BLE_1_aios.c ****                                 aggregateChar[aggregateCharIndex+i] |= (uint8)(aggregateChar[aggreg
 1063              		.loc 1 1055 0 discriminator 3
 1064 010a 039B     		ldr	r3, [sp, #12]
 1065 010c CE18     		adds	r6, r1, r3
 1066 010e 751C     		adds	r5, r6, #1
 1067 0110 06AB     		add	r3, sp, #24
 1068 0112 5A5D     		ldrb	r2, [r3, r5]
ARM GAS  C:\Windows\TEMP\cc5RoFpJ.s 			page 39


 1069 0114 0198     		ldr	r0, [sp, #4]
 1070 0116 8240     		lsls	r2, r2, r0
 1071 0118 9246     		mov	r10, r2
 1072 011a 9A5D     		ldrb	r2, [r3, r6]
 1073 011c 5446     		mov	r4, r10
 1074 011e 1443     		orrs	r4, r2
 1075 0120 9C55     		strb	r4, [r3, r6]
1056:Generated_Source\PSoC4/BLE_1_aios.c ****                                 aggregateChar[aggregateCharIndex + i + 1] >>= (8 - aggregateDigital
 1076              		.loc 1 1056 0 discriminator 3
 1077 0122 0826     		movs	r6, #8
 1078 0124 361A     		subs	r6, r6, r0
 1079 0126 5A5D     		ldrb	r2, [r3, r5]
 1080 0128 3241     		asrs	r2, r2, r6
 1081 012a 5A55     		strb	r2, [r3, r5]
1053:Generated_Source\PSoC4/BLE_1_aios.c ****                             {
 1082              		.loc 1 1053 0 discriminator 3
 1083 012c 0131     		adds	r1, r1, #1
 1084              	.LVL121:
 1085 012e C9B2     		uxtb	r1, r1
 1086              	.LVL122:
 1087 0130 02E0     		b	.L82
 1088              	.LVL123:
 1089              	.L92:
 1090 0132 0021     		movs	r1, #0
 1091 0134 0290     		str	r0, [sp, #8]
 1092 0136 0394     		str	r4, [sp, #12]
 1093              	.LVL124:
 1094              	.L82:
1053:Generated_Source\PSoC4/BLE_1_aios.c ****                             {
 1095              		.loc 1 1053 0 is_stmt 0 discriminator 1
 1096 0138 04AB     		add	r3, sp, #16
 1097 013a DD79     		ldrb	r5, [r3, #7]
 1098 013c AB08     		lsrs	r3, r5, #2
 1099 013e 0133     		adds	r3, r3, #1
 1100 0140 9942     		cmp	r1, r3
 1101 0142 E2D3     		bcc	.L83
 1102 0144 0298     		ldr	r0, [sp, #8]
1057:Generated_Source\PSoC4/BLE_1_aios.c ****                             }
1058:Generated_Source\PSoC4/BLE_1_aios.c **** 
1059:Generated_Source\PSoC4/BLE_1_aios.c ****                             aggregateCharIndex += (((aggregateDigitalBits / 2u) + numOfDigital) / 4
 1103              		.loc 1 1059 0 is_stmt 1
 1104 0146 019B     		ldr	r3, [sp, #4]
 1105 0148 5B08     		lsrs	r3, r3, #1
 1106 014a EB18     		adds	r3, r5, r3
 1107 014c 9A08     		lsrs	r2, r3, #2
 1108 014e 4A44     		add	r2, r2, r9
 1109 0150 D2B2     		uxtb	r2, r2
 1110 0152 9146     		mov	r9, r2
 1111              	.LVL125:
1060:Generated_Source\PSoC4/BLE_1_aios.c ****                             aggregateDigitalBits = (((aggregateDigitalBits / 2u) + numOfDigital) % 
 1112              		.loc 1 1060 0
 1113 0154 0322     		movs	r2, #3
 1114 0156 1340     		ands	r3, r2
 1115 0158 5B00     		lsls	r3, r3, #1
 1116 015a 0193     		str	r3, [sp, #4]
 1117              	.LVL126:
 1118 015c 1AE0     		b	.L81
ARM GAS  C:\Windows\TEMP\cc5RoFpJ.s 			page 40


 1119              	.LVL127:
 1120              	.L80:
1061:Generated_Source\PSoC4/BLE_1_aios.c ****                         }
1062:Generated_Source\PSoC4/BLE_1_aios.c ****                     }
1063:Generated_Source\PSoC4/BLE_1_aios.c ****                 }
1064:Generated_Source\PSoC4/BLE_1_aios.c ****                 else if(locCharIndex == CYBLE_AIOS_ANALOG)
 1121              		.loc 1 1064 0
 1122 015e 4346     		mov	r3, r8
 1123 0160 012B     		cmp	r3, #1
 1124 0162 17D1     		bne	.L81
1065:Generated_Source\PSoC4/BLE_1_aios.c ****                 {
1066:Generated_Source\PSoC4/BLE_1_aios.c ****                     /* Read characteristic CYBLE_AIOS_ANALOG value from database */ 
1067:Generated_Source\PSoC4/BLE_1_aios.c ****                     locHandleValuePair.attrHandle =
1068:Generated_Source\PSoC4/BLE_1_aios.c ****                         cyBle_aioss.charInfoAddr[locCharIndex].charInfoPtr[minDescriptionNumber].ch
 1125              		.loc 1 1068 0
 1126 0164 AD00     		lsls	r5, r5, #2
 1127 0166 2A4B     		ldr	r3, .L95+4
 1128 0168 5D19     		adds	r5, r3, r5
 1129 016a 6A68     		ldr	r2, [r5, #4]
 1130 016c 5B46     		mov	r3, fp
 1131 016e 1B01     		lsls	r3, r3, #4
 1132 0170 D35A     		ldrh	r3, [r2, r3]
1067:Generated_Source\PSoC4/BLE_1_aios.c ****                         cyBle_aioss.charInfoAddr[locCharIndex].charInfoPtr[minDescriptionNumber].ch
 1133              		.loc 1 1067 0
 1134 0172 0DA8     		add	r0, sp, #52
 1135              	.LVL128:
 1136 0174 0381     		strh	r3, [r0, #8]
1069:Generated_Source\PSoC4/BLE_1_aios.c ****                     locHandleValuePair.value.len = CYBLE_AIOS_ANALOG_LEN;
 1137              		.loc 1 1069 0
 1138 0176 0223     		movs	r3, #2
 1139 0178 8380     		strh	r3, [r0, #4]
1070:Generated_Source\PSoC4/BLE_1_aios.c ****                     locHandleValuePair.value.val = &aggregateChar[aggregateCharIndex];
 1140              		.loc 1 1070 0
 1141 017a 06AB     		add	r3, sp, #24
 1142 017c 4B44     		add	r3, r3, r9
 1143 017e 0D93     		str	r3, [sp, #52]
1071:Generated_Source\PSoC4/BLE_1_aios.c ****                                         
1072:Generated_Source\PSoC4/BLE_1_aios.c ****                     gattErr = CyBle_GattsReadAttributeValue(&locHandleValuePair, NULL, CYBLE_GATT_D
 1144              		.loc 1 1072 0
 1145 0180 0022     		movs	r2, #0
 1146 0182 0021     		movs	r1, #0
 1147 0184 FFF7FEFF 		bl	CyBle_GattsReadAttributeValue
 1148              	.LVL129:
1073:Generated_Source\PSoC4/BLE_1_aios.c ****                     if (gattErr == CYBLE_GATT_ERR_NONE)    
 1149              		.loc 1 1073 0
 1150 0188 0028     		cmp	r0, #0
 1151 018a 03D1     		bne	.L81
1074:Generated_Source\PSoC4/BLE_1_aios.c ****                     {
1075:Generated_Source\PSoC4/BLE_1_aios.c ****                         aggregateCharIndex += 2u;
 1152              		.loc 1 1075 0
 1153 018c 4B46     		mov	r3, r9
 1154 018e 0233     		adds	r3, r3, #2
 1155 0190 DBB2     		uxtb	r3, r3
 1156 0192 9946     		mov	r9, r3
 1157              	.LVL130:
 1158              	.L81:
 990:Generated_Source\PSoC4/BLE_1_aios.c ****             {   
ARM GAS  C:\Windows\TEMP\cc5RoFpJ.s 			page 41


 1159              		.loc 1 990 0
 1160 0194 0137     		adds	r7, r7, #1
 1161              	.LVL131:
 1162 0196 FFB2     		uxtb	r7, r7
 1163              	.LVL132:
1030:Generated_Source\PSoC4/BLE_1_aios.c ****                 
 1164              		.loc 1 1030 0
 1165 0198 009B     		ldr	r3, [sp]
 1166 019a 9A46     		mov	r10, r3
 1167 019c 04E0     		b	.L87
 1168              	.LVL133:
 1169              	.L94:
 1170 019e 0023     		movs	r3, #0
 1171 01a0 9B46     		mov	fp, r3
 1172 01a2 9A46     		mov	r10, r3
 1173 01a4 B846     		mov	r8, r7
 1174 01a6 1F00     		movs	r7, r3
 1175              	.LVL134:
 1176              	.L87:
 989:Generated_Source\PSoC4/BLE_1_aios.c ****                             locCharInstanceNumber++)
 1177              		.loc 1 989 0 discriminator 1
 1178 01a8 4546     		mov	r5, r8
 1179 01aa 184B     		ldr	r3, .L95
 1180 01ac 5B5D     		ldrb	r3, [r3, r5]
 988:Generated_Source\PSoC4/BLE_1_aios.c ****                     (locCharInstanceNumber < cyBle_aiossCharInstances[locCharIndex]) && (gattErr ==
 1181              		.loc 1 988 0 discriminator 1
 1182 01ae 9F42     		cmp	r7, r3
 1183 01b0 02D2     		bcs	.L84
 989:Generated_Source\PSoC4/BLE_1_aios.c ****                             locCharInstanceNumber++)
 1184              		.loc 1 989 0
 1185 01b2 0028     		cmp	r0, #0
 1186 01b4 00D1     		bne	.LCB1273
 1187 01b6 73E7     		b	.L93	@long jump
 1188              	.LCB1273:
 1189              	.L84:
 1190 01b8 4746     		mov	r7, r8
 1191              	.LVL135:
1076:Generated_Source\PSoC4/BLE_1_aios.c ****                     }
1077:Generated_Source\PSoC4/BLE_1_aios.c ****                 }
1078:Generated_Source\PSoC4/BLE_1_aios.c ****                 else
1079:Generated_Source\PSoC4/BLE_1_aios.c ****                 {
1080:Generated_Source\PSoC4/BLE_1_aios.c ****                    /* Do nothing */
1081:Generated_Source\PSoC4/BLE_1_aios.c ****                 }
1082:Generated_Source\PSoC4/BLE_1_aios.c ****             }  
1083:Generated_Source\PSoC4/BLE_1_aios.c ****             aggregateCharIndex++;
 1192              		.loc 1 1083 0
 1193 01ba 4B46     		mov	r3, r9
 1194 01bc 0133     		adds	r3, r3, #1
 1195 01be DBB2     		uxtb	r3, r3
 1196 01c0 9946     		mov	r9, r3
 1197              	.LVL136:
 983:Generated_Source\PSoC4/BLE_1_aios.c ****         {
 1198              		.loc 1 983 0
 1199 01c2 7B1C     		adds	r3, r7, #1
 1200 01c4 DFB2     		uxtb	r7, r3
 1201              	.LVL137:
 1202 01c6 06E0     		b	.L74
ARM GAS  C:\Windows\TEMP\cc5RoFpJ.s 			page 42


 1203              	.LVL138:
 1204              	.L88:
 1205 01c8 0023     		movs	r3, #0
 1206 01ca 9946     		mov	r9, r3
 1207 01cc 114A     		ldr	r2, .L95+8
 1208 01ce 0092     		str	r2, [sp]
 1209 01d0 0027     		movs	r7, #0
 1210 01d2 0020     		movs	r0, #0
 1211 01d4 0193     		str	r3, [sp, #4]
 1212              	.LVL139:
 1213              	.L74:
 982:Generated_Source\PSoC4/BLE_1_aios.c ****                         locCharIndex++)
 1214              		.loc 1 982 0 discriminator 1
 1215 01d6 012F     		cmp	r7, #1
 1216 01d8 01D8     		bhi	.L86
 982:Generated_Source\PSoC4/BLE_1_aios.c ****                         locCharIndex++)
 1217              		.loc 1 982 0 is_stmt 0 discriminator 2
 1218 01da 0028     		cmp	r0, #0
 1219 01dc DFD0     		beq	.L94
 1220              	.L86:
1084:Generated_Source\PSoC4/BLE_1_aios.c ****         }
1085:Generated_Source\PSoC4/BLE_1_aios.c ****         
1086:Generated_Source\PSoC4/BLE_1_aios.c ****         if (gattErr == CYBLE_GATT_ERR_NONE)
 1221              		.loc 1 1086 0 is_stmt 1
 1222 01de 0028     		cmp	r0, #0
 1223 01e0 0DD1     		bne	.L75
1087:Generated_Source\PSoC4/BLE_1_aios.c ****         {
1088:Generated_Source\PSoC4/BLE_1_aios.c ****             locHandleValuePair.attrHandle = cyBle_aioss.charInfoAddr[CYBLE_AIOS_AGGREGATE].charInfo
 1224              		.loc 1 1088 0
 1225 01e2 0A4B     		ldr	r3, .L95
 1226 01e4 9B88     		ldrh	r3, [r3, #4]
 1227 01e6 0DA8     		add	r0, sp, #52
 1228              	.LVL140:
 1229 01e8 0381     		strh	r3, [r0, #8]
1089:Generated_Source\PSoC4/BLE_1_aios.c ****             locHandleValuePair.value.len = aggregateCharIndex-1u;
 1230              		.loc 1 1089 0
 1231 01ea 4B46     		mov	r3, r9
 1232 01ec 013B     		subs	r3, r3, #1
 1233 01ee 8380     		strh	r3, [r0, #4]
1090:Generated_Source\PSoC4/BLE_1_aios.c ****             locHandleValuePair.value.val = aggregateChar;
 1234              		.loc 1 1090 0
 1235 01f0 06AB     		add	r3, sp, #24
 1236 01f2 0D93     		str	r3, [sp, #52]
1091:Generated_Source\PSoC4/BLE_1_aios.c **** 
1092:Generated_Source\PSoC4/BLE_1_aios.c ****             /* Store data in database */
1093:Generated_Source\PSoC4/BLE_1_aios.c ****             gattErr = CyBle_GattsWriteAttributeValue(&locHandleValuePair, 0u, NULL, CYBLE_GATT_DB_L
 1237              		.loc 1 1093 0
 1238 01f4 0023     		movs	r3, #0
 1239 01f6 0022     		movs	r2, #0
 1240 01f8 0021     		movs	r1, #0
 1241 01fa FFF7FEFF 		bl	CyBle_GattsWriteAttributeValue
 1242              	.LVL141:
 1243              	.L75:
1094:Generated_Source\PSoC4/BLE_1_aios.c ****         }
1095:Generated_Source\PSoC4/BLE_1_aios.c ****     }    
1096:Generated_Source\PSoC4/BLE_1_aios.c ****     return gattErr;
1097:Generated_Source\PSoC4/BLE_1_aios.c **** }
ARM GAS  C:\Windows\TEMP\cc5RoFpJ.s 			page 43


 1244              		.loc 1 1097 0
 1245 01fe 11B0     		add	sp, sp, #68
 1246              		@ sp needed
 1247 0200 3CBC     		pop	{r2, r3, r4, r5}
 1248 0202 9046     		mov	r8, r2
 1249 0204 9946     		mov	r9, r3
 1250 0206 A246     		mov	r10, r4
 1251 0208 AB46     		mov	fp, r5
 1252 020a F0BD     		pop	{r4, r5, r6, r7, pc}
 1253              	.L96:
 1254              		.align	2
 1255              	.L95:
 1256 020c 00000000 		.word	.LANCHOR1
 1257 0210 00000000 		.word	.LANCHOR2
 1258 0214 FFFF0000 		.word	65535
 1259              		.cfi_endproc
 1260              	.LFE12:
 1261              		.size	CyBle_AiosSetAggregateChar, .-CyBle_AiosSetAggregateChar
 1262              		.section	.text.CyBle_AiosInit,"ax",%progbits
 1263              		.align	2
 1264              		.global	CyBle_AiosInit
 1265              		.code	16
 1266              		.thumb_func
 1267              		.type	CyBle_AiosInit, %function
 1268              	CyBle_AiosInit:
 1269              	.LFB2:
 154:Generated_Source\PSoC4/BLE_1_aios.c **** #ifdef CYBLE_AIOS_CLIENT
 1270              		.loc 1 154 0
 1271              		.cfi_startproc
 1272              		@ args = 0, pretend = 0, frame = 0
 1273              		@ frame_needed = 0, uses_anonymous_args = 0
 1274 0000 10B5     		push	{r4, lr}
 1275              		.cfi_def_cfa_offset 8
 1276              		.cfi_offset 4, -8
 1277              		.cfi_offset 14, -4
 179:Generated_Source\PSoC4/BLE_1_aios.c **** #endif /* CYBLE_AIOS_SERVER */
 1278              		.loc 1 179 0
 1279 0002 FFF7FEFF 		bl	CyBle_AiosSetAggregateChar
 1280              	.LVL142:
 182:Generated_Source\PSoC4/BLE_1_aios.c **** 
 1281              		.loc 1 182 0
 1282              		@ sp needed
 1283 0006 10BD     		pop	{r4, pc}
 1284              		.cfi_endproc
 1285              	.LFE2:
 1286              		.size	CyBle_AiosInit, .-CyBle_AiosInit
 1287              		.section	.text.CyBle_AiossWriteEventHandler,"ax",%progbits
 1288              		.align	2
 1289              		.global	CyBle_AiossWriteEventHandler
 1290              		.code	16
 1291              		.thumb_func
 1292              		.type	CyBle_AiossWriteEventHandler, %function
 1293              	CyBle_AiossWriteEventHandler:
 1294              	.LFB4:
 233:Generated_Source\PSoC4/BLE_1_aios.c ****     uint8 i;
 1295              		.loc 1 233 0
 1296              		.cfi_startproc
ARM GAS  C:\Windows\TEMP\cc5RoFpJ.s 			page 44


 1297              		@ args = 0, pretend = 0, frame = 24
 1298              		@ frame_needed = 0, uses_anonymous_args = 0
 1299              	.LVL143:
 1300 0000 F0B5     		push	{r4, r5, r6, r7, lr}
 1301              		.cfi_def_cfa_offset 20
 1302              		.cfi_offset 4, -20
 1303              		.cfi_offset 5, -16
 1304              		.cfi_offset 6, -12
 1305              		.cfi_offset 7, -8
 1306              		.cfi_offset 14, -4
 1307 0002 5F46     		mov	r7, fp
 1308 0004 5646     		mov	r6, r10
 1309 0006 4D46     		mov	r5, r9
 1310 0008 4446     		mov	r4, r8
 1311 000a F0B4     		push	{r4, r5, r6, r7}
 1312              		.cfi_def_cfa_offset 36
 1313              		.cfi_offset 8, -36
 1314              		.cfi_offset 9, -32
 1315              		.cfi_offset 10, -28
 1316              		.cfi_offset 11, -24
 1317 000c 87B0     		sub	sp, sp, #28
 1318              		.cfi_def_cfa_offset 64
 1319 000e 8246     		mov	r10, r0
 1320              	.LVL144:
 245:Generated_Source\PSoC4/BLE_1_aios.c ****     
 1321              		.loc 1 245 0
 1322 0010 8689     		ldrh	r6, [r0, #12]
 1323              	.LVL145:
 247:Generated_Source\PSoC4/BLE_1_aios.c ****     {
 1324              		.loc 1 247 0
 1325 0012 924B     		ldr	r3, .L133
 1326 0014 1B68     		ldr	r3, [r3]
 1327 0016 002B     		cmp	r3, #0
 1328 0018 00D0     		beq	.LCB1422
 1329 001a FDE0     		b	.L125	@long jump
 1330              	.LCB1422:
 238:Generated_Source\PSoC4/BLE_1_aios.c ****     CYBLE_AIOSS_CHAR_T *aiosCharInfoPtr;
 1331              		.loc 1 238 0
 1332 001c 0024     		movs	r4, #0
 236:Generated_Source\PSoC4/BLE_1_aios.c ****     CYBLE_GATT_DB_ATTR_HANDLE_T tmpHandle;
 1333              		.loc 1 236 0
 1334 001e 0027     		movs	r7, #0
 1335 0020 07E1     		b	.L100
 1336              	.LVL146:
 1337              	.L122:
 263:Generated_Source\PSoC4/BLE_1_aios.c ****             {   
 1338              		.loc 1 263 0
 1339 0022 C846     		mov	r8, r9
 1340 0024 4B46     		mov	r3, r9
 1341 0026 9B00     		lsls	r3, r3, #2
 1342 0028 8D4A     		ldr	r2, .L133+4
 1343 002a D318     		adds	r3, r2, r3
 1344 002c 5B68     		ldr	r3, [r3, #4]
 1345 002e 002B     		cmp	r3, #0
 1346 0030 00D0     		beq	.LCB1441
 1347 0032 E5E0     		b	.L126	@long jump
 1348              	.LCB1441:
ARM GAS  C:\Windows\TEMP\cc5RoFpJ.s 			page 45


 1349 0034 EBE0     		b	.L102
 1350              	.LVL147:
 1351              	.L121:
 267:Generated_Source\PSoC4/BLE_1_aios.c ****                     
 1352              		.loc 1 267 0
 1353 0036 4346     		mov	r3, r8
 1354 0038 9B00     		lsls	r3, r3, #2
 1355 003a 894A     		ldr	r2, .L133+4
 1356 003c D318     		adds	r3, r2, r3
 1357 003e 5968     		ldr	r1, [r3, #4]
 1358 0040 2B01     		lsls	r3, r5, #4
 1359 0042 C918     		adds	r1, r1, r3
 1360              	.LVL148:
 270:Generated_Source\PSoC4/BLE_1_aios.c ****                     {
 1361              		.loc 1 270 0
 1362 0044 0B88     		ldrh	r3, [r1]
 1363 0046 9E42     		cmp	r6, r3
 1364 0048 04D1     		bne	.L103
 272:Generated_Source\PSoC4/BLE_1_aios.c ****                         foundItem = CYBLE_AIOS_CHARACTERISTIC_ITEM;
 1365              		.loc 1 272 0
 1366 004a 0722     		movs	r2, #7
 1367 004c 03AB     		add	r3, sp, #12
 1368 004e 1A71     		strb	r2, [r3, #4]
 1369              	.LVL149:
 273:Generated_Source\PSoC4/BLE_1_aios.c ****                     }                
 1370              		.loc 1 273 0
 1371 0050 0124     		movs	r4, #1
 1372 0052 12E0     		b	.L104
 1373              	.LVL150:
 1374              	.L103:
 280:Generated_Source\PSoC4/BLE_1_aios.c ****                         
 1375              		.loc 1 280 0
 1376 0054 0722     		movs	r2, #7
 1377 0056 03AB     		add	r3, sp, #12
 1378 0058 1A71     		strb	r2, [r3, #4]
 1379              	.LVL151:
 282:Generated_Source\PSoC4/BLE_1_aios.c ****                         {
 1380              		.loc 1 282 0
 1381 005a 0023     		movs	r3, #0
 1382 005c 09E0     		b	.L105
 1383              	.LVL152:
 1384              	.L107:
 284:Generated_Source\PSoC4/BLE_1_aios.c **** 	                        {
 1385              		.loc 1 284 0
 1386 005e 5A00     		lsls	r2, r3, #1
 1387 0060 8A18     		adds	r2, r1, r2
 1388 0062 5288     		ldrh	r2, [r2, #2]
 1389 0064 9642     		cmp	r6, r2
 1390 0066 02D1     		bne	.L106
 286:Generated_Source\PSoC4/BLE_1_aios.c **** 		                        foundItem = CYBLE_AIOS_DESCRIPTOR_ITEM;
 1391              		.loc 1 286 0
 1392 0068 03AA     		add	r2, sp, #12
 1393 006a 1371     		strb	r3, [r2, #4]
 1394              	.LVL153:
 287:Generated_Source\PSoC4/BLE_1_aios.c **** 	                        }
 1395              		.loc 1 287 0
 1396 006c 0224     		movs	r4, #2
ARM GAS  C:\Windows\TEMP\cc5RoFpJ.s 			page 46


 1397              	.LVL154:
 1398              	.L106:
 282:Generated_Source\PSoC4/BLE_1_aios.c ****                         {
 1399              		.loc 1 282 0 discriminator 2
 1400 006e 0133     		adds	r3, r3, #1
 1401              	.LVL155:
 1402 0070 DBB2     		uxtb	r3, r3
 1403              	.LVL156:
 1404              	.L105:
 282:Generated_Source\PSoC4/BLE_1_aios.c ****                         {
 1405              		.loc 1 282 0 is_stmt 0 discriminator 1
 1406 0072 062B     		cmp	r3, #6
 1407 0074 01D8     		bhi	.L104
 282:Generated_Source\PSoC4/BLE_1_aios.c ****                         {
 1408              		.loc 1 282 0 discriminator 3
 1409 0076 022C     		cmp	r4, #2
 1410 0078 F1D1     		bne	.L107
 1411              	.LVL157:
 1412              	.L104:
 293:Generated_Source\PSoC4/BLE_1_aios.c ****                     {
 1413              		.loc 1 293 0 is_stmt 1
 1414 007a 002F     		cmp	r7, #0
 1415 007c 6FD1     		bne	.L108
 293:Generated_Source\PSoC4/BLE_1_aios.c ****                     {
 1416              		.loc 1 293 0 is_stmt 0 discriminator 1
 1417 007e 022C     		cmp	r4, #2
 1418 0080 6DD1     		bne	.L108
 295:Generated_Source\PSoC4/BLE_1_aios.c ****                         {
 1419              		.loc 1 295 0 is_stmt 1
 1420 0082 03AB     		add	r3, sp, #12
 1421 0084 1B79     		ldrb	r3, [r3, #4]
 1422 0086 022B     		cmp	r3, #2
 1423 0088 42D0     		beq	.L109
 1424 008a 02D8     		bhi	.L110
 1425 008c 002B     		cmp	r3, #0
 1426 008e 05D0     		beq	.L111
 1427 0090 65E0     		b	.L108
 1428              	.L110:
 1429 0092 042B     		cmp	r3, #4
 1430 0094 50D0     		beq	.L112
 1431 0096 052B     		cmp	r3, #5
 1432 0098 54D0     		beq	.L113
 1433 009a 60E0     		b	.L108
 1434              	.L111:
 299:Generated_Source\PSoC4/BLE_1_aios.c ****                             {
 1435              		.loc 1 299 0
 1436 009c 0B88     		ldrh	r3, [r1]
 1437 009e 013B     		subs	r3, r3, #1
 1438 00a0 9A00     		lsls	r2, r3, #2
 1439 00a2 D318     		adds	r3, r2, r3
 1440 00a4 9A00     		lsls	r2, r3, #2
 1441 00a6 6F4B     		ldr	r3, .L133+8
 1442 00a8 9A18     		adds	r2, r3, r2
 1443 00aa 5368     		ldr	r3, [r2, #4]
 1444 00ac DA02     		lsls	r2, r3, #11
 1445 00ae 16D5     		bpl	.L114
 301:Generated_Source\PSoC4/BLE_1_aios.c ****                                 {
ARM GAS  C:\Windows\TEMP\cc5RoFpJ.s 			page 47


 1446              		.loc 1 301 0
 1447 00b0 5346     		mov	r3, r10
 1448 00b2 5868     		ldr	r0, [r3, #4]
 1449 00b4 FFF7FEFF 		bl	CyBle_Get16ByPtr
 1450              	.LVL158:
 1451 00b8 C307     		lsls	r3, r0, #31
 1452 00ba 03D5     		bpl	.L127
 303:Generated_Source\PSoC4/BLE_1_aios.c ****                                 }
 1453              		.loc 1 303 0
 1454 00bc 8923     		movs	r3, #137
 1455 00be 5B00     		lsls	r3, r3, #1
 1456 00c0 9B46     		mov	fp, r3
 1457              	.LVL159:
 1458 00c2 02E0     		b	.L115
 1459              	.LVL160:
 1460              	.L127:
 307:Generated_Source\PSoC4/BLE_1_aios.c ****                                 }
 1461              		.loc 1 307 0
 1462 00c4 1423     		movs	r3, #20
 1463 00c6 FF33     		adds	r3, r3, #255
 1464 00c8 9B46     		mov	fp, r3
 1465              	.LVL161:
 1466              	.L115:
 313:Generated_Source\PSoC4/BLE_1_aios.c ****                                 {
 1467              		.loc 1 313 0
 1468 00ca 674B     		ldr	r3, .L133+12
 1469 00cc 1B78     		ldrb	r3, [r3]
 1470 00ce 012B     		cmp	r3, #1
 1471 00d0 45D1     		bne	.L108
 315:Generated_Source\PSoC4/BLE_1_aios.c ****                                 }
 1472              		.loc 1 315 0
 1473 00d2 664A     		ldr	r2, .L133+16
 1474 00d4 1178     		ldrb	r1, [r2]
 1475 00d6 0223     		movs	r3, #2
 1476 00d8 0B43     		orrs	r3, r1
 1477 00da 1370     		strb	r3, [r2]
 1478 00dc 3FE0     		b	.L108
 1479              	.LVL162:
 1480              	.L114:
 319:Generated_Source\PSoC4/BLE_1_aios.c ****                             {
 1481              		.loc 1 319 0
 1482 00de 9B02     		lsls	r3, r3, #10
 1483 00e0 36D5     		bpl	.L128
 321:Generated_Source\PSoC4/BLE_1_aios.c ****                                 {
 1484              		.loc 1 321 0
 1485 00e2 5346     		mov	r3, r10
 1486 00e4 5868     		ldr	r0, [r3, #4]
 1487 00e6 FFF7FEFF 		bl	CyBle_Get16ByPtr
 1488              	.LVL163:
 1489 00ea 8307     		lsls	r3, r0, #30
 1490 00ec 03D5     		bpl	.L129
 323:Generated_Source\PSoC4/BLE_1_aios.c ****                                 }
 1491              		.loc 1 323 0
 1492 00ee 8A23     		movs	r3, #138
 1493 00f0 5B00     		lsls	r3, r3, #1
 1494 00f2 9B46     		mov	fp, r3
 1495              	.LVL164:
ARM GAS  C:\Windows\TEMP\cc5RoFpJ.s 			page 48


 1496 00f4 02E0     		b	.L116
 1497              	.LVL165:
 1498              	.L129:
 327:Generated_Source\PSoC4/BLE_1_aios.c ****                                 }
 1499              		.loc 1 327 0
 1500 00f6 1623     		movs	r3, #22
 1501 00f8 FF33     		adds	r3, r3, #255
 1502 00fa 9B46     		mov	fp, r3
 1503              	.LVL166:
 1504              	.L116:
 333:Generated_Source\PSoC4/BLE_1_aios.c ****                                 {
 1505              		.loc 1 333 0
 1506 00fc 5A4B     		ldr	r3, .L133+12
 1507 00fe 1B78     		ldrb	r3, [r3]
 1508 0100 012B     		cmp	r3, #1
 1509 0102 2CD1     		bne	.L108
 335:Generated_Source\PSoC4/BLE_1_aios.c ****                                 }
 1510              		.loc 1 335 0
 1511 0104 594A     		ldr	r2, .L133+16
 1512 0106 1178     		ldrb	r1, [r2]
 1513 0108 0223     		movs	r3, #2
 1514 010a 0B43     		orrs	r3, r1
 1515 010c 1370     		strb	r3, [r2]
 1516 010e 26E0     		b	.L108
 1517              	.LVL167:
 1518              	.L109:
 346:Generated_Source\PSoC4/BLE_1_aios.c ****                                 aiosCharInfoPtr->descrHandle[CYBLE_AIOS_CHAR_USER_DESCRIPTION_DESCR
 1519              		.loc 1 346 0
 1520 0110 CB88     		ldrh	r3, [r1, #6]
 1521 0112 013B     		subs	r3, r3, #1
 1522 0114 9900     		lsls	r1, r3, #2
 1523              	.LVL168:
 1524 0116 C918     		adds	r1, r1, r3
 1525 0118 8A00     		lsls	r2, r1, #2
 1526 011a 5249     		ldr	r1, .L133+8
 1527 011c 8A18     		adds	r2, r1, r2
 1528 011e 9189     		ldrh	r1, [r2, #12]
 348:Generated_Source\PSoC4/BLE_1_aios.c ****                             {
 1529              		.loc 1 348 0
 1530 0120 5246     		mov	r2, r10
 1531 0122 1289     		ldrh	r2, [r2, #8]
 346:Generated_Source\PSoC4/BLE_1_aios.c ****                                 aiosCharInfoPtr->descrHandle[CYBLE_AIOS_CHAR_USER_DESCRIPTION_DESCR
 1532              		.loc 1 346 0
 1533 0124 9142     		cmp	r1, r2
 1534 0126 15D3     		bcc	.L130
 351:Generated_Source\PSoC4/BLE_1_aios.c ****                                     aiosCharInfoPtr->descrHandle[CYBLE_AIOS_CHAR_USER_DESCRIPTION_D
 1535              		.loc 1 351 0
 1536 0128 9900     		lsls	r1, r3, #2
 1537 012a CB18     		adds	r3, r1, r3
 1538 012c 9900     		lsls	r1, r3, #2
 1539 012e 4D4B     		ldr	r3, .L133+8
 1540 0130 5918     		adds	r1, r3, r1
 1541 0132 0B69     		ldr	r3, [r1, #16]
 1542 0134 1A80     		strh	r2, [r3]
 1543 0136 12E0     		b	.L108
 1544              	.LVL169:
 1545              	.L112:
ARM GAS  C:\Windows\TEMP\cc5RoFpJ.s 			page 49


 363:Generated_Source\PSoC4/BLE_1_aios.c ****                             {
 1546              		.loc 1 363 0
 1547 0138 5346     		mov	r3, r10
 1548 013a 5B68     		ldr	r3, [r3, #4]
 1549 013c 1B78     		ldrb	r3, [r3]
 1550 013e 062B     		cmp	r3, #6
 1551 0140 0AD8     		bhi	.L131
 1552 0142 0CE0     		b	.L108
 1553              	.L113:
 371:Generated_Source\PSoC4/BLE_1_aios.c ****                             {
 1554              		.loc 1 371 0
 1555 0144 5346     		mov	r3, r10
 1556 0146 5B68     		ldr	r3, [r3, #4]
 1557 0148 1B78     		ldrb	r3, [r3]
 1558 014a 022B     		cmp	r3, #2
 1559 014c 06D8     		bhi	.L132
 1560 014e 06E0     		b	.L108
 1561              	.L128:
 341:Generated_Source\PSoC4/BLE_1_aios.c ****                             }
 1562              		.loc 1 341 0
 1563 0150 0627     		movs	r7, #6
 1564              	.LVL170:
 1565 0152 04E0     		b	.L108
 1566              	.LVL171:
 1567              	.L130:
 357:Generated_Source\PSoC4/BLE_1_aios.c ****                             }
 1568              		.loc 1 357 0
 1569 0154 0D27     		movs	r7, #13
 1570              	.LVL172:
 1571 0156 02E0     		b	.L108
 1572              	.LVL173:
 1573              	.L131:
 365:Generated_Source\PSoC4/BLE_1_aios.c ****                             }
 1574              		.loc 1 365 0
 1575 0158 8027     		movs	r7, #128
 1576              	.LVL174:
 1577 015a 00E0     		b	.L108
 1578              	.LVL175:
 1579              	.L132:
 373:Generated_Source\PSoC4/BLE_1_aios.c ****                             }
 1580              		.loc 1 373 0
 1581 015c 8027     		movs	r7, #128
 1582              	.LVL176:
 1583              	.L108:
 383:Generated_Source\PSoC4/BLE_1_aios.c ****                     && ( (foundItem == CYBLE_AIOS_CHARACTERISTIC_ITEM) || (foundItem == CYBLE_AIOS_
 1584              		.loc 1 383 0
 1585 015e 002F     		cmp	r7, #0
 1586 0160 4BD1     		bne	.L117
 384:Generated_Source\PSoC4/BLE_1_aios.c ****                     {
 1587              		.loc 1 384 0
 1588 0162 631E     		subs	r3, r4, #1
 1589 0164 DBB2     		uxtb	r3, r3
 1590 0166 012B     		cmp	r3, #1
 1591 0168 47D8     		bhi	.L117
 386:Generated_Source\PSoC4/BLE_1_aios.c ****                                                               &eventParam->connHandle,
 1592              		.loc 1 386 0
 1593 016a 5346     		mov	r3, r10
ARM GAS  C:\Windows\TEMP\cc5RoFpJ.s 			page 50


 1594 016c 9889     		ldrh	r0, [r3, #12]
 1595 016e 4222     		movs	r2, #66
 1596 0170 5146     		mov	r1, r10
 1597 0172 FFF7FEFF 		bl	CyBle_GattDbCheckPermission
 1598              	.LVL177:
 1599 0176 071E     		subs	r7, r0, #0
 1600              	.LVL178:
 390:Generated_Source\PSoC4/BLE_1_aios.c ****                         {
 1601              		.loc 1 390 0
 1602 0178 39D1     		bne	.L118
 394:Generated_Source\PSoC4/BLE_1_aios.c ****                             {
 1603              		.loc 1 394 0
 1604 017a 012C     		cmp	r4, #1
 1605 017c 14D1     		bne	.L119
 396:Generated_Source\PSoC4/BLE_1_aios.c ****                                 wrCharReqParam.charIndex = (CYBLE_AIOS_CHAR_INDEX_T) i;
 1606              		.loc 1 396 0
 1607 017e 5346     		mov	r3, r10
 1608 0180 1B88     		ldrh	r3, [r3]
 1609 0182 6A46     		mov	r2, sp
 1610 0184 1380     		strh	r3, [r2]
 397:Generated_Source\PSoC4/BLE_1_aios.c ****                                 wrCharReqParam.charInstance = j;
 1611              		.loc 1 397 0
 1612 0186 6B46     		mov	r3, sp
 1613 0188 4A46     		mov	r2, r9
 1614 018a 9A70     		strb	r2, [r3, #2]
 398:Generated_Source\PSoC4/BLE_1_aios.c ****                                 wrCharReqParam.gattErrorCode = CYBLE_GATT_ERR_NONE;
 1615              		.loc 1 398 0
 1616 018c DD70     		strb	r5, [r3, #3]
 399:Generated_Source\PSoC4/BLE_1_aios.c ****                                 wrCharReqParam.value = &eventParam->handleValPair.value;
 1617              		.loc 1 399 0
 1618 018e 0023     		movs	r3, #0
 1619 0190 6A46     		mov	r2, sp
 1620 0192 1372     		strb	r3, [r2, #8]
 400:Generated_Source\PSoC4/BLE_1_aios.c ****                             
 1621              		.loc 1 400 0
 1622 0194 5346     		mov	r3, r10
 1623 0196 0433     		adds	r3, r3, #4
 1624 0198 0193     		str	r3, [sp, #4]
 402:Generated_Source\PSoC4/BLE_1_aios.c ****                             }
 1625              		.loc 1 402 0
 1626 019a 304B     		ldr	r3, .L133
 1627 019c 1B68     		ldr	r3, [r3]
 1628 019e 6946     		mov	r1, sp
 1629 01a0 1820     		movs	r0, #24
 1630              	.LVL179:
 1631 01a2 FF30     		adds	r0, r0, #255
 1632 01a4 9847     		blx	r3
 1633              	.LVL180:
 1634 01a6 12E0     		b	.L120
 1635              	.LVL181:
 1636              	.L119:
 404:Generated_Source\PSoC4/BLE_1_aios.c ****                             {
 1637              		.loc 1 404 0
 1638 01a8 022C     		cmp	r4, #2
 1639 01aa 10D1     		bne	.L120
 406:Generated_Source\PSoC4/BLE_1_aios.c ****                                 wrDescrReqParam.charIndex = (CYBLE_AIOS_CHAR_INDEX_T) i;
 1640              		.loc 1 406 0
ARM GAS  C:\Windows\TEMP\cc5RoFpJ.s 			page 51


 1641 01ac 03A9     		add	r1, sp, #12
 1642 01ae 5346     		mov	r3, r10
 1643 01b0 1B88     		ldrh	r3, [r3]
 1644 01b2 0B80     		strh	r3, [r1]
 407:Generated_Source\PSoC4/BLE_1_aios.c ****                                 wrDescrReqParam.charInstance = j;
 1645              		.loc 1 407 0
 1646 01b4 4B46     		mov	r3, r9
 1647 01b6 8B70     		strb	r3, [r1, #2]
 408:Generated_Source\PSoC4/BLE_1_aios.c ****                                 wrDescrReqParam.gattErrorCode = CYBLE_GATT_ERR_NONE;
 1648              		.loc 1 408 0
 1649 01b8 CD70     		strb	r5, [r1, #3]
 409:Generated_Source\PSoC4/BLE_1_aios.c ****                                 wrDescrReqParam.value = &eventParam->handleValPair.value;
 1650              		.loc 1 409 0
 1651 01ba 0023     		movs	r3, #0
 1652 01bc 4B71     		strb	r3, [r1, #5]
 410:Generated_Source\PSoC4/BLE_1_aios.c ****                             
 1653              		.loc 1 410 0
 1654 01be 5346     		mov	r3, r10
 1655 01c0 0433     		adds	r3, r3, #4
 1656 01c2 8B60     		str	r3, [r1, #8]
 412:Generated_Source\PSoC4/BLE_1_aios.c ****                             }
 1657              		.loc 1 412 0
 1658 01c4 254B     		ldr	r3, .L133
 1659 01c6 1B68     		ldr	r3, [r3]
 1660 01c8 8C20     		movs	r0, #140
 1661              	.LVL182:
 1662 01ca 4000     		lsls	r0, r0, #1
 1663 01cc 9847     		blx	r3
 1664              	.LVL183:
 1665              	.L120:
 420:Generated_Source\PSoC4/BLE_1_aios.c ****                                 &eventParam->connHandle, CYBLE_GATT_DB_PEER_INITIATED);
 1666              		.loc 1 420 0
 1667 01ce 5346     		mov	r3, r10
 1668 01d0 181D     		adds	r0, r3, #4
 1669 01d2 4023     		movs	r3, #64
 1670 01d4 5246     		mov	r2, r10
 1671 01d6 0021     		movs	r1, #0
 1672 01d8 FFF7FEFF 		bl	CyBle_GattsWriteAttributeValue
 1673              	.LVL184:
 1674 01dc 0700     		movs	r7, r0
 1675              	.LVL185:
 423:Generated_Source\PSoC4/BLE_1_aios.c ****                             {   
 1676              		.loc 1 423 0
 1677 01de 5B46     		mov	r3, fp
 1678 01e0 002B     		cmp	r3, #0
 1679 01e2 04D0     		beq	.L118
 1680              	.LVL186:
 425:Generated_Source\PSoC4/BLE_1_aios.c ****                             }
 1681              		.loc 1 425 0
 1682 01e4 1D4B     		ldr	r3, .L133
 1683              	.LVL187:
 1684 01e6 1B68     		ldr	r3, [r3]
 1685 01e8 03A9     		add	r1, sp, #12
 1686 01ea 5846     		mov	r0, fp
 1687              	.LVL188:
 1688 01ec 9847     		blx	r3
 1689              	.LVL189:
ARM GAS  C:\Windows\TEMP\cc5RoFpJ.s 			page 52


 1690              	.L118:
 432:Generated_Source\PSoC4/BLE_1_aios.c ****                         break;
 1691              		.loc 1 432 0
 1692 01ee 204A     		ldr	r2, .L133+20
 1693 01f0 1378     		ldrb	r3, [r2]
 1694 01f2 0121     		movs	r1, #1
 1695 01f4 8B43     		bics	r3, r1
 1696 01f6 1370     		strb	r3, [r2]
 433:Generated_Source\PSoC4/BLE_1_aios.c ****                     }
 1697              		.loc 1 433 0
 1698 01f8 09E0     		b	.L102
 1699              	.L117:
 265:Generated_Source\PSoC4/BLE_1_aios.c ****                 {
 1700              		.loc 1 265 0 discriminator 2
 1701 01fa 0135     		adds	r5, r5, #1
 1702              	.LVL190:
 1703 01fc EDB2     		uxtb	r5, r5
 1704              	.LVL191:
 1705 01fe 00E0     		b	.L101
 1706              	.LVL192:
 1707              	.L126:
 1708 0200 0025     		movs	r5, #0
 1709              	.L101:
 1710              	.LVL193:
 265:Generated_Source\PSoC4/BLE_1_aios.c ****                 {
 1711              		.loc 1 265 0 is_stmt 0 discriminator 1
 1712 0202 1C4B     		ldr	r3, .L133+24
 1713 0204 4246     		mov	r2, r8
 1714 0206 9B5C     		ldrb	r3, [r3, r2]
 1715 0208 9D42     		cmp	r5, r3
 1716 020a 00D2     		bcs	.LCB1874
 1717 020c 13E7     		b	.L121	@long jump
 1718              	.LCB1874:
 1719              	.LVL194:
 1720              	.L102:
 256:Generated_Source\PSoC4/BLE_1_aios.c ****         {
 1721              		.loc 1 256 0 is_stmt 1
 1722 020e 4B46     		mov	r3, r9
 1723 0210 0133     		adds	r3, r3, #1
 1724 0212 DBB2     		uxtb	r3, r3
 1725 0214 9946     		mov	r9, r3
 1726              	.LVL195:
 1727 0216 04E0     		b	.L99
 1728              	.LVL196:
 1729              	.L125:
 1730 0218 0023     		movs	r3, #0
 1731 021a 9B46     		mov	fp, r3
 1732 021c 0024     		movs	r4, #0
 1733 021e 0027     		movs	r7, #0
 1734 0220 9946     		mov	r9, r3
 1735              	.LVL197:
 1736              	.L99:
 255:Generated_Source\PSoC4/BLE_1_aios.c ****             i++)
 1737              		.loc 1 255 0 discriminator 1
 1738 0222 4B46     		mov	r3, r9
 1739 0224 022B     		cmp	r3, #2
 1740 0226 04D8     		bhi	.L100
ARM GAS  C:\Windows\TEMP\cc5RoFpJ.s 			page 53


 255:Generated_Source\PSoC4/BLE_1_aios.c ****             i++)
 1741              		.loc 1 255 0 is_stmt 0 discriminator 2
 1742 0228 002C     		cmp	r4, #0
 1743 022a 02D1     		bne	.L100
 255:Generated_Source\PSoC4/BLE_1_aios.c ****             i++)
 1744              		.loc 1 255 0 discriminator 3
 1745 022c 002F     		cmp	r7, #0
 1746 022e 00D1     		bne	.LCB1919
 1747 0230 F7E6     		b	.L122	@long jump
 1748              	.LCB1919:
 1749              	.LVL198:
 1750              	.L100:
 440:Generated_Source\PSoC4/BLE_1_aios.c ****     {
 1751              		.loc 1 440 0 is_stmt 1
 1752 0232 002F     		cmp	r7, #0
 1753 0234 05D0     		beq	.L123
 443:Generated_Source\PSoC4/BLE_1_aios.c ****     }
 1754              		.loc 1 443 0
 1755 0236 0E4A     		ldr	r2, .L133+20
 1756 0238 1378     		ldrb	r3, [r2]
 1757 023a 0121     		movs	r1, #1
 1758 023c 8B43     		bics	r3, r1
 1759 023e 1370     		strb	r3, [r2]
 1760 0240 04E0     		b	.L124
 1761              	.L123:
 447:Generated_Source\PSoC4/BLE_1_aios.c ****         {
 1762              		.loc 1 447 0
 1763 0242 012C     		cmp	r4, #1
 1764 0244 02D1     		bne	.L124
 449:Generated_Source\PSoC4/BLE_1_aios.c ****         }
 1765              		.loc 1 449 0
 1766 0246 FFF7FEFF 		bl	CyBle_AiosSetAggregateChar
 1767              	.LVL199:
 1768 024a 0700     		movs	r7, r0
 1769              	.LVL200:
 1770              	.L124:
 454:Generated_Source\PSoC4/BLE_1_aios.c **** 
 1771              		.loc 1 454 0
 1772 024c 3800     		movs	r0, r7
 1773 024e 07B0     		add	sp, sp, #28
 1774              		@ sp needed
 1775              	.LVL201:
 1776              	.LVL202:
 1777              	.LVL203:
 1778              	.LVL204:
 1779 0250 3CBC     		pop	{r2, r3, r4, r5}
 1780 0252 9046     		mov	r8, r2
 1781 0254 9946     		mov	r9, r3
 1782 0256 A246     		mov	r10, r4
 1783 0258 AB46     		mov	fp, r5
 1784 025a F0BD     		pop	{r4, r5, r6, r7, pc}
 1785              	.L134:
 1786              		.align	2
 1787              	.L133:
 1788 025c 00000000 		.word	.LANCHOR0
 1789 0260 00000000 		.word	.LANCHOR2
 1790 0264 00000000 		.word	cyBle_gattDB
ARM GAS  C:\Windows\TEMP\cc5RoFpJ.s 			page 54


 1791 0268 00000000 		.word	cyBle_peerBonding
 1792 026c 00000000 		.word	cyBle_pendingFlashWrite
 1793 0270 00000000 		.word	cyBle_eventHandlerFlag
 1794 0274 00000000 		.word	.LANCHOR1
 1795              		.cfi_endproc
 1796              	.LFE4:
 1797              		.size	CyBle_AiossWriteEventHandler, .-CyBle_AiossWriteEventHandler
 1798              		.section	.text.CyBle_AiossSetCharacteristicValue,"ax",%progbits
 1799              		.align	2
 1800              		.global	CyBle_AiossSetCharacteristicValue
 1801              		.code	16
 1802              		.thumb_func
 1803              		.type	CyBle_AiossSetCharacteristicValue, %function
 1804              	CyBle_AiossSetCharacteristicValue:
 1805              	.LFB5:
 478:Generated_Source\PSoC4/BLE_1_aios.c ****     CYBLE_API_RESULT_T apiResult = CYBLE_ERROR_INVALID_PARAMETER;
 1806              		.loc 1 478 0
 1807              		.cfi_startproc
 1808              		@ args = 0, pretend = 0, frame = 16
 1809              		@ frame_needed = 0, uses_anonymous_args = 0
 1810              	.LVL205:
 1811 0000 10B5     		push	{r4, lr}
 1812              		.cfi_def_cfa_offset 8
 1813              		.cfi_offset 4, -8
 1814              		.cfi_offset 14, -4
 1815 0002 84B0     		sub	sp, sp, #16
 1816              		.cfi_def_cfa_offset 24
 1817              	.LVL206:
 482:Generated_Source\PSoC4/BLE_1_aios.c ****     {
 1818              		.loc 1 482 0
 1819 0004 0228     		cmp	r0, #2
 1820 0006 1CD8     		bhi	.L139
 482:Generated_Source\PSoC4/BLE_1_aios.c ****     {
 1821              		.loc 1 482 0 is_stmt 0 discriminator 1
 1822 0008 164C     		ldr	r4, .L145
 1823 000a 245C     		ldrb	r4, [r4, r0]
 1824 000c 8C42     		cmp	r4, r1
 1825 000e 1AD9     		bls	.L140
 490:Generated_Source\PSoC4/BLE_1_aios.c ****             (CYBLE_GATT_INVALID_ATTR_HANDLE_VALUE !=
 1826              		.loc 1 490 0 is_stmt 1
 1827 0010 8000     		lsls	r0, r0, #2
 1828              	.LVL207:
 1829 0012 154C     		ldr	r4, .L145+4
 1830 0014 2018     		adds	r0, r4, r0
 1831 0016 4068     		ldr	r0, [r0, #4]
 1832 0018 0028     		cmp	r0, #0
 1833 001a 16D0     		beq	.L141
 492:Generated_Source\PSoC4/BLE_1_aios.c ****         {
 1834              		.loc 1 492 0 discriminator 1
 1835 001c 0901     		lsls	r1, r1, #4
 1836              	.LVL208:
 1837 001e 415A     		ldrh	r1, [r0, r1]
 490:Generated_Source\PSoC4/BLE_1_aios.c ****             (CYBLE_GATT_INVALID_ATTR_HANDLE_VALUE !=
 1838              		.loc 1 490 0 discriminator 1
 1839 0020 0029     		cmp	r1, #0
 1840 0022 14D0     		beq	.L142
 1841              	.LBB8:
ARM GAS  C:\Windows\TEMP\cc5RoFpJ.s 			page 55


 496:Generated_Source\PSoC4/BLE_1_aios.c ****                 cyBle_aioss.charInfoAddr[charIndex].charInfoPtr[charInstance].charHandle;
 1842              		.loc 1 496 0
 1843 0024 01A8     		add	r0, sp, #4
 1844 0026 0181     		strh	r1, [r0, #8]
 498:Generated_Source\PSoC4/BLE_1_aios.c ****             locHandleValuePair.value.val = attrValue;
 1845              		.loc 1 498 0
 1846 0028 8280     		strh	r2, [r0, #4]
 499:Generated_Source\PSoC4/BLE_1_aios.c **** 
 1847              		.loc 1 499 0
 1848 002a 0193     		str	r3, [sp, #4]
 502:Generated_Source\PSoC4/BLE_1_aios.c ****                 CYBLE_GATT_ERR_NONE)
 1849              		.loc 1 502 0
 1850 002c 0023     		movs	r3, #0
 1851              	.LVL209:
 1852 002e 0022     		movs	r2, #0
 1853              	.LVL210:
 1854 0030 0021     		movs	r1, #0
 1855 0032 FFF7FEFF 		bl	CyBle_GattsWriteAttributeValue
 1856              	.LVL211:
 1857 0036 0028     		cmp	r0, #0
 1858 0038 01D0     		beq	.L143
 1859              	.LBE8:
 479:Generated_Source\PSoC4/BLE_1_aios.c **** 
 1860              		.loc 1 479 0
 1861 003a 0124     		movs	r4, #1
 1862 003c 08E0     		b	.L136
 1863              	.L143:
 1864              	.LBB9:
 505:Generated_Source\PSoC4/BLE_1_aios.c ****             }
 1865              		.loc 1 505 0
 1866 003e 0024     		movs	r4, #0
 1867              	.LVL212:
 1868              	.LBE9:
 493:Generated_Source\PSoC4/BLE_1_aios.c ****             CYBLE_GATT_HANDLE_VALUE_PAIR_T locHandleValuePair;
 1869              		.loc 1 493 0
 1870 0040 06E0     		b	.L136
 1871              	.LVL213:
 1872              	.L139:
 479:Generated_Source\PSoC4/BLE_1_aios.c **** 
 1873              		.loc 1 479 0
 1874 0042 0124     		movs	r4, #1
 1875 0044 04E0     		b	.L136
 1876              	.L140:
 1877 0046 0124     		movs	r4, #1
 1878 0048 02E0     		b	.L136
 1879              	.LVL214:
 1880              	.L141:
 510:Generated_Source\PSoC4/BLE_1_aios.c ****         }
 1881              		.loc 1 510 0
 1882 004a 1324     		movs	r4, #19
 1883 004c 00E0     		b	.L136
 1884              	.LVL215:
 1885              	.L142:
 1886 004e 1324     		movs	r4, #19
 1887              	.LVL216:
 1888              	.L136:
 514:Generated_Source\PSoC4/BLE_1_aios.c ****     {   
ARM GAS  C:\Windows\TEMP\cc5RoFpJ.s 			page 56


 1889              		.loc 1 514 0
 1890 0050 002C     		cmp	r4, #0
 1891 0052 04D1     		bne	.L138
 516:Generated_Source\PSoC4/BLE_1_aios.c ****         {   
 1892              		.loc 1 516 0
 1893 0054 FFF7FEFF 		bl	CyBle_AiosSetAggregateChar
 1894              	.LVL217:
 1895 0058 0028     		cmp	r0, #0
 1896 005a 00D0     		beq	.L138
 518:Generated_Source\PSoC4/BLE_1_aios.c ****         }
 1897              		.loc 1 518 0
 1898 005c 1334     		adds	r4, r4, #19
 1899              	.LVL218:
 1900              	.L138:
 523:Generated_Source\PSoC4/BLE_1_aios.c **** 
 1901              		.loc 1 523 0
 1902 005e 2000     		movs	r0, r4
 1903 0060 04B0     		add	sp, sp, #16
 1904              		@ sp needed
 1905              	.LVL219:
 1906 0062 10BD     		pop	{r4, pc}
 1907              	.L146:
 1908              		.align	2
 1909              	.L145:
 1910 0064 00000000 		.word	.LANCHOR1
 1911 0068 00000000 		.word	.LANCHOR2
 1912              		.cfi_endproc
 1913              	.LFE5:
 1914              		.size	CyBle_AiossSetCharacteristicValue, .-CyBle_AiossSetCharacteristicValue
 1915              		.global	cyBle_aioss
 1916              		.global	cyBle_aiossCharInstances
 1917              		.section	.rodata
 1918              		.align	2
 1919              		.set	.LANCHOR2,. + 0
 1920              		.type	cyBle_aioss, %object
 1921              		.size	cyBle_aioss, 16
 1922              	cyBle_aioss:
 1923 0000 0E00     		.short	14
 1924 0002 0000     		.space	2
 1925 0004 14000000 		.word	aiossCharIdx0
 1926 0008 34000000 		.word	aiossCharIdx1
 1927 000c 04000000 		.word	aiossCharIdx2
 1928              		.data
 1929              		.align	2
 1930              		.set	.LANCHOR1,. + 0
 1931              		.type	cyBle_aiossCharInstances, %object
 1932              		.size	cyBle_aiossCharInstances, 3
 1933              	cyBle_aiossCharInstances:
 1934 0000 02       		.byte	2
 1935 0001 02       		.byte	2
 1936 0002 01       		.byte	1
 1937 0003 00       		.space	1
 1938              		.type	aiossCharIdx2, %object
 1939              		.size	aiossCharIdx2, 16
 1940              	aiossCharIdx2:
 1941 0004 1E00     		.short	30
 1942 0006 1F00     		.short	31
ARM GAS  C:\Windows\TEMP\cc5RoFpJ.s 			page 57


 1943 0008 0000     		.short	0
 1944 000a 0000     		.short	0
 1945 000c 0000     		.short	0
 1946 000e 0000     		.short	0
 1947 0010 0000     		.short	0
 1948 0012 0000     		.short	0
 1949              		.type	aiossCharIdx0, %object
 1950              		.size	aiossCharIdx0, 32
 1951              	aiossCharIdx0:
 1952 0014 1000     		.short	16
 1953 0016 0000     		.short	0
 1954 0018 1100     		.short	17
 1955 001a 1200     		.short	18
 1956 001c 0000     		.short	0
 1957 001e 1300     		.short	19
 1958 0020 1400     		.short	20
 1959 0022 1500     		.short	21
 1960 0024 2100     		.short	33
 1961 0026 0000     		.short	0
 1962 0028 2200     		.short	34
 1963 002a 2300     		.short	35
 1964 002c 0000     		.short	0
 1965 002e 2400     		.short	36
 1966 0030 2500     		.short	37
 1967 0032 2600     		.short	38
 1968              		.type	aiossCharIdx1, %object
 1969              		.size	aiossCharIdx1, 32
 1970              	aiossCharIdx1:
 1971 0034 1700     		.short	23
 1972 0036 0000     		.short	0
 1973 0038 1800     		.short	24
 1974 003a 1900     		.short	25
 1975 003c 0000     		.short	0
 1976 003e 1A00     		.short	26
 1977 0040 1B00     		.short	27
 1978 0042 1C00     		.short	28
 1979 0044 2800     		.short	40
 1980 0046 0000     		.short	0
 1981 0048 2900     		.short	41
 1982 004a 2A00     		.short	42
 1983 004c 0000     		.short	0
 1984 004e 2B00     		.short	43
 1985 0050 2C00     		.short	44
 1986 0052 2D00     		.short	45
 1987              		.bss
 1988              		.align	2
 1989              		.set	.LANCHOR0,. + 0
 1990              		.type	CyBle_AiosApplCallback, %object
 1991              		.size	CyBle_AiosApplCallback, 4
 1992              	CyBle_AiosApplCallback:
 1993 0000 00000000 		.space	4
 1994              		.type	cyBle_aiossReqHandle, %object
 1995              		.size	cyBle_aiossReqHandle, 2
 1996              	cyBle_aiossReqHandle:
 1997 0004 0000     		.space	2
 1998              		.text
 1999              	.Letext0:
ARM GAS  C:\Windows\TEMP\cc5RoFpJ.s 			page 58


 2000              		.file 2 "Generated_Source\\PSoC4\\cytypes.h"
 2001              		.file 3 "Generated_Source\\PSoC4\\BLE_1_Stack.h"
 2002              		.file 4 "Generated_Source\\PSoC4\\BLE_1_StackGatt.h"
 2003              		.file 5 "Generated_Source\\PSoC4\\BLE_1_StackGattServer.h"
 2004              		.file 6 "Generated_Source\\PSoC4\\BLE_1_StackGattDb.h"
 2005              		.file 7 "Generated_Source\\PSoC4\\BLE_1.h"
 2006              		.file 8 "Generated_Source\\PSoC4\\BLE_1_aios.h"
 2007              		.file 9 "Generated_Source\\PSoC4\\BLE_1_eventHandler.h"
 2008              		.file 10 "Generated_Source\\PSoC4\\BLE_1_gatt.h"
 2009              		.section	.debug_info,"",%progbits
 2010              	.Ldebug_info0:
 2011 0000 BE190000 		.4byte	0x19be
 2012 0004 0400     		.2byte	0x4
 2013 0006 00000000 		.4byte	.Ldebug_abbrev0
 2014 000a 04       		.byte	0x4
 2015 000b 01       		.uleb128 0x1
 2016 000c 87060000 		.4byte	.LASF579
 2017 0010 0C       		.byte	0xc
 2018 0011 B6410000 		.4byte	.LASF580
 2019 0015 041B0000 		.4byte	.LASF581
 2020 0019 30000000 		.4byte	.Ldebug_ranges0+0x30
 2021 001d 00000000 		.4byte	0
 2022 0021 00000000 		.4byte	.Ldebug_line0
 2023 0025 02       		.uleb128 0x2
 2024 0026 01       		.byte	0x1
 2025 0027 06       		.byte	0x6
 2026 0028 C00E0000 		.4byte	.LASF0
 2027 002c 02       		.uleb128 0x2
 2028 002d 01       		.byte	0x1
 2029 002e 08       		.byte	0x8
 2030 002f E60F0000 		.4byte	.LASF1
 2031 0033 02       		.uleb128 0x2
 2032 0034 02       		.byte	0x2
 2033 0035 05       		.byte	0x5
 2034 0036 77370000 		.4byte	.LASF2
 2035 003a 02       		.uleb128 0x2
 2036 003b 02       		.byte	0x2
 2037 003c 07       		.byte	0x7
 2038 003d 1E3F0000 		.4byte	.LASF3
 2039 0041 02       		.uleb128 0x2
 2040 0042 04       		.byte	0x4
 2041 0043 05       		.byte	0x5
 2042 0044 650B0000 		.4byte	.LASF4
 2043 0048 02       		.uleb128 0x2
 2044 0049 04       		.byte	0x4
 2045 004a 07       		.byte	0x7
 2046 004b 4D1D0000 		.4byte	.LASF5
 2047 004f 02       		.uleb128 0x2
 2048 0050 08       		.byte	0x8
 2049 0051 05       		.byte	0x5
 2050 0052 BC220000 		.4byte	.LASF6
 2051 0056 02       		.uleb128 0x2
 2052 0057 08       		.byte	0x8
 2053 0058 07       		.byte	0x7
 2054 0059 68300000 		.4byte	.LASF7
 2055 005d 03       		.uleb128 0x3
 2056 005e 04       		.byte	0x4
ARM GAS  C:\Windows\TEMP\cc5RoFpJ.s 			page 59


 2057 005f 05       		.byte	0x5
 2058 0060 696E7400 		.ascii	"int\000"
 2059 0064 02       		.uleb128 0x2
 2060 0065 04       		.byte	0x4
 2061 0066 07       		.byte	0x7
 2062 0067 C6270000 		.4byte	.LASF8
 2063 006b 04       		.uleb128 0x4
 2064 006c 06370000 		.4byte	.LASF9
 2065 0070 02       		.byte	0x2
 2066 0071 FB01     		.2byte	0x1fb
 2067 0073 2C000000 		.4byte	0x2c
 2068 0077 04       		.uleb128 0x4
 2069 0078 CB420000 		.4byte	.LASF10
 2070 007c 02       		.byte	0x2
 2071 007d FC01     		.2byte	0x1fc
 2072 007f 3A000000 		.4byte	0x3a
 2073 0083 04       		.uleb128 0x4
 2074 0084 8C030000 		.4byte	.LASF11
 2075 0088 02       		.byte	0x2
 2076 0089 FD01     		.2byte	0x1fd
 2077 008b 48000000 		.4byte	0x48
 2078 008f 02       		.uleb128 0x2
 2079 0090 04       		.byte	0x4
 2080 0091 04       		.byte	0x4
 2081 0092 2F260000 		.4byte	.LASF12
 2082 0096 02       		.uleb128 0x2
 2083 0097 08       		.byte	0x8
 2084 0098 04       		.byte	0x4
 2085 0099 F7230000 		.4byte	.LASF13
 2086 009d 02       		.uleb128 0x2
 2087 009e 01       		.byte	0x1
 2088 009f 08       		.byte	0x8
 2089 00a0 5E120000 		.4byte	.LASF14
 2090 00a4 05       		.uleb128 0x5
 2091 00a5 6B000000 		.4byte	0x6b
 2092 00a9 02       		.uleb128 0x2
 2093 00aa 08       		.byte	0x8
 2094 00ab 04       		.byte	0x4
 2095 00ac DE2C0000 		.4byte	.LASF15
 2096 00b0 02       		.uleb128 0x2
 2097 00b1 04       		.byte	0x4
 2098 00b2 07       		.byte	0x7
 2099 00b3 E4000000 		.4byte	.LASF16
 2100 00b7 06       		.uleb128 0x6
 2101 00b8 04       		.byte	0x4
 2102 00b9 07       		.uleb128 0x7
 2103 00ba 04       		.byte	0x4
 2104 00bb BF000000 		.4byte	0xbf
 2105 00bf 08       		.uleb128 0x8
 2106 00c0 CF000000 		.4byte	0xcf
 2107 00c4 09       		.uleb128 0x9
 2108 00c5 83000000 		.4byte	0x83
 2109 00c9 09       		.uleb128 0x9
 2110 00ca B7000000 		.4byte	0xb7
 2111 00ce 00       		.byte	0
 2112 00cf 0A       		.uleb128 0xa
 2113 00d0 01       		.byte	0x1
ARM GAS  C:\Windows\TEMP\cc5RoFpJ.s 			page 60


 2114 00d1 2C000000 		.4byte	0x2c
 2115 00d5 03       		.byte	0x3
 2116 00d6 4D01     		.2byte	0x14d
 2117 00d8 8D020000 		.4byte	0x28d
 2118 00dc 0B       		.uleb128 0xb
 2119 00dd 8B130000 		.4byte	.LASF17
 2120 00e1 00       		.byte	0
 2121 00e2 0B       		.uleb128 0xb
 2122 00e3 2C0C0000 		.4byte	.LASF18
 2123 00e7 01       		.byte	0x1
 2124 00e8 0B       		.uleb128 0xb
 2125 00e9 9D300000 		.4byte	.LASF19
 2126 00ed 02       		.byte	0x2
 2127 00ee 0B       		.uleb128 0xb
 2128 00ef 440F0000 		.4byte	.LASF20
 2129 00f3 03       		.byte	0x3
 2130 00f4 0B       		.uleb128 0xb
 2131 00f5 A2400000 		.4byte	.LASF21
 2132 00f9 04       		.byte	0x4
 2133 00fa 0B       		.uleb128 0xb
 2134 00fb 703D0000 		.4byte	.LASF22
 2135 00ff 05       		.byte	0x5
 2136 0100 0B       		.uleb128 0xb
 2137 0101 2B2D0000 		.4byte	.LASF23
 2138 0105 06       		.byte	0x6
 2139 0106 0B       		.uleb128 0xb
 2140 0107 A2390000 		.4byte	.LASF24
 2141 010b 20       		.byte	0x20
 2142 010c 0B       		.uleb128 0xb
 2143 010d 3F080000 		.4byte	.LASF25
 2144 0111 21       		.byte	0x21
 2145 0112 0B       		.uleb128 0xb
 2146 0113 93210000 		.4byte	.LASF26
 2147 0117 22       		.byte	0x22
 2148 0118 0B       		.uleb128 0xb
 2149 0119 0D2B0000 		.4byte	.LASF27
 2150 011d 23       		.byte	0x23
 2151 011e 0B       		.uleb128 0xb
 2152 011f BC1B0000 		.4byte	.LASF28
 2153 0123 24       		.byte	0x24
 2154 0124 0B       		.uleb128 0xb
 2155 0125 1F1C0000 		.4byte	.LASF29
 2156 0129 25       		.byte	0x25
 2157 012a 0B       		.uleb128 0xb
 2158 012b 3C360000 		.4byte	.LASF30
 2159 012f 26       		.byte	0x26
 2160 0130 0B       		.uleb128 0xb
 2161 0131 FA020000 		.4byte	.LASF31
 2162 0135 27       		.byte	0x27
 2163 0136 0B       		.uleb128 0xb
 2164 0137 19420000 		.4byte	.LASF32
 2165 013b 28       		.byte	0x28
 2166 013c 0B       		.uleb128 0xb
 2167 013d 3A2E0000 		.4byte	.LASF33
 2168 0141 29       		.byte	0x29
 2169 0142 0B       		.uleb128 0xb
 2170 0143 4E200000 		.4byte	.LASF34
ARM GAS  C:\Windows\TEMP\cc5RoFpJ.s 			page 61


 2171 0147 2A       		.byte	0x2a
 2172 0148 0B       		.uleb128 0xb
 2173 0149 652A0000 		.4byte	.LASF35
 2174 014d 2B       		.byte	0x2b
 2175 014e 0B       		.uleb128 0xb
 2176 014f CE3D0000 		.4byte	.LASF36
 2177 0153 2C       		.byte	0x2c
 2178 0154 0B       		.uleb128 0xb
 2179 0155 D6010000 		.4byte	.LASF37
 2180 0159 2D       		.byte	0x2d
 2181 015a 0B       		.uleb128 0xb
 2182 015b 2E370000 		.4byte	.LASF38
 2183 015f 2E       		.byte	0x2e
 2184 0160 0B       		.uleb128 0xb
 2185 0161 96090000 		.4byte	.LASF39
 2186 0165 2F       		.byte	0x2f
 2187 0166 0B       		.uleb128 0xb
 2188 0167 18120000 		.4byte	.LASF40
 2189 016b 30       		.byte	0x30
 2190 016c 0B       		.uleb128 0xb
 2191 016d 1C250000 		.4byte	.LASF41
 2192 0171 31       		.byte	0x31
 2193 0172 0B       		.uleb128 0xb
 2194 0173 C0130000 		.4byte	.LASF42
 2195 0177 32       		.byte	0x32
 2196 0178 0B       		.uleb128 0xb
 2197 0179 BD100000 		.4byte	.LASF43
 2198 017d 33       		.byte	0x33
 2199 017e 0B       		.uleb128 0xb
 2200 017f E4100000 		.4byte	.LASF44
 2201 0183 34       		.byte	0x34
 2202 0184 0B       		.uleb128 0xb
 2203 0185 0D3B0000 		.4byte	.LASF45
 2204 0189 35       		.byte	0x35
 2205 018a 0B       		.uleb128 0xb
 2206 018b 26090000 		.4byte	.LASF46
 2207 018f 36       		.byte	0x36
 2208 0190 0B       		.uleb128 0xb
 2209 0191 982F0000 		.4byte	.LASF47
 2210 0195 37       		.byte	0x37
 2211 0196 0B       		.uleb128 0xb
 2212 0197 83380000 		.4byte	.LASF48
 2213 019b 40       		.byte	0x40
 2214 019c 0B       		.uleb128 0xb
 2215 019d 3C030000 		.4byte	.LASF49
 2216 01a1 41       		.byte	0x41
 2217 01a2 0B       		.uleb128 0xb
 2218 01a3 CF400000 		.4byte	.LASF50
 2219 01a7 42       		.byte	0x42
 2220 01a8 0B       		.uleb128 0xb
 2221 01a9 DB2E0000 		.4byte	.LASF51
 2222 01ad 43       		.byte	0x43
 2223 01ae 0B       		.uleb128 0xb
 2224 01af F40F0000 		.4byte	.LASF52
 2225 01b3 44       		.byte	0x44
 2226 01b4 0B       		.uleb128 0xb
 2227 01b5 880F0000 		.4byte	.LASF53
ARM GAS  C:\Windows\TEMP\cc5RoFpJ.s 			page 62


 2228 01b9 45       		.byte	0x45
 2229 01ba 0B       		.uleb128 0xb
 2230 01bb E6330000 		.4byte	.LASF54
 2231 01bf 46       		.byte	0x46
 2232 01c0 0B       		.uleb128 0xb
 2233 01c1 C8330000 		.4byte	.LASF55
 2234 01c5 47       		.byte	0x47
 2235 01c6 0B       		.uleb128 0xb
 2236 01c7 CC110000 		.4byte	.LASF56
 2237 01cb 48       		.byte	0x48
 2238 01cc 0B       		.uleb128 0xb
 2239 01cd 8C2B0000 		.4byte	.LASF57
 2240 01d1 49       		.byte	0x49
 2241 01d2 0B       		.uleb128 0xb
 2242 01d3 21140000 		.4byte	.LASF58
 2243 01d7 4A       		.byte	0x4a
 2244 01d8 0B       		.uleb128 0xb
 2245 01d9 25130000 		.4byte	.LASF59
 2246 01dd 4B       		.byte	0x4b
 2247 01de 0B       		.uleb128 0xb
 2248 01df A82A0000 		.4byte	.LASF60
 2249 01e3 4C       		.byte	0x4c
 2250 01e4 0B       		.uleb128 0xb
 2251 01e5 72350000 		.4byte	.LASF61
 2252 01e9 4D       		.byte	0x4d
 2253 01ea 0B       		.uleb128 0xb
 2254 01eb EB0A0000 		.4byte	.LASF62
 2255 01ef 4E       		.byte	0x4e
 2256 01f0 0B       		.uleb128 0xb
 2257 01f1 D3270000 		.4byte	.LASF63
 2258 01f5 4F       		.byte	0x4f
 2259 01f6 0B       		.uleb128 0xb
 2260 01f7 83390000 		.4byte	.LASF64
 2261 01fb 50       		.byte	0x50
 2262 01fc 0B       		.uleb128 0xb
 2263 01fd 85140000 		.4byte	.LASF65
 2264 0201 51       		.byte	0x51
 2265 0202 0B       		.uleb128 0xb
 2266 0203 1E080000 		.4byte	.LASF66
 2267 0207 52       		.byte	0x52
 2268 0208 0B       		.uleb128 0xb
 2269 0209 F03C0000 		.4byte	.LASF67
 2270 020d 53       		.byte	0x53
 2271 020e 0B       		.uleb128 0xb
 2272 020f 5B420000 		.4byte	.LASF68
 2273 0213 54       		.byte	0x54
 2274 0214 0B       		.uleb128 0xb
 2275 0215 2D060000 		.4byte	.LASF69
 2276 0219 55       		.byte	0x55
 2277 021a 0B       		.uleb128 0xb
 2278 021b A5150000 		.4byte	.LASF70
 2279 021f 56       		.byte	0x56
 2280 0220 0B       		.uleb128 0xb
 2281 0221 DB260000 		.4byte	.LASF71
 2282 0225 57       		.byte	0x57
 2283 0226 0B       		.uleb128 0xb
 2284 0227 DA410000 		.4byte	.LASF72
ARM GAS  C:\Windows\TEMP\cc5RoFpJ.s 			page 63


 2285 022b 58       		.byte	0x58
 2286 022c 0B       		.uleb128 0xb
 2287 022d 273E0000 		.4byte	.LASF73
 2288 0231 70       		.byte	0x70
 2289 0232 0B       		.uleb128 0xb
 2290 0233 451A0000 		.4byte	.LASF74
 2291 0237 71       		.byte	0x71
 2292 0238 0B       		.uleb128 0xb
 2293 0239 1A0E0000 		.4byte	.LASF75
 2294 023d 72       		.byte	0x72
 2295 023e 0B       		.uleb128 0xb
 2296 023f 65390000 		.4byte	.LASF76
 2297 0243 73       		.byte	0x73
 2298 0244 0B       		.uleb128 0xb
 2299 0245 172C0000 		.4byte	.LASF77
 2300 0249 74       		.byte	0x74
 2301 024a 0B       		.uleb128 0xb
 2302 024b 10210000 		.4byte	.LASF78
 2303 024f 75       		.byte	0x75
 2304 0250 0B       		.uleb128 0xb
 2305 0251 AB110000 		.4byte	.LASF79
 2306 0255 76       		.byte	0x76
 2307 0256 0B       		.uleb128 0xb
 2308 0257 46310000 		.4byte	.LASF80
 2309 025b 77       		.byte	0x77
 2310 025c 0B       		.uleb128 0xb
 2311 025d 51060000 		.4byte	.LASF81
 2312 0261 78       		.byte	0x78
 2313 0262 0B       		.uleb128 0xb
 2314 0263 420B0000 		.4byte	.LASF82
 2315 0267 79       		.byte	0x79
 2316 0268 0B       		.uleb128 0xb
 2317 0269 13410000 		.4byte	.LASF83
 2318 026d 7A       		.byte	0x7a
 2319 026e 0B       		.uleb128 0xb
 2320 026f 5F240000 		.4byte	.LASF84
 2321 0273 FA       		.byte	0xfa
 2322 0274 0B       		.uleb128 0xb
 2323 0275 383C0000 		.4byte	.LASF85
 2324 0279 FB       		.byte	0xfb
 2325 027a 0B       		.uleb128 0xb
 2326 027b 6B1A0000 		.4byte	.LASF86
 2327 027f FC       		.byte	0xfc
 2328 0280 0B       		.uleb128 0xb
 2329 0281 C62C0000 		.4byte	.LASF87
 2330 0285 FD       		.byte	0xfd
 2331 0286 0B       		.uleb128 0xb
 2332 0287 572A0000 		.4byte	.LASF88
 2333 028b FF       		.byte	0xff
 2334 028c 00       		.byte	0
 2335 028d 0A       		.uleb128 0xa
 2336 028e 02       		.byte	0x2
 2337 028f 3A000000 		.4byte	0x3a
 2338 0293 03       		.byte	0x3
 2339 0294 0204     		.2byte	0x402
 2340 0296 66030000 		.4byte	0x366
 2341 029a 0B       		.uleb128 0xb
ARM GAS  C:\Windows\TEMP\cc5RoFpJ.s 			page 64


 2342 029b 5D0F0000 		.4byte	.LASF89
 2343 029f 00       		.byte	0
 2344 02a0 0B       		.uleb128 0xb
 2345 02a1 1F170000 		.4byte	.LASF90
 2346 02a5 01       		.byte	0x1
 2347 02a6 0B       		.uleb128 0xb
 2348 02a7 84400000 		.4byte	.LASF91
 2349 02ab 02       		.byte	0x2
 2350 02ac 0B       		.uleb128 0xb
 2351 02ad 96180000 		.4byte	.LASF92
 2352 02b1 03       		.byte	0x3
 2353 02b2 0B       		.uleb128 0xb
 2354 02b3 971C0000 		.4byte	.LASF93
 2355 02b7 04       		.byte	0x4
 2356 02b8 0B       		.uleb128 0xb
 2357 02b9 B6230000 		.4byte	.LASF94
 2358 02bd 05       		.byte	0x5
 2359 02be 0B       		.uleb128 0xb
 2360 02bf F43B0000 		.4byte	.LASF95
 2361 02c3 06       		.byte	0x6
 2362 02c4 0B       		.uleb128 0xb
 2363 02c5 04140000 		.4byte	.LASF96
 2364 02c9 07       		.byte	0x7
 2365 02ca 0B       		.uleb128 0xb
 2366 02cb BB250000 		.4byte	.LASF97
 2367 02cf 08       		.byte	0x8
 2368 02d0 0B       		.uleb128 0xb
 2369 02d1 973A0000 		.4byte	.LASF98
 2370 02d5 09       		.byte	0x9
 2371 02d6 0B       		.uleb128 0xb
 2372 02d7 F6420000 		.4byte	.LASF99
 2373 02db 0A       		.byte	0xa
 2374 02dc 0B       		.uleb128 0xb
 2375 02dd B5080000 		.4byte	.LASF100
 2376 02e1 0B       		.byte	0xb
 2377 02e2 0B       		.uleb128 0xb
 2378 02e3 593D0000 		.4byte	.LASF101
 2379 02e7 0C       		.byte	0xc
 2380 02e8 0B       		.uleb128 0xb
 2381 02e9 81290000 		.4byte	.LASF102
 2382 02ed 0D       		.byte	0xd
 2383 02ee 0B       		.uleb128 0xb
 2384 02ef FA1E0000 		.4byte	.LASF103
 2385 02f3 0E       		.byte	0xe
 2386 02f4 0B       		.uleb128 0xb
 2387 02f5 91230000 		.4byte	.LASF104
 2388 02f9 0F       		.byte	0xf
 2389 02fa 0B       		.uleb128 0xb
 2390 02fb BD050000 		.4byte	.LASF105
 2391 02ff 10       		.byte	0x10
 2392 0300 0B       		.uleb128 0xb
 2393 0301 8A250000 		.4byte	.LASF106
 2394 0305 11       		.byte	0x11
 2395 0306 0B       		.uleb128 0xb
 2396 0307 3F0C0000 		.4byte	.LASF107
 2397 030b 12       		.byte	0x12
 2398 030c 0B       		.uleb128 0xb
ARM GAS  C:\Windows\TEMP\cc5RoFpJ.s 			page 65


 2399 030d 980E0000 		.4byte	.LASF108
 2400 0311 13       		.byte	0x13
 2401 0312 0B       		.uleb128 0xb
 2402 0313 FE230000 		.4byte	.LASF109
 2403 0317 27       		.byte	0x27
 2404 0318 0B       		.uleb128 0xb
 2405 0319 90260000 		.4byte	.LASF110
 2406 031d 28       		.byte	0x28
 2407 031e 0B       		.uleb128 0xb
 2408 031f EB050000 		.4byte	.LASF111
 2409 0323 29       		.byte	0x29
 2410 0324 0B       		.uleb128 0xb
 2411 0325 ED370000 		.4byte	.LASF112
 2412 0329 2A       		.byte	0x2a
 2413 032a 0B       		.uleb128 0xb
 2414 032b 251E0000 		.4byte	.LASF113
 2415 032f 2B       		.byte	0x2b
 2416 0330 0B       		.uleb128 0xb
 2417 0331 0C320000 		.4byte	.LASF114
 2418 0335 2C       		.byte	0x2c
 2419 0336 0B       		.uleb128 0xb
 2420 0337 03170000 		.4byte	.LASF115
 2421 033b FE       		.byte	0xfe
 2422 033c 0B       		.uleb128 0xb
 2423 033d 121A0000 		.4byte	.LASF116
 2424 0341 FF       		.byte	0xff
 2425 0342 0C       		.uleb128 0xc
 2426 0343 4C2B0000 		.4byte	.LASF117
 2427 0347 0001     		.2byte	0x100
 2428 0349 0C       		.uleb128 0xc
 2429 034a 332B0000 		.4byte	.LASF118
 2430 034e 0101     		.2byte	0x101
 2431 0350 0C       		.uleb128 0xc
 2432 0351 4A0D0000 		.4byte	.LASF119
 2433 0355 0201     		.2byte	0x102
 2434 0357 0C       		.uleb128 0xc
 2435 0358 ED300000 		.4byte	.LASF120
 2436 035c 0301     		.2byte	0x103
 2437 035e 0C       		.uleb128 0xc
 2438 035f 561C0000 		.4byte	.LASF121
 2439 0363 0401     		.2byte	0x104
 2440 0365 00       		.byte	0
 2441 0366 04       		.uleb128 0x4
 2442 0367 573C0000 		.4byte	.LASF122
 2443 036b 03       		.byte	0x3
 2444 036c 7104     		.2byte	0x471
 2445 036e 8D020000 		.4byte	0x28d
 2446 0372 07       		.uleb128 0x7
 2447 0373 04       		.byte	0x4
 2448 0374 6B000000 		.4byte	0x6b
 2449 0378 0D       		.uleb128 0xd
 2450 0379 6B000000 		.4byte	0x6b
 2451 037d 88030000 		.4byte	0x388
 2452 0381 0E       		.uleb128 0xe
 2453 0382 B0000000 		.4byte	0xb0
 2454 0386 06       		.byte	0x6
 2455 0387 00       		.byte	0
ARM GAS  C:\Windows\TEMP\cc5RoFpJ.s 			page 66


 2456 0388 0F       		.uleb128 0xf
 2457 0389 01       		.byte	0x1
 2458 038a 2C000000 		.4byte	0x2c
 2459 038e 04       		.byte	0x4
 2460 038f A5       		.byte	0xa5
 2461 0390 7F040000 		.4byte	0x47f
 2462 0394 0B       		.uleb128 0xb
 2463 0395 65310000 		.4byte	.LASF123
 2464 0399 00       		.byte	0
 2465 039a 0B       		.uleb128 0xb
 2466 039b 7F300000 		.4byte	.LASF124
 2467 039f 01       		.byte	0x1
 2468 03a0 0B       		.uleb128 0xb
 2469 03a1 50050000 		.4byte	.LASF125
 2470 03a5 02       		.byte	0x2
 2471 03a6 0B       		.uleb128 0xb
 2472 03a7 FB3E0000 		.4byte	.LASF126
 2473 03ab 03       		.byte	0x3
 2474 03ac 0B       		.uleb128 0xb
 2475 03ad 2F0D0000 		.4byte	.LASF127
 2476 03b1 04       		.byte	0x4
 2477 03b2 0B       		.uleb128 0xb
 2478 03b3 FF270000 		.4byte	.LASF128
 2479 03b7 05       		.byte	0x5
 2480 03b8 0B       		.uleb128 0xb
 2481 03b9 5E380000 		.4byte	.LASF129
 2482 03bd 06       		.byte	0x6
 2483 03be 0B       		.uleb128 0xb
 2484 03bf D72B0000 		.4byte	.LASF130
 2485 03c3 07       		.byte	0x7
 2486 03c4 0B       		.uleb128 0xb
 2487 03c5 28270000 		.4byte	.LASF131
 2488 03c9 08       		.byte	0x8
 2489 03ca 0B       		.uleb128 0xb
 2490 03cb 47230000 		.4byte	.LASF132
 2491 03cf 09       		.byte	0x9
 2492 03d0 0B       		.uleb128 0xb
 2493 03d1 CB290000 		.4byte	.LASF133
 2494 03d5 0A       		.byte	0xa
 2495 03d6 0B       		.uleb128 0xb
 2496 03d7 0B150000 		.4byte	.LASF134
 2497 03db 0B       		.byte	0xb
 2498 03dc 0B       		.uleb128 0xb
 2499 03dd 7D240000 		.4byte	.LASF135
 2500 03e1 0C       		.byte	0xc
 2501 03e2 0B       		.uleb128 0xb
 2502 03e3 5B0E0000 		.4byte	.LASF136
 2503 03e7 0D       		.byte	0xd
 2504 03e8 0B       		.uleb128 0xb
 2505 03e9 A2130000 		.4byte	.LASF137
 2506 03ed 0E       		.byte	0xe
 2507 03ee 0B       		.uleb128 0xb
 2508 03ef 313F0000 		.4byte	.LASF138
 2509 03f3 0F       		.byte	0xf
 2510 03f4 0B       		.uleb128 0xb
 2511 03f5 97050000 		.4byte	.LASF139
 2512 03f9 10       		.byte	0x10
ARM GAS  C:\Windows\TEMP\cc5RoFpJ.s 			page 67


 2513 03fa 0B       		.uleb128 0xb
 2514 03fb 72050000 		.4byte	.LASF140
 2515 03ff 11       		.byte	0x11
 2516 0400 0B       		.uleb128 0xb
 2517 0401 5D070000 		.4byte	.LASF141
 2518 0405 80       		.byte	0x80
 2519 0406 0B       		.uleb128 0xb
 2520 0407 B1140000 		.4byte	.LASF142
 2521 040b 80       		.byte	0x80
 2522 040c 0B       		.uleb128 0xb
 2523 040d 8E1B0000 		.4byte	.LASF143
 2524 0411 80       		.byte	0x80
 2525 0412 0B       		.uleb128 0xb
 2526 0413 0A380000 		.4byte	.LASF144
 2527 0417 80       		.byte	0x80
 2528 0418 0B       		.uleb128 0xb
 2529 0419 47320000 		.4byte	.LASF145
 2530 041d 80       		.byte	0x80
 2531 041e 0B       		.uleb128 0xb
 2532 041f 0B290000 		.4byte	.LASF146
 2533 0423 80       		.byte	0x80
 2534 0424 0B       		.uleb128 0xb
 2535 0425 041D0000 		.4byte	.LASF147
 2536 0429 80       		.byte	0x80
 2537 042a 0B       		.uleb128 0xb
 2538 042b D2300000 		.4byte	.LASF148
 2539 042f 80       		.byte	0x80
 2540 0430 0B       		.uleb128 0xb
 2541 0431 A4190000 		.4byte	.LASF149
 2542 0435 81       		.byte	0x81
 2543 0436 0B       		.uleb128 0xb
 2544 0437 74340000 		.4byte	.LASF150
 2545 043b 81       		.byte	0x81
 2546 043c 0B       		.uleb128 0xb
 2547 043d 8D000000 		.4byte	.LASF151
 2548 0441 81       		.byte	0x81
 2549 0442 0B       		.uleb128 0xb
 2550 0443 B60C0000 		.4byte	.LASF152
 2551 0447 81       		.byte	0x81
 2552 0448 0B       		.uleb128 0xb
 2553 0449 F0090000 		.4byte	.LASF153
 2554 044d 82       		.byte	0x82
 2555 044e 0B       		.uleb128 0xb
 2556 044f 683B0000 		.4byte	.LASF154
 2557 0453 A0       		.byte	0xa0
 2558 0454 0B       		.uleb128 0xb
 2559 0455 7B1F0000 		.4byte	.LASF155
 2560 0459 A0       		.byte	0xa0
 2561 045a 0B       		.uleb128 0xb
 2562 045b 3B0A0000 		.4byte	.LASF156
 2563 045f A1       		.byte	0xa1
 2564 0460 0B       		.uleb128 0xb
 2565 0461 713A0000 		.4byte	.LASF157
 2566 0465 A2       		.byte	0xa2
 2567 0466 0B       		.uleb128 0xb
 2568 0467 06160000 		.4byte	.LASF158
 2569 046b A3       		.byte	0xa3
ARM GAS  C:\Windows\TEMP\cc5RoFpJ.s 			page 68


 2570 046c 0B       		.uleb128 0xb
 2571 046d 6D1C0000 		.4byte	.LASF159
 2572 0471 FD       		.byte	0xfd
 2573 0472 0B       		.uleb128 0xb
 2574 0473 CB240000 		.4byte	.LASF160
 2575 0477 FE       		.byte	0xfe
 2576 0478 0B       		.uleb128 0xb
 2577 0479 902C0000 		.4byte	.LASF161
 2578 047d FF       		.byte	0xff
 2579 047e 00       		.byte	0
 2580 047f 04       		.uleb128 0x4
 2581 0480 5B3A0000 		.4byte	.LASF162
 2582 0484 04       		.byte	0x4
 2583 0485 5F01     		.2byte	0x15f
 2584 0487 88030000 		.4byte	0x388
 2585 048b 04       		.uleb128 0x4
 2586 048c 07310000 		.4byte	.LASF163
 2587 0490 04       		.byte	0x4
 2588 0491 8901     		.2byte	0x189
 2589 0493 77000000 		.4byte	0x77
 2590 0497 10       		.uleb128 0x10
 2591 0498 02       		.byte	0x2
 2592 0499 04       		.byte	0x4
 2593 049a 9301     		.2byte	0x193
 2594 049c BB040000 		.4byte	0x4bb
 2595 04a0 11       		.uleb128 0x11
 2596 04a1 CB090000 		.4byte	.LASF164
 2597 04a5 04       		.byte	0x4
 2598 04a6 9A01     		.2byte	0x19a
 2599 04a8 6B000000 		.4byte	0x6b
 2600 04ac 00       		.byte	0
 2601 04ad 11       		.uleb128 0x11
 2602 04ae 7E400000 		.4byte	.LASF165
 2603 04b2 04       		.byte	0x4
 2604 04b3 A001     		.2byte	0x1a0
 2605 04b5 6B000000 		.4byte	0x6b
 2606 04b9 01       		.byte	0x1
 2607 04ba 00       		.byte	0
 2608 04bb 04       		.uleb128 0x4
 2609 04bc 7E080000 		.4byte	.LASF166
 2610 04c0 04       		.byte	0x4
 2611 04c1 A201     		.2byte	0x1a2
 2612 04c3 97040000 		.4byte	0x497
 2613 04c7 10       		.uleb128 0x10
 2614 04c8 08       		.byte	0x8
 2615 04c9 04       		.byte	0x4
 2616 04ca BE01     		.2byte	0x1be
 2617 04cc F8040000 		.4byte	0x4f8
 2618 04d0 12       		.uleb128 0x12
 2619 04d1 76616C00 		.ascii	"val\000"
 2620 04d5 04       		.byte	0x4
 2621 04d6 C101     		.2byte	0x1c1
 2622 04d8 72030000 		.4byte	0x372
 2623 04dc 00       		.byte	0
 2624 04dd 12       		.uleb128 0x12
 2625 04de 6C656E00 		.ascii	"len\000"
 2626 04e2 04       		.byte	0x4
ARM GAS  C:\Windows\TEMP\cc5RoFpJ.s 			page 69


 2627 04e3 C401     		.2byte	0x1c4
 2628 04e5 77000000 		.4byte	0x77
 2629 04e9 04       		.byte	0x4
 2630 04ea 11       		.uleb128 0x11
 2631 04eb B43F0000 		.4byte	.LASF167
 2632 04ef 04       		.byte	0x4
 2633 04f0 CB01     		.2byte	0x1cb
 2634 04f2 77000000 		.4byte	0x77
 2635 04f6 06       		.byte	0x6
 2636 04f7 00       		.byte	0
 2637 04f8 04       		.uleb128 0x4
 2638 04f9 74060000 		.4byte	.LASF168
 2639 04fd 04       		.byte	0x4
 2640 04fe CD01     		.2byte	0x1cd
 2641 0500 C7040000 		.4byte	0x4c7
 2642 0504 10       		.uleb128 0x10
 2643 0505 0C       		.byte	0xc
 2644 0506 04       		.byte	0x4
 2645 0507 D001     		.2byte	0x1d0
 2646 0509 28050000 		.4byte	0x528
 2647 050d 11       		.uleb128 0x11
 2648 050e 79310000 		.4byte	.LASF169
 2649 0512 04       		.byte	0x4
 2650 0513 D301     		.2byte	0x1d3
 2651 0515 F8040000 		.4byte	0x4f8
 2652 0519 00       		.byte	0
 2653 051a 11       		.uleb128 0x11
 2654 051b 5D270000 		.4byte	.LASF170
 2655 051f 04       		.byte	0x4
 2656 0520 D601     		.2byte	0x1d6
 2657 0522 8B040000 		.4byte	0x48b
 2658 0526 08       		.byte	0x8
 2659 0527 00       		.byte	0
 2660 0528 04       		.uleb128 0x4
 2661 0529 B40D0000 		.4byte	.LASF171
 2662 052d 04       		.byte	0x4
 2663 052e D801     		.2byte	0x1d8
 2664 0530 04050000 		.4byte	0x504
 2665 0534 13       		.uleb128 0x13
 2666 0535 0F010000 		.4byte	.LASF172
 2667 0539 05       		.byte	0x5
 2668 053a 34       		.byte	0x34
 2669 053b 28050000 		.4byte	0x528
 2670 053f 13       		.uleb128 0x13
 2671 0540 03190000 		.4byte	.LASF173
 2672 0544 05       		.byte	0x5
 2673 0545 37       		.byte	0x37
 2674 0546 28050000 		.4byte	0x528
 2675 054a 14       		.uleb128 0x14
 2676 054b 10       		.byte	0x10
 2677 054c 05       		.byte	0x5
 2678 054d 8A       		.byte	0x8a
 2679 054e 6B050000 		.4byte	0x56b
 2680 0552 15       		.uleb128 0x15
 2681 0553 F3320000 		.4byte	.LASF174
 2682 0557 05       		.byte	0x5
 2683 0558 8D       		.byte	0x8d
ARM GAS  C:\Windows\TEMP\cc5RoFpJ.s 			page 70


 2684 0559 BB040000 		.4byte	0x4bb
 2685 055d 00       		.byte	0
 2686 055e 15       		.uleb128 0x15
 2687 055f 81370000 		.4byte	.LASF175
 2688 0563 05       		.byte	0x5
 2689 0564 90       		.byte	0x90
 2690 0565 28050000 		.4byte	0x528
 2691 0569 04       		.byte	0x4
 2692 056a 00       		.byte	0
 2693 056b 13       		.uleb128 0x13
 2694 056c A8270000 		.4byte	.LASF176
 2695 0570 05       		.byte	0x5
 2696 0571 92       		.byte	0x92
 2697 0572 4A050000 		.4byte	0x54a
 2698 0576 14       		.uleb128 0x14
 2699 0577 08       		.byte	0x8
 2700 0578 06       		.byte	0x6
 2701 0579 C8       		.byte	0xc8
 2702 057a 97050000 		.4byte	0x597
 2703 057e 15       		.uleb128 0x15
 2704 057f FE320000 		.4byte	.LASF177
 2705 0583 06       		.byte	0x6
 2706 0584 CB       		.byte	0xcb
 2707 0585 77000000 		.4byte	0x77
 2708 0589 00       		.byte	0
 2709 058a 15       		.uleb128 0x15
 2710 058b C9360000 		.4byte	.LASF178
 2711 058f 06       		.byte	0x6
 2712 0590 D0       		.byte	0xd0
 2713 0591 B7000000 		.4byte	0xb7
 2714 0595 04       		.byte	0x4
 2715 0596 00       		.byte	0
 2716 0597 13       		.uleb128 0x13
 2717 0598 352C0000 		.4byte	.LASF179
 2718 059c 06       		.byte	0x6
 2719 059d D2       		.byte	0xd2
 2720 059e 76050000 		.4byte	0x576
 2721 05a2 14       		.uleb128 0x14
 2722 05a3 08       		.byte	0x8
 2723 05a4 06       		.byte	0x6
 2724 05a5 D5       		.byte	0xd5
 2725 05a6 C3050000 		.4byte	0x5c3
 2726 05aa 15       		.uleb128 0x15
 2727 05ab 8A120000 		.4byte	.LASF180
 2728 05af 06       		.byte	0x6
 2729 05b0 D8       		.byte	0xd8
 2730 05b1 77000000 		.4byte	0x77
 2731 05b5 00       		.byte	0
 2732 05b6 15       		.uleb128 0x15
 2733 05b7 A9370000 		.4byte	.LASF181
 2734 05bb 06       		.byte	0x6
 2735 05bc DD       		.byte	0xdd
 2736 05bd C3050000 		.4byte	0x5c3
 2737 05c1 04       		.byte	0x4
 2738 05c2 00       		.byte	0
 2739 05c3 07       		.uleb128 0x7
 2740 05c4 04       		.byte	0x4
ARM GAS  C:\Windows\TEMP\cc5RoFpJ.s 			page 71


 2741 05c5 97050000 		.4byte	0x597
 2742 05c9 13       		.uleb128 0x13
 2743 05ca 1D360000 		.4byte	.LASF182
 2744 05ce 06       		.byte	0x6
 2745 05cf DF       		.byte	0xdf
 2746 05d0 A2050000 		.4byte	0x5a2
 2747 05d4 16       		.uleb128 0x16
 2748 05d5 08       		.byte	0x8
 2749 05d6 06       		.byte	0x6
 2750 05d7 E2       		.byte	0xe2
 2751 05d8 F3050000 		.4byte	0x5f3
 2752 05dc 17       		.uleb128 0x17
 2753 05dd BA370000 		.4byte	.LASF183
 2754 05e1 06       		.byte	0x6
 2755 05e2 E9       		.byte	0xe9
 2756 05e3 C9050000 		.4byte	0x5c9
 2757 05e7 17       		.uleb128 0x17
 2758 05e8 6E1F0000 		.4byte	.LASF184
 2759 05ec 06       		.byte	0x6
 2760 05ed EC       		.byte	0xec
 2761 05ee 77000000 		.4byte	0x77
 2762 05f2 00       		.byte	0
 2763 05f3 13       		.uleb128 0x13
 2764 05f4 C9350000 		.4byte	.LASF185
 2765 05f8 06       		.byte	0x6
 2766 05f9 EE       		.byte	0xee
 2767 05fa D4050000 		.4byte	0x5d4
 2768 05fe 14       		.uleb128 0x14
 2769 05ff 14       		.byte	0x14
 2770 0600 06       		.byte	0x6
 2771 0601 F1       		.byte	0xf1
 2772 0602 46060000 		.4byte	0x646
 2773 0606 15       		.uleb128 0x15
 2774 0607 FC100000 		.4byte	.LASF186
 2775 060b 06       		.byte	0x6
 2776 060c F4       		.byte	0xf4
 2777 060d 77000000 		.4byte	0x77
 2778 0611 00       		.byte	0
 2779 0612 15       		.uleb128 0x15
 2780 0613 D30D0000 		.4byte	.LASF187
 2781 0617 06       		.byte	0x6
 2782 0618 FA       		.byte	0xfa
 2783 0619 77000000 		.4byte	0x77
 2784 061d 02       		.byte	0x2
 2785 061e 11       		.uleb128 0x11
 2786 061f 38070000 		.4byte	.LASF188
 2787 0623 06       		.byte	0x6
 2788 0624 0501     		.2byte	0x105
 2789 0626 83000000 		.4byte	0x83
 2790 062a 04       		.byte	0x4
 2791 062b 11       		.uleb128 0x11
 2792 062c F2270000 		.4byte	.LASF189
 2793 0630 06       		.byte	0x6
 2794 0631 0801     		.2byte	0x108
 2795 0633 77000000 		.4byte	0x77
 2796 0637 08       		.byte	0x8
 2797 0638 11       		.uleb128 0x11
ARM GAS  C:\Windows\TEMP\cc5RoFpJ.s 			page 72


 2798 0639 CB310000 		.4byte	.LASF190
 2799 063d 06       		.byte	0x6
 2800 063e 1101     		.2byte	0x111
 2801 0640 F3050000 		.4byte	0x5f3
 2802 0644 0C       		.byte	0xc
 2803 0645 00       		.byte	0
 2804 0646 04       		.uleb128 0x4
 2805 0647 56160000 		.4byte	.LASF191
 2806 064b 06       		.byte	0x6
 2807 064c 1201     		.2byte	0x112
 2808 064e FE050000 		.4byte	0x5fe
 2809 0652 04       		.uleb128 0x4
 2810 0653 F2070000 		.4byte	.LASF192
 2811 0657 07       		.byte	0x7
 2812 0658 0302     		.2byte	0x203
 2813 065a B9000000 		.4byte	0xb9
 2814 065e 0F       		.uleb128 0xf
 2815 065f 01       		.byte	0x1
 2816 0660 2C000000 		.4byte	0x2c
 2817 0664 08       		.byte	0x8
 2818 0665 2A       		.byte	0x2a
 2819 0666 83060000 		.4byte	0x683
 2820 066a 0B       		.uleb128 0xb
 2821 066b 2A280000 		.4byte	.LASF193
 2822 066f 00       		.byte	0
 2823 0670 0B       		.uleb128 0xb
 2824 0671 7A030000 		.4byte	.LASF194
 2825 0675 01       		.byte	0x1
 2826 0676 0B       		.uleb128 0xb
 2827 0677 69090000 		.4byte	.LASF195
 2828 067b 02       		.byte	0x2
 2829 067c 0B       		.uleb128 0xb
 2830 067d 85280000 		.4byte	.LASF196
 2831 0681 03       		.byte	0x3
 2832 0682 00       		.byte	0
 2833 0683 13       		.uleb128 0x13
 2834 0684 BF2B0000 		.4byte	.LASF197
 2835 0688 08       		.byte	0x8
 2836 0689 2F       		.byte	0x2f
 2837 068a 5E060000 		.4byte	0x65e
 2838 068e 0F       		.uleb128 0xf
 2839 068f 01       		.byte	0x1
 2840 0690 2C000000 		.4byte	0x2c
 2841 0694 08       		.byte	0x8
 2842 0695 33       		.byte	0x33
 2843 0696 D1060000 		.4byte	0x6d1
 2844 069a 0B       		.uleb128 0xb
 2845 069b 5F400000 		.4byte	.LASF198
 2846 069f 00       		.byte	0
 2847 06a0 0B       		.uleb128 0xb
 2848 06a1 E01C0000 		.4byte	.LASF199
 2849 06a5 01       		.byte	0x1
 2850 06a6 0B       		.uleb128 0xb
 2851 06a7 652B0000 		.4byte	.LASF200
 2852 06ab 02       		.byte	0x2
 2853 06ac 0B       		.uleb128 0xb
 2854 06ad 01130000 		.4byte	.LASF201
ARM GAS  C:\Windows\TEMP\cc5RoFpJ.s 			page 73


 2855 06b1 03       		.byte	0x3
 2856 06b2 0B       		.uleb128 0xb
 2857 06b3 733E0000 		.4byte	.LASF202
 2858 06b7 04       		.byte	0x4
 2859 06b8 0B       		.uleb128 0xb
 2860 06b9 7B1E0000 		.4byte	.LASF203
 2861 06bd 05       		.byte	0x5
 2862 06be 0B       		.uleb128 0xb
 2863 06bf 6F400000 		.4byte	.LASF204
 2864 06c3 06       		.byte	0x6
 2865 06c4 0B       		.uleb128 0xb
 2866 06c5 CF190000 		.4byte	.LASF205
 2867 06c9 06       		.byte	0x6
 2868 06ca 0B       		.uleb128 0xb
 2869 06cb 7D410000 		.4byte	.LASF206
 2870 06cf 07       		.byte	0x7
 2871 06d0 00       		.byte	0
 2872 06d1 13       		.uleb128 0x13
 2873 06d2 033A0000 		.4byte	.LASF207
 2874 06d6 08       		.byte	0x8
 2875 06d7 3D       		.byte	0x3d
 2876 06d8 8E060000 		.4byte	0x68e
 2877 06dc 14       		.uleb128 0x14
 2878 06dd 10       		.byte	0x10
 2879 06de 08       		.byte	0x8
 2880 06df 42       		.byte	0x42
 2881 06e0 FD060000 		.4byte	0x6fd
 2882 06e4 15       		.uleb128 0x15
 2883 06e5 D7360000 		.4byte	.LASF208
 2884 06e9 08       		.byte	0x8
 2885 06ea 45       		.byte	0x45
 2886 06eb 8B040000 		.4byte	0x48b
 2887 06ef 00       		.byte	0
 2888 06f0 15       		.uleb128 0x15
 2889 06f1 BF090000 		.4byte	.LASF209
 2890 06f5 08       		.byte	0x8
 2891 06f6 48       		.byte	0x48
 2892 06f7 FD060000 		.4byte	0x6fd
 2893 06fb 02       		.byte	0x2
 2894 06fc 00       		.byte	0
 2895 06fd 0D       		.uleb128 0xd
 2896 06fe 8B040000 		.4byte	0x48b
 2897 0702 0D070000 		.4byte	0x70d
 2898 0706 0E       		.uleb128 0xe
 2899 0707 B0000000 		.4byte	0xb0
 2900 070b 06       		.byte	0x6
 2901 070c 00       		.byte	0
 2902 070d 13       		.uleb128 0x13
 2903 070e 190C0000 		.4byte	.LASF210
 2904 0712 08       		.byte	0x8
 2905 0713 49       		.byte	0x49
 2906 0714 DC060000 		.4byte	0x6dc
 2907 0718 14       		.uleb128 0x14
 2908 0719 04       		.byte	0x4
 2909 071a 08       		.byte	0x8
 2910 071b 4C       		.byte	0x4c
 2911 071c 2D070000 		.4byte	0x72d
ARM GAS  C:\Windows\TEMP\cc5RoFpJ.s 			page 74


 2912 0720 15       		.uleb128 0x15
 2913 0721 BF310000 		.4byte	.LASF211
 2914 0725 08       		.byte	0x8
 2915 0726 51       		.byte	0x51
 2916 0727 2D070000 		.4byte	0x72d
 2917 072b 00       		.byte	0
 2918 072c 00       		.byte	0
 2919 072d 07       		.uleb128 0x7
 2920 072e 04       		.byte	0x4
 2921 072f 0D070000 		.4byte	0x70d
 2922 0733 13       		.uleb128 0x13
 2923 0734 D4090000 		.4byte	.LASF212
 2924 0738 08       		.byte	0x8
 2925 0739 52       		.byte	0x52
 2926 073a 18070000 		.4byte	0x718
 2927 073e 14       		.uleb128 0x14
 2928 073f 10       		.byte	0x10
 2929 0740 08       		.byte	0x8
 2930 0741 55       		.byte	0x55
 2931 0742 5F070000 		.4byte	0x75f
 2932 0746 15       		.uleb128 0x15
 2933 0747 FD0C0000 		.4byte	.LASF213
 2934 074b 08       		.byte	0x8
 2935 074c 58       		.byte	0x58
 2936 074d 8B040000 		.4byte	0x48b
 2937 0751 00       		.byte	0
 2938 0752 15       		.uleb128 0x15
 2939 0753 A4140000 		.4byte	.LASF214
 2940 0757 08       		.byte	0x8
 2941 0758 5D       		.byte	0x5d
 2942 0759 5F070000 		.4byte	0x75f
 2943 075d 04       		.byte	0x4
 2944 075e 00       		.byte	0
 2945 075f 0D       		.uleb128 0xd
 2946 0760 33070000 		.4byte	0x733
 2947 0764 6F070000 		.4byte	0x76f
 2948 0768 0E       		.uleb128 0xe
 2949 0769 B0000000 		.4byte	0xb0
 2950 076d 02       		.byte	0x2
 2951 076e 00       		.byte	0
 2952 076f 13       		.uleb128 0x13
 2953 0770 95340000 		.4byte	.LASF215
 2954 0774 08       		.byte	0x8
 2955 0775 5F       		.byte	0x5f
 2956 0776 3E070000 		.4byte	0x73e
 2957 077a 14       		.uleb128 0x14
 2958 077b 0C       		.byte	0xc
 2959 077c 08       		.byte	0x8
 2960 077d 83       		.byte	0x83
 2961 077e BF070000 		.4byte	0x7bf
 2962 0782 15       		.uleb128 0x15
 2963 0783 F3320000 		.4byte	.LASF174
 2964 0787 08       		.byte	0x8
 2965 0788 85       		.byte	0x85
 2966 0789 BB040000 		.4byte	0x4bb
 2967 078d 00       		.byte	0
 2968 078e 15       		.uleb128 0x15
ARM GAS  C:\Windows\TEMP\cc5RoFpJ.s 			page 75


 2969 078f AF010000 		.4byte	.LASF216
 2970 0793 08       		.byte	0x8
 2971 0794 86       		.byte	0x86
 2972 0795 83060000 		.4byte	0x683
 2973 0799 02       		.byte	0x2
 2974 079a 15       		.uleb128 0x15
 2975 079b 7E130000 		.4byte	.LASF217
 2976 079f 08       		.byte	0x8
 2977 07a0 87       		.byte	0x87
 2978 07a1 6B000000 		.4byte	0x6b
 2979 07a5 03       		.byte	0x3
 2980 07a6 15       		.uleb128 0x15
 2981 07a7 79310000 		.4byte	.LASF169
 2982 07ab 08       		.byte	0x8
 2983 07ac 88       		.byte	0x88
 2984 07ad BF070000 		.4byte	0x7bf
 2985 07b1 04       		.byte	0x4
 2986 07b2 15       		.uleb128 0x15
 2987 07b3 B7210000 		.4byte	.LASF218
 2988 07b7 08       		.byte	0x8
 2989 07b8 89       		.byte	0x89
 2990 07b9 7F040000 		.4byte	0x47f
 2991 07bd 08       		.byte	0x8
 2992 07be 00       		.byte	0
 2993 07bf 07       		.uleb128 0x7
 2994 07c0 04       		.byte	0x4
 2995 07c1 F8040000 		.4byte	0x4f8
 2996 07c5 13       		.uleb128 0x13
 2997 07c6 E3430000 		.4byte	.LASF219
 2998 07ca 08       		.byte	0x8
 2999 07cb 8A       		.byte	0x8a
 3000 07cc 7A070000 		.4byte	0x77a
 3001 07d0 14       		.uleb128 0x14
 3002 07d1 0C       		.byte	0xc
 3003 07d2 08       		.byte	0x8
 3004 07d3 8D       		.byte	0x8d
 3005 07d4 21080000 		.4byte	0x821
 3006 07d8 15       		.uleb128 0x15
 3007 07d9 F3320000 		.4byte	.LASF174
 3008 07dd 08       		.byte	0x8
 3009 07de 8F       		.byte	0x8f
 3010 07df BB040000 		.4byte	0x4bb
 3011 07e3 00       		.byte	0
 3012 07e4 15       		.uleb128 0x15
 3013 07e5 AF010000 		.4byte	.LASF216
 3014 07e9 08       		.byte	0x8
 3015 07ea 90       		.byte	0x90
 3016 07eb 83060000 		.4byte	0x683
 3017 07ef 02       		.byte	0x2
 3018 07f0 15       		.uleb128 0x15
 3019 07f1 7E130000 		.4byte	.LASF217
 3020 07f5 08       		.byte	0x8
 3021 07f6 91       		.byte	0x91
 3022 07f7 6B000000 		.4byte	0x6b
 3023 07fb 03       		.byte	0x3
 3024 07fc 15       		.uleb128 0x15
 3025 07fd 52270000 		.4byte	.LASF220
ARM GAS  C:\Windows\TEMP\cc5RoFpJ.s 			page 76


 3026 0801 08       		.byte	0x8
 3027 0802 92       		.byte	0x92
 3028 0803 D1060000 		.4byte	0x6d1
 3029 0807 04       		.byte	0x4
 3030 0808 15       		.uleb128 0x15
 3031 0809 B7210000 		.4byte	.LASF218
 3032 080d 08       		.byte	0x8
 3033 080e 93       		.byte	0x93
 3034 080f 7F040000 		.4byte	0x47f
 3035 0813 05       		.byte	0x5
 3036 0814 15       		.uleb128 0x15
 3037 0815 79310000 		.4byte	.LASF169
 3038 0819 08       		.byte	0x8
 3039 081a 94       		.byte	0x94
 3040 081b BF070000 		.4byte	0x7bf
 3041 081f 08       		.byte	0x8
 3042 0820 00       		.byte	0
 3043 0821 13       		.uleb128 0x13
 3044 0822 D9250000 		.4byte	.LASF221
 3045 0826 08       		.byte	0x8
 3046 0827 95       		.byte	0x95
 3047 0828 D0070000 		.4byte	0x7d0
 3048 082c 0F       		.uleb128 0xf
 3049 082d 02       		.byte	0x2
 3050 082e 3A000000 		.4byte	0x3a
 3051 0832 09       		.byte	0x9
 3052 0833 B1       		.byte	0xb1
 3053 0834 35100000 		.4byte	0x1035
 3054 0838 0C       		.uleb128 0xc
 3055 0839 5E290000 		.4byte	.LASF222
 3056 083d 0001     		.2byte	0x100
 3057 083f 0C       		.uleb128 0xc
 3058 0840 37410000 		.4byte	.LASF223
 3059 0844 0101     		.2byte	0x101
 3060 0846 0C       		.uleb128 0xc
 3061 0847 DB0B0000 		.4byte	.LASF224
 3062 084b 0201     		.2byte	0x102
 3063 084d 0C       		.uleb128 0xc
 3064 084e ED400000 		.4byte	.LASF225
 3065 0852 0301     		.2byte	0x103
 3066 0854 0C       		.uleb128 0xc
 3067 0855 45300000 		.4byte	.LASF226
 3068 0859 0401     		.2byte	0x104
 3069 085b 0C       		.uleb128 0xc
 3070 085c D03B0000 		.4byte	.LASF227
 3071 0860 0501     		.2byte	0x105
 3072 0862 0C       		.uleb128 0xc
 3073 0863 06110000 		.4byte	.LASF228
 3074 0867 0601     		.2byte	0x106
 3075 0869 0C       		.uleb128 0xc
 3076 086a 03390000 		.4byte	.LASF229
 3077 086e 0701     		.2byte	0x107
 3078 0870 0C       		.uleb128 0xc
 3079 0871 D53E0000 		.4byte	.LASF230
 3080 0875 0801     		.2byte	0x108
 3081 0877 0C       		.uleb128 0xc
 3082 0878 07060000 		.4byte	.LASF231
ARM GAS  C:\Windows\TEMP\cc5RoFpJ.s 			page 77


 3083 087c 0901     		.2byte	0x109
 3084 087e 0C       		.uleb128 0xc
 3085 087f 93030000 		.4byte	.LASF232
 3086 0883 0A01     		.2byte	0x10a
 3087 0885 0C       		.uleb128 0xc
 3088 0886 82320000 		.4byte	.LASF233
 3089 088a 0B01     		.2byte	0x10b
 3090 088c 0C       		.uleb128 0xc
 3091 088d 02230000 		.4byte	.LASF234
 3092 0891 0C01     		.2byte	0x10c
 3093 0893 0C       		.uleb128 0xc
 3094 0894 B92E0000 		.4byte	.LASF235
 3095 0898 0D01     		.2byte	0x10d
 3096 089a 0C       		.uleb128 0xc
 3097 089b 62040000 		.4byte	.LASF236
 3098 089f 0E01     		.2byte	0x10e
 3099 08a1 0C       		.uleb128 0xc
 3100 08a2 B4120000 		.4byte	.LASF237
 3101 08a6 0F01     		.2byte	0x10f
 3102 08a8 0C       		.uleb128 0xc
 3103 08a9 56080000 		.4byte	.LASF238
 3104 08ad 1001     		.2byte	0x110
 3105 08af 0C       		.uleb128 0xc
 3106 08b0 8E3C0000 		.4byte	.LASF239
 3107 08b4 1101     		.2byte	0x111
 3108 08b6 0C       		.uleb128 0xc
 3109 08b7 360E0000 		.4byte	.LASF240
 3110 08bb 1201     		.2byte	0x112
 3111 08bd 0C       		.uleb128 0xc
 3112 08be BD430000 		.4byte	.LASF241
 3113 08c2 1301     		.2byte	0x113
 3114 08c4 0C       		.uleb128 0xc
 3115 08c5 23310000 		.4byte	.LASF242
 3116 08c9 1401     		.2byte	0x114
 3117 08cb 0C       		.uleb128 0xc
 3118 08cc 900D0000 		.4byte	.LASF243
 3119 08d0 1501     		.2byte	0x115
 3120 08d2 0C       		.uleb128 0xc
 3121 08d3 4F2F0000 		.4byte	.LASF244
 3122 08d7 1601     		.2byte	0x116
 3123 08d9 0C       		.uleb128 0xc
 3124 08da 67320000 		.4byte	.LASF245
 3125 08de 1701     		.2byte	0x117
 3126 08e0 0C       		.uleb128 0xc
 3127 08e1 F13A0000 		.4byte	.LASF246
 3128 08e5 1801     		.2byte	0x118
 3129 08e7 0C       		.uleb128 0xc
 3130 08e8 FF010000 		.4byte	.LASF247
 3131 08ec 1901     		.2byte	0x119
 3132 08ee 0C       		.uleb128 0xc
 3133 08ef 63130000 		.4byte	.LASF248
 3134 08f3 1A01     		.2byte	0x11a
 3135 08f5 0C       		.uleb128 0xc
 3136 08f6 442D0000 		.4byte	.LASF249
 3137 08fa 1B01     		.2byte	0x11b
 3138 08fc 0C       		.uleb128 0xc
 3139 08fd C9370000 		.4byte	.LASF250
ARM GAS  C:\Windows\TEMP\cc5RoFpJ.s 			page 78


 3140 0901 1C01     		.2byte	0x11c
 3141 0903 0C       		.uleb128 0xc
 3142 0904 461B0000 		.4byte	.LASF251
 3143 0908 1D01     		.2byte	0x11d
 3144 090a 0C       		.uleb128 0xc
 3145 090b 39290000 		.4byte	.LASF252
 3146 090f 1E01     		.2byte	0x11e
 3147 0911 0C       		.uleb128 0xc
 3148 0912 44130000 		.4byte	.LASF253
 3149 0916 1F01     		.2byte	0x11f
 3150 0918 0C       		.uleb128 0xc
 3151 0919 F3110000 		.4byte	.LASF254
 3152 091d 2001     		.2byte	0x120
 3153 091f 0C       		.uleb128 0xc
 3154 0920 CD320000 		.4byte	.LASF255
 3155 0924 2101     		.2byte	0x121
 3156 0926 0C       		.uleb128 0xc
 3157 0927 E13F0000 		.4byte	.LASF256
 3158 092b 2201     		.2byte	0x122
 3159 092d 0C       		.uleb128 0xc
 3160 092e AC360000 		.4byte	.LASF257
 3161 0932 2301     		.2byte	0x123
 3162 0934 0C       		.uleb128 0xc
 3163 0935 D2420000 		.4byte	.LASF258
 3164 0939 2401     		.2byte	0x124
 3165 093b 0C       		.uleb128 0xc
 3166 093c 04270000 		.4byte	.LASF259
 3167 0940 2501     		.2byte	0x125
 3168 0942 0C       		.uleb128 0xc
 3169 0943 57170000 		.4byte	.LASF260
 3170 0947 2601     		.2byte	0x126
 3171 0949 0C       		.uleb128 0xc
 3172 094a C0380000 		.4byte	.LASF261
 3173 094e 2701     		.2byte	0x127
 3174 0950 0C       		.uleb128 0xc
 3175 0951 842A0000 		.4byte	.LASF262
 3176 0955 2801     		.2byte	0x128
 3177 0957 0C       		.uleb128 0xc
 3178 0958 35430000 		.4byte	.LASF263
 3179 095c 2901     		.2byte	0x129
 3180 095e 0C       		.uleb128 0xc
 3181 095f 4B390000 		.4byte	.LASF264
 3182 0963 2A01     		.2byte	0x12a
 3183 0965 0C       		.uleb128 0xc
 3184 0966 FD410000 		.4byte	.LASF265
 3185 096a 2B01     		.2byte	0x12b
 3186 096c 0C       		.uleb128 0xc
 3187 096d C21E0000 		.4byte	.LASF266
 3188 0971 2C01     		.2byte	0x12c
 3189 0973 0C       		.uleb128 0xc
 3190 0974 583F0000 		.4byte	.LASF267
 3191 0978 2D01     		.2byte	0x12d
 3192 097a 0C       		.uleb128 0xc
 3193 097b 2D050000 		.4byte	.LASF268
 3194 097f 2E01     		.2byte	0x12e
 3195 0981 0C       		.uleb128 0xc
 3196 0982 CD2F0000 		.4byte	.LASF269
ARM GAS  C:\Windows\TEMP\cc5RoFpJ.s 			page 79


 3197 0986 2F01     		.2byte	0x12f
 3198 0988 0C       		.uleb128 0xc
 3199 0989 9F1F0000 		.4byte	.LASF270
 3200 098d 3001     		.2byte	0x130
 3201 098f 0C       		.uleb128 0xc
 3202 0990 0B330000 		.4byte	.LASF271
 3203 0994 3101     		.2byte	0x131
 3204 0996 0C       		.uleb128 0xc
 3205 0997 FF2D0000 		.4byte	.LASF272
 3206 099b 3201     		.2byte	0x132
 3207 099d 0C       		.uleb128 0xc
 3208 099e 2A3B0000 		.4byte	.LASF273
 3209 09a2 3301     		.2byte	0x133
 3210 09a4 0C       		.uleb128 0xc
 3211 09a5 130F0000 		.4byte	.LASF274
 3212 09a9 3401     		.2byte	0x134
 3213 09ab 0C       		.uleb128 0xc
 3214 09ac DF380000 		.4byte	.LASF275
 3215 09b0 3501     		.2byte	0x135
 3216 09b2 0C       		.uleb128 0xc
 3217 09b3 82190000 		.4byte	.LASF276
 3218 09b7 3601     		.2byte	0x136
 3219 09b9 0C       		.uleb128 0xc
 3220 09ba 620C0000 		.4byte	.LASF277
 3221 09be 3701     		.2byte	0x137
 3222 09c0 0C       		.uleb128 0xc
 3223 09c1 DF030000 		.4byte	.LASF278
 3224 09c5 3801     		.2byte	0x138
 3225 09c7 0C       		.uleb128 0xc
 3226 09c8 03040000 		.4byte	.LASF279
 3227 09cc 3901     		.2byte	0x139
 3228 09ce 0C       		.uleb128 0xc
 3229 09cf ED000000 		.4byte	.LASF280
 3230 09d3 3A01     		.2byte	0x13a
 3231 09d5 0C       		.uleb128 0xc
 3232 09d6 CC0E0000 		.4byte	.LASF281
 3233 09da 3B01     		.2byte	0x13b
 3234 09dc 0C       		.uleb128 0xc
 3235 09dd 59410000 		.4byte	.LASF282
 3236 09e1 3C01     		.2byte	0x13c
 3237 09e3 0C       		.uleb128 0xc
 3238 09e4 B4070000 		.4byte	.LASF283
 3239 09e8 3D01     		.2byte	0x13d
 3240 09ea 0C       		.uleb128 0xc
 3241 09eb 9B280000 		.4byte	.LASF284
 3242 09ef 3E01     		.2byte	0x13e
 3243 09f1 0C       		.uleb128 0xc
 3244 09f2 64360000 		.4byte	.LASF285
 3245 09f6 3F01     		.2byte	0x13f
 3246 09f8 0C       		.uleb128 0xc
 3247 09f9 A1160000 		.4byte	.LASF286
 3248 09fd 4001     		.2byte	0x140
 3249 09ff 0C       		.uleb128 0xc
 3250 0a00 A6290000 		.4byte	.LASF287
 3251 0a04 4101     		.2byte	0x141
 3252 0a06 0C       		.uleb128 0xc
 3253 0a07 2C190000 		.4byte	.LASF288
ARM GAS  C:\Windows\TEMP\cc5RoFpJ.s 			page 80


 3254 0a0b 4201     		.2byte	0x142
 3255 0a0d 0C       		.uleb128 0xc
 3256 0a0e D6070000 		.4byte	.LASF289
 3257 0a12 4301     		.2byte	0x143
 3258 0a14 0C       		.uleb128 0xc
 3259 0a15 D8020000 		.4byte	.LASF290
 3260 0a19 4401     		.2byte	0x144
 3261 0a1b 0C       		.uleb128 0xc
 3262 0a1c 5F0A0000 		.4byte	.LASF291
 3263 0a20 4501     		.2byte	0x145
 3264 0a22 0C       		.uleb128 0xc
 3265 0a23 9B310000 		.4byte	.LASF292
 3266 0a27 4601     		.2byte	0x146
 3267 0a29 0C       		.uleb128 0xc
 3268 0a2a 8F370000 		.4byte	.LASF293
 3269 0a2e 4701     		.2byte	0x147
 3270 0a30 0C       		.uleb128 0xc
 3271 0a31 47090000 		.4byte	.LASF294
 3272 0a35 4801     		.2byte	0x148
 3273 0a37 0C       		.uleb128 0xc
 3274 0a38 3D280000 		.4byte	.LASF295
 3275 0a3c 4901     		.2byte	0x149
 3276 0a3e 0C       		.uleb128 0xc
 3277 0a3f 153C0000 		.4byte	.LASF296
 3278 0a43 4A01     		.2byte	0x14a
 3279 0a45 0C       		.uleb128 0xc
 3280 0a46 D4230000 		.4byte	.LASF297
 3281 0a4a 4B01     		.2byte	0x14b
 3282 0a4c 0C       		.uleb128 0xc
 3283 0a4d 6A3C0000 		.4byte	.LASF298
 3284 0a51 4C01     		.2byte	0x14c
 3285 0a53 0C       		.uleb128 0xc
 3286 0a54 160A0000 		.4byte	.LASF299
 3287 0a58 4D01     		.2byte	0x14d
 3288 0a5a 0C       		.uleb128 0xc
 3289 0a5b EA2C0000 		.4byte	.LASF300
 3290 0a5f 4E01     		.2byte	0x14e
 3291 0a61 0C       		.uleb128 0xc
 3292 0a62 4D3E0000 		.4byte	.LASF301
 3293 0a66 4F01     		.2byte	0x14f
 3294 0a68 0C       		.uleb128 0xc
 3295 0a69 B13C0000 		.4byte	.LASF302
 3296 0a6d 5001     		.2byte	0x150
 3297 0a6f 0C       		.uleb128 0xc
 3298 0a70 2E010000 		.4byte	.LASF303
 3299 0a74 5101     		.2byte	0x151
 3300 0a76 0C       		.uleb128 0xc
 3301 0a77 41380000 		.4byte	.LASF304
 3302 0a7b 5201     		.2byte	0x152
 3303 0a7d 0C       		.uleb128 0xc
 3304 0a7e 77200000 		.4byte	.LASF305
 3305 0a82 5301     		.2byte	0x153
 3306 0a84 0C       		.uleb128 0xc
 3307 0a85 E2360000 		.4byte	.LASF306
 3308 0a89 5401     		.2byte	0x154
 3309 0a8b 0C       		.uleb128 0xc
 3310 0a8c 2D340000 		.4byte	.LASF307
ARM GAS  C:\Windows\TEMP\cc5RoFpJ.s 			page 81


 3311 0a90 5501     		.2byte	0x155
 3312 0a92 0C       		.uleb128 0xc
 3313 0a93 83020000 		.4byte	.LASF308
 3314 0a97 5601     		.2byte	0x156
 3315 0a99 0C       		.uleb128 0xc
 3316 0a9a 4B330000 		.4byte	.LASF309
 3317 0a9e 5701     		.2byte	0x157
 3318 0aa0 0C       		.uleb128 0xc
 3319 0aa1 36100000 		.4byte	.LASF310
 3320 0aa5 5801     		.2byte	0x158
 3321 0aa7 0C       		.uleb128 0xc
 3322 0aa8 A50A0000 		.4byte	.LASF311
 3323 0aac 5901     		.2byte	0x159
 3324 0aae 0C       		.uleb128 0xc
 3325 0aaf 820A0000 		.4byte	.LASF312
 3326 0ab3 5A01     		.2byte	0x15a
 3327 0ab5 0C       		.uleb128 0xc
 3328 0ab6 12100000 		.4byte	.LASF313
 3329 0aba 5B01     		.2byte	0x15b
 3330 0abc 0C       		.uleb128 0xc
 3331 0abd ED210000 		.4byte	.LASF314
 3332 0ac1 5C01     		.2byte	0x15c
 3333 0ac3 0C       		.uleb128 0xc
 3334 0ac4 16400000 		.4byte	.LASF315
 3335 0ac8 5D01     		.2byte	0x15d
 3336 0aca 0C       		.uleb128 0xc
 3337 0acb C7150000 		.4byte	.LASF316
 3338 0acf 5E01     		.2byte	0x15e
 3339 0ad1 0C       		.uleb128 0xc
 3340 0ad2 7F310000 		.4byte	.LASF317
 3341 0ad6 5F01     		.2byte	0x15f
 3342 0ad8 0C       		.uleb128 0xc
 3343 0ad9 A52B0000 		.4byte	.LASF318
 3344 0add 6001     		.2byte	0x160
 3345 0adf 0C       		.uleb128 0xc
 3346 0ae0 3E020000 		.4byte	.LASF319
 3347 0ae4 6101     		.2byte	0x161
 3348 0ae6 0C       		.uleb128 0xc
 3349 0ae7 01200000 		.4byte	.LASF320
 3350 0aeb 6201     		.2byte	0x162
 3351 0aed 0C       		.uleb128 0xc
 3352 0aee 49010000 		.4byte	.LASF321
 3353 0af2 6301     		.2byte	0x163
 3354 0af4 0C       		.uleb128 0xc
 3355 0af5 090B0000 		.4byte	.LASF322
 3356 0af9 6401     		.2byte	0x164
 3357 0afb 0C       		.uleb128 0xc
 3358 0afc 113D0000 		.4byte	.LASF323
 3359 0b00 6501     		.2byte	0x165
 3360 0b02 0C       		.uleb128 0xc
 3361 0b03 DE180000 		.4byte	.LASF324
 3362 0b07 6601     		.2byte	0x166
 3363 0b09 0C       		.uleb128 0xc
 3364 0b0a D4170000 		.4byte	.LASF325
 3365 0b0e 6701     		.2byte	0x167
 3366 0b10 0C       		.uleb128 0xc
 3367 0b11 15070000 		.4byte	.LASF326
ARM GAS  C:\Windows\TEMP\cc5RoFpJ.s 			page 82


 3368 0b15 6801     		.2byte	0x168
 3369 0b17 0C       		.uleb128 0xc
 3370 0b18 930B0000 		.4byte	.LASF327
 3371 0b1c 6901     		.2byte	0x169
 3372 0b1e 0C       		.uleb128 0xc
 3373 0b1f 62250000 		.4byte	.LASF328
 3374 0b23 6A01     		.2byte	0x16a
 3375 0b25 0C       		.uleb128 0xc
 3376 0b26 31210000 		.4byte	.LASF329
 3377 0b2a 6B01     		.2byte	0x16b
 3378 0b2c 0C       		.uleb128 0xc
 3379 0b2d D5080000 		.4byte	.LASF330
 3380 0b31 6C01     		.2byte	0x16c
 3381 0b33 0C       		.uleb128 0xc
 3382 0b34 03080000 		.4byte	.LASF331
 3383 0b38 6D01     		.2byte	0x16d
 3384 0b3a 0C       		.uleb128 0xc
 3385 0b3b 60020000 		.4byte	.LASF332
 3386 0b3f 6E01     		.2byte	0x16e
 3387 0b41 0C       		.uleb128 0xc
 3388 0b42 EC200000 		.4byte	.LASF333
 3389 0b46 6F01     		.2byte	0x16f
 3390 0b48 0C       		.uleb128 0xc
 3391 0b49 A7420000 		.4byte	.LASF334
 3392 0b4d 7001     		.2byte	0x170
 3393 0b4f 0C       		.uleb128 0xc
 3394 0b50 A21A0000 		.4byte	.LASF335
 3395 0b54 7101     		.2byte	0x171
 3396 0b56 0C       		.uleb128 0xc
 3397 0b57 FA170000 		.4byte	.LASF336
 3398 0b5b 7201     		.2byte	0x172
 3399 0b5d 0C       		.uleb128 0xc
 3400 0b5e 60280000 		.4byte	.LASF337
 3401 0b62 7301     		.2byte	0x173
 3402 0b64 0C       		.uleb128 0xc
 3403 0b65 E9390000 		.4byte	.LASF338
 3404 0b69 7401     		.2byte	0x174
 3405 0b6b 0C       		.uleb128 0xc
 3406 0b6c F0310000 		.4byte	.LASF339
 3407 0b70 7501     		.2byte	0x175
 3408 0b72 0C       		.uleb128 0xc
 3409 0b73 40040000 		.4byte	.LASF340
 3410 0b77 7601     		.2byte	0x176
 3411 0b79 0C       		.uleb128 0xc
 3412 0b7a AF300000 		.4byte	.LASF341
 3413 0b7e 7701     		.2byte	0x177
 3414 0b80 0C       		.uleb128 0xc
 3415 0b81 2D150000 		.4byte	.LASF342
 3416 0b85 7801     		.2byte	0x178
 3417 0b87 0C       		.uleb128 0xc
 3418 0b88 C31F0000 		.4byte	.LASF343
 3419 0b8c 7901     		.2byte	0x179
 3420 0b8e 0C       		.uleb128 0xc
 3421 0b8f F52B0000 		.4byte	.LASF344
 3422 0b93 7A01     		.2byte	0x17a
 3423 0b95 0C       		.uleb128 0xc
 3424 0b96 8C350000 		.4byte	.LASF345
ARM GAS  C:\Windows\TEMP\cc5RoFpJ.s 			page 83


 3425 0b9a 7B01     		.2byte	0x17b
 3426 0b9c 0C       		.uleb128 0xc
 3427 0b9d 31160000 		.4byte	.LASF346
 3428 0ba1 7C01     		.2byte	0x17c
 3429 0ba3 0C       		.uleb128 0xc
 3430 0ba4 0D260000 		.4byte	.LASF347
 3431 0ba8 7D01     		.2byte	0x17d
 3432 0baa 0C       		.uleb128 0xc
 3433 0bab 20240000 		.4byte	.LASF348
 3434 0baf 7E01     		.2byte	0x17e
 3435 0bb1 0C       		.uleb128 0xc
 3436 0bb2 E4280000 		.4byte	.LASF349
 3437 0bb6 7F01     		.2byte	0x17f
 3438 0bb8 0C       		.uleb128 0xc
 3439 0bb9 58350000 		.4byte	.LASF350
 3440 0bbd 8001     		.2byte	0x180
 3441 0bbf 0C       		.uleb128 0xc
 3442 0bc0 F2250000 		.4byte	.LASF351
 3443 0bc4 8101     		.2byte	0x181
 3444 0bc6 0C       		.uleb128 0xc
 3445 0bc7 74260000 		.4byte	.LASF352
 3446 0bcb 8201     		.2byte	0x182
 3447 0bcd 0C       		.uleb128 0xc
 3448 0bce 3D170000 		.4byte	.LASF353
 3449 0bd2 8301     		.2byte	0x183
 3450 0bd4 0C       		.uleb128 0xc
 3451 0bd5 DB0D0000 		.4byte	.LASF354
 3452 0bd9 8401     		.2byte	0x184
 3453 0bdb 0C       		.uleb128 0xc
 3454 0bdc 9D380000 		.4byte	.LASF355
 3455 0be0 8501     		.2byte	0x185
 3456 0be2 0C       		.uleb128 0xc
 3457 0be3 FC1B0000 		.4byte	.LASF356
 3458 0be7 8601     		.2byte	0x186
 3459 0be9 0C       		.uleb128 0xc
 3460 0bea 920C0000 		.4byte	.LASF357
 3461 0bee 8701     		.2byte	0x187
 3462 0bf0 0C       		.uleb128 0xc
 3463 0bf1 29390000 		.4byte	.LASF358
 3464 0bf5 8801     		.2byte	0x188
 3465 0bf7 0C       		.uleb128 0xc
 3466 0bf8 24320000 		.4byte	.LASF359
 3467 0bfc 8901     		.2byte	0x189
 3468 0bfe 0C       		.uleb128 0xc
 3469 0bff 13300000 		.4byte	.LASF360
 3470 0c03 8A01     		.2byte	0x18a
 3471 0c05 0C       		.uleb128 0xc
 3472 0c06 23230000 		.4byte	.LASF361
 3473 0c0a 8B01     		.2byte	0x18b
 3474 0c0c 0C       		.uleb128 0xc
 3475 0c0d A8020000 		.4byte	.LASF362
 3476 0c11 8C01     		.2byte	0x18c
 3477 0c13 0C       		.uleb128 0xc
 3478 0c14 AC2C0000 		.4byte	.LASF363
 3479 0c18 8D01     		.2byte	0x18d
 3480 0c1a 0C       		.uleb128 0xc
 3481 0c1b FC3F0000 		.4byte	.LASF364
ARM GAS  C:\Windows\TEMP\cc5RoFpJ.s 			page 84


 3482 0c1f 8E01     		.2byte	0x18e
 3483 0c21 0C       		.uleb128 0xc
 3484 0c22 4C3B0000 		.4byte	.LASF365
 3485 0c26 8F01     		.2byte	0x18f
 3486 0c28 0C       		.uleb128 0xc
 3487 0c29 32220000 		.4byte	.LASF366
 3488 0c2d 9001     		.2byte	0x190
 3489 0c2f 0C       		.uleb128 0xc
 3490 0c30 57030000 		.4byte	.LASF367
 3491 0c34 9101     		.2byte	0x191
 3492 0c36 0C       		.uleb128 0xc
 3493 0c37 E1130000 		.4byte	.LASF368
 3494 0c3b 9201     		.2byte	0x192
 3495 0c3d 0C       		.uleb128 0xc
 3496 0c3e CC3C0000 		.4byte	.LASF369
 3497 0c42 9301     		.2byte	0x193
 3498 0c44 0C       		.uleb128 0xc
 3499 0c45 74430000 		.4byte	.LASF370
 3500 0c49 9401     		.2byte	0x194
 3501 0c4b 0C       		.uleb128 0xc
 3502 0c4c B5260000 		.4byte	.LASF371
 3503 0c50 9501     		.2byte	0x195
 3504 0c52 0C       		.uleb128 0xc
 3505 0c53 3B420000 		.4byte	.LASF372
 3506 0c57 9601     		.2byte	0x196
 3507 0c59 0C       		.uleb128 0xc
 3508 0c5a 52260000 		.4byte	.LASF373
 3509 0c5e 9701     		.2byte	0x197
 3510 0c60 0C       		.uleb128 0xc
 3511 0c61 800E0000 		.4byte	.LASF374
 3512 0c65 9801     		.2byte	0x198
 3513 0c67 0C       		.uleb128 0xc
 3514 0c68 391C0000 		.4byte	.LASF375
 3515 0c6c 9901     		.2byte	0x199
 3516 0c6e 0C       		.uleb128 0xc
 3517 0c6f 60190000 		.4byte	.LASF376
 3518 0c73 9A01     		.2byte	0x19a
 3519 0c75 0C       		.uleb128 0xc
 3520 0c76 FD0D0000 		.4byte	.LASF377
 3521 0c7a 9B01     		.2byte	0x19b
 3522 0c7c 0C       		.uleb128 0xc
 3523 0c7d 51340000 		.4byte	.LASF378
 3524 0c81 9C01     		.2byte	0x19c
 3525 0c83 0C       		.uleb128 0xc
 3526 0c84 291D0000 		.4byte	.LASF379
 3527 0c88 9D01     		.2byte	0x19d
 3528 0c8a 0C       		.uleb128 0xc
 3529 0c8b AD2D0000 		.4byte	.LASF380
 3530 0c8f 9E01     		.2byte	0x19e
 3531 0c91 0C       		.uleb128 0xc
 3532 0c92 E4040000 		.4byte	.LASF381
 3533 0c96 9F01     		.2byte	0x19f
 3534 0c98 0C       		.uleb128 0xc
 3535 0c99 21110000 		.4byte	.LASF382
 3536 0c9d A001     		.2byte	0x1a0
 3537 0c9f 0C       		.uleb128 0xc
 3538 0ca0 F92E0000 		.4byte	.LASF383
ARM GAS  C:\Windows\TEMP\cc5RoFpJ.s 			page 85


 3539 0ca4 A101     		.2byte	0x1a1
 3540 0ca6 0C       		.uleb128 0xc
 3541 0ca7 46190000 		.4byte	.LASF384
 3542 0cab A201     		.2byte	0x1a2
 3543 0cad 0C       		.uleb128 0xc
 3544 0cae D1210000 		.4byte	.LASF385
 3545 0cb2 A301     		.2byte	0x1a3
 3546 0cb4 0C       		.uleb128 0xc
 3547 0cb5 6F230000 		.4byte	.LASF386
 3548 0cb9 A401     		.2byte	0x1a4
 3549 0cbb 0C       		.uleb128 0xc
 3550 0cbc C6390000 		.4byte	.LASF387
 3551 0cc0 A501     		.2byte	0x1a5
 3552 0cc2 0C       		.uleb128 0xc
 3553 0cc3 C5160000 		.4byte	.LASF388
 3554 0cc7 A601     		.2byte	0x1a6
 3555 0cc9 0C       		.uleb128 0xc
 3556 0cca 342A0000 		.4byte	.LASF389
 3557 0cce A701     		.2byte	0x1a7
 3558 0cd0 0C       		.uleb128 0xc
 3559 0cd1 E1150000 		.4byte	.LASF390
 3560 0cd5 A801     		.2byte	0x1a8
 3561 0cd7 0C       		.uleb128 0xc
 3562 0cd8 6A1B0000 		.4byte	.LASF391
 3563 0cdc A901     		.2byte	0x1a9
 3564 0cde 0C       		.uleb128 0xc
 3565 0cdf 20440000 		.4byte	.LASF392
 3566 0ce3 AA01     		.2byte	0x1aa
 3567 0ce5 0C       		.uleb128 0xc
 3568 0ce6 0F2D0000 		.4byte	.LASF393
 3569 0cea AB01     		.2byte	0x1ab
 3570 0cec 0C       		.uleb128 0xc
 3571 0ced DD2D0000 		.4byte	.LASF394
 3572 0cf1 AC01     		.2byte	0x1ac
 3573 0cf3 0C       		.uleb128 0xc
 3574 0cf4 92080000 		.4byte	.LASF395
 3575 0cf8 AD01     		.2byte	0x1ad
 3576 0cfa 0C       		.uleb128 0xc
 3577 0cfb BB180000 		.4byte	.LASF396
 3578 0cff AE01     		.2byte	0x1ae
 3579 0d01 0C       		.uleb128 0xc
 3580 0d02 02350000 		.4byte	.LASF397
 3581 0d06 AF01     		.2byte	0x1af
 3582 0d08 0C       		.uleb128 0xc
 3583 0d09 0B0D0000 		.4byte	.LASF398
 3584 0d0d B001     		.2byte	0x1b0
 3585 0d0f 0C       		.uleb128 0xc
 3586 0d10 68000000 		.4byte	.LASF399
 3587 0d14 B101     		.2byte	0x1b1
 3588 0d16 0C       		.uleb128 0xc
 3589 0d17 AC3A0000 		.4byte	.LASF400
 3590 0d1b B201     		.2byte	0x1b2
 3591 0d1d 0C       		.uleb128 0xc
 3592 0d1e 3F140000 		.4byte	.LASF401
 3593 0d22 B301     		.2byte	0x1b3
 3594 0d24 0C       		.uleb128 0xc
 3595 0d25 99430000 		.4byte	.LASF402
ARM GAS  C:\Windows\TEMP\cc5RoFpJ.s 			page 86


 3596 0d29 B401     		.2byte	0x1b4
 3597 0d2b 0C       		.uleb128 0xc
 3598 0d2c 231F0000 		.4byte	.LASF403
 3599 0d30 B501     		.2byte	0x1b5
 3600 0d32 0C       		.uleb128 0xc
 3601 0d33 A0220000 		.4byte	.LASF404
 3602 0d37 B601     		.2byte	0x1b6
 3603 0d39 0C       		.uleb128 0xc
 3604 0d3a 5A430000 		.4byte	.LASF405
 3605 0d3e B701     		.2byte	0x1b7
 3606 0d40 0C       		.uleb128 0xc
 3607 0d41 0C370000 		.4byte	.LASF406
 3608 0d45 B801     		.2byte	0x1b8
 3609 0d47 0C       		.uleb128 0xc
 3610 0d48 EE290000 		.4byte	.LASF407
 3611 0d4c B901     		.2byte	0x1b9
 3612 0d4e 0C       		.uleb128 0xc
 3613 0d4f 532C0000 		.4byte	.LASF408
 3614 0d53 BA01     		.2byte	0x1ba
 3615 0d55 0C       		.uleb128 0xc
 3616 0d56 AA3D0000 		.4byte	.LASF409
 3617 0d5a BB01     		.2byte	0x1bb
 3618 0d5c 0C       		.uleb128 0xc
 3619 0d5d B21D0000 		.4byte	.LASF410
 3620 0d61 BC01     		.2byte	0x1bc
 3621 0d63 0C       		.uleb128 0xc
 3622 0d64 0C090000 		.4byte	.LASF411
 3623 0d68 BD01     		.2byte	0x1bd
 3624 0d6a 0C       		.uleb128 0xc
 3625 0d6b 89110000 		.4byte	.LASF412
 3626 0d6f BE01     		.2byte	0x1be
 3627 0d71 0C       		.uleb128 0xc
 3628 0d72 7C420000 		.4byte	.LASF413
 3629 0d76 BF01     		.2byte	0x1bf
 3630 0d78 0C       		.uleb128 0xc
 3631 0d79 DA0C0000 		.4byte	.LASF414
 3632 0d7d C001     		.2byte	0x1c0
 3633 0d7f 0C       		.uleb128 0xc
 3634 0d80 811D0000 		.4byte	.LASF415
 3635 0d84 C101     		.2byte	0x1c1
 3636 0d86 0C       		.uleb128 0xc
 3637 0d87 0E220000 		.4byte	.LASF416
 3638 0d8b C201     		.2byte	0x1c2
 3639 0d8d 0C       		.uleb128 0xc
 3640 0d8e 8C3D0000 		.4byte	.LASF417
 3641 0d92 C301     		.2byte	0x1c3
 3642 0d94 0C       		.uleb128 0xc
 3643 0d95 3E3A0000 		.4byte	.LASF418
 3644 0d99 C401     		.2byte	0x1c4
 3645 0d9b 0C       		.uleb128 0xc
 3646 0d9c 78180000 		.4byte	.LASF419
 3647 0da0 C501     		.2byte	0x1c5
 3648 0da2 0C       		.uleb128 0xc
 3649 0da3 40250000 		.4byte	.LASF420
 3650 0da7 C601     		.2byte	0x1c6
 3651 0da9 0C       		.uleb128 0xc
 3652 0daa 19030000 		.4byte	.LASF421
ARM GAS  C:\Windows\TEMP\cc5RoFpJ.s 			page 87


 3653 0dae C701     		.2byte	0x1c7
 3654 0db0 0C       		.uleb128 0xc
 3655 0db1 AB320000 		.4byte	.LASF422
 3656 0db5 C801     		.2byte	0x1c8
 3657 0db7 0C       		.uleb128 0xc
 3658 0db8 1D040000 		.4byte	.LASF423
 3659 0dbc C901     		.2byte	0x1c9
 3660 0dbe 0C       		.uleb128 0xc
 3661 0dbf 742F0000 		.4byte	.LASF424
 3662 0dc3 CA01     		.2byte	0x1ca
 3663 0dc5 0C       		.uleb128 0xc
 3664 0dc6 C70A0000 		.4byte	.LASF425
 3665 0dca CB01     		.2byte	0x1cb
 3666 0dcc 0C       		.uleb128 0xc
 3667 0dcd 6E0B0000 		.4byte	.LASF426
 3668 0dd1 CC01     		.2byte	0x1cc
 3669 0dd3 0C       		.uleb128 0xc
 3670 0dd4 26350000 		.4byte	.LASF427
 3671 0dd8 CD01     		.2byte	0x1cd
 3672 0dda 0C       		.uleb128 0xc
 3673 0ddb 43070000 		.4byte	.LASF428
 3674 0ddf CE01     		.2byte	0x1ce
 3675 0de1 0C       		.uleb128 0xc
 3676 0de2 D4310000 		.4byte	.LASF429
 3677 0de6 CF01     		.2byte	0x1cf
 3678 0de8 0C       		.uleb128 0xc
 3679 0de9 F12F0000 		.4byte	.LASF430
 3680 0ded D001     		.2byte	0x1d0
 3681 0def 0C       		.uleb128 0xc
 3682 0df0 221A0000 		.4byte	.LASF431
 3683 0df4 D101     		.2byte	0x1d1
 3684 0df6 0C       		.uleb128 0xc
 3685 0df7 7B3F0000 		.4byte	.LASF432
 3686 0dfb D201     		.2byte	0x1d2
 3687 0dfd 0C       		.uleb128 0xc
 3688 0dfe F8240000 		.4byte	.LASF433
 3689 0e02 D301     		.2byte	0x1d3
 3690 0e04 0C       		.uleb128 0xc
 3691 0e05 792E0000 		.4byte	.LASF434
 3692 0e09 D401     		.2byte	0x1d4
 3693 0e0b 0C       		.uleb128 0xc
 3694 0e0c E31D0000 		.4byte	.LASF435
 3695 0e10 D501     		.2byte	0x1d5
 3696 0e12 0C       		.uleb128 0xc
 3697 0e13 07340000 		.4byte	.LASF436
 3698 0e17 D601     		.2byte	0x1d6
 3699 0e19 0C       		.uleb128 0xc
 3700 0e1a E61F0000 		.4byte	.LASF437
 3701 0e1e D701     		.2byte	0x1d7
 3702 0e20 0C       		.uleb128 0xc
 3703 0e21 081E0000 		.4byte	.LASF438
 3704 0e25 D801     		.2byte	0x1d8
 3705 0e27 0C       		.uleb128 0xc
 3706 0e28 91070000 		.4byte	.LASF439
 3707 0e2c D901     		.2byte	0x1d9
 3708 0e2e 0C       		.uleb128 0xc
 3709 0e2f D81B0000 		.4byte	.LASF440
ARM GAS  C:\Windows\TEMP\cc5RoFpJ.s 			page 88


 3710 0e33 DA01     		.2byte	0x1da
 3711 0e35 0C       		.uleb128 0xc
 3712 0e36 52370000 		.4byte	.LASF441
 3713 0e3a DB01     		.2byte	0x1db
 3714 0e3c 0C       		.uleb128 0xc
 3715 0e3d 30330000 		.4byte	.LASF442
 3716 0e41 DC01     		.2byte	0x1dc
 3717 0e43 0C       		.uleb128 0xc
 3718 0e44 DC120000 		.4byte	.LASF443
 3719 0e48 DD01     		.2byte	0x1dd
 3720 0e4a 0C       		.uleb128 0xc
 3721 0e4b 9C1E0000 		.4byte	.LASF444
 3722 0e4f DE01     		.2byte	0x1de
 3723 0e51 0C       		.uleb128 0xc
 3724 0e52 C1000000 		.4byte	.LASF445
 3725 0e56 DF01     		.2byte	0x1df
 3726 0e58 0C       		.uleb128 0xc
 3727 0e59 4C210000 		.4byte	.LASF446
 3728 0e5d E001     		.2byte	0x1e0
 3729 0e5f 0C       		.uleb128 0xc
 3730 0e60 79220000 		.4byte	.LASF447
 3731 0e64 E101     		.2byte	0x1e1
 3732 0e66 0C       		.uleb128 0xc
 3733 0e67 4B000000 		.4byte	.LASF448
 3734 0e6b E201     		.2byte	0x1e2
 3735 0e6d 0C       		.uleb128 0xc
 3736 0e6e A5040000 		.4byte	.LASF449
 3737 0e72 E301     		.2byte	0x1e3
 3738 0e74 0C       		.uleb128 0xc
 3739 0e75 E11A0000 		.4byte	.LASF450
 3740 0e79 E401     		.2byte	0x1e4
 3741 0e7b 0C       		.uleb128 0xc
 3742 0e7c 24200000 		.4byte	.LASF451
 3743 0e80 E501     		.2byte	0x1e5
 3744 0e82 0C       		.uleb128 0xc
 3745 0e83 6C010000 		.4byte	.LASF452
 3746 0e87 E601     		.2byte	0x1e6
 3747 0e89 0C       		.uleb128 0xc
 3748 0e8a 54220000 		.4byte	.LASF453
 3749 0e8e E701     		.2byte	0x1e7
 3750 0e90 0C       		.uleb128 0xc
 3751 0e91 10430000 		.4byte	.LASF454
 3752 0e95 E801     		.2byte	0x1e8
 3753 0e97 0C       		.uleb128 0xc
 3754 0e98 BA1C0000 		.4byte	.LASF455
 3755 0e9c E901     		.2byte	0x1e9
 3756 0e9e 0C       		.uleb128 0xc
 3757 0e9f C30F0000 		.4byte	.LASF456
 3758 0ea3 EA01     		.2byte	0x1ea
 3759 0ea5 0C       		.uleb128 0xc
 3760 0ea6 1E180000 		.4byte	.LASF457
 3761 0eaa EB01     		.2byte	0x1eb
 3762 0eac 0C       		.uleb128 0xc
 3763 0ead 852D0000 		.4byte	.LASF458
 3764 0eb1 EC01     		.2byte	0x1ec
 3765 0eb3 0C       		.uleb128 0xc
 3766 0eb4 8A040000 		.4byte	.LASF459
ARM GAS  C:\Windows\TEMP\cc5RoFpJ.s 			page 89


 3767 0eb8 ED01     		.2byte	0x1ed
 3768 0eba 0C       		.uleb128 0xc
 3769 0ebb 00360000 		.4byte	.LASF460
 3770 0ebf EE01     		.2byte	0x1ee
 3771 0ec1 0C       		.uleb128 0xc
 3772 0ec2 5B100000 		.4byte	.LASF461
 3773 0ec6 EF01     		.2byte	0x1ef
 3774 0ec8 0C       		.uleb128 0xc
 3775 0ec9 70210000 		.4byte	.LASF462
 3776 0ecd F001     		.2byte	0x1f0
 3777 0ecf 0C       		.uleb128 0xc
 3778 0ed0 7C170000 		.4byte	.LASF463
 3779 0ed4 F101     		.2byte	0x1f1
 3780 0ed6 0C       		.uleb128 0xc
 3781 0ed7 353D0000 		.4byte	.LASF464
 3782 0edb F201     		.2byte	0x1f2
 3783 0edd 0C       		.uleb128 0xc
 3784 0ede BA030000 		.4byte	.LASF465
 3785 0ee2 F301     		.2byte	0x1f3
 3786 0ee4 0C       		.uleb128 0xc
 3787 0ee5 90010000 		.4byte	.LASF466
 3788 0ee9 F401     		.2byte	0x1f4
 3789 0eeb 0C       		.uleb128 0xc
 3790 0eec 62140000 		.4byte	.LASF467
 3791 0ef0 F501     		.2byte	0x1f5
 3792 0ef2 0C       		.uleb128 0xc
 3793 0ef3 64110000 		.4byte	.LASF468
 3794 0ef7 F601     		.2byte	0x1f6
 3795 0ef9 0C       		.uleb128 0xc
 3796 0efa BE280000 		.4byte	.LASF469
 3797 0efe F701     		.2byte	0x1f7
 3798 0f00 0C       		.uleb128 0xc
 3799 0f01 913B0000 		.4byte	.LASF470
 3800 0f05 F801     		.2byte	0x1f8
 3801 0f07 0C       		.uleb128 0xc
 3802 0f08 35260000 		.4byte	.LASF471
 3803 0f0c F901     		.2byte	0x1f9
 3804 0f0e 0C       		.uleb128 0xc
 3805 0f0f DE340000 		.4byte	.LASF472
 3806 0f13 FA01     		.2byte	0x1fa
 3807 0f15 0C       		.uleb128 0xc
 3808 0f16 39120000 		.4byte	.LASF473
 3809 0f1a FB01     		.2byte	0x1fb
 3810 0f1c 0C       		.uleb128 0xc
 3811 0f1d 09050000 		.4byte	.LASF474
 3812 0f21 FC01     		.2byte	0x1fc
 3813 0f23 0C       		.uleb128 0xc
 3814 0f24 B9340000 		.4byte	.LASF475
 3815 0f28 FD01     		.2byte	0x1fd
 3816 0f2a 0C       		.uleb128 0xc
 3817 0f2b 98120000 		.4byte	.LASF476
 3818 0f2f FE01     		.2byte	0x1fe
 3819 0f31 0C       		.uleb128 0xc
 3820 0f32 E0220000 		.4byte	.LASF477
 3821 0f36 FF01     		.2byte	0x1ff
 3822 0f38 0C       		.uleb128 0xc
 3823 0f39 6F330000 		.4byte	.LASF478
ARM GAS  C:\Windows\TEMP\cc5RoFpJ.s 			page 90


 3824 0f3d 0002     		.2byte	0x200
 3825 0f3f 0C       		.uleb128 0xc
 3826 0f40 B0170000 		.4byte	.LASF479
 3827 0f44 0102     		.2byte	0x201
 3828 0f46 0C       		.uleb128 0xc
 3829 0f47 1C3A0000 		.4byte	.LASF480
 3830 0f4b 0202     		.2byte	0x202
 3831 0f4d 0C       		.uleb128 0xc
 3832 0f4e 64150000 		.4byte	.LASF481
 3833 0f52 0302     		.2byte	0x203
 3834 0f54 0C       		.uleb128 0xc
 3835 0f55 B70B0000 		.4byte	.LASF482
 3836 0f59 0402     		.2byte	0x204
 3837 0f5b 0C       		.uleb128 0xc
 3838 0f5c 2B2F0000 		.4byte	.LASF483
 3839 0f60 0502     		.2byte	0x205
 3840 0f62 0C       		.uleb128 0xc
 3841 0f63 7D1A0000 		.4byte	.LASF484
 3842 0f67 0602     		.2byte	0x206
 3843 0f69 0C       		.uleb128 0xc
 3844 0f6a 770D0000 		.4byte	.LASF485
 3845 0f6e 0702     		.2byte	0x207
 3846 0f70 0C       		.uleb128 0xc
 3847 0f71 C71A0000 		.4byte	.LASF486
 3848 0f75 0802     		.2byte	0x208
 3849 0f77 0C       		.uleb128 0xc
 3850 0f78 F2080000 		.4byte	.LASF487
 3851 0f7c 0902     		.2byte	0x209
 3852 0f7e 0C       		.uleb128 0xc
 3853 0f7f 68270000 		.4byte	.LASF488
 3854 0f83 0A02     		.2byte	0x20a
 3855 0f85 0C       		.uleb128 0xc
 3856 0f86 29000000 		.4byte	.LASF489
 3857 0f8a 0B02     		.2byte	0x20b
 3858 0f8c 0C       		.uleb128 0xc
 3859 0f8d C22A0000 		.4byte	.LASF490
 3860 0f91 0C02     		.2byte	0x20c
 3861 0f93 0C       		.uleb128 0xc
 3862 0f94 CE3A0000 		.4byte	.LASF491
 3863 0f98 0D02     		.2byte	0x20d
 3864 0f9a 0C       		.uleb128 0xc
 3865 0f9b C0040000 		.4byte	.LASF492
 3866 0f9f 0E02     		.2byte	0x20e
 3867 0fa1 0C       		.uleb128 0xc
 3868 0fa2 AA330000 		.4byte	.LASF493
 3869 0fa6 0F02     		.2byte	0x20f
 3870 0fa8 0C       		.uleb128 0xc
 3871 0fa9 A6240000 		.4byte	.LASF494
 3872 0fad 1002     		.2byte	0x210
 3873 0faf 0C       		.uleb128 0xc
 3874 0fb0 67160000 		.4byte	.LASF495
 3875 0fb4 1102     		.2byte	0x211
 3876 0fb6 0C       		.uleb128 0xc
 3877 0fb7 581E0000 		.4byte	.LASF496
 3878 0fbb 1202     		.2byte	0x212
 3879 0fbd 0C       		.uleb128 0xc
 3880 0fbe 99100000 		.4byte	.LASF497
ARM GAS  C:\Windows\TEMP\cc5RoFpJ.s 			page 91


 3881 0fc2 1302     		.2byte	0x213
 3882 0fc4 0C       		.uleb128 0xc
 3883 0fc5 FB430000 		.4byte	.LASF498
 3884 0fc9 1402     		.2byte	0x214
 3885 0fcb 0C       		.uleb128 0xc
 3886 0fcc 5D180000 		.4byte	.LASF499
 3887 0fd0 1502     		.2byte	0x215
 3888 0fd2 0C       		.uleb128 0xc
 3889 0fd3 B9010000 		.4byte	.LASF500
 3890 0fd7 1602     		.2byte	0x216
 3891 0fd9 0C       		.uleb128 0xc
 3892 0fda F22A0000 		.4byte	.LASF501
 3893 0fde 1702     		.2byte	0x217
 3894 0fe0 0C       		.uleb128 0xc
 3895 0fe1 84270000 		.4byte	.LASF502
 3896 0fe5 1802     		.2byte	0x218
 3897 0fe7 0C       		.uleb128 0xc
 3898 0fe8 EF190000 		.4byte	.LASF503
 3899 0fec 1902     		.2byte	0x219
 3900 0fee 0C       		.uleb128 0xc
 3901 0fef 88360000 		.4byte	.LASF504
 3902 0ff3 1A02     		.2byte	0x21a
 3903 0ff5 0C       		.uleb128 0xc
 3904 0ff6 F23D0000 		.4byte	.LASF505
 3905 0ffa 1B02     		.2byte	0x21b
 3906 0ffc 0C       		.uleb128 0xc
 3907 0ffd 1C020000 		.4byte	.LASF506
 3908 1001 1C02     		.2byte	0x21c
 3909 1003 0C       		.uleb128 0xc
 3910 1004 112A0000 		.4byte	.LASF507
 3911 1008 1D02     		.2byte	0x21d
 3912 100a 0C       		.uleb128 0xc
 3913 100b E7140000 		.4byte	.LASF508
 3914 100f 1E02     		.2byte	0x21e
 3915 1011 0C       		.uleb128 0xc
 3916 1012 E9160000 		.4byte	.LASF509
 3917 1016 1F02     		.2byte	0x21f
 3918 1018 0C       		.uleb128 0xc
 3919 1019 94410000 		.4byte	.LASF510
 3920 101d 2002     		.2byte	0x220
 3921 101f 0C       		.uleb128 0xc
 3922 1020 76100000 		.4byte	.LASF511
 3923 1024 2102     		.2byte	0x221
 3924 1026 0C       		.uleb128 0xc
 3925 1027 EF0E0000 		.4byte	.LASF512
 3926 102b 2202     		.2byte	0x222
 3927 102d 0C       		.uleb128 0xc
 3928 102e 762C0000 		.4byte	.LASF513
 3929 1032 00E0     		.2byte	0xe000
 3930 1034 00       		.byte	0
 3931 1035 0A       		.uleb128 0xa
 3932 1036 01       		.byte	0x1
 3933 1037 2C000000 		.4byte	0x2c
 3934 103b 09       		.byte	0x9
 3935 103c 5008     		.2byte	0x850
 3936 103e 61100000 		.4byte	0x1061
 3937 1042 0B       		.uleb128 0xb
ARM GAS  C:\Windows\TEMP\cc5RoFpJ.s 			page 92


 3938 1043 AF0F0000 		.4byte	.LASF514
 3939 1047 00       		.byte	0
 3940 1048 0B       		.uleb128 0xb
 3941 1049 C9200000 		.4byte	.LASF515
 3942 104d 01       		.byte	0x1
 3943 104e 0B       		.uleb128 0xb
 3944 104f 9E3F0000 		.4byte	.LASF516
 3945 1053 02       		.byte	0x2
 3946 1054 0B       		.uleb128 0xb
 3947 1055 7E090000 		.4byte	.LASF517
 3948 1059 03       		.byte	0x3
 3949 105a 0B       		.uleb128 0xb
 3950 105b B0350000 		.4byte	.LASF518
 3951 105f 04       		.byte	0x4
 3952 1060 00       		.byte	0
 3953 1061 04       		.uleb128 0x4
 3954 1062 37300000 		.4byte	.LASF519
 3955 1066 09       		.byte	0x9
 3956 1067 5E08     		.2byte	0x85e
 3957 1069 35100000 		.4byte	0x1035
 3958 106d 18       		.uleb128 0x18
 3959 106e 1B2E0000 		.4byte	.LASF532
 3960 1072 01       		.byte	0x1
 3961 1073 CD       		.byte	0xcd
 3962 1074 00000000 		.4byte	.LFB3
 3963 1078 0C000000 		.4byte	.LFE3-.LFB3
 3964 107c 01       		.uleb128 0x1
 3965 107d 9C       		.byte	0x9c
 3966 107e 90100000 		.4byte	0x1090
 3967 1082 19       		.uleb128 0x19
 3968 1083 850C0000 		.4byte	.LASF520
 3969 1087 01       		.byte	0x1
 3970 1088 CD       		.byte	0xcd
 3971 1089 52060000 		.4byte	0x652
 3972 108d 01       		.uleb128 0x1
 3973 108e 50       		.byte	0x50
 3974 108f 00       		.byte	0
 3975 1090 1A       		.uleb128 0x1a
 3976 1091 5F1D0000 		.4byte	.LASF525
 3977 1095 01       		.byte	0x1
 3978 1096 2302     		.2byte	0x223
 3979 1098 66030000 		.4byte	0x366
 3980 109c 00000000 		.4byte	.LFB6
 3981 10a0 74000000 		.4byte	.LFE6-.LFB6
 3982 10a4 01       		.uleb128 0x1
 3983 10a5 9C       		.byte	0x9c
 3984 10a6 2E110000 		.4byte	0x112e
 3985 10aa 1B       		.uleb128 0x1b
 3986 10ab AF010000 		.4byte	.LASF216
 3987 10af 01       		.byte	0x1
 3988 10b0 2302     		.2byte	0x223
 3989 10b2 83060000 		.4byte	0x683
 3990 10b6 00000000 		.4byte	.LLST0
 3991 10ba 1B       		.uleb128 0x1b
 3992 10bb 7E130000 		.4byte	.LASF217
 3993 10bf 01       		.byte	0x1
 3994 10c0 2402     		.2byte	0x224
ARM GAS  C:\Windows\TEMP\cc5RoFpJ.s 			page 93


 3995 10c2 6B000000 		.4byte	0x6b
 3996 10c6 53000000 		.4byte	.LLST1
 3997 10ca 1B       		.uleb128 0x1b
 3998 10cb 28160000 		.4byte	.LASF521
 3999 10cf 01       		.byte	0x1
 4000 10d0 2402     		.2byte	0x224
 4001 10d2 6B000000 		.4byte	0x6b
 4002 10d6 8D000000 		.4byte	.LLST2
 4003 10da 1B       		.uleb128 0x1b
 4004 10db 22190000 		.4byte	.LASF522
 4005 10df 01       		.byte	0x1
 4006 10e0 2402     		.2byte	0x224
 4007 10e2 72030000 		.4byte	0x372
 4008 10e6 C7000000 		.4byte	.LLST3
 4009 10ea 1C       		.uleb128 0x1c
 4010 10eb A3340000 		.4byte	.LASF523
 4011 10ef 01       		.byte	0x1
 4012 10f0 2602     		.2byte	0x226
 4013 10f2 66030000 		.4byte	0x366
 4014 10f6 01010000 		.4byte	.LLST4
 4015 10fa 1D       		.uleb128 0x1d
 4016 10fb 26000000 		.4byte	.LBB2
 4017 10ff 2A000000 		.4byte	.LBE2-.LBB2
 4018 1103 1E       		.uleb128 0x1e
 4019 1104 D01D0000 		.4byte	.LASF524
 4020 1108 01       		.byte	0x1
 4021 1109 3202     		.2byte	0x232
 4022 110b 28050000 		.4byte	0x528
 4023 110f 02       		.uleb128 0x2
 4024 1110 91       		.byte	0x91
 4025 1111 64       		.sleb128 -28
 4026 1112 1F       		.uleb128 0x1f
 4027 1113 38000000 		.4byte	.LVL6
 4028 1117 71190000 		.4byte	0x1971
 4029 111b 20       		.uleb128 0x20
 4030 111c 01       		.uleb128 0x1
 4031 111d 50       		.byte	0x50
 4032 111e 02       		.uleb128 0x2
 4033 111f 91       		.byte	0x91
 4034 1120 64       		.sleb128 -28
 4035 1121 20       		.uleb128 0x20
 4036 1122 01       		.uleb128 0x1
 4037 1123 51       		.byte	0x51
 4038 1124 01       		.uleb128 0x1
 4039 1125 30       		.byte	0x30
 4040 1126 20       		.uleb128 0x20
 4041 1127 01       		.uleb128 0x1
 4042 1128 52       		.byte	0x52
 4043 1129 01       		.uleb128 0x1
 4044 112a 30       		.byte	0x30
 4045 112b 00       		.byte	0
 4046 112c 00       		.byte	0
 4047 112d 00       		.byte	0
 4048 112e 1A       		.uleb128 0x1a
 4049 112f 38400000 		.4byte	.LASF526
 4050 1133 01       		.byte	0x1
 4051 1134 6302     		.2byte	0x263
ARM GAS  C:\Windows\TEMP\cc5RoFpJ.s 			page 94


 4052 1136 66030000 		.4byte	0x366
 4053 113a 00000000 		.4byte	.LFB7
 4054 113e 90000000 		.4byte	.LFE7-.LFB7
 4055 1142 01       		.uleb128 0x1
 4056 1143 9C       		.byte	0x9c
 4057 1144 DB110000 		.4byte	0x11db
 4058 1148 1B       		.uleb128 0x1b
 4059 1149 AF010000 		.4byte	.LASF216
 4060 114d 01       		.byte	0x1
 4061 114e 6302     		.2byte	0x263
 4062 1150 83060000 		.4byte	0x683
 4063 1154 38010000 		.4byte	.LLST5
 4064 1158 1B       		.uleb128 0x1b
 4065 1159 7E130000 		.4byte	.LASF217
 4066 115d 01       		.byte	0x1
 4067 115e 6402     		.2byte	0x264
 4068 1160 6B000000 		.4byte	0x6b
 4069 1164 A4010000 		.4byte	.LLST6
 4070 1168 1B       		.uleb128 0x1b
 4071 1169 52270000 		.4byte	.LASF220
 4072 116d 01       		.byte	0x1
 4073 116e 6402     		.2byte	0x264
 4074 1170 D1060000 		.4byte	0x6d1
 4075 1174 DE010000 		.4byte	.LLST7
 4076 1178 1B       		.uleb128 0x1b
 4077 1179 28160000 		.4byte	.LASF521
 4078 117d 01       		.byte	0x1
 4079 117e 6402     		.2byte	0x264
 4080 1180 6B000000 		.4byte	0x6b
 4081 1184 18020000 		.4byte	.LLST8
 4082 1188 21       		.uleb128 0x21
 4083 1189 22190000 		.4byte	.LASF522
 4084 118d 01       		.byte	0x1
 4085 118e 6402     		.2byte	0x264
 4086 1190 72030000 		.4byte	0x372
 4087 1194 02       		.uleb128 0x2
 4088 1195 91       		.byte	0x91
 4089 1196 00       		.sleb128 0
 4090 1197 1C       		.uleb128 0x1c
 4091 1198 A3340000 		.4byte	.LASF523
 4092 119c 01       		.byte	0x1
 4093 119d 6702     		.2byte	0x267
 4094 119f 66030000 		.4byte	0x366
 4095 11a3 52020000 		.4byte	.LLST9
 4096 11a7 1D       		.uleb128 0x1d
 4097 11a8 36000000 		.4byte	.LBB3
 4098 11ac 30000000 		.4byte	.LBE3-.LBB3
 4099 11b0 1E       		.uleb128 0x1e
 4100 11b1 D01D0000 		.4byte	.LASF524
 4101 11b5 01       		.byte	0x1
 4102 11b6 7502     		.2byte	0x275
 4103 11b8 28050000 		.4byte	0x528
 4104 11bc 02       		.uleb128 0x2
 4105 11bd 91       		.byte	0x91
 4106 11be 64       		.sleb128 -28
 4107 11bf 1F       		.uleb128 0x1f
 4108 11c0 4A000000 		.4byte	.LVL21
ARM GAS  C:\Windows\TEMP\cc5RoFpJ.s 			page 95


 4109 11c4 71190000 		.4byte	0x1971
 4110 11c8 20       		.uleb128 0x20
 4111 11c9 01       		.uleb128 0x1
 4112 11ca 50       		.byte	0x50
 4113 11cb 02       		.uleb128 0x2
 4114 11cc 91       		.byte	0x91
 4115 11cd 64       		.sleb128 -28
 4116 11ce 20       		.uleb128 0x20
 4117 11cf 01       		.uleb128 0x1
 4118 11d0 51       		.byte	0x51
 4119 11d1 01       		.uleb128 0x1
 4120 11d2 30       		.byte	0x30
 4121 11d3 20       		.uleb128 0x20
 4122 11d4 01       		.uleb128 0x1
 4123 11d5 52       		.byte	0x52
 4124 11d6 01       		.uleb128 0x1
 4125 11d7 30       		.byte	0x30
 4126 11d8 00       		.byte	0
 4127 11d9 00       		.byte	0
 4128 11da 00       		.byte	0
 4129 11db 1A       		.uleb128 0x1a
 4130 11dc 63120000 		.4byte	.LASF527
 4131 11e0 01       		.byte	0x1
 4132 11e1 A602     		.2byte	0x2a6
 4133 11e3 66030000 		.4byte	0x366
 4134 11e7 00000000 		.4byte	.LFB8
 4135 11eb 78000000 		.4byte	.LFE8-.LFB8
 4136 11ef 01       		.uleb128 0x1
 4137 11f0 9C       		.byte	0x9c
 4138 11f1 89120000 		.4byte	0x1289
 4139 11f5 1B       		.uleb128 0x1b
 4140 11f6 AF010000 		.4byte	.LASF216
 4141 11fa 01       		.byte	0x1
 4142 11fb A602     		.2byte	0x2a6
 4143 11fd 83060000 		.4byte	0x683
 4144 1201 89020000 		.4byte	.LLST10
 4145 1205 1B       		.uleb128 0x1b
 4146 1206 7E130000 		.4byte	.LASF217
 4147 120a 01       		.byte	0x1
 4148 120b A702     		.2byte	0x2a7
 4149 120d 6B000000 		.4byte	0x6b
 4150 1211 F5020000 		.4byte	.LLST11
 4151 1215 1B       		.uleb128 0x1b
 4152 1216 52270000 		.4byte	.LASF220
 4153 121a 01       		.byte	0x1
 4154 121b A702     		.2byte	0x2a7
 4155 121d D1060000 		.4byte	0x6d1
 4156 1221 2F030000 		.4byte	.LLST12
 4157 1225 1B       		.uleb128 0x1b
 4158 1226 28160000 		.4byte	.LASF521
 4159 122a 01       		.byte	0x1
 4160 122b A702     		.2byte	0x2a7
 4161 122d 6B000000 		.4byte	0x6b
 4162 1231 69030000 		.4byte	.LLST13
 4163 1235 21       		.uleb128 0x21
 4164 1236 22190000 		.4byte	.LASF522
 4165 123a 01       		.byte	0x1
ARM GAS  C:\Windows\TEMP\cc5RoFpJ.s 			page 96


 4166 123b A702     		.2byte	0x2a7
 4167 123d 72030000 		.4byte	0x372
 4168 1241 02       		.uleb128 0x2
 4169 1242 91       		.byte	0x91
 4170 1243 00       		.sleb128 0
 4171 1244 1C       		.uleb128 0x1c
 4172 1245 A3340000 		.4byte	.LASF523
 4173 1249 01       		.byte	0x1
 4174 124a A902     		.2byte	0x2a9
 4175 124c 66030000 		.4byte	0x366
 4176 1250 A3030000 		.4byte	.LLST14
 4177 1254 22       		.uleb128 0x22
 4178 1255 00000000 		.4byte	.Ldebug_ranges0+0
 4179 1259 1E       		.uleb128 0x1e
 4180 125a D01D0000 		.4byte	.LASF524
 4181 125e 01       		.byte	0x1
 4182 125f B702     		.2byte	0x2b7
 4183 1261 28050000 		.4byte	0x528
 4184 1265 02       		.uleb128 0x2
 4185 1266 91       		.byte	0x91
 4186 1267 6C       		.sleb128 -20
 4187 1268 1F       		.uleb128 0x1f
 4188 1269 48000000 		.4byte	.LVL38
 4189 126d 7D190000 		.4byte	0x197d
 4190 1271 20       		.uleb128 0x20
 4191 1272 01       		.uleb128 0x1
 4192 1273 50       		.byte	0x50
 4193 1274 02       		.uleb128 0x2
 4194 1275 91       		.byte	0x91
 4195 1276 6C       		.sleb128 -20
 4196 1277 20       		.uleb128 0x20
 4197 1278 01       		.uleb128 0x1
 4198 1279 51       		.byte	0x51
 4199 127a 01       		.uleb128 0x1
 4200 127b 30       		.byte	0x30
 4201 127c 20       		.uleb128 0x20
 4202 127d 01       		.uleb128 0x1
 4203 127e 52       		.byte	0x52
 4204 127f 01       		.uleb128 0x1
 4205 1280 30       		.byte	0x30
 4206 1281 20       		.uleb128 0x20
 4207 1282 01       		.uleb128 0x1
 4208 1283 53       		.byte	0x53
 4209 1284 01       		.uleb128 0x1
 4210 1285 30       		.byte	0x30
 4211 1286 00       		.byte	0
 4212 1287 00       		.byte	0
 4213 1288 00       		.byte	0
 4214 1289 1A       		.uleb128 0x1a
 4215 128a FD0B0000 		.4byte	.LASF528
 4216 128e 01       		.byte	0x1
 4217 128f EC02     		.2byte	0x2ec
 4218 1291 66030000 		.4byte	0x366
 4219 1295 00000000 		.4byte	.LFB9
 4220 1299 90000000 		.4byte	.LFE9-.LFB9
 4221 129d 01       		.uleb128 0x1
 4222 129e 9C       		.byte	0x9c
ARM GAS  C:\Windows\TEMP\cc5RoFpJ.s 			page 97


 4223 129f 38130000 		.4byte	0x1338
 4224 12a3 21       		.uleb128 0x21
 4225 12a4 F3320000 		.4byte	.LASF174
 4226 12a8 01       		.byte	0x1
 4227 12a9 EC02     		.2byte	0x2ec
 4228 12ab BB040000 		.4byte	0x4bb
 4229 12af 02       		.uleb128 0x2
 4230 12b0 91       		.byte	0x91
 4231 12b1 5C       		.sleb128 -36
 4232 12b2 1B       		.uleb128 0x1b
 4233 12b3 AF010000 		.4byte	.LASF216
 4234 12b7 01       		.byte	0x1
 4235 12b8 ED02     		.2byte	0x2ed
 4236 12ba 83060000 		.4byte	0x683
 4237 12be DA030000 		.4byte	.LLST15
 4238 12c2 1B       		.uleb128 0x1b
 4239 12c3 7E130000 		.4byte	.LASF217
 4240 12c7 01       		.byte	0x1
 4241 12c8 ED02     		.2byte	0x2ed
 4242 12ca 6B000000 		.4byte	0x6b
 4243 12ce 14040000 		.4byte	.LLST16
 4244 12d2 1B       		.uleb128 0x1b
 4245 12d3 28160000 		.4byte	.LASF521
 4246 12d7 01       		.byte	0x1
 4247 12d8 ED02     		.2byte	0x2ed
 4248 12da 6B000000 		.4byte	0x6b
 4249 12de 4E040000 		.4byte	.LLST17
 4250 12e2 21       		.uleb128 0x21
 4251 12e3 22190000 		.4byte	.LASF522
 4252 12e7 01       		.byte	0x1
 4253 12e8 ED02     		.2byte	0x2ed
 4254 12ea 72030000 		.4byte	0x372
 4255 12ee 02       		.uleb128 0x2
 4256 12ef 91       		.byte	0x91
 4257 12f0 00       		.sleb128 0
 4258 12f1 1C       		.uleb128 0x1c
 4259 12f2 A3340000 		.4byte	.LASF523
 4260 12f6 01       		.byte	0x1
 4261 12f7 EF02     		.2byte	0x2ef
 4262 12f9 66030000 		.4byte	0x366
 4263 12fd 88040000 		.4byte	.LLST18
 4264 1301 23       		.uleb128 0x23
 4265 1302 4C000000 		.4byte	.LBB6
 4266 1306 14000000 		.4byte	.LBE6-.LBB6
 4267 130a 2E130000 		.4byte	0x132e
 4268 130e 1E       		.uleb128 0x1e
 4269 130f D12D0000 		.4byte	.LASF529
 4270 1313 01       		.byte	0x1
 4271 1314 0303     		.2byte	0x303
 4272 1316 34050000 		.4byte	0x534
 4273 131a 02       		.uleb128 0x2
 4274 131b 91       		.byte	0x91
 4275 131c 64       		.sleb128 -28
 4276 131d 1F       		.uleb128 0x1f
 4277 131e 5E000000 		.4byte	.LVL55
 4278 1322 89190000 		.4byte	0x1989
 4279 1326 20       		.uleb128 0x20
ARM GAS  C:\Windows\TEMP\cc5RoFpJ.s 			page 98


 4280 1327 01       		.uleb128 0x1
 4281 1328 51       		.byte	0x51
 4282 1329 02       		.uleb128 0x2
 4283 132a 91       		.byte	0x91
 4284 132b 64       		.sleb128 -28
 4285 132c 00       		.byte	0
 4286 132d 00       		.byte	0
 4287 132e 24       		.uleb128 0x24
 4288 132f 48000000 		.4byte	.LVL54
 4289 1333 94190000 		.4byte	0x1994
 4290 1337 00       		.byte	0
 4291 1338 1A       		.uleb128 0x1a
 4292 1339 AF200000 		.4byte	.LASF530
 4293 133d 01       		.byte	0x1
 4294 133e 4303     		.2byte	0x343
 4295 1340 66030000 		.4byte	0x366
 4296 1344 00000000 		.4byte	.LFB10
 4297 1348 98000000 		.4byte	.LFE10-.LFB10
 4298 134c 01       		.uleb128 0x1
 4299 134d 9C       		.byte	0x9c
 4300 134e E7130000 		.4byte	0x13e7
 4301 1352 21       		.uleb128 0x21
 4302 1353 F3320000 		.4byte	.LASF174
 4303 1357 01       		.byte	0x1
 4304 1358 4303     		.2byte	0x343
 4305 135a BB040000 		.4byte	0x4bb
 4306 135e 02       		.uleb128 0x2
 4307 135f 91       		.byte	0x91
 4308 1360 5C       		.sleb128 -36
 4309 1361 1B       		.uleb128 0x1b
 4310 1362 AF010000 		.4byte	.LASF216
 4311 1366 01       		.byte	0x1
 4312 1367 4403     		.2byte	0x344
 4313 1369 83060000 		.4byte	0x683
 4314 136d BE040000 		.4byte	.LLST19
 4315 1371 1B       		.uleb128 0x1b
 4316 1372 7E130000 		.4byte	.LASF217
 4317 1376 01       		.byte	0x1
 4318 1377 4403     		.2byte	0x344
 4319 1379 6B000000 		.4byte	0x6b
 4320 137d F8040000 		.4byte	.LLST20
 4321 1381 1B       		.uleb128 0x1b
 4322 1382 28160000 		.4byte	.LASF521
 4323 1386 01       		.byte	0x1
 4324 1387 4403     		.2byte	0x344
 4325 1389 6B000000 		.4byte	0x6b
 4326 138d 32050000 		.4byte	.LLST21
 4327 1391 21       		.uleb128 0x21
 4328 1392 22190000 		.4byte	.LASF522
 4329 1396 01       		.byte	0x1
 4330 1397 4403     		.2byte	0x344
 4331 1399 72030000 		.4byte	0x372
 4332 139d 02       		.uleb128 0x2
 4333 139e 91       		.byte	0x91
 4334 139f 00       		.sleb128 0
 4335 13a0 1C       		.uleb128 0x1c
 4336 13a1 A3340000 		.4byte	.LASF523
ARM GAS  C:\Windows\TEMP\cc5RoFpJ.s 			page 99


 4337 13a5 01       		.byte	0x1
 4338 13a6 4703     		.2byte	0x347
 4339 13a8 66030000 		.4byte	0x366
 4340 13ac 6C050000 		.4byte	.LLST22
 4341 13b0 23       		.uleb128 0x23
 4342 13b1 4A000000 		.4byte	.LBB7
 4343 13b5 1E000000 		.4byte	.LBE7-.LBB7
 4344 13b9 DD130000 		.4byte	0x13dd
 4345 13bd 1E       		.uleb128 0x1e
 4346 13be BE3F0000 		.4byte	.LASF531
 4347 13c2 01       		.byte	0x1
 4348 13c3 5F03     		.2byte	0x35f
 4349 13c5 3F050000 		.4byte	0x53f
 4350 13c9 02       		.uleb128 0x2
 4351 13ca 91       		.byte	0x91
 4352 13cb 64       		.sleb128 -28
 4353 13cc 1F       		.uleb128 0x1f
 4354 13cd 5A000000 		.4byte	.LVL67
 4355 13d1 A0190000 		.4byte	0x19a0
 4356 13d5 20       		.uleb128 0x20
 4357 13d6 01       		.uleb128 0x1
 4358 13d7 51       		.byte	0x51
 4359 13d8 02       		.uleb128 0x2
 4360 13d9 91       		.byte	0x91
 4361 13da 64       		.sleb128 -28
 4362 13db 00       		.byte	0
 4363 13dc 00       		.byte	0
 4364 13dd 24       		.uleb128 0x24
 4365 13de 40000000 		.4byte	.LVL66
 4366 13e2 94190000 		.4byte	0x1994
 4367 13e6 00       		.byte	0
 4368 13e7 25       		.uleb128 0x25
 4369 13e8 A93E0000 		.4byte	.LASF533
 4370 13ec 01       		.byte	0x1
 4371 13ed 7F03     		.2byte	0x37f
 4372 13ef 00000000 		.4byte	.LFB11
 4373 13f3 98000000 		.4byte	.LFE11-.LFB11
 4374 13f7 01       		.uleb128 0x1
 4375 13f8 9C       		.byte	0x9c
 4376 13f9 7F140000 		.4byte	0x147f
 4377 13fd 1B       		.uleb128 0x1b
 4378 13fe CD020000 		.4byte	.LASF534
 4379 1402 01       		.byte	0x1
 4380 1403 7F03     		.2byte	0x37f
 4381 1405 7F140000 		.4byte	0x147f
 4382 1409 A2050000 		.4byte	.LLST23
 4383 140d 1C       		.uleb128 0x1c
 4384 140e 1E2F0000 		.4byte	.LASF535
 4385 1412 01       		.byte	0x1
 4386 1413 8103     		.2byte	0x381
 4387 1415 83060000 		.4byte	0x683
 4388 1419 E4050000 		.4byte	.LLST24
 4389 141d 1E       		.uleb128 0x1e
 4390 141e 6C0F0000 		.4byte	.LASF536
 4391 1422 01       		.byte	0x1
 4392 1423 8203     		.2byte	0x382
 4393 1425 C5070000 		.4byte	0x7c5
ARM GAS  C:\Windows\TEMP\cc5RoFpJ.s 			page 100


 4394 1429 02       		.uleb128 0x2
 4395 142a 91       		.byte	0x91
 4396 142b 5C       		.sleb128 -36
 4397 142c 1C       		.uleb128 0x1c
 4398 142d F0350000 		.4byte	.LASF537
 4399 1431 01       		.byte	0x1
 4400 1432 8303     		.2byte	0x383
 4401 1434 6B000000 		.4byte	0x6b
 4402 1438 0D060000 		.4byte	.LLST25
 4403 143c 1C       		.uleb128 0x1c
 4404 143d 782D0000 		.4byte	.LASF538
 4405 1441 01       		.byte	0x1
 4406 1442 8403     		.2byte	0x384
 4407 1444 6B000000 		.4byte	0x6b
 4408 1448 36060000 		.4byte	.LLST26
 4409 144c 26       		.uleb128 0x26
 4410 144d 38000000 		.4byte	.LVL76
 4411 1451 AC190000 		.4byte	0x19ac
 4412 1455 6B140000 		.4byte	0x146b
 4413 1459 20       		.uleb128 0x20
 4414 145a 01       		.uleb128 0x1
 4415 145b 50       		.byte	0x50
 4416 145c 02       		.uleb128 0x2
 4417 145d 77       		.byte	0x77
 4418 145e 00       		.sleb128 0
 4419 145f 20       		.uleb128 0x20
 4420 1460 01       		.uleb128 0x1
 4421 1461 51       		.byte	0x51
 4422 1462 02       		.uleb128 0x2
 4423 1463 75       		.byte	0x75
 4424 1464 00       		.sleb128 0
 4425 1465 20       		.uleb128 0x20
 4426 1466 01       		.uleb128 0x1
 4427 1467 52       		.byte	0x52
 4428 1468 01       		.uleb128 0x1
 4429 1469 32       		.byte	0x32
 4430 146a 00       		.byte	0
 4431 146b 27       		.uleb128 0x27
 4432 146c 58000000 		.4byte	.LVL77
 4433 1470 20       		.uleb128 0x20
 4434 1471 01       		.uleb128 0x1
 4435 1472 50       		.byte	0x50
 4436 1473 03       		.uleb128 0x3
 4437 1474 0A       		.byte	0xa
 4438 1475 1601     		.2byte	0x116
 4439 1477 20       		.uleb128 0x20
 4440 1478 01       		.uleb128 0x1
 4441 1479 51       		.byte	0x51
 4442 147a 02       		.uleb128 0x2
 4443 147b 77       		.byte	0x77
 4444 147c 00       		.sleb128 0
 4445 147d 00       		.byte	0
 4446 147e 00       		.byte	0
 4447 147f 07       		.uleb128 0x7
 4448 1480 04       		.byte	0x4
 4449 1481 85140000 		.4byte	0x1485
 4450 1485 28       		.uleb128 0x28
ARM GAS  C:\Windows\TEMP\cc5RoFpJ.s 			page 101


 4451 1486 BB040000 		.4byte	0x4bb
 4452 148a 1A       		.uleb128 0x1a
 4453 148b 42180000 		.4byte	.LASF539
 4454 148f 01       		.byte	0x1
 4455 1490 B603     		.2byte	0x3b6
 4456 1492 7F040000 		.4byte	0x47f
 4457 1496 00000000 		.4byte	.LFB12
 4458 149a 18020000 		.4byte	.LFE12-.LFB12
 4459 149e 01       		.uleb128 0x1
 4460 149f 9C       		.byte	0x9c
 4461 14a0 38160000 		.4byte	0x1638
 4462 14a4 1C       		.uleb128 0x1c
 4463 14a5 CD3E0000 		.4byte	.LASF540
 4464 14a9 01       		.byte	0x1
 4465 14aa B803     		.2byte	0x3b8
 4466 14ac 7F040000 		.4byte	0x47f
 4467 14b0 83060000 		.4byte	.LLST27
 4468 14b4 1E       		.uleb128 0x1e
 4469 14b5 D01D0000 		.4byte	.LASF524
 4470 14b9 01       		.byte	0x1
 4471 14ba B903     		.2byte	0x3b9
 4472 14bc 28050000 		.4byte	0x528
 4473 14c0 02       		.uleb128 0x2
 4474 14c1 91       		.byte	0x91
 4475 14c2 4C       		.sleb128 -52
 4476 14c3 1C       		.uleb128 0x1c
 4477 14c4 1E2F0000 		.4byte	.LASF535
 4478 14c8 01       		.byte	0x1
 4479 14c9 BA03     		.2byte	0x3ba
 4480 14cb 83060000 		.4byte	0x683
 4481 14cf 36070000 		.4byte	.LLST28
 4482 14d3 1C       		.uleb128 0x1c
 4483 14d4 F0350000 		.4byte	.LASF537
 4484 14d8 01       		.byte	0x1
 4485 14d9 BB03     		.2byte	0x3bb
 4486 14db 6B000000 		.4byte	0x6b
 4487 14df 5F070000 		.4byte	.LLST29
 4488 14e3 1E       		.uleb128 0x1e
 4489 14e4 22190000 		.4byte	.LASF522
 4490 14e8 01       		.byte	0x1
 4491 14e9 BC03     		.2byte	0x3bc
 4492 14eb 78030000 		.4byte	0x378
 4493 14ef 02       		.uleb128 0x2
 4494 14f0 91       		.byte	0x91
 4495 14f1 44       		.sleb128 -60
 4496 14f2 1E       		.uleb128 0x1e
 4497 14f3 A41D0000 		.4byte	.LASF541
 4498 14f7 01       		.byte	0x1
 4499 14f8 BD03     		.2byte	0x3bd
 4500 14fa 38160000 		.4byte	0x1638
 4501 14fe 03       		.uleb128 0x3
 4502 14ff 91       		.byte	0x91
 4503 1500 B07F     		.sleb128 -80
 4504 1502 1C       		.uleb128 0x1c
 4505 1503 40350000 		.4byte	.LASF542
 4506 1507 01       		.byte	0x1
 4507 1508 BE03     		.2byte	0x3be
ARM GAS  C:\Windows\TEMP\cc5RoFpJ.s 			page 102


 4508 150a 77000000 		.4byte	0x77
 4509 150e 93070000 		.4byte	.LLST30
 4510 1512 1C       		.uleb128 0x1c
 4511 1513 953E0000 		.4byte	.LASF543
 4512 1517 01       		.byte	0x1
 4513 1518 BF03     		.2byte	0x3bf
 4514 151a 77000000 		.4byte	0x77
 4515 151e A6070000 		.4byte	.LLST31
 4516 1522 1C       		.uleb128 0x1c
 4517 1523 CA3F0000 		.4byte	.LASF544
 4518 1527 01       		.byte	0x1
 4519 1528 C003     		.2byte	0x3c0
 4520 152a 77000000 		.4byte	0x77
 4521 152e D0070000 		.4byte	.LLST32
 4522 1532 1C       		.uleb128 0x1c
 4523 1533 8D160000 		.4byte	.LASF545
 4524 1537 01       		.byte	0x1
 4525 1538 C103     		.2byte	0x3c1
 4526 153a 77000000 		.4byte	0x77
 4527 153e 21080000 		.4byte	.LLST33
 4528 1542 1C       		.uleb128 0x1c
 4529 1543 9A200000 		.4byte	.LASF546
 4530 1547 01       		.byte	0x1
 4531 1548 C203     		.2byte	0x3c2
 4532 154a 77000000 		.4byte	0x77
 4533 154e 6B080000 		.4byte	.LLST34
 4534 1552 1C       		.uleb128 0x1c
 4535 1553 E41E0000 		.4byte	.LASF547
 4536 1557 01       		.byte	0x1
 4537 1558 C303     		.2byte	0x3c3
 4538 155a 6B000000 		.4byte	0x6b
 4539 155e 89080000 		.4byte	.LLST35
 4540 1562 1C       		.uleb128 0x1c
 4541 1563 51150000 		.4byte	.LASF548
 4542 1567 01       		.byte	0x1
 4543 1568 C403     		.2byte	0x3c4
 4544 156a 6B000000 		.4byte	0x6b
 4545 156e B2080000 		.4byte	.LLST36
 4546 1572 1C       		.uleb128 0x1c
 4547 1573 2D0B0000 		.4byte	.LASF549
 4548 1577 01       		.byte	0x1
 4549 1578 C503     		.2byte	0x3c5
 4550 157a 6B000000 		.4byte	0x6b
 4551 157e E8080000 		.4byte	.LLST37
 4552 1582 1E       		.uleb128 0x1e
 4553 1583 E52A0000 		.4byte	.LASF550
 4554 1587 01       		.byte	0x1
 4555 1588 C603     		.2byte	0x3c6
 4556 158a 6B000000 		.4byte	0x6b
 4557 158e 03       		.uleb128 0x3
 4558 158f 91       		.byte	0x91
 4559 1590 AF7F     		.sleb128 -81
 4560 1592 29       		.uleb128 0x29
 4561 1593 6900     		.ascii	"i\000"
 4562 1595 01       		.byte	0x1
 4563 1596 C703     		.2byte	0x3c7
 4564 1598 6B000000 		.4byte	0x6b
ARM GAS  C:\Windows\TEMP\cc5RoFpJ.s 			page 103


 4565 159c 22090000 		.4byte	.LLST38
 4566 15a0 26       		.uleb128 0x26
 4567 15a1 70000000 		.4byte	.LVL100
 4568 15a5 71190000 		.4byte	0x1971
 4569 15a9 BE150000 		.4byte	0x15be
 4570 15ad 20       		.uleb128 0x20
 4571 15ae 01       		.uleb128 0x1
 4572 15af 50       		.byte	0x50
 4573 15b0 02       		.uleb128 0x2
 4574 15b1 91       		.byte	0x91
 4575 15b2 4C       		.sleb128 -52
 4576 15b3 20       		.uleb128 0x20
 4577 15b4 01       		.uleb128 0x1
 4578 15b5 51       		.byte	0x51
 4579 15b6 01       		.uleb128 0x1
 4580 15b7 30       		.byte	0x30
 4581 15b8 20       		.uleb128 0x20
 4582 15b9 01       		.uleb128 0x1
 4583 15ba 52       		.byte	0x52
 4584 15bb 01       		.uleb128 0x1
 4585 15bc 30       		.byte	0x30
 4586 15bd 00       		.byte	0
 4587 15be 26       		.uleb128 0x26
 4588 15bf D8000000 		.4byte	.LVL117
 4589 15c3 71190000 		.4byte	0x1971
 4590 15c7 DC150000 		.4byte	0x15dc
 4591 15cb 20       		.uleb128 0x20
 4592 15cc 01       		.uleb128 0x1
 4593 15cd 50       		.byte	0x50
 4594 15ce 02       		.uleb128 0x2
 4595 15cf 91       		.byte	0x91
 4596 15d0 4C       		.sleb128 -52
 4597 15d1 20       		.uleb128 0x20
 4598 15d2 01       		.uleb128 0x1
 4599 15d3 51       		.byte	0x51
 4600 15d4 01       		.uleb128 0x1
 4601 15d5 30       		.byte	0x30
 4602 15d6 20       		.uleb128 0x20
 4603 15d7 01       		.uleb128 0x1
 4604 15d8 52       		.byte	0x52
 4605 15d9 01       		.uleb128 0x1
 4606 15da 30       		.byte	0x30
 4607 15db 00       		.byte	0
 4608 15dc 26       		.uleb128 0x26
 4609 15dd 04010000 		.4byte	.LVL119
 4610 15e1 71190000 		.4byte	0x1971
 4611 15e5 FA150000 		.4byte	0x15fa
 4612 15e9 20       		.uleb128 0x20
 4613 15ea 01       		.uleb128 0x1
 4614 15eb 50       		.byte	0x50
 4615 15ec 02       		.uleb128 0x2
 4616 15ed 91       		.byte	0x91
 4617 15ee 4C       		.sleb128 -52
 4618 15ef 20       		.uleb128 0x20
 4619 15f0 01       		.uleb128 0x1
 4620 15f1 51       		.byte	0x51
 4621 15f2 01       		.uleb128 0x1
ARM GAS  C:\Windows\TEMP\cc5RoFpJ.s 			page 104


 4622 15f3 30       		.byte	0x30
 4623 15f4 20       		.uleb128 0x20
 4624 15f5 01       		.uleb128 0x1
 4625 15f6 52       		.byte	0x52
 4626 15f7 01       		.uleb128 0x1
 4627 15f8 30       		.byte	0x30
 4628 15f9 00       		.byte	0
 4629 15fa 26       		.uleb128 0x26
 4630 15fb 88010000 		.4byte	.LVL129
 4631 15ff 71190000 		.4byte	0x1971
 4632 1603 18160000 		.4byte	0x1618
 4633 1607 20       		.uleb128 0x20
 4634 1608 01       		.uleb128 0x1
 4635 1609 50       		.byte	0x50
 4636 160a 02       		.uleb128 0x2
 4637 160b 91       		.byte	0x91
 4638 160c 4C       		.sleb128 -52
 4639 160d 20       		.uleb128 0x20
 4640 160e 01       		.uleb128 0x1
 4641 160f 51       		.byte	0x51
 4642 1610 01       		.uleb128 0x1
 4643 1611 30       		.byte	0x30
 4644 1612 20       		.uleb128 0x20
 4645 1613 01       		.uleb128 0x1
 4646 1614 52       		.byte	0x52
 4647 1615 01       		.uleb128 0x1
 4648 1616 30       		.byte	0x30
 4649 1617 00       		.byte	0
 4650 1618 1F       		.uleb128 0x1f
 4651 1619 FE010000 		.4byte	.LVL141
 4652 161d 7D190000 		.4byte	0x197d
 4653 1621 20       		.uleb128 0x20
 4654 1622 01       		.uleb128 0x1
 4655 1623 50       		.byte	0x50
 4656 1624 02       		.uleb128 0x2
 4657 1625 91       		.byte	0x91
 4658 1626 4C       		.sleb128 -52
 4659 1627 20       		.uleb128 0x20
 4660 1628 01       		.uleb128 0x1
 4661 1629 51       		.byte	0x51
 4662 162a 01       		.uleb128 0x1
 4663 162b 30       		.byte	0x30
 4664 162c 20       		.uleb128 0x20
 4665 162d 01       		.uleb128 0x1
 4666 162e 52       		.byte	0x52
 4667 162f 01       		.uleb128 0x1
 4668 1630 30       		.byte	0x30
 4669 1631 20       		.uleb128 0x20
 4670 1632 01       		.uleb128 0x1
 4671 1633 53       		.byte	0x53
 4672 1634 01       		.uleb128 0x1
 4673 1635 30       		.byte	0x30
 4674 1636 00       		.byte	0
 4675 1637 00       		.byte	0
 4676 1638 0D       		.uleb128 0xd
 4677 1639 6B000000 		.4byte	0x6b
 4678 163d 48160000 		.4byte	0x1648
ARM GAS  C:\Windows\TEMP\cc5RoFpJ.s 			page 105


 4679 1641 0E       		.uleb128 0xe
 4680 1642 B0000000 		.4byte	0xb0
 4681 1646 13       		.byte	0x13
 4682 1647 00       		.byte	0
 4683 1648 18       		.uleb128 0x18
 4684 1649 E1350000 		.4byte	.LASF551
 4685 164d 01       		.byte	0x1
 4686 164e 99       		.byte	0x99
 4687 164f 00000000 		.4byte	.LFB2
 4688 1653 08000000 		.4byte	.LFE2-.LFB2
 4689 1657 01       		.uleb128 0x1
 4690 1658 9C       		.byte	0x9c
 4691 1659 67160000 		.4byte	0x1667
 4692 165d 24       		.uleb128 0x24
 4693 165e 06000000 		.4byte	.LVL142
 4694 1662 8A140000 		.4byte	0x148a
 4695 1666 00       		.byte	0
 4696 1667 2A       		.uleb128 0x2a
 4697 1668 9C2E0000 		.4byte	.LASF552
 4698 166c 01       		.byte	0x1
 4699 166d E8       		.byte	0xe8
 4700 166e 7F040000 		.4byte	0x47f
 4701 1672 00000000 		.4byte	.LFB4
 4702 1676 78020000 		.4byte	.LFE4-.LFB4
 4703 167a 01       		.uleb128 0x1
 4704 167b 9C       		.byte	0x9c
 4705 167c BE170000 		.4byte	0x17be
 4706 1680 2B       		.uleb128 0x2b
 4707 1681 CD020000 		.4byte	.LASF534
 4708 1685 01       		.byte	0x1
 4709 1686 E8       		.byte	0xe8
 4710 1687 BE170000 		.4byte	0x17be
 4711 168b 83090000 		.4byte	.LLST39
 4712 168f 2C       		.uleb128 0x2c
 4713 1690 6900     		.ascii	"i\000"
 4714 1692 01       		.byte	0x1
 4715 1693 EA       		.byte	0xea
 4716 1694 6B000000 		.4byte	0x6b
 4717 1698 C5090000 		.4byte	.LLST40
 4718 169c 2C       		.uleb128 0x2c
 4719 169d 6A00     		.ascii	"j\000"
 4720 169f 01       		.byte	0x1
 4721 16a0 EB       		.byte	0xeb
 4722 16a1 6B000000 		.4byte	0x6b
 4723 16a5 E3090000 		.4byte	.LLST41
 4724 16a9 2D       		.uleb128 0x2d
 4725 16aa CD3E0000 		.4byte	.LASF540
 4726 16ae 01       		.byte	0x1
 4727 16af EC       		.byte	0xec
 4728 16b0 7F040000 		.4byte	0x47f
 4729 16b4 0C0A0000 		.4byte	.LLST42
 4730 16b8 2D       		.uleb128 0x2d
 4731 16b9 E2200000 		.4byte	.LASF553
 4732 16bd 01       		.byte	0x1
 4733 16be ED       		.byte	0xed
 4734 16bf 8B040000 		.4byte	0x48b
 4735 16c3 A50A0000 		.4byte	.LLST43
ARM GAS  C:\Windows\TEMP\cc5RoFpJ.s 			page 106


 4736 16c7 2D       		.uleb128 0x2d
 4737 16c8 6D0D0000 		.4byte	.LASF554
 4738 16cc 01       		.byte	0x1
 4739 16cd EE       		.byte	0xee
 4740 16ce 6B000000 		.4byte	0x6b
 4741 16d2 B80A0000 		.4byte	.LLST44
 4742 16d6 2D       		.uleb128 0x2d
 4743 16d7 A0170000 		.4byte	.LASF555
 4744 16db 01       		.byte	0x1
 4745 16dc EF       		.byte	0xef
 4746 16dd 2D070000 		.4byte	0x72d
 4747 16e1 1C0B0000 		.4byte	.LLST45
 4748 16e5 2E       		.uleb128 0x2e
 4749 16e6 173E0000 		.4byte	.LASF556
 4750 16ea 01       		.byte	0x1
 4751 16eb F0       		.byte	0xf0
 4752 16ec 21080000 		.4byte	0x821
 4753 16f0 02       		.uleb128 0x2
 4754 16f1 91       		.byte	0x91
 4755 16f2 4C       		.sleb128 -52
 4756 16f3 2D       		.uleb128 0x2d
 4757 16f4 48200000 		.4byte	.LASF557
 4758 16f8 01       		.byte	0x1
 4759 16f9 F1       		.byte	0xf1
 4760 16fa 83000000 		.4byte	0x83
 4761 16fe FD0B0000 		.4byte	.LLST46
 4762 1702 2E       		.uleb128 0x2e
 4763 1703 790F0000 		.4byte	.LASF558
 4764 1707 01       		.byte	0x1
 4765 1708 F2       		.byte	0xf2
 4766 1709 C5070000 		.4byte	0x7c5
 4767 170d 02       		.uleb128 0x2
 4768 170e 91       		.byte	0x91
 4769 170f 40       		.sleb128 -64
 4770 1710 2D       		.uleb128 0x2d
 4771 1711 A3320000 		.4byte	.LASF559
 4772 1715 01       		.byte	0x1
 4773 1716 F3       		.byte	0xf3
 4774 1717 6B000000 		.4byte	0x6b
 4775 171b 5F0C0000 		.4byte	.LLST47
 4776 171f 24       		.uleb128 0x24
 4777 1720 B8000000 		.4byte	.LVL158
 4778 1724 94190000 		.4byte	0x1994
 4779 1728 24       		.uleb128 0x24
 4780 1729 EA000000 		.4byte	.LVL163
 4781 172d 94190000 		.4byte	0x1994
 4782 1731 26       		.uleb128 0x26
 4783 1732 76010000 		.4byte	.LVL177
 4784 1736 B5190000 		.4byte	0x19b5
 4785 173a 4B170000 		.4byte	0x174b
 4786 173e 20       		.uleb128 0x20
 4787 173f 01       		.uleb128 0x1
 4788 1740 51       		.byte	0x51
 4789 1741 02       		.uleb128 0x2
 4790 1742 7A       		.byte	0x7a
 4791 1743 00       		.sleb128 0
 4792 1744 20       		.uleb128 0x20
ARM GAS  C:\Windows\TEMP\cc5RoFpJ.s 			page 107


 4793 1745 01       		.uleb128 0x1
 4794 1746 52       		.byte	0x52
 4795 1747 02       		.uleb128 0x2
 4796 1748 08       		.byte	0x8
 4797 1749 42       		.byte	0x42
 4798 174a 00       		.byte	0
 4799 174b 2F       		.uleb128 0x2f
 4800 174c A6010000 		.4byte	.LVL180
 4801 1750 62170000 		.4byte	0x1762
 4802 1754 20       		.uleb128 0x20
 4803 1755 01       		.uleb128 0x1
 4804 1756 50       		.byte	0x50
 4805 1757 03       		.uleb128 0x3
 4806 1758 0A       		.byte	0xa
 4807 1759 1701     		.2byte	0x117
 4808 175b 20       		.uleb128 0x20
 4809 175c 01       		.uleb128 0x1
 4810 175d 51       		.byte	0x51
 4811 175e 02       		.uleb128 0x2
 4812 175f 7D       		.byte	0x7d
 4813 1760 00       		.sleb128 0
 4814 1761 00       		.byte	0
 4815 1762 2F       		.uleb128 0x2f
 4816 1763 CE010000 		.4byte	.LVL183
 4817 1767 79170000 		.4byte	0x1779
 4818 176b 20       		.uleb128 0x20
 4819 176c 01       		.uleb128 0x1
 4820 176d 50       		.byte	0x50
 4821 176e 03       		.uleb128 0x3
 4822 176f 0A       		.byte	0xa
 4823 1770 1801     		.2byte	0x118
 4824 1772 20       		.uleb128 0x20
 4825 1773 01       		.uleb128 0x1
 4826 1774 51       		.byte	0x51
 4827 1775 02       		.uleb128 0x2
 4828 1776 91       		.byte	0x91
 4829 1777 4C       		.sleb128 -52
 4830 1778 00       		.byte	0
 4831 1779 26       		.uleb128 0x26
 4832 177a DC010000 		.4byte	.LVL184
 4833 177e 7D190000 		.4byte	0x197d
 4834 1782 9E170000 		.4byte	0x179e
 4835 1786 20       		.uleb128 0x20
 4836 1787 01       		.uleb128 0x1
 4837 1788 50       		.byte	0x50
 4838 1789 02       		.uleb128 0x2
 4839 178a 7A       		.byte	0x7a
 4840 178b 04       		.sleb128 4
 4841 178c 20       		.uleb128 0x20
 4842 178d 01       		.uleb128 0x1
 4843 178e 51       		.byte	0x51
 4844 178f 01       		.uleb128 0x1
 4845 1790 30       		.byte	0x30
 4846 1791 20       		.uleb128 0x20
 4847 1792 01       		.uleb128 0x1
 4848 1793 52       		.byte	0x52
 4849 1794 02       		.uleb128 0x2
ARM GAS  C:\Windows\TEMP\cc5RoFpJ.s 			page 108


 4850 1795 7A       		.byte	0x7a
 4851 1796 00       		.sleb128 0
 4852 1797 20       		.uleb128 0x20
 4853 1798 01       		.uleb128 0x1
 4854 1799 53       		.byte	0x53
 4855 179a 02       		.uleb128 0x2
 4856 179b 08       		.byte	0x8
 4857 179c 40       		.byte	0x40
 4858 179d 00       		.byte	0
 4859 179e 2F       		.uleb128 0x2f
 4860 179f EE010000 		.4byte	.LVL189
 4861 17a3 B4170000 		.4byte	0x17b4
 4862 17a7 20       		.uleb128 0x20
 4863 17a8 01       		.uleb128 0x1
 4864 17a9 50       		.byte	0x50
 4865 17aa 02       		.uleb128 0x2
 4866 17ab 7B       		.byte	0x7b
 4867 17ac 00       		.sleb128 0
 4868 17ad 20       		.uleb128 0x20
 4869 17ae 01       		.uleb128 0x1
 4870 17af 51       		.byte	0x51
 4871 17b0 02       		.uleb128 0x2
 4872 17b1 91       		.byte	0x91
 4873 17b2 4C       		.sleb128 -52
 4874 17b3 00       		.byte	0
 4875 17b4 24       		.uleb128 0x24
 4876 17b5 4A020000 		.4byte	.LVL199
 4877 17b9 8A140000 		.4byte	0x148a
 4878 17bd 00       		.byte	0
 4879 17be 07       		.uleb128 0x7
 4880 17bf 04       		.byte	0x4
 4881 17c0 6B050000 		.4byte	0x56b
 4882 17c4 1A       		.uleb128 0x1a
 4883 17c5 572E0000 		.4byte	.LASF560
 4884 17c9 01       		.byte	0x1
 4885 17ca DC01     		.2byte	0x1dc
 4886 17cc 66030000 		.4byte	0x366
 4887 17d0 00000000 		.4byte	.LFB5
 4888 17d4 6C000000 		.4byte	.LFE5-.LFB5
 4889 17d8 01       		.uleb128 0x1
 4890 17d9 9C       		.byte	0x9c
 4891 17da 70180000 		.4byte	0x1870
 4892 17de 1B       		.uleb128 0x1b
 4893 17df AF010000 		.4byte	.LASF216
 4894 17e3 01       		.byte	0x1
 4895 17e4 DC01     		.2byte	0x1dc
 4896 17e6 83060000 		.4byte	0x683
 4897 17ea 890C0000 		.4byte	.LLST48
 4898 17ee 1B       		.uleb128 0x1b
 4899 17ef 7E130000 		.4byte	.LASF217
 4900 17f3 01       		.byte	0x1
 4901 17f4 DD01     		.2byte	0x1dd
 4902 17f6 6B000000 		.4byte	0x6b
 4903 17fa C30C0000 		.4byte	.LLST49
 4904 17fe 1B       		.uleb128 0x1b
 4905 17ff 28160000 		.4byte	.LASF521
 4906 1803 01       		.byte	0x1
ARM GAS  C:\Windows\TEMP\cc5RoFpJ.s 			page 109


 4907 1804 DD01     		.2byte	0x1dd
 4908 1806 6B000000 		.4byte	0x6b
 4909 180a FD0C0000 		.4byte	.LLST50
 4910 180e 1B       		.uleb128 0x1b
 4911 180f 22190000 		.4byte	.LASF522
 4912 1813 01       		.byte	0x1
 4913 1814 DD01     		.2byte	0x1dd
 4914 1816 72030000 		.4byte	0x372
 4915 181a 370D0000 		.4byte	.LLST51
 4916 181e 1C       		.uleb128 0x1c
 4917 181f A3340000 		.4byte	.LASF523
 4918 1823 01       		.byte	0x1
 4919 1824 DF01     		.2byte	0x1df
 4920 1826 66030000 		.4byte	0x366
 4921 182a 7D0D0000 		.4byte	.LLST52
 4922 182e 30       		.uleb128 0x30
 4923 182f 18000000 		.4byte	.Ldebug_ranges0+0x18
 4924 1833 66180000 		.4byte	0x1866
 4925 1837 1E       		.uleb128 0x1e
 4926 1838 D01D0000 		.4byte	.LASF524
 4927 183c 01       		.byte	0x1
 4928 183d EE01     		.2byte	0x1ee
 4929 183f 28050000 		.4byte	0x528
 4930 1843 02       		.uleb128 0x2
 4931 1844 91       		.byte	0x91
 4932 1845 6C       		.sleb128 -20
 4933 1846 1F       		.uleb128 0x1f
 4934 1847 36000000 		.4byte	.LVL211
 4935 184b 7D190000 		.4byte	0x197d
 4936 184f 20       		.uleb128 0x20
 4937 1850 01       		.uleb128 0x1
 4938 1851 50       		.byte	0x50
 4939 1852 02       		.uleb128 0x2
 4940 1853 91       		.byte	0x91
 4941 1854 6C       		.sleb128 -20
 4942 1855 20       		.uleb128 0x20
 4943 1856 01       		.uleb128 0x1
 4944 1857 51       		.byte	0x51
 4945 1858 01       		.uleb128 0x1
 4946 1859 30       		.byte	0x30
 4947 185a 20       		.uleb128 0x20
 4948 185b 01       		.uleb128 0x1
 4949 185c 52       		.byte	0x52
 4950 185d 01       		.uleb128 0x1
 4951 185e 30       		.byte	0x30
 4952 185f 20       		.uleb128 0x20
 4953 1860 01       		.uleb128 0x1
 4954 1861 53       		.byte	0x53
 4955 1862 01       		.uleb128 0x1
 4956 1863 30       		.byte	0x30
 4957 1864 00       		.byte	0
 4958 1865 00       		.byte	0
 4959 1866 24       		.uleb128 0x24
 4960 1867 58000000 		.4byte	.LVL217
 4961 186b 8A140000 		.4byte	0x148a
 4962 186f 00       		.byte	0
 4963 1870 0D       		.uleb128 0xd
ARM GAS  C:\Windows\TEMP\cc5RoFpJ.s 			page 110


 4964 1871 0D070000 		.4byte	0x70d
 4965 1875 80180000 		.4byte	0x1880
 4966 1879 0E       		.uleb128 0xe
 4967 187a B0000000 		.4byte	0xb0
 4968 187e 01       		.byte	0x1
 4969 187f 00       		.byte	0
 4970 1880 2E       		.uleb128 0x2e
 4971 1881 521F0000 		.4byte	.LASF561
 4972 1885 01       		.byte	0x1
 4973 1886 17       		.byte	0x17
 4974 1887 70180000 		.4byte	0x1870
 4975 188b 05       		.uleb128 0x5
 4976 188c 03       		.byte	0x3
 4977 188d 14000000 		.4byte	aiossCharIdx0
 4978 1891 2E       		.uleb128 0x2e
 4979 1892 601F0000 		.4byte	.LASF562
 4980 1896 01       		.byte	0x1
 4981 1897 37       		.byte	0x37
 4982 1898 70180000 		.4byte	0x1870
 4983 189c 05       		.uleb128 0x5
 4984 189d 03       		.byte	0x3
 4985 189e 34000000 		.4byte	aiossCharIdx1
 4986 18a2 0D       		.uleb128 0xd
 4987 18a3 0D070000 		.4byte	0x70d
 4988 18a7 B2180000 		.4byte	0x18b2
 4989 18ab 0E       		.uleb128 0xe
 4990 18ac B0000000 		.4byte	0xb0
 4991 18b0 00       		.byte	0
 4992 18b1 00       		.byte	0
 4993 18b2 2E       		.uleb128 0x2e
 4994 18b3 360F0000 		.4byte	.LASF563
 4995 18b7 01       		.byte	0x1
 4996 18b8 57       		.byte	0x57
 4997 18b9 A2180000 		.4byte	0x18a2
 4998 18bd 05       		.uleb128 0x5
 4999 18be 03       		.byte	0x3
 5000 18bf 04000000 		.4byte	aiossCharIdx2
 5001 18c3 2E       		.uleb128 0x2e
 5002 18c4 3D1F0000 		.4byte	.LASF564
 5003 18c8 01       		.byte	0x1
 5004 18c9 7F       		.byte	0x7f
 5005 18ca 8B040000 		.4byte	0x48b
 5006 18ce 05       		.uleb128 0x5
 5007 18cf 03       		.byte	0x3
 5008 18d0 04000000 		.4byte	cyBle_aiossReqHandle
 5009 18d4 2E       		.uleb128 0x2e
 5010 18d5 00000000 		.4byte	.LASF565
 5011 18d9 01       		.byte	0x1
 5012 18da 90       		.byte	0x90
 5013 18db 52060000 		.4byte	0x652
 5014 18df 05       		.uleb128 0x5
 5015 18e0 03       		.byte	0x3
 5016 18e1 00000000 		.4byte	CyBle_AiosApplCallback
 5017 18e5 31       		.uleb128 0x31
 5018 18e6 B93B0000 		.4byte	.LASF566
 5019 18ea 07       		.byte	0x7
 5020 18eb A302     		.2byte	0x2a3
ARM GAS  C:\Windows\TEMP\cc5RoFpJ.s 			page 111


 5021 18ed A4000000 		.4byte	0xa4
 5022 18f1 31       		.uleb128 0x31
 5023 18f2 92330000 		.4byte	.LASF567
 5024 18f6 07       		.byte	0x7
 5025 18f7 C202     		.2byte	0x2c2
 5026 18f9 6B000000 		.4byte	0x6b
 5027 18fd 31       		.uleb128 0x31
 5028 18fe 17000000 		.4byte	.LASF568
 5029 1902 07       		.byte	0x7
 5030 1903 C802     		.2byte	0x2c8
 5031 1905 6B000000 		.4byte	0x6b
 5032 1909 0D       		.uleb128 0xd
 5033 190a 19190000 		.4byte	0x1919
 5034 190e 19190000 		.4byte	0x1919
 5035 1912 0E       		.uleb128 0xe
 5036 1913 B0000000 		.4byte	0xb0
 5037 1917 2C       		.byte	0x2c
 5038 1918 00       		.byte	0
 5039 1919 28       		.uleb128 0x28
 5040 191a 46060000 		.4byte	0x646
 5041 191e 32       		.uleb128 0x32
 5042 191f AE250000 		.4byte	.LASF569
 5043 1923 0A       		.byte	0xa
 5044 1924 E8       		.byte	0xe8
 5045 1925 29190000 		.4byte	0x1929
 5046 1929 28       		.uleb128 0x28
 5047 192a 09190000 		.4byte	0x1909
 5048 192e 33       		.uleb128 0x33
 5049 192f C5210000 		.4byte	.LASF570
 5050 1933 01       		.byte	0x1
 5051 1934 6D       		.byte	0x6d
 5052 1935 3F190000 		.4byte	0x193f
 5053 1939 05       		.uleb128 0x5
 5054 193a 03       		.byte	0x3
 5055 193b 00000000 		.4byte	cyBle_aioss
 5056 193f 28       		.uleb128 0x28
 5057 1940 6F070000 		.4byte	0x76f
 5058 1944 0D       		.uleb128 0xd
 5059 1945 6B000000 		.4byte	0x6b
 5060 1949 54190000 		.4byte	0x1954
 5061 194d 0E       		.uleb128 0xe
 5062 194e B0000000 		.4byte	0xb0
 5063 1952 02       		.byte	0x2
 5064 1953 00       		.byte	0
 5065 1954 33       		.uleb128 0x33
 5066 1955 A8000000 		.4byte	.LASF571
 5067 1959 01       		.byte	0x1
 5068 195a 69       		.byte	0x69
 5069 195b 44190000 		.4byte	0x1944
 5070 195f 05       		.uleb128 0x5
 5071 1960 03       		.byte	0x3
 5072 1961 00000000 		.4byte	cyBle_aiossCharInstances
 5073 1965 31       		.uleb128 0x31
 5074 1966 AD340000 		.4byte	.LASF572
 5075 196a 09       		.byte	0x9
 5076 196b A90A     		.2byte	0xaa9
 5077 196d 61100000 		.4byte	0x1061
ARM GAS  C:\Windows\TEMP\cc5RoFpJ.s 			page 112


 5078 1971 34       		.uleb128 0x34
 5079 1972 87150000 		.4byte	.LASF573
 5080 1976 87150000 		.4byte	.LASF573
 5081 197a 06       		.byte	0x6
 5082 197b AF01     		.2byte	0x1af
 5083 197d 34       		.uleb128 0x34
 5084 197e 45110000 		.4byte	.LASF574
 5085 1982 45110000 		.4byte	.LASF574
 5086 1986 06       		.byte	0x6
 5087 1987 7E01     		.2byte	0x17e
 5088 1989 35       		.uleb128 0x35
 5089 198a B7400000 		.4byte	.LASF575
 5090 198e B7400000 		.4byte	.LASF575
 5091 1992 05       		.byte	0x5
 5092 1993 F2       		.byte	0xf2
 5093 1994 34       		.uleb128 0x34
 5094 1995 672D0000 		.4byte	.LASF576
 5095 1999 672D0000 		.4byte	.LASF576
 5096 199d 07       		.byte	0x7
 5097 199e 6202     		.2byte	0x262
 5098 19a0 34       		.uleb128 0x34
 5099 19a1 CA220000 		.4byte	.LASF577
 5100 19a5 CA220000 		.4byte	.LASF577
 5101 19a9 05       		.byte	0x5
 5102 19aa 1A01     		.2byte	0x11a
 5103 19ac 36       		.uleb128 0x36
 5104 19ad 0E3C0000 		.4byte	.LASF582
 5105 19b1 0E3C0000 		.4byte	.LASF582
 5106 19b5 34       		.uleb128 0x34
 5107 19b6 43240000 		.4byte	.LASF578
 5108 19ba 43240000 		.4byte	.LASF578
 5109 19be 06       		.byte	0x6
 5110 19bf 1402     		.2byte	0x214
 5111 19c1 00       		.byte	0
 5112              		.section	.debug_abbrev,"",%progbits
 5113              	.Ldebug_abbrev0:
 5114 0000 01       		.uleb128 0x1
 5115 0001 11       		.uleb128 0x11
 5116 0002 01       		.byte	0x1
 5117 0003 25       		.uleb128 0x25
 5118 0004 0E       		.uleb128 0xe
 5119 0005 13       		.uleb128 0x13
 5120 0006 0B       		.uleb128 0xb
 5121 0007 03       		.uleb128 0x3
 5122 0008 0E       		.uleb128 0xe
 5123 0009 1B       		.uleb128 0x1b
 5124 000a 0E       		.uleb128 0xe
 5125 000b 55       		.uleb128 0x55
 5126 000c 17       		.uleb128 0x17
 5127 000d 11       		.uleb128 0x11
 5128 000e 01       		.uleb128 0x1
 5129 000f 10       		.uleb128 0x10
 5130 0010 17       		.uleb128 0x17
 5131 0011 00       		.byte	0
 5132 0012 00       		.byte	0
 5133 0013 02       		.uleb128 0x2
 5134 0014 24       		.uleb128 0x24
ARM GAS  C:\Windows\TEMP\cc5RoFpJ.s 			page 113


 5135 0015 00       		.byte	0
 5136 0016 0B       		.uleb128 0xb
 5137 0017 0B       		.uleb128 0xb
 5138 0018 3E       		.uleb128 0x3e
 5139 0019 0B       		.uleb128 0xb
 5140 001a 03       		.uleb128 0x3
 5141 001b 0E       		.uleb128 0xe
 5142 001c 00       		.byte	0
 5143 001d 00       		.byte	0
 5144 001e 03       		.uleb128 0x3
 5145 001f 24       		.uleb128 0x24
 5146 0020 00       		.byte	0
 5147 0021 0B       		.uleb128 0xb
 5148 0022 0B       		.uleb128 0xb
 5149 0023 3E       		.uleb128 0x3e
 5150 0024 0B       		.uleb128 0xb
 5151 0025 03       		.uleb128 0x3
 5152 0026 08       		.uleb128 0x8
 5153 0027 00       		.byte	0
 5154 0028 00       		.byte	0
 5155 0029 04       		.uleb128 0x4
 5156 002a 16       		.uleb128 0x16
 5157 002b 00       		.byte	0
 5158 002c 03       		.uleb128 0x3
 5159 002d 0E       		.uleb128 0xe
 5160 002e 3A       		.uleb128 0x3a
 5161 002f 0B       		.uleb128 0xb
 5162 0030 3B       		.uleb128 0x3b
 5163 0031 05       		.uleb128 0x5
 5164 0032 49       		.uleb128 0x49
 5165 0033 13       		.uleb128 0x13
 5166 0034 00       		.byte	0
 5167 0035 00       		.byte	0
 5168 0036 05       		.uleb128 0x5
 5169 0037 35       		.uleb128 0x35
 5170 0038 00       		.byte	0
 5171 0039 49       		.uleb128 0x49
 5172 003a 13       		.uleb128 0x13
 5173 003b 00       		.byte	0
 5174 003c 00       		.byte	0
 5175 003d 06       		.uleb128 0x6
 5176 003e 0F       		.uleb128 0xf
 5177 003f 00       		.byte	0
 5178 0040 0B       		.uleb128 0xb
 5179 0041 0B       		.uleb128 0xb
 5180 0042 00       		.byte	0
 5181 0043 00       		.byte	0
 5182 0044 07       		.uleb128 0x7
 5183 0045 0F       		.uleb128 0xf
 5184 0046 00       		.byte	0
 5185 0047 0B       		.uleb128 0xb
 5186 0048 0B       		.uleb128 0xb
 5187 0049 49       		.uleb128 0x49
 5188 004a 13       		.uleb128 0x13
 5189 004b 00       		.byte	0
 5190 004c 00       		.byte	0
 5191 004d 08       		.uleb128 0x8
ARM GAS  C:\Windows\TEMP\cc5RoFpJ.s 			page 114


 5192 004e 15       		.uleb128 0x15
 5193 004f 01       		.byte	0x1
 5194 0050 27       		.uleb128 0x27
 5195 0051 19       		.uleb128 0x19
 5196 0052 01       		.uleb128 0x1
 5197 0053 13       		.uleb128 0x13
 5198 0054 00       		.byte	0
 5199 0055 00       		.byte	0
 5200 0056 09       		.uleb128 0x9
 5201 0057 05       		.uleb128 0x5
 5202 0058 00       		.byte	0
 5203 0059 49       		.uleb128 0x49
 5204 005a 13       		.uleb128 0x13
 5205 005b 00       		.byte	0
 5206 005c 00       		.byte	0
 5207 005d 0A       		.uleb128 0xa
 5208 005e 04       		.uleb128 0x4
 5209 005f 01       		.byte	0x1
 5210 0060 0B       		.uleb128 0xb
 5211 0061 0B       		.uleb128 0xb
 5212 0062 49       		.uleb128 0x49
 5213 0063 13       		.uleb128 0x13
 5214 0064 3A       		.uleb128 0x3a
 5215 0065 0B       		.uleb128 0xb
 5216 0066 3B       		.uleb128 0x3b
 5217 0067 05       		.uleb128 0x5
 5218 0068 01       		.uleb128 0x1
 5219 0069 13       		.uleb128 0x13
 5220 006a 00       		.byte	0
 5221 006b 00       		.byte	0
 5222 006c 0B       		.uleb128 0xb
 5223 006d 28       		.uleb128 0x28
 5224 006e 00       		.byte	0
 5225 006f 03       		.uleb128 0x3
 5226 0070 0E       		.uleb128 0xe
 5227 0071 1C       		.uleb128 0x1c
 5228 0072 0B       		.uleb128 0xb
 5229 0073 00       		.byte	0
 5230 0074 00       		.byte	0
 5231 0075 0C       		.uleb128 0xc
 5232 0076 28       		.uleb128 0x28
 5233 0077 00       		.byte	0
 5234 0078 03       		.uleb128 0x3
 5235 0079 0E       		.uleb128 0xe
 5236 007a 1C       		.uleb128 0x1c
 5237 007b 05       		.uleb128 0x5
 5238 007c 00       		.byte	0
 5239 007d 00       		.byte	0
 5240 007e 0D       		.uleb128 0xd
 5241 007f 01       		.uleb128 0x1
 5242 0080 01       		.byte	0x1
 5243 0081 49       		.uleb128 0x49
 5244 0082 13       		.uleb128 0x13
 5245 0083 01       		.uleb128 0x1
 5246 0084 13       		.uleb128 0x13
 5247 0085 00       		.byte	0
 5248 0086 00       		.byte	0
ARM GAS  C:\Windows\TEMP\cc5RoFpJ.s 			page 115


 5249 0087 0E       		.uleb128 0xe
 5250 0088 21       		.uleb128 0x21
 5251 0089 00       		.byte	0
 5252 008a 49       		.uleb128 0x49
 5253 008b 13       		.uleb128 0x13
 5254 008c 2F       		.uleb128 0x2f
 5255 008d 0B       		.uleb128 0xb
 5256 008e 00       		.byte	0
 5257 008f 00       		.byte	0
 5258 0090 0F       		.uleb128 0xf
 5259 0091 04       		.uleb128 0x4
 5260 0092 01       		.byte	0x1
 5261 0093 0B       		.uleb128 0xb
 5262 0094 0B       		.uleb128 0xb
 5263 0095 49       		.uleb128 0x49
 5264 0096 13       		.uleb128 0x13
 5265 0097 3A       		.uleb128 0x3a
 5266 0098 0B       		.uleb128 0xb
 5267 0099 3B       		.uleb128 0x3b
 5268 009a 0B       		.uleb128 0xb
 5269 009b 01       		.uleb128 0x1
 5270 009c 13       		.uleb128 0x13
 5271 009d 00       		.byte	0
 5272 009e 00       		.byte	0
 5273 009f 10       		.uleb128 0x10
 5274 00a0 13       		.uleb128 0x13
 5275 00a1 01       		.byte	0x1
 5276 00a2 0B       		.uleb128 0xb
 5277 00a3 0B       		.uleb128 0xb
 5278 00a4 3A       		.uleb128 0x3a
 5279 00a5 0B       		.uleb128 0xb
 5280 00a6 3B       		.uleb128 0x3b
 5281 00a7 05       		.uleb128 0x5
 5282 00a8 01       		.uleb128 0x1
 5283 00a9 13       		.uleb128 0x13
 5284 00aa 00       		.byte	0
 5285 00ab 00       		.byte	0
 5286 00ac 11       		.uleb128 0x11
 5287 00ad 0D       		.uleb128 0xd
 5288 00ae 00       		.byte	0
 5289 00af 03       		.uleb128 0x3
 5290 00b0 0E       		.uleb128 0xe
 5291 00b1 3A       		.uleb128 0x3a
 5292 00b2 0B       		.uleb128 0xb
 5293 00b3 3B       		.uleb128 0x3b
 5294 00b4 05       		.uleb128 0x5
 5295 00b5 49       		.uleb128 0x49
 5296 00b6 13       		.uleb128 0x13
 5297 00b7 38       		.uleb128 0x38
 5298 00b8 0B       		.uleb128 0xb
 5299 00b9 00       		.byte	0
 5300 00ba 00       		.byte	0
 5301 00bb 12       		.uleb128 0x12
 5302 00bc 0D       		.uleb128 0xd
 5303 00bd 00       		.byte	0
 5304 00be 03       		.uleb128 0x3
 5305 00bf 08       		.uleb128 0x8
ARM GAS  C:\Windows\TEMP\cc5RoFpJ.s 			page 116


 5306 00c0 3A       		.uleb128 0x3a
 5307 00c1 0B       		.uleb128 0xb
 5308 00c2 3B       		.uleb128 0x3b
 5309 00c3 05       		.uleb128 0x5
 5310 00c4 49       		.uleb128 0x49
 5311 00c5 13       		.uleb128 0x13
 5312 00c6 38       		.uleb128 0x38
 5313 00c7 0B       		.uleb128 0xb
 5314 00c8 00       		.byte	0
 5315 00c9 00       		.byte	0
 5316 00ca 13       		.uleb128 0x13
 5317 00cb 16       		.uleb128 0x16
 5318 00cc 00       		.byte	0
 5319 00cd 03       		.uleb128 0x3
 5320 00ce 0E       		.uleb128 0xe
 5321 00cf 3A       		.uleb128 0x3a
 5322 00d0 0B       		.uleb128 0xb
 5323 00d1 3B       		.uleb128 0x3b
 5324 00d2 0B       		.uleb128 0xb
 5325 00d3 49       		.uleb128 0x49
 5326 00d4 13       		.uleb128 0x13
 5327 00d5 00       		.byte	0
 5328 00d6 00       		.byte	0
 5329 00d7 14       		.uleb128 0x14
 5330 00d8 13       		.uleb128 0x13
 5331 00d9 01       		.byte	0x1
 5332 00da 0B       		.uleb128 0xb
 5333 00db 0B       		.uleb128 0xb
 5334 00dc 3A       		.uleb128 0x3a
 5335 00dd 0B       		.uleb128 0xb
 5336 00de 3B       		.uleb128 0x3b
 5337 00df 0B       		.uleb128 0xb
 5338 00e0 01       		.uleb128 0x1
 5339 00e1 13       		.uleb128 0x13
 5340 00e2 00       		.byte	0
 5341 00e3 00       		.byte	0
 5342 00e4 15       		.uleb128 0x15
 5343 00e5 0D       		.uleb128 0xd
 5344 00e6 00       		.byte	0
 5345 00e7 03       		.uleb128 0x3
 5346 00e8 0E       		.uleb128 0xe
 5347 00e9 3A       		.uleb128 0x3a
 5348 00ea 0B       		.uleb128 0xb
 5349 00eb 3B       		.uleb128 0x3b
 5350 00ec 0B       		.uleb128 0xb
 5351 00ed 49       		.uleb128 0x49
 5352 00ee 13       		.uleb128 0x13
 5353 00ef 38       		.uleb128 0x38
 5354 00f0 0B       		.uleb128 0xb
 5355 00f1 00       		.byte	0
 5356 00f2 00       		.byte	0
 5357 00f3 16       		.uleb128 0x16
 5358 00f4 17       		.uleb128 0x17
 5359 00f5 01       		.byte	0x1
 5360 00f6 0B       		.uleb128 0xb
 5361 00f7 0B       		.uleb128 0xb
 5362 00f8 3A       		.uleb128 0x3a
ARM GAS  C:\Windows\TEMP\cc5RoFpJ.s 			page 117


 5363 00f9 0B       		.uleb128 0xb
 5364 00fa 3B       		.uleb128 0x3b
 5365 00fb 0B       		.uleb128 0xb
 5366 00fc 01       		.uleb128 0x1
 5367 00fd 13       		.uleb128 0x13
 5368 00fe 00       		.byte	0
 5369 00ff 00       		.byte	0
 5370 0100 17       		.uleb128 0x17
 5371 0101 0D       		.uleb128 0xd
 5372 0102 00       		.byte	0
 5373 0103 03       		.uleb128 0x3
 5374 0104 0E       		.uleb128 0xe
 5375 0105 3A       		.uleb128 0x3a
 5376 0106 0B       		.uleb128 0xb
 5377 0107 3B       		.uleb128 0x3b
 5378 0108 0B       		.uleb128 0xb
 5379 0109 49       		.uleb128 0x49
 5380 010a 13       		.uleb128 0x13
 5381 010b 00       		.byte	0
 5382 010c 00       		.byte	0
 5383 010d 18       		.uleb128 0x18
 5384 010e 2E       		.uleb128 0x2e
 5385 010f 01       		.byte	0x1
 5386 0110 3F       		.uleb128 0x3f
 5387 0111 19       		.uleb128 0x19
 5388 0112 03       		.uleb128 0x3
 5389 0113 0E       		.uleb128 0xe
 5390 0114 3A       		.uleb128 0x3a
 5391 0115 0B       		.uleb128 0xb
 5392 0116 3B       		.uleb128 0x3b
 5393 0117 0B       		.uleb128 0xb
 5394 0118 27       		.uleb128 0x27
 5395 0119 19       		.uleb128 0x19
 5396 011a 11       		.uleb128 0x11
 5397 011b 01       		.uleb128 0x1
 5398 011c 12       		.uleb128 0x12
 5399 011d 06       		.uleb128 0x6
 5400 011e 40       		.uleb128 0x40
 5401 011f 18       		.uleb128 0x18
 5402 0120 9742     		.uleb128 0x2117
 5403 0122 19       		.uleb128 0x19
 5404 0123 01       		.uleb128 0x1
 5405 0124 13       		.uleb128 0x13
 5406 0125 00       		.byte	0
 5407 0126 00       		.byte	0
 5408 0127 19       		.uleb128 0x19
 5409 0128 05       		.uleb128 0x5
 5410 0129 00       		.byte	0
 5411 012a 03       		.uleb128 0x3
 5412 012b 0E       		.uleb128 0xe
 5413 012c 3A       		.uleb128 0x3a
 5414 012d 0B       		.uleb128 0xb
 5415 012e 3B       		.uleb128 0x3b
 5416 012f 0B       		.uleb128 0xb
 5417 0130 49       		.uleb128 0x49
 5418 0131 13       		.uleb128 0x13
 5419 0132 02       		.uleb128 0x2
ARM GAS  C:\Windows\TEMP\cc5RoFpJ.s 			page 118


 5420 0133 18       		.uleb128 0x18
 5421 0134 00       		.byte	0
 5422 0135 00       		.byte	0
 5423 0136 1A       		.uleb128 0x1a
 5424 0137 2E       		.uleb128 0x2e
 5425 0138 01       		.byte	0x1
 5426 0139 3F       		.uleb128 0x3f
 5427 013a 19       		.uleb128 0x19
 5428 013b 03       		.uleb128 0x3
 5429 013c 0E       		.uleb128 0xe
 5430 013d 3A       		.uleb128 0x3a
 5431 013e 0B       		.uleb128 0xb
 5432 013f 3B       		.uleb128 0x3b
 5433 0140 05       		.uleb128 0x5
 5434 0141 27       		.uleb128 0x27
 5435 0142 19       		.uleb128 0x19
 5436 0143 49       		.uleb128 0x49
 5437 0144 13       		.uleb128 0x13
 5438 0145 11       		.uleb128 0x11
 5439 0146 01       		.uleb128 0x1
 5440 0147 12       		.uleb128 0x12
 5441 0148 06       		.uleb128 0x6
 5442 0149 40       		.uleb128 0x40
 5443 014a 18       		.uleb128 0x18
 5444 014b 9742     		.uleb128 0x2117
 5445 014d 19       		.uleb128 0x19
 5446 014e 01       		.uleb128 0x1
 5447 014f 13       		.uleb128 0x13
 5448 0150 00       		.byte	0
 5449 0151 00       		.byte	0
 5450 0152 1B       		.uleb128 0x1b
 5451 0153 05       		.uleb128 0x5
 5452 0154 00       		.byte	0
 5453 0155 03       		.uleb128 0x3
 5454 0156 0E       		.uleb128 0xe
 5455 0157 3A       		.uleb128 0x3a
 5456 0158 0B       		.uleb128 0xb
 5457 0159 3B       		.uleb128 0x3b
 5458 015a 05       		.uleb128 0x5
 5459 015b 49       		.uleb128 0x49
 5460 015c 13       		.uleb128 0x13
 5461 015d 02       		.uleb128 0x2
 5462 015e 17       		.uleb128 0x17
 5463 015f 00       		.byte	0
 5464 0160 00       		.byte	0
 5465 0161 1C       		.uleb128 0x1c
 5466 0162 34       		.uleb128 0x34
 5467 0163 00       		.byte	0
 5468 0164 03       		.uleb128 0x3
 5469 0165 0E       		.uleb128 0xe
 5470 0166 3A       		.uleb128 0x3a
 5471 0167 0B       		.uleb128 0xb
 5472 0168 3B       		.uleb128 0x3b
 5473 0169 05       		.uleb128 0x5
 5474 016a 49       		.uleb128 0x49
 5475 016b 13       		.uleb128 0x13
 5476 016c 02       		.uleb128 0x2
ARM GAS  C:\Windows\TEMP\cc5RoFpJ.s 			page 119


 5477 016d 17       		.uleb128 0x17
 5478 016e 00       		.byte	0
 5479 016f 00       		.byte	0
 5480 0170 1D       		.uleb128 0x1d
 5481 0171 0B       		.uleb128 0xb
 5482 0172 01       		.byte	0x1
 5483 0173 11       		.uleb128 0x11
 5484 0174 01       		.uleb128 0x1
 5485 0175 12       		.uleb128 0x12
 5486 0176 06       		.uleb128 0x6
 5487 0177 00       		.byte	0
 5488 0178 00       		.byte	0
 5489 0179 1E       		.uleb128 0x1e
 5490 017a 34       		.uleb128 0x34
 5491 017b 00       		.byte	0
 5492 017c 03       		.uleb128 0x3
 5493 017d 0E       		.uleb128 0xe
 5494 017e 3A       		.uleb128 0x3a
 5495 017f 0B       		.uleb128 0xb
 5496 0180 3B       		.uleb128 0x3b
 5497 0181 05       		.uleb128 0x5
 5498 0182 49       		.uleb128 0x49
 5499 0183 13       		.uleb128 0x13
 5500 0184 02       		.uleb128 0x2
 5501 0185 18       		.uleb128 0x18
 5502 0186 00       		.byte	0
 5503 0187 00       		.byte	0
 5504 0188 1F       		.uleb128 0x1f
 5505 0189 898201   		.uleb128 0x4109
 5506 018c 01       		.byte	0x1
 5507 018d 11       		.uleb128 0x11
 5508 018e 01       		.uleb128 0x1
 5509 018f 31       		.uleb128 0x31
 5510 0190 13       		.uleb128 0x13
 5511 0191 00       		.byte	0
 5512 0192 00       		.byte	0
 5513 0193 20       		.uleb128 0x20
 5514 0194 8A8201   		.uleb128 0x410a
 5515 0197 00       		.byte	0
 5516 0198 02       		.uleb128 0x2
 5517 0199 18       		.uleb128 0x18
 5518 019a 9142     		.uleb128 0x2111
 5519 019c 18       		.uleb128 0x18
 5520 019d 00       		.byte	0
 5521 019e 00       		.byte	0
 5522 019f 21       		.uleb128 0x21
 5523 01a0 05       		.uleb128 0x5
 5524 01a1 00       		.byte	0
 5525 01a2 03       		.uleb128 0x3
 5526 01a3 0E       		.uleb128 0xe
 5527 01a4 3A       		.uleb128 0x3a
 5528 01a5 0B       		.uleb128 0xb
 5529 01a6 3B       		.uleb128 0x3b
 5530 01a7 05       		.uleb128 0x5
 5531 01a8 49       		.uleb128 0x49
 5532 01a9 13       		.uleb128 0x13
 5533 01aa 02       		.uleb128 0x2
ARM GAS  C:\Windows\TEMP\cc5RoFpJ.s 			page 120


 5534 01ab 18       		.uleb128 0x18
 5535 01ac 00       		.byte	0
 5536 01ad 00       		.byte	0
 5537 01ae 22       		.uleb128 0x22
 5538 01af 0B       		.uleb128 0xb
 5539 01b0 01       		.byte	0x1
 5540 01b1 55       		.uleb128 0x55
 5541 01b2 17       		.uleb128 0x17
 5542 01b3 00       		.byte	0
 5543 01b4 00       		.byte	0
 5544 01b5 23       		.uleb128 0x23
 5545 01b6 0B       		.uleb128 0xb
 5546 01b7 01       		.byte	0x1
 5547 01b8 11       		.uleb128 0x11
 5548 01b9 01       		.uleb128 0x1
 5549 01ba 12       		.uleb128 0x12
 5550 01bb 06       		.uleb128 0x6
 5551 01bc 01       		.uleb128 0x1
 5552 01bd 13       		.uleb128 0x13
 5553 01be 00       		.byte	0
 5554 01bf 00       		.byte	0
 5555 01c0 24       		.uleb128 0x24
 5556 01c1 898201   		.uleb128 0x4109
 5557 01c4 00       		.byte	0
 5558 01c5 11       		.uleb128 0x11
 5559 01c6 01       		.uleb128 0x1
 5560 01c7 31       		.uleb128 0x31
 5561 01c8 13       		.uleb128 0x13
 5562 01c9 00       		.byte	0
 5563 01ca 00       		.byte	0
 5564 01cb 25       		.uleb128 0x25
 5565 01cc 2E       		.uleb128 0x2e
 5566 01cd 01       		.byte	0x1
 5567 01ce 3F       		.uleb128 0x3f
 5568 01cf 19       		.uleb128 0x19
 5569 01d0 03       		.uleb128 0x3
 5570 01d1 0E       		.uleb128 0xe
 5571 01d2 3A       		.uleb128 0x3a
 5572 01d3 0B       		.uleb128 0xb
 5573 01d4 3B       		.uleb128 0x3b
 5574 01d5 05       		.uleb128 0x5
 5575 01d6 27       		.uleb128 0x27
 5576 01d7 19       		.uleb128 0x19
 5577 01d8 11       		.uleb128 0x11
 5578 01d9 01       		.uleb128 0x1
 5579 01da 12       		.uleb128 0x12
 5580 01db 06       		.uleb128 0x6
 5581 01dc 40       		.uleb128 0x40
 5582 01dd 18       		.uleb128 0x18
 5583 01de 9742     		.uleb128 0x2117
 5584 01e0 19       		.uleb128 0x19
 5585 01e1 01       		.uleb128 0x1
 5586 01e2 13       		.uleb128 0x13
 5587 01e3 00       		.byte	0
 5588 01e4 00       		.byte	0
 5589 01e5 26       		.uleb128 0x26
 5590 01e6 898201   		.uleb128 0x4109
ARM GAS  C:\Windows\TEMP\cc5RoFpJ.s 			page 121


 5591 01e9 01       		.byte	0x1
 5592 01ea 11       		.uleb128 0x11
 5593 01eb 01       		.uleb128 0x1
 5594 01ec 31       		.uleb128 0x31
 5595 01ed 13       		.uleb128 0x13
 5596 01ee 01       		.uleb128 0x1
 5597 01ef 13       		.uleb128 0x13
 5598 01f0 00       		.byte	0
 5599 01f1 00       		.byte	0
 5600 01f2 27       		.uleb128 0x27
 5601 01f3 898201   		.uleb128 0x4109
 5602 01f6 01       		.byte	0x1
 5603 01f7 11       		.uleb128 0x11
 5604 01f8 01       		.uleb128 0x1
 5605 01f9 00       		.byte	0
 5606 01fa 00       		.byte	0
 5607 01fb 28       		.uleb128 0x28
 5608 01fc 26       		.uleb128 0x26
 5609 01fd 00       		.byte	0
 5610 01fe 49       		.uleb128 0x49
 5611 01ff 13       		.uleb128 0x13
 5612 0200 00       		.byte	0
 5613 0201 00       		.byte	0
 5614 0202 29       		.uleb128 0x29
 5615 0203 34       		.uleb128 0x34
 5616 0204 00       		.byte	0
 5617 0205 03       		.uleb128 0x3
 5618 0206 08       		.uleb128 0x8
 5619 0207 3A       		.uleb128 0x3a
 5620 0208 0B       		.uleb128 0xb
 5621 0209 3B       		.uleb128 0x3b
 5622 020a 05       		.uleb128 0x5
 5623 020b 49       		.uleb128 0x49
 5624 020c 13       		.uleb128 0x13
 5625 020d 02       		.uleb128 0x2
 5626 020e 17       		.uleb128 0x17
 5627 020f 00       		.byte	0
 5628 0210 00       		.byte	0
 5629 0211 2A       		.uleb128 0x2a
 5630 0212 2E       		.uleb128 0x2e
 5631 0213 01       		.byte	0x1
 5632 0214 3F       		.uleb128 0x3f
 5633 0215 19       		.uleb128 0x19
 5634 0216 03       		.uleb128 0x3
 5635 0217 0E       		.uleb128 0xe
 5636 0218 3A       		.uleb128 0x3a
 5637 0219 0B       		.uleb128 0xb
 5638 021a 3B       		.uleb128 0x3b
 5639 021b 0B       		.uleb128 0xb
 5640 021c 27       		.uleb128 0x27
 5641 021d 19       		.uleb128 0x19
 5642 021e 49       		.uleb128 0x49
 5643 021f 13       		.uleb128 0x13
 5644 0220 11       		.uleb128 0x11
 5645 0221 01       		.uleb128 0x1
 5646 0222 12       		.uleb128 0x12
 5647 0223 06       		.uleb128 0x6
ARM GAS  C:\Windows\TEMP\cc5RoFpJ.s 			page 122


 5648 0224 40       		.uleb128 0x40
 5649 0225 18       		.uleb128 0x18
 5650 0226 9742     		.uleb128 0x2117
 5651 0228 19       		.uleb128 0x19
 5652 0229 01       		.uleb128 0x1
 5653 022a 13       		.uleb128 0x13
 5654 022b 00       		.byte	0
 5655 022c 00       		.byte	0
 5656 022d 2B       		.uleb128 0x2b
 5657 022e 05       		.uleb128 0x5
 5658 022f 00       		.byte	0
 5659 0230 03       		.uleb128 0x3
 5660 0231 0E       		.uleb128 0xe
 5661 0232 3A       		.uleb128 0x3a
 5662 0233 0B       		.uleb128 0xb
 5663 0234 3B       		.uleb128 0x3b
 5664 0235 0B       		.uleb128 0xb
 5665 0236 49       		.uleb128 0x49
 5666 0237 13       		.uleb128 0x13
 5667 0238 02       		.uleb128 0x2
 5668 0239 17       		.uleb128 0x17
 5669 023a 00       		.byte	0
 5670 023b 00       		.byte	0
 5671 023c 2C       		.uleb128 0x2c
 5672 023d 34       		.uleb128 0x34
 5673 023e 00       		.byte	0
 5674 023f 03       		.uleb128 0x3
 5675 0240 08       		.uleb128 0x8
 5676 0241 3A       		.uleb128 0x3a
 5677 0242 0B       		.uleb128 0xb
 5678 0243 3B       		.uleb128 0x3b
 5679 0244 0B       		.uleb128 0xb
 5680 0245 49       		.uleb128 0x49
 5681 0246 13       		.uleb128 0x13
 5682 0247 02       		.uleb128 0x2
 5683 0248 17       		.uleb128 0x17
 5684 0249 00       		.byte	0
 5685 024a 00       		.byte	0
 5686 024b 2D       		.uleb128 0x2d
 5687 024c 34       		.uleb128 0x34
 5688 024d 00       		.byte	0
 5689 024e 03       		.uleb128 0x3
 5690 024f 0E       		.uleb128 0xe
 5691 0250 3A       		.uleb128 0x3a
 5692 0251 0B       		.uleb128 0xb
 5693 0252 3B       		.uleb128 0x3b
 5694 0253 0B       		.uleb128 0xb
 5695 0254 49       		.uleb128 0x49
 5696 0255 13       		.uleb128 0x13
 5697 0256 02       		.uleb128 0x2
 5698 0257 17       		.uleb128 0x17
 5699 0258 00       		.byte	0
 5700 0259 00       		.byte	0
 5701 025a 2E       		.uleb128 0x2e
 5702 025b 34       		.uleb128 0x34
 5703 025c 00       		.byte	0
 5704 025d 03       		.uleb128 0x3
ARM GAS  C:\Windows\TEMP\cc5RoFpJ.s 			page 123


 5705 025e 0E       		.uleb128 0xe
 5706 025f 3A       		.uleb128 0x3a
 5707 0260 0B       		.uleb128 0xb
 5708 0261 3B       		.uleb128 0x3b
 5709 0262 0B       		.uleb128 0xb
 5710 0263 49       		.uleb128 0x49
 5711 0264 13       		.uleb128 0x13
 5712 0265 02       		.uleb128 0x2
 5713 0266 18       		.uleb128 0x18
 5714 0267 00       		.byte	0
 5715 0268 00       		.byte	0
 5716 0269 2F       		.uleb128 0x2f
 5717 026a 898201   		.uleb128 0x4109
 5718 026d 01       		.byte	0x1
 5719 026e 11       		.uleb128 0x11
 5720 026f 01       		.uleb128 0x1
 5721 0270 01       		.uleb128 0x1
 5722 0271 13       		.uleb128 0x13
 5723 0272 00       		.byte	0
 5724 0273 00       		.byte	0
 5725 0274 30       		.uleb128 0x30
 5726 0275 0B       		.uleb128 0xb
 5727 0276 01       		.byte	0x1
 5728 0277 55       		.uleb128 0x55
 5729 0278 17       		.uleb128 0x17
 5730 0279 01       		.uleb128 0x1
 5731 027a 13       		.uleb128 0x13
 5732 027b 00       		.byte	0
 5733 027c 00       		.byte	0
 5734 027d 31       		.uleb128 0x31
 5735 027e 34       		.uleb128 0x34
 5736 027f 00       		.byte	0
 5737 0280 03       		.uleb128 0x3
 5738 0281 0E       		.uleb128 0xe
 5739 0282 3A       		.uleb128 0x3a
 5740 0283 0B       		.uleb128 0xb
 5741 0284 3B       		.uleb128 0x3b
 5742 0285 05       		.uleb128 0x5
 5743 0286 49       		.uleb128 0x49
 5744 0287 13       		.uleb128 0x13
 5745 0288 3F       		.uleb128 0x3f
 5746 0289 19       		.uleb128 0x19
 5747 028a 3C       		.uleb128 0x3c
 5748 028b 19       		.uleb128 0x19
 5749 028c 00       		.byte	0
 5750 028d 00       		.byte	0
 5751 028e 32       		.uleb128 0x32
 5752 028f 34       		.uleb128 0x34
 5753 0290 00       		.byte	0
 5754 0291 03       		.uleb128 0x3
 5755 0292 0E       		.uleb128 0xe
 5756 0293 3A       		.uleb128 0x3a
 5757 0294 0B       		.uleb128 0xb
 5758 0295 3B       		.uleb128 0x3b
 5759 0296 0B       		.uleb128 0xb
 5760 0297 49       		.uleb128 0x49
 5761 0298 13       		.uleb128 0x13
ARM GAS  C:\Windows\TEMP\cc5RoFpJ.s 			page 124


 5762 0299 3F       		.uleb128 0x3f
 5763 029a 19       		.uleb128 0x19
 5764 029b 3C       		.uleb128 0x3c
 5765 029c 19       		.uleb128 0x19
 5766 029d 00       		.byte	0
 5767 029e 00       		.byte	0
 5768 029f 33       		.uleb128 0x33
 5769 02a0 34       		.uleb128 0x34
 5770 02a1 00       		.byte	0
 5771 02a2 03       		.uleb128 0x3
 5772 02a3 0E       		.uleb128 0xe
 5773 02a4 3A       		.uleb128 0x3a
 5774 02a5 0B       		.uleb128 0xb
 5775 02a6 3B       		.uleb128 0x3b
 5776 02a7 0B       		.uleb128 0xb
 5777 02a8 49       		.uleb128 0x49
 5778 02a9 13       		.uleb128 0x13
 5779 02aa 3F       		.uleb128 0x3f
 5780 02ab 19       		.uleb128 0x19
 5781 02ac 02       		.uleb128 0x2
 5782 02ad 18       		.uleb128 0x18
 5783 02ae 00       		.byte	0
 5784 02af 00       		.byte	0
 5785 02b0 34       		.uleb128 0x34
 5786 02b1 2E       		.uleb128 0x2e
 5787 02b2 00       		.byte	0
 5788 02b3 3F       		.uleb128 0x3f
 5789 02b4 19       		.uleb128 0x19
 5790 02b5 3C       		.uleb128 0x3c
 5791 02b6 19       		.uleb128 0x19
 5792 02b7 6E       		.uleb128 0x6e
 5793 02b8 0E       		.uleb128 0xe
 5794 02b9 03       		.uleb128 0x3
 5795 02ba 0E       		.uleb128 0xe
 5796 02bb 3A       		.uleb128 0x3a
 5797 02bc 0B       		.uleb128 0xb
 5798 02bd 3B       		.uleb128 0x3b
 5799 02be 05       		.uleb128 0x5
 5800 02bf 00       		.byte	0
 5801 02c0 00       		.byte	0
 5802 02c1 35       		.uleb128 0x35
 5803 02c2 2E       		.uleb128 0x2e
 5804 02c3 00       		.byte	0
 5805 02c4 3F       		.uleb128 0x3f
 5806 02c5 19       		.uleb128 0x19
 5807 02c6 3C       		.uleb128 0x3c
 5808 02c7 19       		.uleb128 0x19
 5809 02c8 6E       		.uleb128 0x6e
 5810 02c9 0E       		.uleb128 0xe
 5811 02ca 03       		.uleb128 0x3
 5812 02cb 0E       		.uleb128 0xe
 5813 02cc 3A       		.uleb128 0x3a
 5814 02cd 0B       		.uleb128 0xb
 5815 02ce 3B       		.uleb128 0x3b
 5816 02cf 0B       		.uleb128 0xb
 5817 02d0 00       		.byte	0
 5818 02d1 00       		.byte	0
ARM GAS  C:\Windows\TEMP\cc5RoFpJ.s 			page 125


 5819 02d2 36       		.uleb128 0x36
 5820 02d3 2E       		.uleb128 0x2e
 5821 02d4 00       		.byte	0
 5822 02d5 3F       		.uleb128 0x3f
 5823 02d6 19       		.uleb128 0x19
 5824 02d7 3C       		.uleb128 0x3c
 5825 02d8 19       		.uleb128 0x19
 5826 02d9 6E       		.uleb128 0x6e
 5827 02da 0E       		.uleb128 0xe
 5828 02db 03       		.uleb128 0x3
 5829 02dc 0E       		.uleb128 0xe
 5830 02dd 00       		.byte	0
 5831 02de 00       		.byte	0
 5832 02df 00       		.byte	0
 5833              		.section	.debug_loc,"",%progbits
 5834              	.Ldebug_loc0:
 5835              	.LLST0:
 5836 0000 00000000 		.4byte	.LVL1
 5837 0004 12000000 		.4byte	.LVL3
 5838 0008 0100     		.2byte	0x1
 5839 000a 50       		.byte	0x50
 5840 000b 12000000 		.4byte	.LVL3
 5841 000f 54000000 		.4byte	.LVL9
 5842 0013 0400     		.2byte	0x4
 5843 0015 F3       		.byte	0xf3
 5844 0016 01       		.uleb128 0x1
 5845 0017 50       		.byte	0x50
 5846 0018 9F       		.byte	0x9f
 5847 0019 54000000 		.4byte	.LVL9
 5848 001d 56000000 		.4byte	.LVL10
 5849 0021 0100     		.2byte	0x1
 5850 0023 50       		.byte	0x50
 5851 0024 56000000 		.4byte	.LVL10
 5852 0028 58000000 		.4byte	.LVL11
 5853 002c 0400     		.2byte	0x4
 5854 002e F3       		.byte	0xf3
 5855 002f 01       		.uleb128 0x1
 5856 0030 50       		.byte	0x50
 5857 0031 9F       		.byte	0x9f
 5858 0032 58000000 		.4byte	.LVL11
 5859 0036 5A000000 		.4byte	.LVL12
 5860 003a 0100     		.2byte	0x1
 5861 003c 50       		.byte	0x50
 5862 003d 5A000000 		.4byte	.LVL12
 5863 0041 74000000 		.4byte	.LFE6
 5864 0045 0400     		.2byte	0x4
 5865 0047 F3       		.byte	0xf3
 5866 0048 01       		.uleb128 0x1
 5867 0049 50       		.byte	0x50
 5868 004a 9F       		.byte	0x9f
 5869 004b 00000000 		.4byte	0
 5870 004f 00000000 		.4byte	0
 5871              	.LLST1:
 5872 0053 00000000 		.4byte	.LVL1
 5873 0057 1E000000 		.4byte	.LVL4
 5874 005b 0100     		.2byte	0x1
 5875 005d 51       		.byte	0x51
ARM GAS  C:\Windows\TEMP\cc5RoFpJ.s 			page 126


 5876 005e 1E000000 		.4byte	.LVL4
 5877 0062 54000000 		.4byte	.LVL9
 5878 0066 0400     		.2byte	0x4
 5879 0068 F3       		.byte	0xf3
 5880 0069 01       		.uleb128 0x1
 5881 006a 51       		.byte	0x51
 5882 006b 9F       		.byte	0x9f
 5883 006c 54000000 		.4byte	.LVL9
 5884 0070 60000000 		.4byte	.LVL13
 5885 0074 0100     		.2byte	0x1
 5886 0076 51       		.byte	0x51
 5887 0077 60000000 		.4byte	.LVL13
 5888 007b 74000000 		.4byte	.LFE6
 5889 007f 0400     		.2byte	0x4
 5890 0081 F3       		.byte	0xf3
 5891 0082 01       		.uleb128 0x1
 5892 0083 51       		.byte	0x51
 5893 0084 9F       		.byte	0x9f
 5894 0085 00000000 		.4byte	0
 5895 0089 00000000 		.4byte	0
 5896              	.LLST2:
 5897 008d 00000000 		.4byte	.LVL1
 5898 0091 32000000 		.4byte	.LVL5
 5899 0095 0100     		.2byte	0x1
 5900 0097 52       		.byte	0x52
 5901 0098 32000000 		.4byte	.LVL5
 5902 009c 54000000 		.4byte	.LVL9
 5903 00a0 0400     		.2byte	0x4
 5904 00a2 F3       		.byte	0xf3
 5905 00a3 01       		.uleb128 0x1
 5906 00a4 52       		.byte	0x52
 5907 00a5 9F       		.byte	0x9f
 5908 00a6 54000000 		.4byte	.LVL9
 5909 00aa 62000000 		.4byte	.LVL14
 5910 00ae 0100     		.2byte	0x1
 5911 00b0 52       		.byte	0x52
 5912 00b1 62000000 		.4byte	.LVL14
 5913 00b5 74000000 		.4byte	.LFE6
 5914 00b9 0400     		.2byte	0x4
 5915 00bb F3       		.byte	0xf3
 5916 00bc 01       		.uleb128 0x1
 5917 00bd 52       		.byte	0x52
 5918 00be 9F       		.byte	0x9f
 5919 00bf 00000000 		.4byte	0
 5920 00c3 00000000 		.4byte	0
 5921              	.LLST3:
 5922 00c7 00000000 		.4byte	.LVL1
 5923 00cb 37000000 		.4byte	.LVL6-1
 5924 00cf 0100     		.2byte	0x1
 5925 00d1 53       		.byte	0x53
 5926 00d2 37000000 		.4byte	.LVL6-1
 5927 00d6 54000000 		.4byte	.LVL9
 5928 00da 0400     		.2byte	0x4
 5929 00dc F3       		.byte	0xf3
 5930 00dd 01       		.uleb128 0x1
 5931 00de 53       		.byte	0x53
 5932 00df 9F       		.byte	0x9f
ARM GAS  C:\Windows\TEMP\cc5RoFpJ.s 			page 127


 5933 00e0 54000000 		.4byte	.LVL9
 5934 00e4 62000000 		.4byte	.LVL14
 5935 00e8 0100     		.2byte	0x1
 5936 00ea 53       		.byte	0x53
 5937 00eb 62000000 		.4byte	.LVL14
 5938 00ef 74000000 		.4byte	.LFE6
 5939 00f3 0400     		.2byte	0x4
 5940 00f5 F3       		.byte	0xf3
 5941 00f6 01       		.uleb128 0x1
 5942 00f7 53       		.byte	0x53
 5943 00f8 9F       		.byte	0x9f
 5944 00f9 00000000 		.4byte	0
 5945 00fd 00000000 		.4byte	0
 5946              	.LLST4:
 5947 0101 04000000 		.4byte	.LVL2
 5948 0105 3C000000 		.4byte	.LVL7
 5949 0109 0200     		.2byte	0x2
 5950 010b 31       		.byte	0x31
 5951 010c 9F       		.byte	0x9f
 5952 010d 3C000000 		.4byte	.LVL7
 5953 0111 50000000 		.4byte	.LVL8
 5954 0115 0200     		.2byte	0x2
 5955 0117 30       		.byte	0x30
 5956 0118 9F       		.byte	0x9f
 5957 0119 50000000 		.4byte	.LVL8
 5958 011d 62000000 		.4byte	.LVL14
 5959 0121 0200     		.2byte	0x2
 5960 0123 31       		.byte	0x31
 5961 0124 9F       		.byte	0x9f
 5962 0125 62000000 		.4byte	.LVL14
 5963 0129 74000000 		.4byte	.LFE6
 5964 012d 0100     		.2byte	0x1
 5965 012f 50       		.byte	0x50
 5966 0130 00000000 		.4byte	0
 5967 0134 00000000 		.4byte	0
 5968              	.LLST5:
 5969 0138 00000000 		.4byte	.LVL15
 5970 013c 18000000 		.4byte	.LVL18
 5971 0140 0100     		.2byte	0x1
 5972 0142 50       		.byte	0x50
 5973 0143 18000000 		.4byte	.LVL18
 5974 0147 6A000000 		.4byte	.LVL24
 5975 014b 0400     		.2byte	0x4
 5976 014d F3       		.byte	0xf3
 5977 014e 01       		.uleb128 0x1
 5978 014f 50       		.byte	0x50
 5979 0150 9F       		.byte	0x9f
 5980 0151 6A000000 		.4byte	.LVL24
 5981 0155 6C000000 		.4byte	.LVL25
 5982 0159 0100     		.2byte	0x1
 5983 015b 50       		.byte	0x50
 5984 015c 6C000000 		.4byte	.LVL25
 5985 0160 6E000000 		.4byte	.LVL26
 5986 0164 0400     		.2byte	0x4
 5987 0166 F3       		.byte	0xf3
 5988 0167 01       		.uleb128 0x1
 5989 0168 50       		.byte	0x50
ARM GAS  C:\Windows\TEMP\cc5RoFpJ.s 			page 128


 5990 0169 9F       		.byte	0x9f
 5991 016a 6E000000 		.4byte	.LVL26
 5992 016e 70000000 		.4byte	.LVL27
 5993 0172 0100     		.2byte	0x1
 5994 0174 50       		.byte	0x50
 5995 0175 70000000 		.4byte	.LVL27
 5996 0179 72000000 		.4byte	.LVL28
 5997 017d 0400     		.2byte	0x4
 5998 017f F3       		.byte	0xf3
 5999 0180 01       		.uleb128 0x1
 6000 0181 50       		.byte	0x50
 6001 0182 9F       		.byte	0x9f
 6002 0183 72000000 		.4byte	.LVL28
 6003 0187 74000000 		.4byte	.LVL29
 6004 018b 0100     		.2byte	0x1
 6005 018d 50       		.byte	0x50
 6006 018e 74000000 		.4byte	.LVL29
 6007 0192 90000000 		.4byte	.LFE7
 6008 0196 0400     		.2byte	0x4
 6009 0198 F3       		.byte	0xf3
 6010 0199 01       		.uleb128 0x1
 6011 019a 50       		.byte	0x50
 6012 019b 9F       		.byte	0x9f
 6013 019c 00000000 		.4byte	0
 6014 01a0 00000000 		.4byte	0
 6015              	.LLST6:
 6016 01a4 00000000 		.4byte	.LVL15
 6017 01a8 24000000 		.4byte	.LVL19
 6018 01ac 0100     		.2byte	0x1
 6019 01ae 51       		.byte	0x51
 6020 01af 24000000 		.4byte	.LVL19
 6021 01b3 6A000000 		.4byte	.LVL24
 6022 01b7 0400     		.2byte	0x4
 6023 01b9 F3       		.byte	0xf3
 6024 01ba 01       		.uleb128 0x1
 6025 01bb 51       		.byte	0x51
 6026 01bc 9F       		.byte	0x9f
 6027 01bd 6A000000 		.4byte	.LVL24
 6028 01c1 7A000000 		.4byte	.LVL30
 6029 01c5 0100     		.2byte	0x1
 6030 01c7 51       		.byte	0x51
 6031 01c8 7A000000 		.4byte	.LVL30
 6032 01cc 90000000 		.4byte	.LFE7
 6033 01d0 0400     		.2byte	0x4
 6034 01d2 F3       		.byte	0xf3
 6035 01d3 01       		.uleb128 0x1
 6036 01d4 51       		.byte	0x51
 6037 01d5 9F       		.byte	0x9f
 6038 01d6 00000000 		.4byte	0
 6039 01da 00000000 		.4byte	0
 6040              	.LLST7:
 6041 01de 00000000 		.4byte	.LVL15
 6042 01e2 0C000000 		.4byte	.LVL17
 6043 01e6 0100     		.2byte	0x1
 6044 01e8 52       		.byte	0x52
 6045 01e9 0C000000 		.4byte	.LVL17
 6046 01ed 6A000000 		.4byte	.LVL24
ARM GAS  C:\Windows\TEMP\cc5RoFpJ.s 			page 129


 6047 01f1 0400     		.2byte	0x4
 6048 01f3 F3       		.byte	0xf3
 6049 01f4 01       		.uleb128 0x1
 6050 01f5 52       		.byte	0x52
 6051 01f6 9F       		.byte	0x9f
 6052 01f7 6A000000 		.4byte	.LVL24
 6053 01fb 6E000000 		.4byte	.LVL26
 6054 01ff 0100     		.2byte	0x1
 6055 0201 52       		.byte	0x52
 6056 0202 6E000000 		.4byte	.LVL26
 6057 0206 90000000 		.4byte	.LFE7
 6058 020a 0400     		.2byte	0x4
 6059 020c F3       		.byte	0xf3
 6060 020d 01       		.uleb128 0x1
 6061 020e 52       		.byte	0x52
 6062 020f 9F       		.byte	0x9f
 6063 0210 00000000 		.4byte	0
 6064 0214 00000000 		.4byte	0
 6065              	.LLST8:
 6066 0218 00000000 		.4byte	.LVL15
 6067 021c 40000000 		.4byte	.LVL20
 6068 0220 0100     		.2byte	0x1
 6069 0222 53       		.byte	0x53
 6070 0223 40000000 		.4byte	.LVL20
 6071 0227 6A000000 		.4byte	.LVL24
 6072 022b 0400     		.2byte	0x4
 6073 022d F3       		.byte	0xf3
 6074 022e 01       		.uleb128 0x1
 6075 022f 53       		.byte	0x53
 6076 0230 9F       		.byte	0x9f
 6077 0231 6A000000 		.4byte	.LVL24
 6078 0235 80000000 		.4byte	.LVL31
 6079 0239 0100     		.2byte	0x1
 6080 023b 53       		.byte	0x53
 6081 023c 80000000 		.4byte	.LVL31
 6082 0240 90000000 		.4byte	.LFE7
 6083 0244 0400     		.2byte	0x4
 6084 0246 F3       		.byte	0xf3
 6085 0247 01       		.uleb128 0x1
 6086 0248 53       		.byte	0x53
 6087 0249 9F       		.byte	0x9f
 6088 024a 00000000 		.4byte	0
 6089 024e 00000000 		.4byte	0
 6090              	.LLST9:
 6091 0252 06000000 		.4byte	.LVL16
 6092 0256 4E000000 		.4byte	.LVL22
 6093 025a 0200     		.2byte	0x2
 6094 025c 31       		.byte	0x31
 6095 025d 9F       		.byte	0x9f
 6096 025e 4E000000 		.4byte	.LVL22
 6097 0262 66000000 		.4byte	.LVL23
 6098 0266 0200     		.2byte	0x2
 6099 0268 30       		.byte	0x30
 6100 0269 9F       		.byte	0x9f
 6101 026a 66000000 		.4byte	.LVL23
 6102 026e 80000000 		.4byte	.LVL31
 6103 0272 0200     		.2byte	0x2
ARM GAS  C:\Windows\TEMP\cc5RoFpJ.s 			page 130


 6104 0274 31       		.byte	0x31
 6105 0275 9F       		.byte	0x9f
 6106 0276 80000000 		.4byte	.LVL31
 6107 027a 90000000 		.4byte	.LFE7
 6108 027e 0100     		.2byte	0x1
 6109 0280 50       		.byte	0x50
 6110 0281 00000000 		.4byte	0
 6111 0285 00000000 		.4byte	0
 6112              	.LLST10:
 6113 0289 00000000 		.4byte	.LVL32
 6114 028d 16000000 		.4byte	.LVL34
 6115 0291 0100     		.2byte	0x1
 6116 0293 50       		.byte	0x50
 6117 0294 16000000 		.4byte	.LVL34
 6118 0298 54000000 		.4byte	.LVL40
 6119 029c 0400     		.2byte	0x4
 6120 029e F3       		.byte	0xf3
 6121 029f 01       		.uleb128 0x1
 6122 02a0 50       		.byte	0x50
 6123 02a1 9F       		.byte	0x9f
 6124 02a2 54000000 		.4byte	.LVL40
 6125 02a6 56000000 		.4byte	.LVL41
 6126 02aa 0100     		.2byte	0x1
 6127 02ac 50       		.byte	0x50
 6128 02ad 56000000 		.4byte	.LVL41
 6129 02b1 58000000 		.4byte	.LVL42
 6130 02b5 0400     		.2byte	0x4
 6131 02b7 F3       		.byte	0xf3
 6132 02b8 01       		.uleb128 0x1
 6133 02b9 50       		.byte	0x50
 6134 02ba 9F       		.byte	0x9f
 6135 02bb 58000000 		.4byte	.LVL42
 6136 02bf 5A000000 		.4byte	.LVL43
 6137 02c3 0100     		.2byte	0x1
 6138 02c5 50       		.byte	0x50
 6139 02c6 5A000000 		.4byte	.LVL43
 6140 02ca 5C000000 		.4byte	.LVL44
 6141 02ce 0400     		.2byte	0x4
 6142 02d0 F3       		.byte	0xf3
 6143 02d1 01       		.uleb128 0x1
 6144 02d2 50       		.byte	0x50
 6145 02d3 9F       		.byte	0x9f
 6146 02d4 5C000000 		.4byte	.LVL44
 6147 02d8 5E000000 		.4byte	.LVL45
 6148 02dc 0100     		.2byte	0x1
 6149 02de 50       		.byte	0x50
 6150 02df 5E000000 		.4byte	.LVL45
 6151 02e3 78000000 		.4byte	.LFE8
 6152 02e7 0400     		.2byte	0x4
 6153 02e9 F3       		.byte	0xf3
 6154 02ea 01       		.uleb128 0x1
 6155 02eb 50       		.byte	0x50
 6156 02ec 9F       		.byte	0x9f
 6157 02ed 00000000 		.4byte	0
 6158 02f1 00000000 		.4byte	0
 6159              	.LLST11:
 6160 02f5 00000000 		.4byte	.LVL32
ARM GAS  C:\Windows\TEMP\cc5RoFpJ.s 			page 131


 6161 02f9 22000000 		.4byte	.LVL35
 6162 02fd 0100     		.2byte	0x1
 6163 02ff 51       		.byte	0x51
 6164 0300 22000000 		.4byte	.LVL35
 6165 0304 54000000 		.4byte	.LVL40
 6166 0308 0400     		.2byte	0x4
 6167 030a F3       		.byte	0xf3
 6168 030b 01       		.uleb128 0x1
 6169 030c 51       		.byte	0x51
 6170 030d 9F       		.byte	0x9f
 6171 030e 54000000 		.4byte	.LVL40
 6172 0312 64000000 		.4byte	.LVL46
 6173 0316 0100     		.2byte	0x1
 6174 0318 51       		.byte	0x51
 6175 0319 64000000 		.4byte	.LVL46
 6176 031d 78000000 		.4byte	.LFE8
 6177 0321 0400     		.2byte	0x4
 6178 0323 F3       		.byte	0xf3
 6179 0324 01       		.uleb128 0x1
 6180 0325 51       		.byte	0x51
 6181 0326 9F       		.byte	0x9f
 6182 0327 00000000 		.4byte	0
 6183 032b 00000000 		.4byte	0
 6184              	.LLST12:
 6185 032f 00000000 		.4byte	.LVL32
 6186 0333 2C000000 		.4byte	.LVL36
 6187 0337 0100     		.2byte	0x1
 6188 0339 52       		.byte	0x52
 6189 033a 2C000000 		.4byte	.LVL36
 6190 033e 54000000 		.4byte	.LVL40
 6191 0342 0400     		.2byte	0x4
 6192 0344 F3       		.byte	0xf3
 6193 0345 01       		.uleb128 0x1
 6194 0346 52       		.byte	0x52
 6195 0347 9F       		.byte	0x9f
 6196 0348 54000000 		.4byte	.LVL40
 6197 034c 68000000 		.4byte	.LVL47
 6198 0350 0100     		.2byte	0x1
 6199 0352 52       		.byte	0x52
 6200 0353 68000000 		.4byte	.LVL47
 6201 0357 78000000 		.4byte	.LFE8
 6202 035b 0400     		.2byte	0x4
 6203 035d F3       		.byte	0xf3
 6204 035e 01       		.uleb128 0x1
 6205 035f 52       		.byte	0x52
 6206 0360 9F       		.byte	0x9f
 6207 0361 00000000 		.4byte	0
 6208 0365 00000000 		.4byte	0
 6209              	.LLST13:
 6210 0369 00000000 		.4byte	.LVL32
 6211 036d 3C000000 		.4byte	.LVL37
 6212 0371 0100     		.2byte	0x1
 6213 0373 53       		.byte	0x53
 6214 0374 3C000000 		.4byte	.LVL37
 6215 0378 54000000 		.4byte	.LVL40
 6216 037c 0400     		.2byte	0x4
 6217 037e F3       		.byte	0xf3
ARM GAS  C:\Windows\TEMP\cc5RoFpJ.s 			page 132


 6218 037f 01       		.uleb128 0x1
 6219 0380 53       		.byte	0x53
 6220 0381 9F       		.byte	0x9f
 6221 0382 54000000 		.4byte	.LVL40
 6222 0386 6A000000 		.4byte	.LVL48
 6223 038a 0100     		.2byte	0x1
 6224 038c 53       		.byte	0x53
 6225 038d 6A000000 		.4byte	.LVL48
 6226 0391 78000000 		.4byte	.LFE8
 6227 0395 0400     		.2byte	0x4
 6228 0397 F3       		.byte	0xf3
 6229 0398 01       		.uleb128 0x1
 6230 0399 53       		.byte	0x53
 6231 039a 9F       		.byte	0x9f
 6232 039b 00000000 		.4byte	0
 6233 039f 00000000 		.4byte	0
 6234              	.LLST14:
 6235 03a3 04000000 		.4byte	.LVL33
 6236 03a7 52000000 		.4byte	.LVL39
 6237 03ab 0200     		.2byte	0x2
 6238 03ad 31       		.byte	0x31
 6239 03ae 9F       		.byte	0x9f
 6240 03af 52000000 		.4byte	.LVL39
 6241 03b3 54000000 		.4byte	.LVL40
 6242 03b7 0200     		.2byte	0x2
 6243 03b9 30       		.byte	0x30
 6244 03ba 9F       		.byte	0x9f
 6245 03bb 54000000 		.4byte	.LVL40
 6246 03bf 6A000000 		.4byte	.LVL48
 6247 03c3 0200     		.2byte	0x2
 6248 03c5 31       		.byte	0x31
 6249 03c6 9F       		.byte	0x9f
 6250 03c7 6A000000 		.4byte	.LVL48
 6251 03cb 78000000 		.4byte	.LFE8
 6252 03cf 0100     		.2byte	0x1
 6253 03d1 50       		.byte	0x50
 6254 03d2 00000000 		.4byte	0
 6255 03d6 00000000 		.4byte	0
 6256              	.LLST15:
 6257 03da 00000000 		.4byte	.LVL49
 6258 03de 18000000 		.4byte	.LVL52
 6259 03e2 0100     		.2byte	0x1
 6260 03e4 51       		.byte	0x51
 6261 03e5 18000000 		.4byte	.LVL52
 6262 03e9 60000000 		.4byte	.LVL56
 6263 03ed 0400     		.2byte	0x4
 6264 03ef F3       		.byte	0xf3
 6265 03f0 01       		.uleb128 0x1
 6266 03f1 51       		.byte	0x51
 6267 03f2 9F       		.byte	0x9f
 6268 03f3 60000000 		.4byte	.LVL56
 6269 03f7 68000000 		.4byte	.LVL58
 6270 03fb 0100     		.2byte	0x1
 6271 03fd 51       		.byte	0x51
 6272 03fe 68000000 		.4byte	.LVL58
 6273 0402 90000000 		.4byte	.LFE9
 6274 0406 0400     		.2byte	0x4
ARM GAS  C:\Windows\TEMP\cc5RoFpJ.s 			page 133


 6275 0408 F3       		.byte	0xf3
 6276 0409 01       		.uleb128 0x1
 6277 040a 51       		.byte	0x51
 6278 040b 9F       		.byte	0x9f
 6279 040c 00000000 		.4byte	0
 6280 0410 00000000 		.4byte	0
 6281              	.LLST16:
 6282 0414 00000000 		.4byte	.LVL49
 6283 0418 24000000 		.4byte	.LVL53
 6284 041c 0100     		.2byte	0x1
 6285 041e 52       		.byte	0x52
 6286 041f 24000000 		.4byte	.LVL53
 6287 0423 60000000 		.4byte	.LVL56
 6288 0427 0400     		.2byte	0x4
 6289 0429 F3       		.byte	0xf3
 6290 042a 01       		.uleb128 0x1
 6291 042b 52       		.byte	0x52
 6292 042c 9F       		.byte	0x9f
 6293 042d 60000000 		.4byte	.LVL56
 6294 0431 6C000000 		.4byte	.LVL59
 6295 0435 0100     		.2byte	0x1
 6296 0437 52       		.byte	0x52
 6297 0438 6C000000 		.4byte	.LVL59
 6298 043c 90000000 		.4byte	.LFE9
 6299 0440 0400     		.2byte	0x4
 6300 0442 F3       		.byte	0xf3
 6301 0443 01       		.uleb128 0x1
 6302 0444 52       		.byte	0x52
 6303 0445 9F       		.byte	0x9f
 6304 0446 00000000 		.4byte	0
 6305 044a 00000000 		.4byte	0
 6306              	.LLST17:
 6307 044e 00000000 		.4byte	.LVL49
 6308 0452 10000000 		.4byte	.LVL51
 6309 0456 0100     		.2byte	0x1
 6310 0458 53       		.byte	0x53
 6311 0459 10000000 		.4byte	.LVL51
 6312 045d 60000000 		.4byte	.LVL56
 6313 0461 0400     		.2byte	0x4
 6314 0463 F3       		.byte	0xf3
 6315 0464 01       		.uleb128 0x1
 6316 0465 53       		.byte	0x53
 6317 0466 9F       		.byte	0x9f
 6318 0467 60000000 		.4byte	.LVL56
 6319 046b 64000000 		.4byte	.LVL57
 6320 046f 0100     		.2byte	0x1
 6321 0471 53       		.byte	0x53
 6322 0472 64000000 		.4byte	.LVL57
 6323 0476 90000000 		.4byte	.LFE9
 6324 047a 0400     		.2byte	0x4
 6325 047c F3       		.byte	0xf3
 6326 047d 01       		.uleb128 0x1
 6327 047e 53       		.byte	0x53
 6328 047f 9F       		.byte	0x9f
 6329 0480 00000000 		.4byte	0
 6330 0484 00000000 		.4byte	0
 6331              	.LLST18:
ARM GAS  C:\Windows\TEMP\cc5RoFpJ.s 			page 134


 6332 0488 0A000000 		.4byte	.LVL50
 6333 048c 5E000000 		.4byte	.LVL55
 6334 0490 0200     		.2byte	0x2
 6335 0492 31       		.byte	0x31
 6336 0493 9F       		.byte	0x9f
 6337 0494 5E000000 		.4byte	.LVL55
 6338 0498 60000000 		.4byte	.LVL56
 6339 049c 0100     		.2byte	0x1
 6340 049e 50       		.byte	0x50
 6341 049f 60000000 		.4byte	.LVL56
 6342 04a3 7A000000 		.4byte	.LVL60
 6343 04a7 0200     		.2byte	0x2
 6344 04a9 31       		.byte	0x31
 6345 04aa 9F       		.byte	0x9f
 6346 04ab 7A000000 		.4byte	.LVL60
 6347 04af 90000000 		.4byte	.LFE9
 6348 04b3 0100     		.2byte	0x1
 6349 04b5 50       		.byte	0x50
 6350 04b6 00000000 		.4byte	0
 6351 04ba 00000000 		.4byte	0
 6352              	.LLST19:
 6353 04be 00000000 		.4byte	.LVL61
 6354 04c2 20000000 		.4byte	.LVL64
 6355 04c6 0100     		.2byte	0x1
 6356 04c8 51       		.byte	0x51
 6357 04c9 20000000 		.4byte	.LVL64
 6358 04cd 68000000 		.4byte	.LVL68
 6359 04d1 0400     		.2byte	0x4
 6360 04d3 F3       		.byte	0xf3
 6361 04d4 01       		.uleb128 0x1
 6362 04d5 51       		.byte	0x51
 6363 04d6 9F       		.byte	0x9f
 6364 04d7 68000000 		.4byte	.LVL68
 6365 04db 76000000 		.4byte	.LVL70
 6366 04df 0100     		.2byte	0x1
 6367 04e1 51       		.byte	0x51
 6368 04e2 76000000 		.4byte	.LVL70
 6369 04e6 98000000 		.4byte	.LFE10
 6370 04ea 0400     		.2byte	0x4
 6371 04ec F3       		.byte	0xf3
 6372 04ed 01       		.uleb128 0x1
 6373 04ee 51       		.byte	0x51
 6374 04ef 9F       		.byte	0x9f
 6375 04f0 00000000 		.4byte	0
 6376 04f4 00000000 		.4byte	0
 6377              	.LLST20:
 6378 04f8 00000000 		.4byte	.LVL61
 6379 04fc 28000000 		.4byte	.LVL65
 6380 0500 0100     		.2byte	0x1
 6381 0502 52       		.byte	0x52
 6382 0503 28000000 		.4byte	.LVL65
 6383 0507 68000000 		.4byte	.LVL68
 6384 050b 0400     		.2byte	0x4
 6385 050d F3       		.byte	0xf3
 6386 050e 01       		.uleb128 0x1
 6387 050f 52       		.byte	0x52
 6388 0510 9F       		.byte	0x9f
ARM GAS  C:\Windows\TEMP\cc5RoFpJ.s 			page 135


 6389 0511 68000000 		.4byte	.LVL68
 6390 0515 76000000 		.4byte	.LVL70
 6391 0519 0100     		.2byte	0x1
 6392 051b 52       		.byte	0x52
 6393 051c 76000000 		.4byte	.LVL70
 6394 0520 98000000 		.4byte	.LFE10
 6395 0524 0400     		.2byte	0x4
 6396 0526 F3       		.byte	0xf3
 6397 0527 01       		.uleb128 0x1
 6398 0528 52       		.byte	0x52
 6399 0529 9F       		.byte	0x9f
 6400 052a 00000000 		.4byte	0
 6401 052e 00000000 		.4byte	0
 6402              	.LLST21:
 6403 0532 00000000 		.4byte	.LVL61
 6404 0536 10000000 		.4byte	.LVL63
 6405 053a 0100     		.2byte	0x1
 6406 053c 53       		.byte	0x53
 6407 053d 10000000 		.4byte	.LVL63
 6408 0541 68000000 		.4byte	.LVL68
 6409 0545 0400     		.2byte	0x4
 6410 0547 F3       		.byte	0xf3
 6411 0548 01       		.uleb128 0x1
 6412 0549 53       		.byte	0x53
 6413 054a 9F       		.byte	0x9f
 6414 054b 68000000 		.4byte	.LVL68
 6415 054f 6C000000 		.4byte	.LVL69
 6416 0553 0100     		.2byte	0x1
 6417 0555 53       		.byte	0x53
 6418 0556 6C000000 		.4byte	.LVL69
 6419 055a 98000000 		.4byte	.LFE10
 6420 055e 0400     		.2byte	0x4
 6421 0560 F3       		.byte	0xf3
 6422 0561 01       		.uleb128 0x1
 6423 0562 53       		.byte	0x53
 6424 0563 9F       		.byte	0x9f
 6425 0564 00000000 		.4byte	0
 6426 0568 00000000 		.4byte	0
 6427              	.LLST22:
 6428 056c 0A000000 		.4byte	.LVL62
 6429 0570 5A000000 		.4byte	.LVL67
 6430 0574 0200     		.2byte	0x2
 6431 0576 30       		.byte	0x30
 6432 0577 9F       		.byte	0x9f
 6433 0578 5A000000 		.4byte	.LVL67
 6434 057c 68000000 		.4byte	.LVL68
 6435 0580 0100     		.2byte	0x1
 6436 0582 50       		.byte	0x50
 6437 0583 68000000 		.4byte	.LVL68
 6438 0587 7E000000 		.4byte	.LVL71
 6439 058b 0200     		.2byte	0x2
 6440 058d 30       		.byte	0x30
 6441 058e 9F       		.byte	0x9f
 6442 058f 7E000000 		.4byte	.LVL71
 6443 0593 98000000 		.4byte	.LFE10
 6444 0597 0100     		.2byte	0x1
 6445 0599 50       		.byte	0x50
ARM GAS  C:\Windows\TEMP\cc5RoFpJ.s 			page 136


 6446 059a 00000000 		.4byte	0
 6447 059e 00000000 		.4byte	0
 6448              	.LLST23:
 6449 05a2 00000000 		.4byte	.LVL72
 6450 05a6 18000000 		.4byte	.LVL74
 6451 05aa 0100     		.2byte	0x1
 6452 05ac 50       		.byte	0x50
 6453 05ad 18000000 		.4byte	.LVL74
 6454 05b1 76000000 		.4byte	.LVL85
 6455 05b5 0100     		.2byte	0x1
 6456 05b7 55       		.byte	0x55
 6457 05b8 76000000 		.4byte	.LVL85
 6458 05bc 7A000000 		.4byte	.LVL86
 6459 05c0 0100     		.2byte	0x1
 6460 05c2 50       		.byte	0x50
 6461 05c3 7A000000 		.4byte	.LVL86
 6462 05c7 84000000 		.4byte	.LVL88
 6463 05cb 0100     		.2byte	0x1
 6464 05cd 55       		.byte	0x55
 6465 05ce 84000000 		.4byte	.LVL88
 6466 05d2 98000000 		.4byte	.LFE11
 6467 05d6 0400     		.2byte	0x4
 6468 05d8 F3       		.byte	0xf3
 6469 05d9 01       		.uleb128 0x1
 6470 05da 50       		.byte	0x50
 6471 05db 9F       		.byte	0x9f
 6472 05dc 00000000 		.4byte	0
 6473 05e0 00000000 		.4byte	0
 6474              	.LLST24:
 6475 05e4 18000000 		.4byte	.LVL74
 6476 05e8 72000000 		.4byte	.LVL83
 6477 05ec 0100     		.2byte	0x1
 6478 05ee 56       		.byte	0x56
 6479 05ef 74000000 		.4byte	.LVL84
 6480 05f3 76000000 		.4byte	.LVL85
 6481 05f7 0100     		.2byte	0x1
 6482 05f9 56       		.byte	0x56
 6483 05fa 7A000000 		.4byte	.LVL86
 6484 05fe 82000000 		.4byte	.LVL87
 6485 0602 0100     		.2byte	0x1
 6486 0604 56       		.byte	0x56
 6487 0605 00000000 		.4byte	0
 6488 0609 00000000 		.4byte	0
 6489              	.LLST25:
 6490 060d 18000000 		.4byte	.LVL74
 6491 0611 5C000000 		.4byte	.LVL79
 6492 0615 0100     		.2byte	0x1
 6493 0617 54       		.byte	0x54
 6494 0618 5E000000 		.4byte	.LVL80
 6495 061c 60000000 		.4byte	.LVL81
 6496 0620 0100     		.2byte	0x1
 6497 0622 54       		.byte	0x54
 6498 0623 62000000 		.4byte	.LVL82
 6499 0627 76000000 		.4byte	.LVL85
 6500 062b 0100     		.2byte	0x1
 6501 062d 54       		.byte	0x54
 6502 062e 00000000 		.4byte	0
ARM GAS  C:\Windows\TEMP\cc5RoFpJ.s 			page 137


 6503 0632 00000000 		.4byte	0
 6504              	.LLST26:
 6505 0636 06000000 		.4byte	.LVL73
 6506 063a 18000000 		.4byte	.LVL74
 6507 063e 0200     		.2byte	0x2
 6508 0640 30       		.byte	0x30
 6509 0641 9F       		.byte	0x9f
 6510 0642 18000000 		.4byte	.LVL74
 6511 0646 32000000 		.4byte	.LVL75
 6512 064a 0100     		.2byte	0x1
 6513 064c 51       		.byte	0x51
 6514 064d 58000000 		.4byte	.LVL77
 6515 0651 5A000000 		.4byte	.LVL78
 6516 0655 0200     		.2byte	0x2
 6517 0657 31       		.byte	0x31
 6518 0658 9F       		.byte	0x9f
 6519 0659 5A000000 		.4byte	.LVL78
 6520 065d 76000000 		.4byte	.LVL85
 6521 0661 0100     		.2byte	0x1
 6522 0663 51       		.byte	0x51
 6523 0664 76000000 		.4byte	.LVL85
 6524 0668 7A000000 		.4byte	.LVL86
 6525 066c 0200     		.2byte	0x2
 6526 066e 30       		.byte	0x30
 6527 066f 9F       		.byte	0x9f
 6528 0670 7A000000 		.4byte	.LVL86
 6529 0674 82000000 		.4byte	.LVL87
 6530 0678 0100     		.2byte	0x1
 6531 067a 51       		.byte	0x51
 6532 067b 00000000 		.4byte	0
 6533 067f 00000000 		.4byte	0
 6534              	.LLST27:
 6535 0683 0E000000 		.4byte	.LVL89
 6536 0687 40000000 		.4byte	.LVL98
 6537 068b 0200     		.2byte	0x2
 6538 068d 30       		.byte	0x30
 6539 068e 9F       		.byte	0x9f
 6540 068f 40000000 		.4byte	.LVL98
 6541 0693 5E000000 		.4byte	.LVL99
 6542 0697 0100     		.2byte	0x1
 6543 0699 50       		.byte	0x50
 6544 069a 70000000 		.4byte	.LVL100
 6545 069e 74000000 		.4byte	.LVL101
 6546 06a2 0100     		.2byte	0x1
 6547 06a4 50       		.byte	0x50
 6548 06a5 76000000 		.4byte	.LVL102
 6549 06a9 78000000 		.4byte	.LVL103
 6550 06ad 0100     		.2byte	0x1
 6551 06af 50       		.byte	0x50
 6552 06b0 7A000000 		.4byte	.LVL104
 6553 06b4 C4000000 		.4byte	.LVL116
 6554 06b8 0100     		.2byte	0x1
 6555 06ba 50       		.byte	0x50
 6556 06bb D8000000 		.4byte	.LVL117
 6557 06bf E0000000 		.4byte	.LVL118
 6558 06c3 0100     		.2byte	0x1
 6559 06c5 50       		.byte	0x50
ARM GAS  C:\Windows\TEMP\cc5RoFpJ.s 			page 138


 6560 06c6 04010000 		.4byte	.LVL119
 6561 06ca 0A010000 		.4byte	.LVL120
 6562 06ce 0100     		.2byte	0x1
 6563 06d0 50       		.byte	0x50
 6564 06d1 0A010000 		.4byte	.LVL120
 6565 06d5 32010000 		.4byte	.LVL123
 6566 06d9 0300     		.2byte	0x3
 6567 06db 91       		.byte	0x91
 6568 06dc A07F     		.sleb128 -96
 6569 06de 32010000 		.4byte	.LVL123
 6570 06e2 38010000 		.4byte	.LVL124
 6571 06e6 0100     		.2byte	0x1
 6572 06e8 50       		.byte	0x50
 6573 06e9 38010000 		.4byte	.LVL124
 6574 06ed 5E010000 		.4byte	.LVL127
 6575 06f1 0300     		.2byte	0x3
 6576 06f3 91       		.byte	0x91
 6577 06f4 A07F     		.sleb128 -96
 6578 06f6 5E010000 		.4byte	.LVL127
 6579 06fa 74010000 		.4byte	.LVL128
 6580 06fe 0100     		.2byte	0x1
 6581 0700 50       		.byte	0x50
 6582 0701 88010000 		.4byte	.LVL129
 6583 0705 C8010000 		.4byte	.LVL138
 6584 0709 0100     		.2byte	0x1
 6585 070b 50       		.byte	0x50
 6586 070c C8010000 		.4byte	.LVL138
 6587 0710 D6010000 		.4byte	.LVL139
 6588 0714 0200     		.2byte	0x2
 6589 0716 30       		.byte	0x30
 6590 0717 9F       		.byte	0x9f
 6591 0718 D6010000 		.4byte	.LVL139
 6592 071c E8010000 		.4byte	.LVL140
 6593 0720 0100     		.2byte	0x1
 6594 0722 50       		.byte	0x50
 6595 0723 FE010000 		.4byte	.LVL141
 6596 0727 18020000 		.4byte	.LFE12
 6597 072b 0100     		.2byte	0x1
 6598 072d 50       		.byte	0x50
 6599 072e 00000000 		.4byte	0
 6600 0732 00000000 		.4byte	0
 6601              	.LLST28:
 6602 0736 9E010000 		.4byte	.LVL133
 6603 073a A8010000 		.4byte	.LVL134
 6604 073e 0100     		.2byte	0x1
 6605 0740 57       		.byte	0x57
 6606 0741 C6010000 		.4byte	.LVL137
 6607 0745 C8010000 		.4byte	.LVL138
 6608 0749 0100     		.2byte	0x1
 6609 074b 57       		.byte	0x57
 6610 074c D6010000 		.4byte	.LVL139
 6611 0750 FE010000 		.4byte	.LVL141
 6612 0754 0100     		.2byte	0x1
 6613 0756 57       		.byte	0x57
 6614 0757 00000000 		.4byte	0
 6615 075b 00000000 		.4byte	0
 6616              	.LLST29:
ARM GAS  C:\Windows\TEMP\cc5RoFpJ.s 			page 139


 6617 075f 40000000 		.4byte	.LVL98
 6618 0763 9C000000 		.4byte	.LVL110
 6619 0767 0100     		.2byte	0x1
 6620 0769 54       		.byte	0x54
 6621 076a 9E000000 		.4byte	.LVL111
 6622 076e A0000000 		.4byte	.LVL112
 6623 0772 0100     		.2byte	0x1
 6624 0774 54       		.byte	0x54
 6625 0775 A4000000 		.4byte	.LVL113
 6626 0779 BC000000 		.4byte	.LVL115
 6627 077d 0100     		.2byte	0x1
 6628 077f 54       		.byte	0x54
 6629 0780 5E010000 		.4byte	.LVL127
 6630 0784 94010000 		.4byte	.LVL130
 6631 0788 0100     		.2byte	0x1
 6632 078a 54       		.byte	0x54
 6633 078b 00000000 		.4byte	0
 6634 078f 00000000 		.4byte	0
 6635              	.LLST30:
 6636 0793 8A000000 		.4byte	.LVL106
 6637 0797 9A000000 		.4byte	.LVL109
 6638 079b 0100     		.2byte	0x1
 6639 079d 53       		.byte	0x53
 6640 079e 00000000 		.4byte	0
 6641 07a2 00000000 		.4byte	0
 6642              	.LLST31:
 6643 07a6 40000000 		.4byte	.LVL98
 6644 07aa B0000000 		.4byte	.LVL114
 6645 07ae 0100     		.2byte	0x1
 6646 07b0 5A       		.byte	0x5a
 6647 07b1 B0000000 		.4byte	.LVL114
 6648 07b5 9E010000 		.4byte	.LVL133
 6649 07b9 0200     		.2byte	0x2
 6650 07bb 7D       		.byte	0x7d
 6651 07bc 00       		.sleb128 0
 6652 07bd A8010000 		.4byte	.LVL134
 6653 07c1 C8010000 		.4byte	.LVL138
 6654 07c5 0100     		.2byte	0x1
 6655 07c7 5A       		.byte	0x5a
 6656 07c8 00000000 		.4byte	0
 6657 07cc 00000000 		.4byte	0
 6658              	.LLST32:
 6659 07d0 0E000000 		.4byte	.LVL89
 6660 07d4 40000000 		.4byte	.LVL98
 6661 07d8 0300     		.2byte	0x3
 6662 07da 09       		.byte	0x9
 6663 07db FF       		.byte	0xff
 6664 07dc 9F       		.byte	0x9f
 6665 07dd 40000000 		.4byte	.LVL98
 6666 07e1 96000000 		.4byte	.LVL108
 6667 07e5 0200     		.2byte	0x2
 6668 07e7 7D       		.byte	0x7d
 6669 07e8 00       		.sleb128 0
 6670 07e9 96000000 		.4byte	.LVL108
 6671 07ed 9A000000 		.4byte	.LVL109
 6672 07f1 0100     		.2byte	0x1
 6673 07f3 53       		.byte	0x53
ARM GAS  C:\Windows\TEMP\cc5RoFpJ.s 			page 140


 6674 07f4 9A000000 		.4byte	.LVL109
 6675 07f8 C8010000 		.4byte	.LVL138
 6676 07fc 0200     		.2byte	0x2
 6677 07fe 7D       		.byte	0x7d
 6678 07ff 00       		.sleb128 0
 6679 0800 C8010000 		.4byte	.LVL138
 6680 0804 D6010000 		.4byte	.LVL139
 6681 0808 0300     		.2byte	0x3
 6682 080a 09       		.byte	0x9
 6683 080b FF       		.byte	0xff
 6684 080c 9F       		.byte	0x9f
 6685 080d D6010000 		.4byte	.LVL139
 6686 0811 FE010000 		.4byte	.LVL141
 6687 0815 0200     		.2byte	0x2
 6688 0817 7D       		.byte	0x7d
 6689 0818 00       		.sleb128 0
 6690 0819 00000000 		.4byte	0
 6691 081d 00000000 		.4byte	0
 6692              	.LLST33:
 6693 0821 40000000 		.4byte	.LVL98
 6694 0825 92000000 		.4byte	.LVL107
 6695 0829 0100     		.2byte	0x1
 6696 082b 56       		.byte	0x56
 6697 082c 92000000 		.4byte	.LVL107
 6698 0830 9A000000 		.4byte	.LVL109
 6699 0834 0100     		.2byte	0x1
 6700 0836 53       		.byte	0x53
 6701 0837 9A000000 		.4byte	.LVL109
 6702 083b A0000000 		.4byte	.LVL112
 6703 083f 0100     		.2byte	0x1
 6704 0841 56       		.byte	0x56
 6705 0842 A4000000 		.4byte	.LVL113
 6706 0846 0A010000 		.4byte	.LVL120
 6707 084a 0100     		.2byte	0x1
 6708 084c 56       		.byte	0x56
 6709 084d 32010000 		.4byte	.LVL123
 6710 0851 38010000 		.4byte	.LVL124
 6711 0855 0100     		.2byte	0x1
 6712 0857 56       		.byte	0x56
 6713 0858 5E010000 		.4byte	.LVL127
 6714 085c 94010000 		.4byte	.LVL130
 6715 0860 0100     		.2byte	0x1
 6716 0862 56       		.byte	0x56
 6717 0863 00000000 		.4byte	0
 6718 0867 00000000 		.4byte	0
 6719              	.LLST34:
 6720 086b 40000000 		.4byte	.LVL98
 6721 086f 9E010000 		.4byte	.LVL133
 6722 0873 0100     		.2byte	0x1
 6723 0875 5B       		.byte	0x5b
 6724 0876 A8010000 		.4byte	.LVL134
 6725 087a C8010000 		.4byte	.LVL138
 6726 087e 0100     		.2byte	0x1
 6727 0880 5B       		.byte	0x5b
 6728 0881 00000000 		.4byte	0
 6729 0885 00000000 		.4byte	0
 6730              	.LLST35:
ARM GAS  C:\Windows\TEMP\cc5RoFpJ.s 			page 141


 6731 0889 40000000 		.4byte	.LVL98
 6732 088d 96010000 		.4byte	.LVL131
 6733 0891 0100     		.2byte	0x1
 6734 0893 57       		.byte	0x57
 6735 0894 98010000 		.4byte	.LVL132
 6736 0898 9E010000 		.4byte	.LVL133
 6737 089c 0100     		.2byte	0x1
 6738 089e 57       		.byte	0x57
 6739 089f A8010000 		.4byte	.LVL134
 6740 08a3 BA010000 		.4byte	.LVL135
 6741 08a7 0100     		.2byte	0x1
 6742 08a9 57       		.byte	0x57
 6743 08aa 00000000 		.4byte	0
 6744 08ae 00000000 		.4byte	0
 6745              	.LLST36:
 6746 08b2 0E000000 		.4byte	.LVL89
 6747 08b6 40000000 		.4byte	.LVL98
 6748 08ba 0200     		.2byte	0x2
 6749 08bc 30       		.byte	0x30
 6750 08bd 9F       		.byte	0x9f
 6751 08be 40000000 		.4byte	.LVL98
 6752 08c2 C8010000 		.4byte	.LVL138
 6753 08c6 0100     		.2byte	0x1
 6754 08c8 59       		.byte	0x59
 6755 08c9 C8010000 		.4byte	.LVL138
 6756 08cd D6010000 		.4byte	.LVL139
 6757 08d1 0200     		.2byte	0x2
 6758 08d3 30       		.byte	0x30
 6759 08d4 9F       		.byte	0x9f
 6760 08d5 D6010000 		.4byte	.LVL139
 6761 08d9 FE010000 		.4byte	.LVL141
 6762 08dd 0100     		.2byte	0x1
 6763 08df 59       		.byte	0x59
 6764 08e0 00000000 		.4byte	0
 6765 08e4 00000000 		.4byte	0
 6766              	.LLST37:
 6767 08e8 0E000000 		.4byte	.LVL89
 6768 08ec 40000000 		.4byte	.LVL98
 6769 08f0 0200     		.2byte	0x2
 6770 08f2 30       		.byte	0x30
 6771 08f3 9F       		.byte	0x9f
 6772 08f4 40000000 		.4byte	.LVL98
 6773 08f8 C8010000 		.4byte	.LVL138
 6774 08fc 0300     		.2byte	0x3
 6775 08fe 91       		.byte	0x91
 6776 08ff 9C7F     		.sleb128 -100
 6777 0901 C8010000 		.4byte	.LVL138
 6778 0905 D6010000 		.4byte	.LVL139
 6779 0909 0200     		.2byte	0x2
 6780 090b 30       		.byte	0x30
 6781 090c 9F       		.byte	0x9f
 6782 090d D6010000 		.4byte	.LVL139
 6783 0911 FE010000 		.4byte	.LVL141
 6784 0915 0300     		.2byte	0x3
 6785 0917 91       		.byte	0x91
 6786 0918 9C7F     		.sleb128 -100
 6787 091a 00000000 		.4byte	0
ARM GAS  C:\Windows\TEMP\cc5RoFpJ.s 			page 142


 6788 091e 00000000 		.4byte	0
 6789              	.LLST38:
 6790 0922 0E000000 		.4byte	.LVL89
 6791 0926 12000000 		.4byte	.LVL90
 6792 092a 0200     		.2byte	0x2
 6793 092c 30       		.byte	0x30
 6794 092d 9F       		.byte	0x9f
 6795 092e 12000000 		.4byte	.LVL90
 6796 0932 1A000000 		.4byte	.LVL91
 6797 0936 0100     		.2byte	0x1
 6798 0938 53       		.byte	0x53
 6799 0939 1C000000 		.4byte	.LVL92
 6800 093d 22000000 		.4byte	.LVL93
 6801 0941 0100     		.2byte	0x1
 6802 0943 53       		.byte	0x53
 6803 0944 24000000 		.4byte	.LVL94
 6804 0948 2C000000 		.4byte	.LVL95
 6805 094c 0100     		.2byte	0x1
 6806 094e 53       		.byte	0x53
 6807 094f 2E000000 		.4byte	.LVL96
 6808 0953 34000000 		.4byte	.LVL97
 6809 0957 0100     		.2byte	0x1
 6810 0959 53       		.byte	0x53
 6811 095a 0A010000 		.4byte	.LVL120
 6812 095e 2E010000 		.4byte	.LVL121
 6813 0962 0100     		.2byte	0x1
 6814 0964 51       		.byte	0x51
 6815 0965 30010000 		.4byte	.LVL122
 6816 0969 32010000 		.4byte	.LVL123
 6817 096d 0100     		.2byte	0x1
 6818 096f 51       		.byte	0x51
 6819 0970 38010000 		.4byte	.LVL124
 6820 0974 5E010000 		.4byte	.LVL127
 6821 0978 0100     		.2byte	0x1
 6822 097a 51       		.byte	0x51
 6823 097b 00000000 		.4byte	0
 6824 097f 00000000 		.4byte	0
 6825              	.LLST39:
 6826 0983 00000000 		.4byte	.LVL143
 6827 0987 22000000 		.4byte	.LVL146
 6828 098b 0100     		.2byte	0x1
 6829 098d 50       		.byte	0x50
 6830 098e 22000000 		.4byte	.LVL146
 6831 0992 18020000 		.4byte	.LVL196
 6832 0996 0100     		.2byte	0x1
 6833 0998 5A       		.byte	0x5a
 6834 0999 18020000 		.4byte	.LVL196
 6835 099d 22020000 		.4byte	.LVL197
 6836 09a1 0100     		.2byte	0x1
 6837 09a3 50       		.byte	0x50
 6838 09a4 22020000 		.4byte	.LVL197
 6839 09a8 50020000 		.4byte	.LVL204
 6840 09ac 0100     		.2byte	0x1
 6841 09ae 5A       		.byte	0x5a
 6842 09af 50020000 		.4byte	.LVL204
 6843 09b3 78020000 		.4byte	.LFE4
 6844 09b7 0400     		.2byte	0x4
ARM GAS  C:\Windows\TEMP\cc5RoFpJ.s 			page 143


 6845 09b9 F3       		.byte	0xf3
 6846 09ba 01       		.uleb128 0x1
 6847 09bb 50       		.byte	0x50
 6848 09bc 9F       		.byte	0x9f
 6849 09bd 00000000 		.4byte	0
 6850 09c1 00000000 		.4byte	0
 6851              	.LLST40:
 6852 09c5 22000000 		.4byte	.LVL146
 6853 09c9 18020000 		.4byte	.LVL196
 6854 09cd 0100     		.2byte	0x1
 6855 09cf 59       		.byte	0x59
 6856 09d0 22020000 		.4byte	.LVL197
 6857 09d4 32020000 		.4byte	.LVL198
 6858 09d8 0100     		.2byte	0x1
 6859 09da 59       		.byte	0x59
 6860 09db 00000000 		.4byte	0
 6861 09df 00000000 		.4byte	0
 6862              	.LLST41:
 6863 09e3 36000000 		.4byte	.LVL147
 6864 09e7 FC010000 		.4byte	.LVL190
 6865 09eb 0100     		.2byte	0x1
 6866 09ed 55       		.byte	0x55
 6867 09ee FE010000 		.4byte	.LVL191
 6868 09f2 00020000 		.4byte	.LVL192
 6869 09f6 0100     		.2byte	0x1
 6870 09f8 55       		.byte	0x55
 6871 09f9 02020000 		.4byte	.LVL193
 6872 09fd 0E020000 		.4byte	.LVL194
 6873 0a01 0100     		.2byte	0x1
 6874 0a03 55       		.byte	0x55
 6875 0a04 00000000 		.4byte	0
 6876 0a08 00000000 		.4byte	0
 6877              	.LLST42:
 6878 0a0c 10000000 		.4byte	.LVL144
 6879 0a10 22000000 		.4byte	.LVL146
 6880 0a14 0200     		.2byte	0x2
 6881 0a16 30       		.byte	0x30
 6882 0a17 9F       		.byte	0x9f
 6883 0a18 22000000 		.4byte	.LVL146
 6884 0a1c 52010000 		.4byte	.LVL170
 6885 0a20 0100     		.2byte	0x1
 6886 0a22 57       		.byte	0x57
 6887 0a23 54010000 		.4byte	.LVL171
 6888 0a27 56010000 		.4byte	.LVL172
 6889 0a2b 0100     		.2byte	0x1
 6890 0a2d 57       		.byte	0x57
 6891 0a2e 58010000 		.4byte	.LVL173
 6892 0a32 5A010000 		.4byte	.LVL174
 6893 0a36 0100     		.2byte	0x1
 6894 0a38 57       		.byte	0x57
 6895 0a39 5C010000 		.4byte	.LVL175
 6896 0a3d 78010000 		.4byte	.LVL178
 6897 0a41 0100     		.2byte	0x1
 6898 0a43 57       		.byte	0x57
 6899 0a44 78010000 		.4byte	.LVL178
 6900 0a48 A2010000 		.4byte	.LVL179
 6901 0a4c 0100     		.2byte	0x1
ARM GAS  C:\Windows\TEMP\cc5RoFpJ.s 			page 144


 6902 0a4e 50       		.byte	0x50
 6903 0a4f A2010000 		.4byte	.LVL179
 6904 0a53 A8010000 		.4byte	.LVL181
 6905 0a57 0100     		.2byte	0x1
 6906 0a59 57       		.byte	0x57
 6907 0a5a A8010000 		.4byte	.LVL181
 6908 0a5e CA010000 		.4byte	.LVL182
 6909 0a62 0100     		.2byte	0x1
 6910 0a64 50       		.byte	0x50
 6911 0a65 CA010000 		.4byte	.LVL182
 6912 0a69 DE010000 		.4byte	.LVL185
 6913 0a6d 0100     		.2byte	0x1
 6914 0a6f 57       		.byte	0x57
 6915 0a70 DE010000 		.4byte	.LVL185
 6916 0a74 EC010000 		.4byte	.LVL188
 6917 0a78 0100     		.2byte	0x1
 6918 0a7a 50       		.byte	0x50
 6919 0a7b EC010000 		.4byte	.LVL188
 6920 0a7f 18020000 		.4byte	.LVL196
 6921 0a83 0100     		.2byte	0x1
 6922 0a85 57       		.byte	0x57
 6923 0a86 18020000 		.4byte	.LVL196
 6924 0a8a 22020000 		.4byte	.LVL197
 6925 0a8e 0200     		.2byte	0x2
 6926 0a90 30       		.byte	0x30
 6927 0a91 9F       		.byte	0x9f
 6928 0a92 22020000 		.4byte	.LVL197
 6929 0a96 50020000 		.4byte	.LVL203
 6930 0a9a 0100     		.2byte	0x1
 6931 0a9c 57       		.byte	0x57
 6932 0a9d 00000000 		.4byte	0
 6933 0aa1 00000000 		.4byte	0
 6934              	.LLST43:
 6935 0aa5 12000000 		.4byte	.LVL145
 6936 0aa9 50020000 		.4byte	.LVL202
 6937 0aad 0100     		.2byte	0x1
 6938 0aaf 56       		.byte	0x56
 6939 0ab0 00000000 		.4byte	0
 6940 0ab4 00000000 		.4byte	0
 6941              	.LLST44:
 6942 0ab8 10000000 		.4byte	.LVL144
 6943 0abc 22000000 		.4byte	.LVL146
 6944 0ac0 0200     		.2byte	0x2
 6945 0ac2 30       		.byte	0x30
 6946 0ac3 9F       		.byte	0x9f
 6947 0ac4 22000000 		.4byte	.LVL146
 6948 0ac8 50000000 		.4byte	.LVL149
 6949 0acc 0100     		.2byte	0x1
 6950 0ace 54       		.byte	0x54
 6951 0acf 50000000 		.4byte	.LVL149
 6952 0ad3 54000000 		.4byte	.LVL150
 6953 0ad7 0200     		.2byte	0x2
 6954 0ad9 31       		.byte	0x31
 6955 0ada 9F       		.byte	0x9f
 6956 0adb 54000000 		.4byte	.LVL150
 6957 0adf 6C000000 		.4byte	.LVL153
 6958 0ae3 0100     		.2byte	0x1
ARM GAS  C:\Windows\TEMP\cc5RoFpJ.s 			page 145


 6959 0ae5 54       		.byte	0x54
 6960 0ae6 6C000000 		.4byte	.LVL153
 6961 0aea 6E000000 		.4byte	.LVL154
 6962 0aee 0200     		.2byte	0x2
 6963 0af0 32       		.byte	0x32
 6964 0af1 9F       		.byte	0x9f
 6965 0af2 6E000000 		.4byte	.LVL154
 6966 0af6 18020000 		.4byte	.LVL196
 6967 0afa 0100     		.2byte	0x1
 6968 0afc 54       		.byte	0x54
 6969 0afd 18020000 		.4byte	.LVL196
 6970 0b01 22020000 		.4byte	.LVL197
 6971 0b05 0200     		.2byte	0x2
 6972 0b07 30       		.byte	0x30
 6973 0b08 9F       		.byte	0x9f
 6974 0b09 22020000 		.4byte	.LVL197
 6975 0b0d 50020000 		.4byte	.LVL201
 6976 0b11 0100     		.2byte	0x1
 6977 0b13 54       		.byte	0x54
 6978 0b14 00000000 		.4byte	0
 6979 0b18 00000000 		.4byte	0
 6980              	.LLST45:
 6981 0b1c 44000000 		.4byte	.LVL148
 6982 0b20 B7000000 		.4byte	.LVL158-1
 6983 0b24 0100     		.2byte	0x1
 6984 0b26 51       		.byte	0x51
 6985 0b27 B7000000 		.4byte	.LVL158-1
 6986 0b2b DE000000 		.4byte	.LVL162
 6987 0b2f 1100     		.2byte	0x11
 6988 0b31 75       		.byte	0x75
 6989 0b32 00       		.sleb128 0
 6990 0b33 34       		.byte	0x34
 6991 0b34 24       		.byte	0x24
 6992 0b35 78       		.byte	0x78
 6993 0b36 00       		.sleb128 0
 6994 0b37 32       		.byte	0x32
 6995 0b38 24       		.byte	0x24
 6996 0b39 03       		.byte	0x3
 6997 0b3a 04000000 		.4byte	.LANCHOR2+4
 6998 0b3e 22       		.byte	0x22
 6999 0b3f 06       		.byte	0x6
 7000 0b40 22       		.byte	0x22
 7001 0b41 9F       		.byte	0x9f
 7002 0b42 DE000000 		.4byte	.LVL162
 7003 0b46 E9000000 		.4byte	.LVL163-1
 7004 0b4a 0100     		.2byte	0x1
 7005 0b4c 51       		.byte	0x51
 7006 0b4d E9000000 		.4byte	.LVL163-1
 7007 0b51 10010000 		.4byte	.LVL167
 7008 0b55 1100     		.2byte	0x11
 7009 0b57 75       		.byte	0x75
 7010 0b58 00       		.sleb128 0
 7011 0b59 34       		.byte	0x34
 7012 0b5a 24       		.byte	0x24
 7013 0b5b 78       		.byte	0x78
 7014 0b5c 00       		.sleb128 0
 7015 0b5d 32       		.byte	0x32
ARM GAS  C:\Windows\TEMP\cc5RoFpJ.s 			page 146


 7016 0b5e 24       		.byte	0x24
 7017 0b5f 03       		.byte	0x3
 7018 0b60 04000000 		.4byte	.LANCHOR2+4
 7019 0b64 22       		.byte	0x22
 7020 0b65 06       		.byte	0x6
 7021 0b66 22       		.byte	0x22
 7022 0b67 9F       		.byte	0x9f
 7023 0b68 10010000 		.4byte	.LVL167
 7024 0b6c 16010000 		.4byte	.LVL168
 7025 0b70 0100     		.2byte	0x1
 7026 0b72 51       		.byte	0x51
 7027 0b73 16010000 		.4byte	.LVL168
 7028 0b77 38010000 		.4byte	.LVL169
 7029 0b7b 1100     		.2byte	0x11
 7030 0b7d 75       		.byte	0x75
 7031 0b7e 00       		.sleb128 0
 7032 0b7f 34       		.byte	0x34
 7033 0b80 24       		.byte	0x24
 7034 0b81 78       		.byte	0x78
 7035 0b82 00       		.sleb128 0
 7036 0b83 32       		.byte	0x32
 7037 0b84 24       		.byte	0x24
 7038 0b85 03       		.byte	0x3
 7039 0b86 04000000 		.4byte	.LANCHOR2+4
 7040 0b8a 22       		.byte	0x22
 7041 0b8b 06       		.byte	0x6
 7042 0b8c 22       		.byte	0x22
 7043 0b8d 9F       		.byte	0x9f
 7044 0b8e 38010000 		.4byte	.LVL169
 7045 0b92 54010000 		.4byte	.LVL171
 7046 0b96 0100     		.2byte	0x1
 7047 0b98 51       		.byte	0x51
 7048 0b99 54010000 		.4byte	.LVL171
 7049 0b9d 58010000 		.4byte	.LVL173
 7050 0ba1 1100     		.2byte	0x11
 7051 0ba3 75       		.byte	0x75
 7052 0ba4 00       		.sleb128 0
 7053 0ba5 34       		.byte	0x34
 7054 0ba6 24       		.byte	0x24
 7055 0ba7 78       		.byte	0x78
 7056 0ba8 00       		.sleb128 0
 7057 0ba9 32       		.byte	0x32
 7058 0baa 24       		.byte	0x24
 7059 0bab 03       		.byte	0x3
 7060 0bac 04000000 		.4byte	.LANCHOR2+4
 7061 0bb0 22       		.byte	0x22
 7062 0bb1 06       		.byte	0x6
 7063 0bb2 22       		.byte	0x22
 7064 0bb3 9F       		.byte	0x9f
 7065 0bb4 58010000 		.4byte	.LVL173
 7066 0bb8 5E010000 		.4byte	.LVL176
 7067 0bbc 0100     		.2byte	0x1
 7068 0bbe 51       		.byte	0x51
 7069 0bbf 5E010000 		.4byte	.LVL176
 7070 0bc3 FC010000 		.4byte	.LVL190
 7071 0bc7 1100     		.2byte	0x11
 7072 0bc9 75       		.byte	0x75
ARM GAS  C:\Windows\TEMP\cc5RoFpJ.s 			page 147


 7073 0bca 00       		.sleb128 0
 7074 0bcb 34       		.byte	0x34
 7075 0bcc 24       		.byte	0x24
 7076 0bcd 78       		.byte	0x78
 7077 0bce 00       		.sleb128 0
 7078 0bcf 32       		.byte	0x32
 7079 0bd0 24       		.byte	0x24
 7080 0bd1 03       		.byte	0x3
 7081 0bd2 04000000 		.4byte	.LANCHOR2+4
 7082 0bd6 22       		.byte	0x22
 7083 0bd7 06       		.byte	0x6
 7084 0bd8 22       		.byte	0x22
 7085 0bd9 9F       		.byte	0x9f
 7086 0bda FC010000 		.4byte	.LVL190
 7087 0bde FE010000 		.4byte	.LVL191
 7088 0be2 1100     		.2byte	0x11
 7089 0be4 75       		.byte	0x75
 7090 0be5 7F       		.sleb128 -1
 7091 0be6 34       		.byte	0x34
 7092 0be7 24       		.byte	0x24
 7093 0be8 78       		.byte	0x78
 7094 0be9 00       		.sleb128 0
 7095 0bea 32       		.byte	0x32
 7096 0beb 24       		.byte	0x24
 7097 0bec 03       		.byte	0x3
 7098 0bed 04000000 		.4byte	.LANCHOR2+4
 7099 0bf1 22       		.byte	0x22
 7100 0bf2 06       		.byte	0x6
 7101 0bf3 22       		.byte	0x22
 7102 0bf4 9F       		.byte	0x9f
 7103 0bf5 00000000 		.4byte	0
 7104 0bf9 00000000 		.4byte	0
 7105              	.LLST46:
 7106 0bfd 10000000 		.4byte	.LVL144
 7107 0c01 22000000 		.4byte	.LVL146
 7108 0c05 0200     		.2byte	0x2
 7109 0c07 30       		.byte	0x30
 7110 0c08 9F       		.byte	0x9f
 7111 0c09 22000000 		.4byte	.LVL146
 7112 0c0d C2000000 		.4byte	.LVL159
 7113 0c11 0100     		.2byte	0x1
 7114 0c13 5B       		.byte	0x5b
 7115 0c14 C4000000 		.4byte	.LVL160
 7116 0c18 F4000000 		.4byte	.LVL164
 7117 0c1c 0100     		.2byte	0x1
 7118 0c1e 5B       		.byte	0x5b
 7119 0c1f F6000000 		.4byte	.LVL165
 7120 0c23 E4010000 		.4byte	.LVL186
 7121 0c27 0100     		.2byte	0x1
 7122 0c29 5B       		.byte	0x5b
 7123 0c2a E4010000 		.4byte	.LVL186
 7124 0c2e E6010000 		.4byte	.LVL187
 7125 0c32 0100     		.2byte	0x1
 7126 0c34 53       		.byte	0x53
 7127 0c35 E6010000 		.4byte	.LVL187
 7128 0c39 18020000 		.4byte	.LVL196
 7129 0c3d 0100     		.2byte	0x1
ARM GAS  C:\Windows\TEMP\cc5RoFpJ.s 			page 148


 7130 0c3f 5B       		.byte	0x5b
 7131 0c40 18020000 		.4byte	.LVL196
 7132 0c44 22020000 		.4byte	.LVL197
 7133 0c48 0200     		.2byte	0x2
 7134 0c4a 30       		.byte	0x30
 7135 0c4b 9F       		.byte	0x9f
 7136 0c4c 22020000 		.4byte	.LVL197
 7137 0c50 32020000 		.4byte	.LVL198
 7138 0c54 0100     		.2byte	0x1
 7139 0c56 5B       		.byte	0x5b
 7140 0c57 00000000 		.4byte	0
 7141 0c5b 00000000 		.4byte	0
 7142              	.LLST47:
 7143 0c5f 5A000000 		.4byte	.LVL151
 7144 0c63 5E000000 		.4byte	.LVL152
 7145 0c67 0200     		.2byte	0x2
 7146 0c69 30       		.byte	0x30
 7147 0c6a 9F       		.byte	0x9f
 7148 0c6b 5E000000 		.4byte	.LVL152
 7149 0c6f 70000000 		.4byte	.LVL155
 7150 0c73 0100     		.2byte	0x1
 7151 0c75 53       		.byte	0x53
 7152 0c76 72000000 		.4byte	.LVL156
 7153 0c7a 7A000000 		.4byte	.LVL157
 7154 0c7e 0100     		.2byte	0x1
 7155 0c80 53       		.byte	0x53
 7156 0c81 00000000 		.4byte	0
 7157 0c85 00000000 		.4byte	0
 7158              	.LLST48:
 7159 0c89 00000000 		.4byte	.LVL205
 7160 0c8d 12000000 		.4byte	.LVL207
 7161 0c91 0100     		.2byte	0x1
 7162 0c93 50       		.byte	0x50
 7163 0c94 12000000 		.4byte	.LVL207
 7164 0c98 42000000 		.4byte	.LVL213
 7165 0c9c 0400     		.2byte	0x4
 7166 0c9e F3       		.byte	0xf3
 7167 0c9f 01       		.uleb128 0x1
 7168 0ca0 50       		.byte	0x50
 7169 0ca1 9F       		.byte	0x9f
 7170 0ca2 42000000 		.4byte	.LVL213
 7171 0ca6 4A000000 		.4byte	.LVL214
 7172 0caa 0100     		.2byte	0x1
 7173 0cac 50       		.byte	0x50
 7174 0cad 4A000000 		.4byte	.LVL214
 7175 0cb1 6C000000 		.4byte	.LFE5
 7176 0cb5 0400     		.2byte	0x4
 7177 0cb7 F3       		.byte	0xf3
 7178 0cb8 01       		.uleb128 0x1
 7179 0cb9 50       		.byte	0x50
 7180 0cba 9F       		.byte	0x9f
 7181 0cbb 00000000 		.4byte	0
 7182 0cbf 00000000 		.4byte	0
 7183              	.LLST49:
 7184 0cc3 00000000 		.4byte	.LVL205
 7185 0cc7 1E000000 		.4byte	.LVL208
 7186 0ccb 0100     		.2byte	0x1
ARM GAS  C:\Windows\TEMP\cc5RoFpJ.s 			page 149


 7187 0ccd 51       		.byte	0x51
 7188 0cce 1E000000 		.4byte	.LVL208
 7189 0cd2 42000000 		.4byte	.LVL213
 7190 0cd6 0400     		.2byte	0x4
 7191 0cd8 F3       		.byte	0xf3
 7192 0cd9 01       		.uleb128 0x1
 7193 0cda 51       		.byte	0x51
 7194 0cdb 9F       		.byte	0x9f
 7195 0cdc 42000000 		.4byte	.LVL213
 7196 0ce0 4E000000 		.4byte	.LVL215
 7197 0ce4 0100     		.2byte	0x1
 7198 0ce6 51       		.byte	0x51
 7199 0ce7 4E000000 		.4byte	.LVL215
 7200 0ceb 6C000000 		.4byte	.LFE5
 7201 0cef 0400     		.2byte	0x4
 7202 0cf1 F3       		.byte	0xf3
 7203 0cf2 01       		.uleb128 0x1
 7204 0cf3 51       		.byte	0x51
 7205 0cf4 9F       		.byte	0x9f
 7206 0cf5 00000000 		.4byte	0
 7207 0cf9 00000000 		.4byte	0
 7208              	.LLST50:
 7209 0cfd 00000000 		.4byte	.LVL205
 7210 0d01 30000000 		.4byte	.LVL210
 7211 0d05 0100     		.2byte	0x1
 7212 0d07 52       		.byte	0x52
 7213 0d08 30000000 		.4byte	.LVL210
 7214 0d0c 42000000 		.4byte	.LVL213
 7215 0d10 0400     		.2byte	0x4
 7216 0d12 F3       		.byte	0xf3
 7217 0d13 01       		.uleb128 0x1
 7218 0d14 52       		.byte	0x52
 7219 0d15 9F       		.byte	0x9f
 7220 0d16 42000000 		.4byte	.LVL213
 7221 0d1a 50000000 		.4byte	.LVL216
 7222 0d1e 0100     		.2byte	0x1
 7223 0d20 52       		.byte	0x52
 7224 0d21 50000000 		.4byte	.LVL216
 7225 0d25 6C000000 		.4byte	.LFE5
 7226 0d29 0400     		.2byte	0x4
 7227 0d2b F3       		.byte	0xf3
 7228 0d2c 01       		.uleb128 0x1
 7229 0d2d 52       		.byte	0x52
 7230 0d2e 9F       		.byte	0x9f
 7231 0d2f 00000000 		.4byte	0
 7232 0d33 00000000 		.4byte	0
 7233              	.LLST51:
 7234 0d37 00000000 		.4byte	.LVL205
 7235 0d3b 2E000000 		.4byte	.LVL209
 7236 0d3f 0100     		.2byte	0x1
 7237 0d41 53       		.byte	0x53
 7238 0d42 2E000000 		.4byte	.LVL209
 7239 0d46 35000000 		.4byte	.LVL211-1
 7240 0d4a 0200     		.2byte	0x2
 7241 0d4c 70       		.byte	0x70
 7242 0d4d 00       		.sleb128 0
 7243 0d4e 35000000 		.4byte	.LVL211-1
ARM GAS  C:\Windows\TEMP\cc5RoFpJ.s 			page 150


 7244 0d52 42000000 		.4byte	.LVL213
 7245 0d56 0400     		.2byte	0x4
 7246 0d58 F3       		.byte	0xf3
 7247 0d59 01       		.uleb128 0x1
 7248 0d5a 53       		.byte	0x53
 7249 0d5b 9F       		.byte	0x9f
 7250 0d5c 42000000 		.4byte	.LVL213
 7251 0d60 50000000 		.4byte	.LVL216
 7252 0d64 0100     		.2byte	0x1
 7253 0d66 53       		.byte	0x53
 7254 0d67 50000000 		.4byte	.LVL216
 7255 0d6b 6C000000 		.4byte	.LFE5
 7256 0d6f 0400     		.2byte	0x4
 7257 0d71 F3       		.byte	0xf3
 7258 0d72 01       		.uleb128 0x1
 7259 0d73 53       		.byte	0x53
 7260 0d74 9F       		.byte	0x9f
 7261 0d75 00000000 		.4byte	0
 7262 0d79 00000000 		.4byte	0
 7263              	.LLST52:
 7264 0d7d 04000000 		.4byte	.LVL206
 7265 0d81 40000000 		.4byte	.LVL212
 7266 0d85 0200     		.2byte	0x2
 7267 0d87 31       		.byte	0x31
 7268 0d88 9F       		.byte	0x9f
 7269 0d89 40000000 		.4byte	.LVL212
 7270 0d8d 42000000 		.4byte	.LVL213
 7271 0d91 0200     		.2byte	0x2
 7272 0d93 30       		.byte	0x30
 7273 0d94 9F       		.byte	0x9f
 7274 0d95 42000000 		.4byte	.LVL213
 7275 0d99 50000000 		.4byte	.LVL216
 7276 0d9d 0200     		.2byte	0x2
 7277 0d9f 31       		.byte	0x31
 7278 0da0 9F       		.byte	0x9f
 7279 0da1 50000000 		.4byte	.LVL216
 7280 0da5 62000000 		.4byte	.LVL219
 7281 0da9 0100     		.2byte	0x1
 7282 0dab 54       		.byte	0x54
 7283 0dac 00000000 		.4byte	0
 7284 0db0 00000000 		.4byte	0
 7285              		.section	.debug_aranges,"",%progbits
 7286 0000 6C000000 		.4byte	0x6c
 7287 0004 0200     		.2byte	0x2
 7288 0006 00000000 		.4byte	.Ldebug_info0
 7289 000a 04       		.byte	0x4
 7290 000b 00       		.byte	0
 7291 000c 0000     		.2byte	0
 7292 000e 0000     		.2byte	0
 7293 0010 00000000 		.4byte	.LFB3
 7294 0014 0C000000 		.4byte	.LFE3-.LFB3
 7295 0018 00000000 		.4byte	.LFB6
 7296 001c 74000000 		.4byte	.LFE6-.LFB6
 7297 0020 00000000 		.4byte	.LFB7
 7298 0024 90000000 		.4byte	.LFE7-.LFB7
 7299 0028 00000000 		.4byte	.LFB8
 7300 002c 78000000 		.4byte	.LFE8-.LFB8
ARM GAS  C:\Windows\TEMP\cc5RoFpJ.s 			page 151


 7301 0030 00000000 		.4byte	.LFB9
 7302 0034 90000000 		.4byte	.LFE9-.LFB9
 7303 0038 00000000 		.4byte	.LFB10
 7304 003c 98000000 		.4byte	.LFE10-.LFB10
 7305 0040 00000000 		.4byte	.LFB11
 7306 0044 98000000 		.4byte	.LFE11-.LFB11
 7307 0048 00000000 		.4byte	.LFB12
 7308 004c 18020000 		.4byte	.LFE12-.LFB12
 7309 0050 00000000 		.4byte	.LFB2
 7310 0054 08000000 		.4byte	.LFE2-.LFB2
 7311 0058 00000000 		.4byte	.LFB4
 7312 005c 78020000 		.4byte	.LFE4-.LFB4
 7313 0060 00000000 		.4byte	.LFB5
 7314 0064 6C000000 		.4byte	.LFE5-.LFB5
 7315 0068 00000000 		.4byte	0
 7316 006c 00000000 		.4byte	0
 7317              		.section	.debug_ranges,"",%progbits
 7318              	.Ldebug_ranges0:
 7319 0000 34000000 		.4byte	.LBB4
 7320 0004 4C000000 		.4byte	.LBE4
 7321 0008 50000000 		.4byte	.LBB5
 7322 000c 52000000 		.4byte	.LBE5
 7323 0010 00000000 		.4byte	0
 7324 0014 00000000 		.4byte	0
 7325 0018 24000000 		.4byte	.LBB8
 7326 001c 3A000000 		.4byte	.LBE8
 7327 0020 3E000000 		.4byte	.LBB9
 7328 0024 40000000 		.4byte	.LBE9
 7329 0028 00000000 		.4byte	0
 7330 002c 00000000 		.4byte	0
 7331 0030 00000000 		.4byte	.LFB3
 7332 0034 0C000000 		.4byte	.LFE3
 7333 0038 00000000 		.4byte	.LFB6
 7334 003c 74000000 		.4byte	.LFE6
 7335 0040 00000000 		.4byte	.LFB7
 7336 0044 90000000 		.4byte	.LFE7
 7337 0048 00000000 		.4byte	.LFB8
 7338 004c 78000000 		.4byte	.LFE8
 7339 0050 00000000 		.4byte	.LFB9
 7340 0054 90000000 		.4byte	.LFE9
 7341 0058 00000000 		.4byte	.LFB10
 7342 005c 98000000 		.4byte	.LFE10
 7343 0060 00000000 		.4byte	.LFB11
 7344 0064 98000000 		.4byte	.LFE11
 7345 0068 00000000 		.4byte	.LFB12
 7346 006c 18020000 		.4byte	.LFE12
 7347 0070 00000000 		.4byte	.LFB2
 7348 0074 08000000 		.4byte	.LFE2
 7349 0078 00000000 		.4byte	.LFB4
 7350 007c 78020000 		.4byte	.LFE4
 7351 0080 00000000 		.4byte	.LFB5
 7352 0084 6C000000 		.4byte	.LFE5
 7353 0088 00000000 		.4byte	0
 7354 008c 00000000 		.4byte	0
 7355              		.section	.debug_line,"",%progbits
 7356              	.Ldebug_line0:
 7357 0000 08040000 		.section	.debug_str,"MS",%progbits,1
ARM GAS  C:\Windows\TEMP\cc5RoFpJ.s 			page 152


 7357      0200E200 
 7357      00000201 
 7357      FB0E0D00 
 7357      01010101 
 7358              	.LASF565:
 7359 0000 4379426C 		.ascii	"CyBle_AiosApplCallback\000"
 7359      655F4169 
 7359      6F734170 
 7359      706C4361 
 7359      6C6C6261 
 7360              	.LASF568:
 7361 0017 6379426C 		.ascii	"cyBle_peerBonding\000"
 7361      655F7065 
 7361      6572426F 
 7361      6E64696E 
 7361      6700
 7362              	.LASF489:
 7363 0029 4359424C 		.ascii	"CYBLE_EVT_UDSC_READ_CHAR_RESPONSE\000"
 7363      455F4556 
 7363      545F5544 
 7363      53435F52 
 7363      4541445F 
 7364              	.LASF448:
 7365 004b 4359424C 		.ascii	"CYBLE_EVT_PLXSC_NOTIFICATION\000"
 7365      455F4556 
 7365      545F504C 
 7365      5853435F 
 7365      4E4F5449 
 7366              	.LASF399:
 7367 0068 4359424C 		.ascii	"CYBLE_EVT_HTSS_NOTIFICATION_DISABLED\000"
 7367      455F4556 
 7367      545F4854 
 7367      53535F4E 
 7367      4F544946 
 7368              	.LASF151:
 7369 008d 4359424C 		.ascii	"CYBLE_GATT_ERR_INVALID_CRC\000"
 7369      455F4741 
 7369      54545F45 
 7369      52525F49 
 7369      4E56414C 
 7370              	.LASF571:
 7371 00a8 6379426C 		.ascii	"cyBle_aiossCharInstances\000"
 7371      655F6169 
 7371      6F737343 
 7371      68617249 
 7371      6E737461 
 7372              	.LASF445:
 7373 00c1 4359424C 		.ascii	"CYBLE_EVT_PLXSS_INDICATION_ENABLED\000"
 7373      455F4556 
 7373      545F504C 
 7373      5853535F 
 7373      494E4449 
 7374              	.LASF16:
 7375 00e4 73697A65 		.ascii	"sizetype\000"
 7375      74797065 
 7375      00
 7376              	.LASF280:
ARM GAS  C:\Windows\TEMP\cc5RoFpJ.s 			page 153


 7377 00ed 4359424C 		.ascii	"CYBLE_EVT_BCSC_READ_CHAR_RESPONSE\000"
 7377      455F4556 
 7377      545F4243 
 7377      53435F52 
 7377      4541445F 
 7378              	.LASF172:
 7379 010f 4359424C 		.ascii	"CYBLE_GATTS_HANDLE_VALUE_NTF_T\000"
 7379      455F4741 
 7379      5454535F 
 7379      48414E44 
 7379      4C455F56 
 7380              	.LASF303:
 7381 012e 4359424C 		.ascii	"CYBLE_EVT_CGMSC_INDICATION\000"
 7381      455F4556 
 7381      545F4347 
 7381      4D53435F 
 7381      494E4449 
 7382              	.LASF321:
 7383 0149 4359424C 		.ascii	"CYBLE_EVT_CPSC_READ_DESCR_RESPONSE\000"
 7383      455F4556 
 7383      545F4350 
 7383      53435F52 
 7383      4541445F 
 7384              	.LASF452:
 7385 016c 4359424C 		.ascii	"CYBLE_EVT_PLXSC_READ_DESCR_RESPONSE\000"
 7385      455F4556 
 7385      545F504C 
 7385      5853435F 
 7385      52454144 
 7386              	.LASF466:
 7387 0190 4359424C 		.ascii	"CYBLE_EVT_RTUSS_WRITE_CHAR_CMD\000"
 7387      455F4556 
 7387      545F5254 
 7387      5553535F 
 7387      57524954 
 7388              	.LASF216:
 7389 01af 63686172 		.ascii	"charIndex\000"
 7389      496E6465 
 7389      7800
 7390              	.LASF500:
 7391 01b9 4359424C 		.ascii	"CYBLE_EVT_WPTSC_NOTIFICATION\000"
 7391      455F4556 
 7391      545F5750 
 7391      5453435F 
 7391      4E4F5449 
 7392              	.LASF37:
 7393 01d6 4359424C 		.ascii	"CYBLE_EVT_GAP_NUMERIC_COMPARISON_REQUEST\000"
 7393      455F4556 
 7393      545F4741 
 7393      505F4E55 
 7393      4D455249 
 7394              	.LASF247:
 7395 01ff 4359424C 		.ascii	"CYBLE_EVT_AIOSC_NOTIFICATION\000"
 7395      455F4556 
 7395      545F4149 
 7395      4F53435F 
 7395      4E4F5449 
ARM GAS  C:\Windows\TEMP\cc5RoFpJ.s 			page 154


 7396              	.LASF506:
 7397 021c 4359424C 		.ascii	"CYBLE_EVT_WSSS_INDICATION_ENABLED\000"
 7397      455F4556 
 7397      545F5753 
 7397      53535F49 
 7397      4E444943 
 7398              	.LASF319:
 7399 023e 4359424C 		.ascii	"CYBLE_EVT_CPSC_READ_CHAR_RESPONSE\000"
 7399      455F4556 
 7399      545F4350 
 7399      53435F52 
 7399      4541445F 
 7400              	.LASF332:
 7401 0260 4359424C 		.ascii	"CYBLE_EVT_CSCSC_READ_CHAR_RESPONSE\000"
 7401      455F4556 
 7401      545F4353 
 7401      4353435F 
 7401      52454144 
 7402              	.LASF308:
 7403 0283 4359424C 		.ascii	"CYBLE_EVT_CGMSC_WRITE_DESCR_RESPONSE\000"
 7403      455F4556 
 7403      545F4347 
 7403      4D53435F 
 7403      57524954 
 7404              	.LASF362:
 7405 02a8 4359424C 		.ascii	"CYBLE_EVT_GLSS_NOTIFICATION_DISABLED\000"
 7405      455F4556 
 7405      545F474C 
 7405      53535F4E 
 7405      4F544946 
 7406              	.LASF534:
 7407 02cd 6576656E 		.ascii	"eventParam\000"
 7407      74506172 
 7407      616D00
 7408              	.LASF290:
 7409 02d8 4359424C 		.ascii	"CYBLE_EVT_BLSC_READ_CHAR_RESPONSE\000"
 7409      455F4556 
 7409      545F424C 
 7409      53435F52 
 7409      4541445F 
 7410              	.LASF31:
 7411 02fa 4359424C 		.ascii	"CYBLE_EVT_GAP_DEVICE_CONNECTED\000"
 7411      455F4556 
 7411      545F4741 
 7411      505F4445 
 7411      56494345 
 7412              	.LASF421:
 7413 0319 4359424C 		.ascii	"CYBLE_EVT_LLSC_WRITE_CHAR_RESPONSE\000"
 7413      455F4556 
 7413      545F4C4C 
 7413      53435F57 
 7413      52495445 
 7414              	.LASF49:
 7415 033c 4359424C 		.ascii	"CYBLE_EVT_GATT_CONNECT_IND\000"
 7415      455F4556 
 7415      545F4741 
 7415      54545F43 
ARM GAS  C:\Windows\TEMP\cc5RoFpJ.s 			page 155


 7415      4F4E4E45 
 7416              	.LASF367:
 7417 0357 4359424C 		.ascii	"CYBLE_EVT_GLSC_WRITE_CHAR_RESPONSE\000"
 7417      455F4556 
 7417      545F474C 
 7417      53435F57 
 7417      52495445 
 7418              	.LASF194:
 7419 037a 4359424C 		.ascii	"CYBLE_AIOS_ANALOG\000"
 7419      455F4149 
 7419      4F535F41 
 7419      4E414C4F 
 7419      4700
 7420              	.LASF11:
 7421 038c 75696E74 		.ascii	"uint32\000"
 7421      333200
 7422              	.LASF232:
 7423 0393 4359424C 		.ascii	"CYBLE_EVT_GATTC_DESCR_DISCOVERY_FAILED\000"
 7423      455F4556 
 7423      545F4741 
 7423      5454435F 
 7423      44455343 
 7424              	.LASF465:
 7425 03ba 4359424C 		.ascii	"CYBLE_EVT_RSCSC_WRITE_DESCR_RESPONSE\000"
 7425      455F4556 
 7425      545F5253 
 7425      4353435F 
 7425      57524954 
 7426              	.LASF278:
 7427 03df 4359424C 		.ascii	"CYBLE_EVT_BCSS_INDICATION_CONFIRMED\000"
 7427      455F4556 
 7427      545F4243 
 7427      53535F49 
 7427      4E444943 
 7428              	.LASF279:
 7429 0403 4359424C 		.ascii	"CYBLE_EVT_BCSC_INDICATION\000"
 7429      455F4556 
 7429      545F4243 
 7429      53435F49 
 7429      4E444943 
 7430              	.LASF423:
 7431 041d 4359424C 		.ascii	"CYBLE_EVT_LNSS_INDICATION_DISABLED\000"
 7431      455F4556 
 7431      545F4C4E 
 7431      53535F49 
 7431      4E444943 
 7432              	.LASF340:
 7433 0440 4359424C 		.ascii	"CYBLE_EVT_CTSC_READ_CHAR_RESPONSE\000"
 7433      455F4556 
 7433      545F4354 
 7433      53435F52 
 7433      4541445F 
 7434              	.LASF236:
 7435 0462 4359424C 		.ascii	"CYBLE_EVT_GATTC_SRVC_DISCOVERY_COMPLETE\000"
 7435      455F4556 
 7435      545F4741 
 7435      5454435F 
ARM GAS  C:\Windows\TEMP\cc5RoFpJ.s 			page 156


 7435      53525643 
 7436              	.LASF459:
 7437 048a 4359424C 		.ascii	"CYBLE_EVT_RSCSS_CHAR_WRITE\000"
 7437      455F4556 
 7437      545F5253 
 7437      4353535F 
 7437      43484152 
 7438              	.LASF449:
 7439 04a5 4359424C 		.ascii	"CYBLE_EVT_PLXSC_INDICATION\000"
 7439      455F4556 
 7439      545F504C 
 7439      5853435F 
 7439      494E4449 
 7440              	.LASF492:
 7441 04c0 4359424C 		.ascii	"CYBLE_EVT_UDSC_WRITE_DESCR_RESPONSE\000"
 7441      455F4556 
 7441      545F5544 
 7441      53435F57 
 7441      52495445 
 7442              	.LASF381:
 7443 04e4 4359424C 		.ascii	"CYBLE_EVT_HIDSC_WRITE_DESCR_RESPONSE\000"
 7443      455F4556 
 7443      545F4849 
 7443      4453435F 
 7443      57524954 
 7444              	.LASF474:
 7445 0509 4359424C 		.ascii	"CYBLE_EVT_TPSS_NOTIFICATION_ENABLED\000"
 7445      455F4556 
 7445      545F5450 
 7445      53535F4E 
 7445      4F544946 
 7446              	.LASF268:
 7447 052d 4359424C 		.ascii	"CYBLE_EVT_ANSC_READ_DESCR_RESPONSE\000"
 7447      455F4556 
 7447      545F414E 
 7447      53435F52 
 7447      4541445F 
 7448              	.LASF125:
 7449 0550 4359424C 		.ascii	"CYBLE_GATT_ERR_READ_NOT_PERMITTED\000"
 7449      455F4741 
 7449      54545F45 
 7449      52525F52 
 7449      4541445F 
 7450              	.LASF140:
 7451 0572 4359424C 		.ascii	"CYBLE_GATT_ERR_INSUFFICIENT_RESOURCE\000"
 7451      455F4741 
 7451      54545F45 
 7451      52525F49 
 7451      4E535546 
 7452              	.LASF139:
 7453 0597 4359424C 		.ascii	"CYBLE_GATT_ERR_UNSUPPORTED_GROUP_TYPE\000"
 7453      455F4741 
 7453      54545F45 
 7453      52525F55 
 7453      4E535550 
 7454              	.LASF105:
 7455 05bd 4359424C 		.ascii	"CYBLE_ERROR_L2CAP_CONNECTION_ENTITY_NOT_FOUND\000"
ARM GAS  C:\Windows\TEMP\cc5RoFpJ.s 			page 157


 7455      455F4552 
 7455      524F525F 
 7455      4C324341 
 7455      505F434F 
 7456              	.LASF111:
 7457 05eb 4359424C 		.ascii	"CYBLE_ERROR_MIC_AUTH_FAILED\000"
 7457      455F4552 
 7457      524F525F 
 7457      4D49435F 
 7457      41555448 
 7458              	.LASF231:
 7459 0607 4359424C 		.ascii	"CYBLE_EVT_GATTC_CHAR_DISCOVERY_FAILED\000"
 7459      455F4556 
 7459      545F4741 
 7459      5454435F 
 7459      43484152 
 7460              	.LASF69:
 7461 062d 4359424C 		.ascii	"CYBLE_EVT_GATTS_DATA_SIGNED_CMD_REQ\000"
 7461      455F4556 
 7461      545F4741 
 7461      5454535F 
 7461      44415441 
 7462              	.LASF81:
 7463 0651 4359424C 		.ascii	"CYBLE_EVT_L2CAP_CBFC_RX_CREDIT_IND\000"
 7463      455F4556 
 7463      545F4C32 
 7463      4341505F 
 7463      43424643 
 7464              	.LASF168:
 7465 0674 4359424C 		.ascii	"CYBLE_GATT_VALUE_T\000"
 7465      455F4741 
 7465      54545F56 
 7465      414C5545 
 7465      5F5400
 7466              	.LASF579:
 7467 0687 474E5520 		.ascii	"GNU C11 5.4.1 20160609 (release) [ARM/embedded-5-br"
 7467      43313120 
 7467      352E342E 
 7467      31203230 
 7467      31363036 
 7468 06ba 616E6368 		.ascii	"anch revision 237715] -mcpu=cortex-m0 -mthumb -g -O"
 7468      20726576 
 7468      6973696F 
 7468      6E203233 
 7468      37373135 
 7469 06ed 67202D66 		.ascii	"g -ffunction-sections -ffat-lto-objects\000"
 7469      66756E63 
 7469      74696F6E 
 7469      2D736563 
 7469      74696F6E 
 7470              	.LASF326:
 7471 0715 4359424C 		.ascii	"CYBLE_EVT_CSCSS_INDICATION_ENABLED\000"
 7471      455F4556 
 7471      545F4353 
 7471      4353535F 
 7471      494E4449 
 7472              	.LASF188:
ARM GAS  C:\Windows\TEMP\cc5RoFpJ.s 			page 158


 7473 0738 7065726D 		.ascii	"permission\000"
 7473      69737369 
 7473      6F6E00
 7474              	.LASF428:
 7475 0743 4359424C 		.ascii	"CYBLE_EVT_LNSC_INDICATION\000"
 7475      455F4556 
 7475      545F4C4E 
 7475      53435F49 
 7475      4E444943 
 7476              	.LASF141:
 7477 075d 4359424C 		.ascii	"CYBLE_GATT_ERR_TRIGGER_CODITION_VALUE_NOT_SUPPORTED"
 7477      455F4741 
 7477      54545F45 
 7477      52525F54 
 7477      52494747 
 7478 0790 00       		.ascii	"\000"
 7479              	.LASF439:
 7480 0791 4359424C 		.ascii	"CYBLE_EVT_PASSC_READ_CHAR_RESPONSE\000"
 7480      455F4556 
 7480      545F5041 
 7480      5353435F 
 7480      52454144 
 7481              	.LASF283:
 7482 07b4 4359424C 		.ascii	"CYBLE_EVT_BLSS_INDICATION_ENABLED\000"
 7482      455F4556 
 7482      545F424C 
 7482      53535F49 
 7482      4E444943 
 7483              	.LASF289:
 7484 07d6 4359424C 		.ascii	"CYBLE_EVT_BLSC_NOTIFICATION\000"
 7484      455F4556 
 7484      545F424C 
 7484      53435F4E 
 7484      4F544946 
 7485              	.LASF192:
 7486 07f2 4359424C 		.ascii	"CYBLE_CALLBACK_T\000"
 7486      455F4341 
 7486      4C4C4241 
 7486      434B5F54 
 7486      00
 7487              	.LASF331:
 7488 0803 4359424C 		.ascii	"CYBLE_EVT_CSCSC_INDICATION\000"
 7488      455F4556 
 7488      545F4353 
 7488      4353435F 
 7488      494E4449 
 7489              	.LASF66:
 7490 081e 4359424C 		.ascii	"CYBLE_EVT_GATTC_HANDLE_VALUE_NTF\000"
 7490      455F4556 
 7490      545F4741 
 7490      5454435F 
 7490      48414E44 
 7491              	.LASF25:
 7492 083f 4359424C 		.ascii	"CYBLE_EVT_GAP_AUTH_REQ\000"
 7492      455F4556 
 7492      545F4741 
 7492      505F4155 
ARM GAS  C:\Windows\TEMP\cc5RoFpJ.s 			page 159


 7492      54485F52 
 7493              	.LASF238:
 7494 0856 4359424C 		.ascii	"CYBLE_EVT_GATTC_CHAR_DISCOVERY_COMPLETE\000"
 7494      455F4556 
 7494      545F4741 
 7494      5454435F 
 7494      43484152 
 7495              	.LASF166:
 7496 087e 4359424C 		.ascii	"CYBLE_CONN_HANDLE_T\000"
 7496      455F434F 
 7496      4E4E5F48 
 7496      414E444C 
 7496      455F5400 
 7497              	.LASF395:
 7498 0892 4359424C 		.ascii	"CYBLE_EVT_HRSC_WRITE_CHAR_RESPONSE\000"
 7498      455F4556 
 7498      545F4852 
 7498      53435F57 
 7498      52495445 
 7499              	.LASF100:
 7500 08b5 4359424C 		.ascii	"CYBLE_ERROR_BT_ON_NOT_COMPLETED\000"
 7500      455F4552 
 7500      524F525F 
 7500      42545F4F 
 7500      4E5F4E4F 
 7501              	.LASF330:
 7502 08d5 4359424C 		.ascii	"CYBLE_EVT_CSCSC_NOTIFICATION\000"
 7502      455F4556 
 7502      545F4353 
 7502      4353435F 
 7502      4E4F5449 
 7503              	.LASF487:
 7504 08f2 4359424C 		.ascii	"CYBLE_EVT_UDSC_INDICATION\000"
 7504      455F4556 
 7504      545F5544 
 7504      53435F49 
 7504      4E444943 
 7505              	.LASF411:
 7506 090c 4359424C 		.ascii	"CYBLE_EVT_IPSS_WRITE_CHAR\000"
 7506      455F4556 
 7506      545F4950 
 7506      53535F57 
 7506      52495445 
 7507              	.LASF46:
 7508 0926 4359424C 		.ascii	"CYBLE_EVT_GAP_AUTH_REQ_REPLY_ERR\000"
 7508      455F4556 
 7508      545F4741 
 7508      505F4155 
 7508      54485F52 
 7509              	.LASF294:
 7510 0947 4359424C 		.ascii	"CYBLE_EVT_BMSC_READ_CHAR_RESPONSE\000"
 7510      455F4556 
 7510      545F424D 
 7510      53435F52 
 7510      4541445F 
 7511              	.LASF195:
 7512 0969 4359424C 		.ascii	"CYBLE_AIOS_AGGREGATE\000"
ARM GAS  C:\Windows\TEMP\cc5RoFpJ.s 			page 160


 7512      455F4149 
 7512      4F535F41 
 7512      47475245 
 7512      47415445 
 7513              	.LASF517:
 7514 097e 4359424C 		.ascii	"CYBLE_STATE_ADVERTISING\000"
 7514      455F5354 
 7514      4154455F 
 7514      41445645 
 7514      52544953 
 7515              	.LASF39:
 7516 0996 4359424C 		.ascii	"CYBLE_EVT_GAP_OOB_GENERATED_NOTIFICATION\000"
 7516      455F4556 
 7516      545F4741 
 7516      505F4F4F 
 7516      425F4745 
 7517              	.LASF209:
 7518 09bf 64657363 		.ascii	"descrHandle\000"
 7518      7248616E 
 7518      646C6500 
 7519              	.LASF164:
 7520 09cb 62644861 		.ascii	"bdHandle\000"
 7520      6E646C65 
 7520      00
 7521              	.LASF212:
 7522 09d4 4359424C 		.ascii	"CYBLE_AIOSS_CHAR_INFO_PTR_T\000"
 7522      455F4149 
 7522      4F53535F 
 7522      43484152 
 7522      5F494E46 
 7523              	.LASF153:
 7524 09f0 4359424C 		.ascii	"CYBLE_GATTS_ERR_NETWORK_NOT_AVAILABLE\000"
 7524      455F4741 
 7524      5454535F 
 7524      4552525F 
 7524      4E455457 
 7525              	.LASF299:
 7526 0a16 4359424C 		.ascii	"CYBLE_EVT_CGMSS_INDICATION_CONFIRMED\000"
 7526      455F4556 
 7526      545F4347 
 7526      4D53535F 
 7526      494E4449 
 7527              	.LASF156:
 7528 0a3b 4359424C 		.ascii	"CYBLE_GATT_ERR_ANCS_INVALID_COMMAND\000"
 7528      455F4741 
 7528      54545F45 
 7528      52525F41 
 7528      4E43535F 
 7529              	.LASF291:
 7530 0a5f 4359424C 		.ascii	"CYBLE_EVT_BLSC_READ_DESCR_RESPONSE\000"
 7530      455F4556 
 7530      545F424C 
 7530      53435F52 
 7530      4541445F 
 7531              	.LASF312:
 7532 0a82 4359424C 		.ascii	"CYBLE_EVT_CPSS_INDICATION_DISABLED\000"
 7532      455F4556 
ARM GAS  C:\Windows\TEMP\cc5RoFpJ.s 			page 161


 7532      545F4350 
 7532      53535F49 
 7532      4E444943 
 7533              	.LASF311:
 7534 0aa5 4359424C 		.ascii	"CYBLE_EVT_CPSS_INDICATION_ENABLED\000"
 7534      455F4556 
 7534      545F4350 
 7534      53535F49 
 7534      4E444943 
 7535              	.LASF425:
 7536 0ac7 4359424C 		.ascii	"CYBLE_EVT_LNSS_NOTIFICATION_ENABLED\000"
 7536      455F4556 
 7536      545F4C4E 
 7536      53535F4E 
 7536      4F544946 
 7537              	.LASF62:
 7538 0aeb 4359424C 		.ascii	"CYBLE_EVT_GATTS_WRITE_CMD_REQ\000"
 7538      455F4556 
 7538      545F4741 
 7538      5454535F 
 7538      57524954 
 7539              	.LASF322:
 7540 0b09 4359424C 		.ascii	"CYBLE_EVT_CPSC_WRITE_DESCR_RESPONSE\000"
 7540      455F4556 
 7540      545F4350 
 7540      53435F57 
 7540      52495445 
 7541              	.LASF549:
 7542 0b2d 61676772 		.ascii	"aggregateDigitalBits\000"
 7542      65676174 
 7542      65446967 
 7542      6974616C 
 7542      42697473 
 7543              	.LASF82:
 7544 0b42 4359424C 		.ascii	"CYBLE_EVT_L2CAP_CBFC_TX_CREDIT_IND\000"
 7544      455F4556 
 7544      545F4C32 
 7544      4341505F 
 7544      43424643 
 7545              	.LASF4:
 7546 0b65 6C6F6E67 		.ascii	"long int\000"
 7546      20696E74 
 7546      00
 7547              	.LASF426:
 7548 0b6e 4359424C 		.ascii	"CYBLE_EVT_LNSS_NOTIFICATION_DISABLED\000"
 7548      455F4556 
 7548      545F4C4E 
 7548      53535F4E 
 7548      4F544946 
 7549              	.LASF327:
 7550 0b93 4359424C 		.ascii	"CYBLE_EVT_CSCSS_INDICATION_DISABLED\000"
 7550      455F4556 
 7550      545F4353 
 7550      4353535F 
 7550      494E4449 
 7551              	.LASF482:
 7552 0bb7 4359424C 		.ascii	"CYBLE_EVT_UDSS_INDICATION_CONFIRMED\000"
ARM GAS  C:\Windows\TEMP\cc5RoFpJ.s 			page 162


 7552      455F4556 
 7552      545F5544 
 7552      53535F49 
 7552      4E444943 
 7553              	.LASF224:
 7554 0bdb 4359424C 		.ascii	"CYBLE_LONG_TERM_KEY_REQUEST_REPLY\000"
 7554      455F4C4F 
 7554      4E475F54 
 7554      45524D5F 
 7554      4B45595F 
 7555              	.LASF528:
 7556 0bfd 4379426C 		.ascii	"CyBle_AiossSendNotification\000"
 7556      655F4169 
 7556      6F737353 
 7556      656E644E 
 7556      6F746966 
 7557              	.LASF210:
 7558 0c19 4359424C 		.ascii	"CYBLE_AIOSS_CHAR_T\000"
 7558      455F4149 
 7558      4F53535F 
 7558      43484152 
 7558      5F5400
 7559              	.LASF18:
 7560 0c2c 4359424C 		.ascii	"CYBLE_EVT_STACK_ON\000"
 7560      455F4556 
 7560      545F5354 
 7560      41434B5F 
 7560      4F4E00
 7561              	.LASF107:
 7562 0c3f 4359424C 		.ascii	"CYBLE_ERROR_L2CAP_PSM_NOT_IN_RANGE\000"
 7562      455F4552 
 7562      524F525F 
 7562      4C324341 
 7562      505F5053 
 7563              	.LASF277:
 7564 0c62 4359424C 		.ascii	"CYBLE_EVT_BCSS_INDICATION_DISABLED\000"
 7564      455F4556 
 7564      545F4243 
 7564      53535F49 
 7564      4E444943 
 7565              	.LASF520:
 7566 0c85 63616C6C 		.ascii	"callbackFunc\000"
 7566      6261636B 
 7566      46756E63 
 7566      00
 7567              	.LASF357:
 7568 0c92 4359424C 		.ascii	"CYBLE_EVT_ESSC_WRITE_DESCR_RESPONSE\000"
 7568      455F4556 
 7568      545F4553 
 7568      53435F57 
 7568      52495445 
 7569              	.LASF152:
 7570 0cb6 4359424C 		.ascii	"CYBLE_GATTS_ERR_HPS_INVALID_REQUEST\000"
 7570      455F4741 
 7570      5454535F 
 7570      4552525F 
 7570      4850535F 
ARM GAS  C:\Windows\TEMP\cc5RoFpJ.s 			page 163


 7571              	.LASF414:
 7572 0cda 4359424C 		.ascii	"CYBLE_EVT_IPSC_WRITE_CHAR_RESPONSE\000"
 7572      455F4556 
 7572      545F4950 
 7572      53435F57 
 7572      52495445 
 7573              	.LASF213:
 7574 0cfd 73657276 		.ascii	"serviceHandle\000"
 7574      69636548 
 7574      616E646C 
 7574      6500
 7575              	.LASF398:
 7576 0d0b 4359424C 		.ascii	"CYBLE_EVT_HTSS_NOTIFICATION_ENABLED\000"
 7576      455F4556 
 7576      545F4854 
 7576      53535F4E 
 7576      4F544946 
 7577              	.LASF127:
 7578 0d2f 4359424C 		.ascii	"CYBLE_GATT_ERR_INVALID_PDU\000"
 7578      455F4741 
 7578      54545F45 
 7578      52525F49 
 7578      4E56414C 
 7579              	.LASF119:
 7580 0d4a 4359424C 		.ascii	"CYBLE_ERROR_CHAR_IS_NOT_DISCOVERED\000"
 7580      455F4552 
 7580      524F525F 
 7580      43484152 
 7580      5F49535F 
 7581              	.LASF554:
 7582 0d6d 666F756E 		.ascii	"foundItem\000"
 7582      64497465 
 7582      6D00
 7583              	.LASF485:
 7584 0d77 4359424C 		.ascii	"CYBLE_EVT_UDSS_READ_CHAR\000"
 7584      455F4556 
 7584      545F5544 
 7584      53535F52 
 7584      4541445F 
 7585              	.LASF243:
 7586 0d90 4359424C 		.ascii	"CYBLE_EVT_AIOSS_INDICATION_DISABLED\000"
 7586      455F4556 
 7586      545F4149 
 7586      4F53535F 
 7586      494E4449 
 7587              	.LASF171:
 7588 0db4 4359424C 		.ascii	"CYBLE_GATT_HANDLE_VALUE_PAIR_T\000"
 7588      455F4741 
 7588      54545F48 
 7588      414E444C 
 7588      455F5641 
 7589              	.LASF187:
 7590 0dd3 61747454 		.ascii	"attType\000"
 7590      79706500 
 7591              	.LASF354:
 7592 0ddb 4359424C 		.ascii	"CYBLE_EVT_ESSC_READ_CHAR_RESPONSE\000"
 7592      455F4556 
ARM GAS  C:\Windows\TEMP\cc5RoFpJ.s 			page 164


 7592      545F4553 
 7592      53435F52 
 7592      4541445F 
 7593              	.LASF377:
 7594 0dfd 4359424C 		.ascii	"CYBLE_EVT_HIDSC_NOTIFICATION\000"
 7594      455F4556 
 7594      545F4849 
 7594      4453435F 
 7594      4E4F5449 
 7595              	.LASF75:
 7596 0e1a 4359424C 		.ascii	"CYBLE_EVT_L2CAP_COMMAND_REJ\000"
 7596      455F4556 
 7596      545F4C32 
 7596      4341505F 
 7596      434F4D4D 
 7597              	.LASF240:
 7598 0e36 4359424C 		.ascii	"CYBLE_EVT_AIOSS_NOTIFICATION_ENABLED\000"
 7598      455F4556 
 7598      545F4149 
 7598      4F53535F 
 7598      4E4F5449 
 7599              	.LASF136:
 7600 0e5b 4359424C 		.ascii	"CYBLE_GATT_ERR_INVALID_ATTRIBUTE_LEN\000"
 7600      455F4741 
 7600      54545F45 
 7600      52525F49 
 7600      4E56414C 
 7601              	.LASF374:
 7602 0e80 4359424C 		.ascii	"CYBLE_EVT_HIDSS_SUSPEND\000"
 7602      455F4556 
 7602      545F4849 
 7602      4453535F 
 7602      53555350 
 7603              	.LASF108:
 7604 0e98 4359424C 		.ascii	"CYBLE_ERROR_GATT_DB_INVALID_ATTR_HANDLE\000"
 7604      455F4552 
 7604      524F525F 
 7604      47415454 
 7604      5F44425F 
 7605              	.LASF0:
 7606 0ec0 7369676E 		.ascii	"signed char\000"
 7606      65642063 
 7606      68617200 
 7607              	.LASF281:
 7608 0ecc 4359424C 		.ascii	"CYBLE_EVT_BCSC_READ_DESCR_RESPONSE\000"
 7608      455F4556 
 7608      545F4243 
 7608      53435F52 
 7608      4541445F 
 7609              	.LASF512:
 7610 0eef 4359424C 		.ascii	"CYBLE_EVT_WSSC_WRITE_DESCR_RESPONSE\000"
 7610      455F4556 
 7610      545F5753 
 7610      53435F57 
 7610      52495445 
 7611              	.LASF274:
 7612 0f13 4359424C 		.ascii	"CYBLE_EVT_BASC_READ_DESCR_RESPONSE\000"
ARM GAS  C:\Windows\TEMP\cc5RoFpJ.s 			page 165


 7612      455F4556 
 7612      545F4241 
 7612      53435F52 
 7612      4541445F 
 7613              	.LASF563:
 7614 0f36 61696F73 		.ascii	"aiossCharIdx2\000"
 7614      73436861 
 7614      72496478 
 7614      3200
 7615              	.LASF20:
 7616 0f44 4359424C 		.ascii	"CYBLE_EVT_HARDWARE_ERROR\000"
 7616      455F4556 
 7616      545F4841 
 7616      52445741 
 7616      52455F45 
 7617              	.LASF89:
 7618 0f5d 4359424C 		.ascii	"CYBLE_ERROR_OK\000"
 7618      455F4552 
 7618      524F525F 
 7618      4F4B00
 7619              	.LASF536:
 7620 0f6c 6C6F6343 		.ascii	"locCharValue\000"
 7620      68617256 
 7620      616C7565 
 7620      00
 7621              	.LASF558:
 7622 0f79 77724368 		.ascii	"wrCharReqParam\000"
 7622      61725265 
 7622      71506172 
 7622      616D00
 7623              	.LASF53:
 7624 0f88 4359424C 		.ascii	"CYBLE_EVT_GATTC_READ_BY_GROUP_TYPE_RSP\000"
 7624      455F4556 
 7624      545F4741 
 7624      5454435F 
 7624      52454144 
 7625              	.LASF514:
 7626 0faf 4359424C 		.ascii	"CYBLE_STATE_STOPPED\000"
 7626      455F5354 
 7626      4154455F 
 7626      53544F50 
 7626      50454400 
 7627              	.LASF456:
 7628 0fc3 4359424C 		.ascii	"CYBLE_EVT_RSCSS_INDICATION_ENABLED\000"
 7628      455F4556 
 7628      545F5253 
 7628      4353535F 
 7628      494E4449 
 7629              	.LASF1:
 7630 0fe6 756E7369 		.ascii	"unsigned char\000"
 7630      676E6564 
 7630      20636861 
 7630      7200
 7631              	.LASF52:
 7632 0ff4 4359424C 		.ascii	"CYBLE_EVT_GATTC_XCHNG_MTU_RSP\000"
 7632      455F4556 
 7632      545F4741 
ARM GAS  C:\Windows\TEMP\cc5RoFpJ.s 			page 166


 7632      5454435F 
 7632      5843484E 
 7633              	.LASF313:
 7634 1012 4359424C 		.ascii	"CYBLE_EVT_CPSS_INDICATION_CONFIRMED\000"
 7634      455F4556 
 7634      545F4350 
 7634      53535F49 
 7634      4E444943 
 7635              	.LASF310:
 7636 1036 4359424C 		.ascii	"CYBLE_EVT_CPSS_NOTIFICATION_DISABLED\000"
 7636      455F4556 
 7636      545F4350 
 7636      53535F4E 
 7636      4F544946 
 7637              	.LASF461:
 7638 105b 4359424C 		.ascii	"CYBLE_EVT_RSCSC_INDICATION\000"
 7638      455F4556 
 7638      545F5253 
 7638      4353435F 
 7638      494E4449 
 7639              	.LASF511:
 7640 1076 4359424C 		.ascii	"CYBLE_EVT_WSSC_READ_DESCR_RESPONSE\000"
 7640      455F4556 
 7640      545F5753 
 7640      53435F52 
 7640      4541445F 
 7641              	.LASF497:
 7642 1099 4359424C 		.ascii	"CYBLE_EVT_WPTSS_INDICATION_DISABLED\000"
 7642      455F4556 
 7642      545F5750 
 7642      5453535F 
 7642      494E4449 
 7643              	.LASF43:
 7644 10bd 4359424C 		.ascii	"CYBLE_EVT_GAP_SMP_NEGOTIATED_AUTH_INFO\000"
 7644      455F4556 
 7644      545F4741 
 7644      505F534D 
 7644      505F4E45 
 7645              	.LASF44:
 7646 10e4 4359424C 		.ascii	"CYBLE_EVT_GAP_CONN_ESTB\000"
 7646      455F4556 
 7646      545F4741 
 7646      505F434F 
 7646      4E4E5F45 
 7647              	.LASF186:
 7648 10fc 61747448 		.ascii	"attHandle\000"
 7648      616E646C 
 7648      6500
 7649              	.LASF228:
 7650 1106 4359424C 		.ascii	"CYBLE_EVT_GATTC_INDICATION\000"
 7650      455F4556 
 7650      545F4741 
 7650      5454435F 
 7650      494E4449 
 7651              	.LASF382:
 7652 1121 4359424C 		.ascii	"CYBLE_EVT_HPSS_NOTIFICATION_ENABLED\000"
 7652      455F4556 
ARM GAS  C:\Windows\TEMP\cc5RoFpJ.s 			page 167


 7652      545F4850 
 7652      53535F4E 
 7652      4F544946 
 7653              	.LASF574:
 7654 1145 4379426C 		.ascii	"CyBle_GattsWriteAttributeValue\000"
 7654      655F4761 
 7654      74747357 
 7654      72697465 
 7654      41747472 
 7655              	.LASF468:
 7656 1164 4359424C 		.ascii	"CYBLE_EVT_SCPSS_NOTIFICATION_ENABLED\000"
 7656      455F4556 
 7656      545F5343 
 7656      5053535F 
 7656      4E4F5449 
 7657              	.LASF412:
 7658 1189 4359424C 		.ascii	"CYBLE_EVT_IPSC_READ_CHAR_RESPONSE\000"
 7658      455F4556 
 7658      545F4950 
 7658      53435F52 
 7658      4541445F 
 7659              	.LASF79:
 7660 11ab 4359424C 		.ascii	"CYBLE_EVT_L2CAP_CBFC_DISCONN_CNF\000"
 7660      455F4556 
 7660      545F4C32 
 7660      4341505F 
 7660      43424643 
 7661              	.LASF56:
 7662 11cc 4359424C 		.ascii	"CYBLE_EVT_GATTC_FIND_BY_TYPE_VALUE_RSP\000"
 7662      455F4556 
 7662      545F4741 
 7662      5454435F 
 7662      46494E44 
 7663              	.LASF254:
 7664 11f3 4359424C 		.ascii	"CYBLE_EVT_ANCSS_NOTIFICATION_ENABLED\000"
 7664      455F4556 
 7664      545F414E 
 7664      4353535F 
 7664      4E4F5449 
 7665              	.LASF40:
 7666 1218 4359424C 		.ascii	"CYBLE_EVT_GAP_DATA_LENGTH_CHANGE\000"
 7666      455F4556 
 7666      545F4741 
 7666      505F4441 
 7666      54415F4C 
 7667              	.LASF473:
 7668 1239 4359424C 		.ascii	"CYBLE_EVT_SCPSC_WRITE_DESCR_RESPONSE\000"
 7668      455F4556 
 7668      545F5343 
 7668      5053435F 
 7668      57524954 
 7669              	.LASF14:
 7670 125e 63686172 		.ascii	"char\000"
 7670      00
 7671              	.LASF527:
 7672 1263 4379426C 		.ascii	"CyBle_AiossSetCharacteristicDescriptor\000"
 7672      655F4169 
ARM GAS  C:\Windows\TEMP\cc5RoFpJ.s 			page 168


 7672      6F737353 
 7672      65744368 
 7672      61726163 
 7673              	.LASF180:
 7674 128a 6D617841 		.ascii	"maxAttrLength\000"
 7674      7474724C 
 7674      656E6774 
 7674      6800
 7675              	.LASF476:
 7676 1298 4359424C 		.ascii	"CYBLE_EVT_TPSC_NOTIFICATION\000"
 7676      455F4556 
 7676      545F5450 
 7676      53435F4E 
 7676      4F544946 
 7677              	.LASF237:
 7678 12b4 4359424C 		.ascii	"CYBLE_EVT_GATTC_INCL_DISCOVERY_COMPLETE\000"
 7678      455F4556 
 7678      545F4741 
 7678      5454435F 
 7678      494E434C 
 7679              	.LASF443:
 7680 12dc 4359424C 		.ascii	"CYBLE_EVT_PLXSS_NOTIFICATION_ENABLED\000"
 7680      455F4556 
 7680      545F504C 
 7680      5853535F 
 7680      4E4F5449 
 7681              	.LASF201:
 7682 1301 4359424C 		.ascii	"CYBLE_AIOS_CHAR_EXTENDED_PROPERTIES\000"
 7682      455F4149 
 7682      4F535F43 
 7682      4841525F 
 7682      45585445 
 7683              	.LASF59:
 7684 1325 4359424C 		.ascii	"CYBLE_EVT_GATTC_READ_MULTI_RSP\000"
 7684      455F4556 
 7684      545F4741 
 7684      5454435F 
 7684      52454144 
 7685              	.LASF253:
 7686 1344 4359424C 		.ascii	"CYBLE_EVT_AIOSC_ERROR_RESPONSE\000"
 7686      455F4556 
 7686      545F4149 
 7686      4F53435F 
 7686      4552524F 
 7687              	.LASF248:
 7688 1363 4359424C 		.ascii	"CYBLE_EVT_AIOSC_INDICATION\000"
 7688      455F4556 
 7688      545F4149 
 7688      4F53435F 
 7688      494E4449 
 7689              	.LASF217:
 7690 137e 63686172 		.ascii	"charInstance\000"
 7690      496E7374 
 7690      616E6365 
 7690      00
 7691              	.LASF17:
 7692 138b 4359424C 		.ascii	"CYBLE_EVT_HOST_INVALID\000"
ARM GAS  C:\Windows\TEMP\cc5RoFpJ.s 			page 169


 7692      455F4556 
 7692      545F484F 
 7692      53545F49 
 7692      4E56414C 
 7693              	.LASF137:
 7694 13a2 4359424C 		.ascii	"CYBLE_GATT_ERR_UNLIKELY_ERROR\000"
 7694      455F4741 
 7694      54545F45 
 7694      52525F55 
 7694      4E4C494B 
 7695              	.LASF42:
 7696 13c0 4359424C 		.ascii	"CYBLE_EVT_GAPC_DIRECT_ADV_REPORT\000"
 7696      455F4556 
 7696      545F4741 
 7696      50435F44 
 7696      49524543 
 7697              	.LASF368:
 7698 13e1 4359424C 		.ascii	"CYBLE_EVT_GLSC_READ_DESCR_RESPONSE\000"
 7698      455F4556 
 7698      545F474C 
 7698      53435F52 
 7698      4541445F 
 7699              	.LASF96:
 7700 1404 4359424C 		.ascii	"CYBLE_ERROR_NO_DEVICE_ENTITY\000"
 7700      455F4552 
 7700      524F525F 
 7700      4E4F5F44 
 7700      45564943 
 7701              	.LASF58:
 7702 1421 4359424C 		.ascii	"CYBLE_EVT_GATTC_READ_BLOB_RSP\000"
 7702      455F4556 
 7702      545F4741 
 7702      5454435F 
 7702      52454144 
 7703              	.LASF401:
 7704 143f 4359424C 		.ascii	"CYBLE_EVT_HTSS_INDICATION_DISABLED\000"
 7704      455F4556 
 7704      545F4854 
 7704      53535F49 
 7704      4E444943 
 7705              	.LASF467:
 7706 1462 4359424C 		.ascii	"CYBLE_EVT_RTUSC_READ_CHAR_RESPONSE\000"
 7706      455F4556 
 7706      545F5254 
 7706      5553435F 
 7706      52454144 
 7707              	.LASF65:
 7708 1485 4359424C 		.ascii	"CYBLE_EVT_GATTC_EXEC_WRITE_RSP\000"
 7708      455F4556 
 7708      545F4741 
 7708      5454435F 
 7708      45584543 
 7709              	.LASF214:
 7710 14a4 63686172 		.ascii	"charInfoAddr\000"
 7710      496E666F 
 7710      41646472 
 7710      00
ARM GAS  C:\Windows\TEMP\cc5RoFpJ.s 			page 170


 7711              	.LASF142:
 7712 14b1 4359424C 		.ascii	"CYBLE_GATT_ERR_HEART_RATE_CONTROL_POINT_NOT_SUPPORT"
 7712      455F4741 
 7712      54545F45 
 7712      52525F48 
 7712      45415254 
 7713 14e4 454400   		.ascii	"ED\000"
 7714              	.LASF508:
 7715 14e7 4359424C 		.ascii	"CYBLE_EVT_WSSS_INDICATION_CONFIRMED\000"
 7715      455F4556 
 7715      545F5753 
 7715      53535F49 
 7715      4E444943 
 7716              	.LASF134:
 7717 150b 4359424C 		.ascii	"CYBLE_GATT_ERR_ATTRIBUTE_NOT_LONG\000"
 7717      455F4741 
 7717      54545F45 
 7717      52525F41 
 7717      54545249 
 7718              	.LASF342:
 7719 152d 4359424C 		.ascii	"CYBLE_EVT_CTSC_WRITE_DESCR_RESPONSE\000"
 7719      455F4556 
 7719      545F4354 
 7719      53435F57 
 7719      52495445 
 7720              	.LASF548:
 7721 1551 61676772 		.ascii	"aggregateCharIndex\000"
 7721      65676174 
 7721      65436861 
 7721      72496E64 
 7721      657800
 7722              	.LASF481:
 7723 1564 4359424C 		.ascii	"CYBLE_EVT_UDSS_INDICATION_DISABLED\000"
 7723      455F4556 
 7723      545F5544 
 7723      53535F49 
 7723      4E444943 
 7724              	.LASF573:
 7725 1587 4379426C 		.ascii	"CyBle_GattsReadAttributeValue\000"
 7725      655F4761 
 7725      74747352 
 7725      65616441 
 7725      74747269 
 7726              	.LASF70:
 7727 15a5 4359424C 		.ascii	"CYBLE_EVT_GATTC_STOP_CMD_COMPLETE\000"
 7727      455F4556 
 7727      545F4741 
 7727      5454435F 
 7727      53544F50 
 7728              	.LASF316:
 7729 15c7 4359424C 		.ascii	"CYBLE_EVT_CPSS_CHAR_WRITE\000"
 7729      455F4556 
 7729      545F4350 
 7729      53535F43 
 7729      4841525F 
 7730              	.LASF390:
 7731 15e1 4359424C 		.ascii	"CYBLE_EVT_HRSS_ENERGY_EXPENDED_RESET\000"
ARM GAS  C:\Windows\TEMP\cc5RoFpJ.s 			page 171


 7731      455F4556 
 7731      545F4852 
 7731      53535F45 
 7731      4E455247 
 7732              	.LASF158:
 7733 1606 4359424C 		.ascii	"CYBLE_GATT_ERR_ANCS_ACTION_FAILED\000"
 7733      455F4741 
 7733      54545F45 
 7733      52525F41 
 7733      4E43535F 
 7734              	.LASF521:
 7735 1628 61747472 		.ascii	"attrSize\000"
 7735      53697A65 
 7735      00
 7736              	.LASF346:
 7737 1631 4359424C 		.ascii	"CYBLE_EVT_ESSS_NOTIFICATION_DISABLED\000"
 7737      455F4556 
 7737      545F4553 
 7737      53535F4E 
 7737      4F544946 
 7738              	.LASF191:
 7739 1656 4359424C 		.ascii	"CYBLE_GATTS_DB_T\000"
 7739      455F4741 
 7739      5454535F 
 7739      44425F54 
 7739      00
 7740              	.LASF495:
 7741 1667 4359424C 		.ascii	"CYBLE_EVT_WPTSS_NOTIFICATION_DISABLED\000"
 7741      455F4556 
 7741      545F5750 
 7741      5453535F 
 7741      4E4F5449 
 7742              	.LASF545:
 7743 168d 6D617844 		.ascii	"maxDescriptionValue\000"
 7743      65736372 
 7743      69707469 
 7743      6F6E5661 
 7743      6C756500 
 7744              	.LASF286:
 7745 16a1 4359424C 		.ascii	"CYBLE_EVT_BLSS_NOTIFICATION_ENABLED\000"
 7745      455F4556 
 7745      545F424C 
 7745      53535F4E 
 7745      4F544946 
 7746              	.LASF388:
 7747 16c5 4359424C 		.ascii	"CYBLE_EVT_HPSC_WRITE_DESCR_RESPONSE\000"
 7747      455F4556 
 7747      545F4850 
 7747      53435F57 
 7747      52495445 
 7748              	.LASF509:
 7749 16e9 4359424C 		.ascii	"CYBLE_EVT_WSSC_INDICATION\000"
 7749      455F4556 
 7749      545F5753 
 7749      53435F49 
 7749      4E444943 
 7750              	.LASF115:
ARM GAS  C:\Windows\TEMP\cc5RoFpJ.s 			page 172


 7751 1703 4359424C 		.ascii	"CYBLE_ERROR_CONTROLLER_BUSY\000"
 7751      455F4552 
 7751      524F525F 
 7751      434F4E54 
 7751      524F4C4C 
 7752              	.LASF90:
 7753 171f 4359424C 		.ascii	"CYBLE_ERROR_INVALID_PARAMETER\000"
 7753      455F4552 
 7753      524F525F 
 7753      494E5641 
 7753      4C49445F 
 7754              	.LASF353:
 7755 173d 4359424C 		.ascii	"CYBLE_EVT_ESSC_INDICATION\000"
 7755      455F4556 
 7755      545F4553 
 7755      53435F49 
 7755      4E444943 
 7756              	.LASF260:
 7757 1757 4359424C 		.ascii	"CYBLE_EVT_ANCSC_WRITE_DESCR_RESPONSE\000"
 7757      455F4556 
 7757      545F414E 
 7757      4353435F 
 7757      57524954 
 7758              	.LASF463:
 7759 177c 4359424C 		.ascii	"CYBLE_EVT_RSCSC_WRITE_CHAR_RESPONSE\000"
 7759      455F4556 
 7759      545F5253 
 7759      4353435F 
 7759      57524954 
 7760              	.LASF555:
 7761 17a0 61696F73 		.ascii	"aiosCharInfoPtr\000"
 7761      43686172 
 7761      496E666F 
 7761      50747200 
 7762              	.LASF479:
 7763 17b0 4359424C 		.ascii	"CYBLE_EVT_TPSC_WRITE_DESCR_RESPONSE\000"
 7763      455F4556 
 7763      545F5450 
 7763      53435F57 
 7763      52495445 
 7764              	.LASF325:
 7765 17d4 4359424C 		.ascii	"CYBLE_EVT_CSCSS_NOTIFICATION_DISABLED\000"
 7765      455F4556 
 7765      545F4353 
 7765      4353535F 
 7765      4E4F5449 
 7766              	.LASF336:
 7767 17fa 4359424C 		.ascii	"CYBLE_EVT_CTSS_NOTIFICATION_ENABLED\000"
 7767      455F4556 
 7767      545F4354 
 7767      53535F4E 
 7767      4F544946 
 7768              	.LASF457:
 7769 181e 4359424C 		.ascii	"CYBLE_EVT_RSCSS_INDICATION_DISABLED\000"
 7769      455F4556 
 7769      545F5253 
 7769      4353535F 
ARM GAS  C:\Windows\TEMP\cc5RoFpJ.s 			page 173


 7769      494E4449 
 7770              	.LASF539:
 7771 1842 4379426C 		.ascii	"CyBle_AiosSetAggregateChar\000"
 7771      655F4169 
 7771      6F735365 
 7771      74416767 
 7771      72656761 
 7772              	.LASF499:
 7773 185d 4359424C 		.ascii	"CYBLE_EVT_WPTSS_WRITE_CHAR\000"
 7773      455F4556 
 7773      545F5750 
 7773      5453535F 
 7773      57524954 
 7774              	.LASF419:
 7775 1878 4359424C 		.ascii	"CYBLE_EVT_LLSS_WRITE_CHAR_REQ\000"
 7775      455F4556 
 7775      545F4C4C 
 7775      53535F57 
 7775      52495445 
 7776              	.LASF92:
 7777 1896 4359424C 		.ascii	"CYBLE_ERROR_MEMORY_ALLOCATION_FAILED\000"
 7777      455F4552 
 7777      524F525F 
 7777      4D454D4F 
 7777      52595F41 
 7778              	.LASF396:
 7779 18bb 4359424C 		.ascii	"CYBLE_EVT_HRSC_READ_DESCR_RESPONSE\000"
 7779      455F4556 
 7779      545F4852 
 7779      53435F52 
 7779      4541445F 
 7780              	.LASF324:
 7781 18de 4359424C 		.ascii	"CYBLE_EVT_CSCSS_NOTIFICATION_ENABLED\000"
 7781      455F4556 
 7781      545F4353 
 7781      4353535F 
 7781      4E4F5449 
 7782              	.LASF173:
 7783 1903 4359424C 		.ascii	"CYBLE_GATTS_HANDLE_VALUE_IND_T\000"
 7783      455F4741 
 7783      5454535F 
 7783      48414E44 
 7783      4C455F56 
 7784              	.LASF522:
 7785 1922 61747472 		.ascii	"attrValue\000"
 7785      56616C75 
 7785      6500
 7786              	.LASF288:
 7787 192c 4359424C 		.ascii	"CYBLE_EVT_BLSC_INDICATION\000"
 7787      455F4556 
 7787      545F424C 
 7787      53435F49 
 7787      4E444943 
 7788              	.LASF384:
 7789 1946 4359424C 		.ascii	"CYBLE_EVT_HPSS_CHAR_WRITE\000"
 7789      455F4556 
 7789      545F4850 
ARM GAS  C:\Windows\TEMP\cc5RoFpJ.s 			page 174


 7789      53535F43 
 7789      4841525F 
 7790              	.LASF376:
 7791 1960 4359424C 		.ascii	"CYBLE_EVT_HIDSS_REPORT_CHAR_WRITE\000"
 7791      455F4556 
 7791      545F4849 
 7791      4453535F 
 7791      5245504F 
 7792              	.LASF276:
 7793 1982 4359424C 		.ascii	"CYBLE_EVT_BCSS_INDICATION_ENABLED\000"
 7793      455F4556 
 7793      545F4243 
 7793      53535F49 
 7793      4E444943 
 7794              	.LASF149:
 7795 19a4 4359424C 		.ascii	"CYBLE_GATTS_ERR_CCCD_IMPROPERLY_CONFIGURED\000"
 7795      455F4741 
 7795      5454535F 
 7795      4552525F 
 7795      43434344 
 7796              	.LASF205:
 7797 19cf 4359424C 		.ascii	"CYBLE_AIOS_NUM_OF_DIGITAL_DESCR\000"
 7797      455F4149 
 7797      4F535F4E 
 7797      554D5F4F 
 7797      465F4449 
 7798              	.LASF503:
 7799 19ef 4359424C 		.ascii	"CYBLE_EVT_WPTSC_READ_CHAR_RESPONSE\000"
 7799      455F4556 
 7799      545F5750 
 7799      5453435F 
 7799      52454144 
 7800              	.LASF116:
 7801 1a12 4359424C 		.ascii	"CYBLE_ERROR_MAX\000"
 7801      455F4552 
 7801      524F525F 
 7801      4D415800 
 7802              	.LASF431:
 7803 1a22 4359424C 		.ascii	"CYBLE_EVT_LNSC_WRITE_CHAR_RESPONSE\000"
 7803      455F4556 
 7803      545F4C4E 
 7803      53435F57 
 7803      52495445 
 7804              	.LASF74:
 7805 1a45 4359424C 		.ascii	"CYBLE_EVT_L2CAP_CONN_PARAM_UPDATE_RSP\000"
 7805      455F4556 
 7805      545F4C32 
 7805      4341505F 
 7805      434F4E4E 
 7806              	.LASF86:
 7807 1a6b 4359424C 		.ascii	"CYBLE_EVT_HCI_PKT\000"
 7807      455F4556 
 7807      545F4843 
 7807      495F504B 
 7807      5400
 7808              	.LASF484:
 7809 1a7d 4359424C 		.ascii	"CYBLE_EVT_UDSS_NOTIFICATION_DISABLED\000"
ARM GAS  C:\Windows\TEMP\cc5RoFpJ.s 			page 175


 7809      455F4556 
 7809      545F5544 
 7809      53535F4E 
 7809      4F544946 
 7810              	.LASF335:
 7811 1aa2 4359424C 		.ascii	"CYBLE_EVT_CSCSC_WRITE_DESCR_RESPONSE\000"
 7811      455F4556 
 7811      545F4353 
 7811      4353435F 
 7811      57524954 
 7812              	.LASF486:
 7813 1ac7 4359424C 		.ascii	"CYBLE_EVT_UDSS_WRITE_CHAR\000"
 7813      455F4556 
 7813      545F5544 
 7813      53535F57 
 7813      52495445 
 7814              	.LASF450:
 7815 1ae1 4359424C 		.ascii	"CYBLE_EVT_PLXSC_READ_CHAR_RESPONSE\000"
 7815      455F4556 
 7815      545F504C 
 7815      5853435F 
 7815      52454144 
 7816              	.LASF581:
 7817 1b04 433A5C55 		.ascii	"C:\\Users\\Oleg\\Documents\\Programming\\POK\\Cyber"
 7817      73657273 
 7817      5C4F6C65 
 7817      675C446F 
 7817      63756D65 
 7818 1b31 506F6E67 		.ascii	"Pong\\CyberPong.cydsn\000"
 7818      5C437962 
 7818      6572506F 
 7818      6E672E63 
 7818      7964736E 
 7819              	.LASF251:
 7820 1b46 4359424C 		.ascii	"CYBLE_EVT_AIOSC_READ_DESCR_RESPONSE\000"
 7820      455F4556 
 7820      545F4149 
 7820      4F53435F 
 7820      52454144 
 7821              	.LASF391:
 7822 1b6a 4359424C 		.ascii	"CYBLE_EVT_HRSS_NOTIFICATION_ENABLED\000"
 7822      455F4556 
 7822      545F4852 
 7822      53535F4E 
 7822      4F544946 
 7823              	.LASF143:
 7824 1b8e 4359424C 		.ascii	"CYBLE_GATT_ERR_USER_DATA_ACCESS_NOT_PERMITTED\000"
 7824      455F4741 
 7824      54545F45 
 7824      52525F55 
 7824      5345525F 
 7825              	.LASF28:
 7826 1bbc 4359424C 		.ascii	"CYBLE_EVT_GAP_AUTH_COMPLETE\000"
 7826      455F4556 
 7826      545F4741 
 7826      505F4155 
 7826      54485F43 
ARM GAS  C:\Windows\TEMP\cc5RoFpJ.s 			page 176


 7827              	.LASF440:
 7828 1bd8 4359424C 		.ascii	"CYBLE_EVT_PASSC_READ_DESCR_RESPONSE\000"
 7828      455F4556 
 7828      545F5041 
 7828      5353435F 
 7828      52454144 
 7829              	.LASF356:
 7830 1bfc 4359424C 		.ascii	"CYBLE_EVT_ESSC_READ_DESCR_RESPONSE\000"
 7830      455F4556 
 7830      545F4553 
 7830      53435F52 
 7830      4541445F 
 7831              	.LASF29:
 7832 1c1f 4359424C 		.ascii	"CYBLE_EVT_GAP_AUTH_FAILED\000"
 7832      455F4556 
 7832      545F4741 
 7832      505F4155 
 7832      54485F46 
 7833              	.LASF375:
 7834 1c39 4359424C 		.ascii	"CYBLE_EVT_HIDSS_EXIT_SUSPEND\000"
 7834      455F4556 
 7834      545F4849 
 7834      4453535F 
 7834      45584954 
 7835              	.LASF121:
 7836 1c56 4359424C 		.ascii	"CYBLE_ERROR_STACK_BUSY\000"
 7836      455F4552 
 7836      524F525F 
 7836      53544143 
 7836      4B5F4255 
 7837              	.LASF159:
 7838 1c6d 4359424C 		.ascii	"CYBLE_GATT_ERR_CCCD_IMPROPERLY_CONFIGURED\000"
 7838      455F4741 
 7838      54545F45 
 7838      52525F43 
 7838      4343445F 
 7839              	.LASF93:
 7840 1c97 4359424C 		.ascii	"CYBLE_ERROR_INSUFFICIENT_RESOURCES\000"
 7840      455F4552 
 7840      524F525F 
 7840      494E5355 
 7840      46464943 
 7841              	.LASF455:
 7842 1cba 4359424C 		.ascii	"CYBLE_EVT_RSCSS_NOTIFICATION_DISABLED\000"
 7842      455F4556 
 7842      545F5253 
 7842      4353535F 
 7842      4E4F5449 
 7843              	.LASF199:
 7844 1ce0 4359424C 		.ascii	"CYBLE_AIOS_CHAR_PRESENTATION_FORMAT\000"
 7844      455F4149 
 7844      4F535F43 
 7844      4841525F 
 7844      50524553 
 7845              	.LASF147:
 7846 1d04 4359424C 		.ascii	"CYBLE_GATT_ERR_OP_CODE_NOT_SUPPORTED\000"
 7846      455F4741 
ARM GAS  C:\Windows\TEMP\cc5RoFpJ.s 			page 177


 7846      54545F45 
 7846      52525F4F 
 7846      505F434F 
 7847              	.LASF379:
 7848 1d29 4359424C 		.ascii	"CYBLE_EVT_HIDSC_WRITE_CHAR_RESPONSE\000"
 7848      455F4556 
 7848      545F4849 
 7848      4453435F 
 7848      57524954 
 7849              	.LASF5:
 7850 1d4d 6C6F6E67 		.ascii	"long unsigned int\000"
 7850      20756E73 
 7850      69676E65 
 7850      6420696E 
 7850      7400
 7851              	.LASF525:
 7852 1d5f 4379426C 		.ascii	"CyBle_AiossGetCharacteristicValue\000"
 7852      655F4169 
 7852      6F737347 
 7852      65744368 
 7852      61726163 
 7853              	.LASF415:
 7854 1d81 4359424C 		.ascii	"CYBLE_EVT_IPSC_READ_DESCR_RESPONSE\000"
 7854      455F4556 
 7854      545F4950 
 7854      53435F52 
 7854      4541445F 
 7855              	.LASF541:
 7856 1da4 61676772 		.ascii	"aggregateChar\000"
 7856      65676174 
 7856      65436861 
 7856      7200
 7857              	.LASF410:
 7858 1db2 4359424C 		.ascii	"CYBLE_EVT_IASS_WRITE_CHAR_CMD\000"
 7858      455F4556 
 7858      545F4941 
 7858      53535F57 
 7858      52495445 
 7859              	.LASF524:
 7860 1dd0 6C6F6348 		.ascii	"locHandleValuePair\000"
 7860      616E646C 
 7860      6556616C 
 7860      75655061 
 7860      697200
 7861              	.LASF435:
 7862 1de3 4359424C 		.ascii	"CYBLE_EVT_PASSS_NOTIFICATION_ENABLED\000"
 7862      455F4556 
 7862      545F5041 
 7862      5353535F 
 7862      4E4F5449 
 7863              	.LASF438:
 7864 1e08 4359424C 		.ascii	"CYBLE_EVT_PASSC_NOTIFICATION\000"
 7864      455F4556 
 7864      545F5041 
 7864      5353435F 
 7864      4E4F5449 
 7865              	.LASF113:
ARM GAS  C:\Windows\TEMP\cc5RoFpJ.s 			page 178


 7866 1e25 4359424C 		.ascii	"CYBLE_ERROR_UNSUPPORTED_FEATURE_OR_PARAMETER_VALUE\000"
 7866      455F4552 
 7866      524F525F 
 7866      554E5355 
 7866      50504F52 
 7867              	.LASF496:
 7868 1e58 4359424C 		.ascii	"CYBLE_EVT_WPTSS_INDICATION_ENABLED\000"
 7868      455F4556 
 7868      545F5750 
 7868      5453535F 
 7868      494E4449 
 7869              	.LASF203:
 7870 1e7b 4359424C 		.ascii	"CYBLE_AIOS_TIME_TRIGGER_SETTINGS\000"
 7870      455F4149 
 7870      4F535F54 
 7870      494D455F 
 7870      54524947 
 7871              	.LASF444:
 7872 1e9c 4359424C 		.ascii	"CYBLE_EVT_PLXSS_NOTIFICATION_DISABLED\000"
 7872      455F4556 
 7872      545F504C 
 7872      5853535F 
 7872      4E4F5449 
 7873              	.LASF266:
 7874 1ec2 4359424C 		.ascii	"CYBLE_EVT_ANSC_READ_CHAR_RESPONSE\000"
 7874      455F4556 
 7874      545F414E 
 7874      53435F52 
 7874      4541445F 
 7875              	.LASF547:
 7876 1ee4 6C6F6343 		.ascii	"locCharInstanceNumber\000"
 7876      68617249 
 7876      6E737461 
 7876      6E63654E 
 7876      756D6265 
 7877              	.LASF103:
 7878 1efa 4359424C 		.ascii	"CYBLE_ERROR_L2CAP_PSM_ALREADY_REGISTERED\000"
 7878      455F4552 
 7878      524F525F 
 7878      4C324341 
 7878      505F5053 
 7879              	.LASF403:
 7880 1f23 4359424C 		.ascii	"CYBLE_EVT_HTSS_CHAR_WRITE\000"
 7880      455F4556 
 7880      545F4854 
 7880      53535F43 
 7880      4841525F 
 7881              	.LASF564:
 7882 1f3d 6379426C 		.ascii	"cyBle_aiossReqHandle\000"
 7882      655F6169 
 7882      6F737352 
 7882      65714861 
 7882      6E646C65 
 7883              	.LASF561:
 7884 1f52 61696F73 		.ascii	"aiossCharIdx0\000"
 7884      73436861 
 7884      72496478 
ARM GAS  C:\Windows\TEMP\cc5RoFpJ.s 			page 179


 7884      3000
 7885              	.LASF562:
 7886 1f60 61696F73 		.ascii	"aiossCharIdx1\000"
 7886      73436861 
 7886      72496478 
 7886      3100
 7887              	.LASF184:
 7888 1f6e 61747456 		.ascii	"attValueUuid\000"
 7888      616C7565 
 7888      55756964 
 7888      00
 7889              	.LASF155:
 7890 1f7b 4359424C 		.ascii	"CYBLE_GATT_ERR_ANCS_UNKNOWN_COMMAND\000"
 7890      455F4741 
 7890      54545F45 
 7890      52525F41 
 7890      4E43535F 
 7891              	.LASF270:
 7892 1f9f 4359424C 		.ascii	"CYBLE_EVT_BASS_NOTIFICATION_ENABLED\000"
 7892      455F4556 
 7892      545F4241 
 7892      53535F4E 
 7892      4F544946 
 7893              	.LASF343:
 7894 1fc3 4359424C 		.ascii	"CYBLE_EVT_CTSC_WRITE_CHAR_RESPONSE\000"
 7894      455F4556 
 7894      545F4354 
 7894      53435F57 
 7894      52495445 
 7895              	.LASF437:
 7896 1fe6 4359424C 		.ascii	"CYBLE_EVT_PASSS_WRITE_CHAR\000"
 7896      455F4556 
 7896      545F5041 
 7896      5353535F 
 7896      57524954 
 7897              	.LASF320:
 7898 2001 4359424C 		.ascii	"CYBLE_EVT_CPSC_WRITE_CHAR_RESPONSE\000"
 7898      455F4556 
 7898      545F4350 
 7898      53435F57 
 7898      52495445 
 7899              	.LASF451:
 7900 2024 4359424C 		.ascii	"CYBLE_EVT_PLXSC_WRITE_CHAR_RESPONSE\000"
 7900      455F4556 
 7900      545F504C 
 7900      5853435F 
 7900      57524954 
 7901              	.LASF557:
 7902 2048 6576656E 		.ascii	"event\000"
 7902      7400
 7903              	.LASF34:
 7904 204e 4359424C 		.ascii	"CYBLE_EVT_GAP_CONNECTION_UPDATE_COMPLETE\000"
 7904      455F4556 
 7904      545F4741 
 7904      505F434F 
 7904      4E4E4543 
 7905              	.LASF305:
ARM GAS  C:\Windows\TEMP\cc5RoFpJ.s 			page 180


 7906 2077 4359424C 		.ascii	"CYBLE_EVT_CGMSC_READ_CHAR_RESPONSE\000"
 7906      455F4556 
 7906      545F4347 
 7906      4D53435F 
 7906      52454144 
 7907              	.LASF546:
 7908 209a 6D696E44 		.ascii	"minDescriptionNumber\000"
 7908      65736372 
 7908      69707469 
 7908      6F6E4E75 
 7908      6D626572 
 7909              	.LASF530:
 7910 20af 4379426C 		.ascii	"CyBle_AiossSendIndication\000"
 7910      655F4169 
 7910      6F737353 
 7910      656E6449 
 7910      6E646963 
 7911              	.LASF515:
 7912 20c9 4359424C 		.ascii	"CYBLE_STATE_INITIALIZING\000"
 7912      455F5354 
 7912      4154455F 
 7912      494E4954 
 7912      49414C49 
 7913              	.LASF553:
 7914 20e2 746D7048 		.ascii	"tmpHandle\000"
 7914      616E646C 
 7914      6500
 7915              	.LASF333:
 7916 20ec 4359424C 		.ascii	"CYBLE_EVT_CSCSC_WRITE_CHAR_RESPONSE\000"
 7916      455F4556 
 7916      545F4353 
 7916      4353435F 
 7916      57524954 
 7917              	.LASF78:
 7918 2110 4359424C 		.ascii	"CYBLE_EVT_L2CAP_CBFC_DISCONN_IND\000"
 7918      455F4556 
 7918      545F4C32 
 7918      4341505F 
 7918      43424643 
 7919              	.LASF329:
 7920 2131 4359424C 		.ascii	"CYBLE_EVT_CSCSS_CHAR_WRITE\000"
 7920      455F4556 
 7920      545F4353 
 7920      4353535F 
 7920      43484152 
 7921              	.LASF446:
 7922 214c 4359424C 		.ascii	"CYBLE_EVT_PLXSS_INDICATION_DISABLED\000"
 7922      455F4556 
 7922      545F504C 
 7922      5853535F 
 7922      494E4449 
 7923              	.LASF462:
 7924 2170 4359424C 		.ascii	"CYBLE_EVT_RSCSC_READ_CHAR_RESPONSE\000"
 7924      455F4556 
 7924      545F5253 
 7924      4353435F 
 7924      52454144 
ARM GAS  C:\Windows\TEMP\cc5RoFpJ.s 			page 181


 7925              	.LASF26:
 7926 2193 4359424C 		.ascii	"CYBLE_EVT_GAP_PASSKEY_ENTRY_REQUEST\000"
 7926      455F4556 
 7926      545F4741 
 7926      505F5041 
 7926      53534B45 
 7927              	.LASF218:
 7928 21b7 67617474 		.ascii	"gattErrorCode\000"
 7928      4572726F 
 7928      72436F64 
 7928      6500
 7929              	.LASF570:
 7930 21c5 6379426C 		.ascii	"cyBle_aioss\000"
 7930      655F6169 
 7930      6F737300 
 7931              	.LASF385:
 7932 21d1 4359424C 		.ascii	"CYBLE_EVT_HPSC_NOTIFICATION\000"
 7932      455F4556 
 7932      545F4850 
 7932      53435F4E 
 7932      4F544946 
 7933              	.LASF314:
 7934 21ed 4359424C 		.ascii	"CYBLE_EVT_CPSS_BROADCAST_ENABLED\000"
 7934      455F4556 
 7934      545F4350 
 7934      53535F42 
 7934      524F4144 
 7935              	.LASF416:
 7936 220e 4359424C 		.ascii	"CYBLE_EVT_IPSC_WRITE_DESCR_RESPONSE\000"
 7936      455F4556 
 7936      545F4950 
 7936      53435F57 
 7936      52495445 
 7937              	.LASF366:
 7938 2232 4359424C 		.ascii	"CYBLE_EVT_GLSC_READ_CHAR_RESPONSE\000"
 7938      455F4556 
 7938      545F474C 
 7938      53435F52 
 7938      4541445F 
 7939              	.LASF453:
 7940 2254 4359424C 		.ascii	"CYBLE_EVT_PLXSC_WRITE_DESCR_RESPONSE\000"
 7940      455F4556 
 7940      545F504C 
 7940      5853435F 
 7940      57524954 
 7941              	.LASF447:
 7942 2279 4359424C 		.ascii	"CYBLE_EVT_PLXS_INDICATION_CONFIRMATION\000"
 7942      455F4556 
 7942      545F504C 
 7942      58535F49 
 7942      4E444943 
 7943              	.LASF404:
 7944 22a0 4359424C 		.ascii	"CYBLE_EVT_HTSC_NOTIFICATION\000"
 7944      455F4556 
 7944      545F4854 
 7944      53435F4E 
 7944      4F544946 
ARM GAS  C:\Windows\TEMP\cc5RoFpJ.s 			page 182


 7945              	.LASF6:
 7946 22bc 6C6F6E67 		.ascii	"long long int\000"
 7946      206C6F6E 
 7946      6720696E 
 7946      7400
 7947              	.LASF577:
 7948 22ca 4379426C 		.ascii	"CyBle_GattsIndication\000"
 7948      655F4761 
 7948      74747349 
 7948      6E646963 
 7948      6174696F 
 7949              	.LASF477:
 7950 22e0 4359424C 		.ascii	"CYBLE_EVT_TPSC_READ_CHAR_RESPONSE\000"
 7950      455F4556 
 7950      545F5450 
 7950      53435F52 
 7950      4541445F 
 7951              	.LASF234:
 7952 2302 4359424C 		.ascii	"CYBLE_EVT_GATTC_CHAR_DUPLICATION\000"
 7952      455F4556 
 7952      545F4741 
 7952      5454435F 
 7952      43484152 
 7953              	.LASF361:
 7954 2323 4359424C 		.ascii	"CYBLE_EVT_GLSS_NOTIFICATION_ENABLED\000"
 7954      455F4556 
 7954      545F474C 
 7954      53535F4E 
 7954      4F544946 
 7955              	.LASF132:
 7956 2347 4359424C 		.ascii	"CYBLE_GATT_ERR_PREPARE_WRITE_QUEUE_FULL\000"
 7956      455F4741 
 7956      54545F45 
 7956      52525F50 
 7956      52455041 
 7957              	.LASF386:
 7958 236f 4359424C 		.ascii	"CYBLE_EVT_HPSC_READ_CHAR_RESPONSE\000"
 7958      455F4556 
 7958      545F4850 
 7958      53435F52 
 7958      4541445F 
 7959              	.LASF104:
 7960 2391 4359424C 		.ascii	"CYBLE_ERROR_L2CAP_PSM_NOT_REGISTERED\000"
 7960      455F4552 
 7960      524F525F 
 7960      4C324341 
 7960      505F5053 
 7961              	.LASF94:
 7962 23b6 4359424C 		.ascii	"CYBLE_ERROR_OOB_NOT_AVAILABLE\000"
 7962      455F4552 
 7962      524F525F 
 7962      4F4F425F 
 7962      4E4F545F 
 7963              	.LASF297:
 7964 23d4 4359424C 		.ascii	"CYBLE_EVT_CGMSS_INDICATION_ENABLED\000"
 7964      455F4556 
 7964      545F4347 
ARM GAS  C:\Windows\TEMP\cc5RoFpJ.s 			page 183


 7964      4D53535F 
 7964      494E4449 
 7965              	.LASF13:
 7966 23f7 646F7562 		.ascii	"double\000"
 7966      6C6500
 7967              	.LASF109:
 7968 23fe 4359424C 		.ascii	"CYBLE_ERROR_DEVICE_ALREADY_EXISTS\000"
 7968      455F4552 
 7968      524F525F 
 7968      44455649 
 7968      43455F41 
 7969              	.LASF348:
 7970 2420 4359424C 		.ascii	"CYBLE_EVT_ESSS_INDICATION_DISABLED\000"
 7970      455F4556 
 7970      545F4553 
 7970      53535F49 
 7970      4E444943 
 7971              	.LASF578:
 7972 2443 4379426C 		.ascii	"CyBle_GattDbCheckPermission\000"
 7972      655F4761 
 7972      74744462 
 7972      43686563 
 7972      6B506572 
 7973              	.LASF84:
 7974 245f 4359424C 		.ascii	"CYBLE_EVT_PENDING_FLASH_WRITE\000"
 7974      455F4556 
 7974      545F5045 
 7974      4E44494E 
 7974      475F464C 
 7975              	.LASF135:
 7976 247d 4359424C 		.ascii	"CYBLE_GATT_ERR_INSUFFICIENT_ENC_KEY_SIZE\000"
 7976      455F4741 
 7976      54545F45 
 7976      52525F49 
 7976      4E535546 
 7977              	.LASF494:
 7978 24a6 4359424C 		.ascii	"CYBLE_EVT_WPTSS_NOTIFICATION_ENABLED\000"
 7978      455F4556 
 7978      545F5750 
 7978      5453535F 
 7978      4E4F5449 
 7979              	.LASF160:
 7980 24cb 4359424C 		.ascii	"CYBLE_GATT_ERR_PROCEDURE_ALREADY_IN_PROGRESS\000"
 7980      455F4741 
 7980      54545F45 
 7980      52525F50 
 7980      524F4345 
 7981              	.LASF433:
 7982 24f8 4359424C 		.ascii	"CYBLE_EVT_LNSC_WRITE_DESCR_RESPONSE\000"
 7982      455F4556 
 7982      545F4C4E 
 7982      53435F57 
 7982      52495445 
 7983              	.LASF41:
 7984 251c 4359424C 		.ascii	"CYBLE_EVT_GAP_ENHANCE_CONN_COMPLETE\000"
 7984      455F4556 
 7984      545F4741 
ARM GAS  C:\Windows\TEMP\cc5RoFpJ.s 			page 184


 7984      505F454E 
 7984      48414E43 
 7985              	.LASF420:
 7986 2540 4359424C 		.ascii	"CYBLE_EVT_LLSC_READ_CHAR_RESPONSE\000"
 7986      455F4556 
 7986      545F4C4C 
 7986      53435F52 
 7986      4541445F 
 7987              	.LASF328:
 7988 2562 4359424C 		.ascii	"CYBLE_EVT_CSCSS_INDICATION_CONFIRMATION\000"
 7988      455F4556 
 7988      545F4353 
 7988      4353535F 
 7988      494E4449 
 7989              	.LASF106:
 7990 258a 4359424C 		.ascii	"CYBLE_ERROR_L2CAP_CHANNEL_NOT_FOUND\000"
 7990      455F4552 
 7990      524F525F 
 7990      4C324341 
 7990      505F4348 
 7991              	.LASF569:
 7992 25ae 6379426C 		.ascii	"cyBle_gattDB\000"
 7992      655F6761 
 7992      74744442 
 7992      00
 7993              	.LASF97:
 7994 25bb 4359424C 		.ascii	"CYBLE_ERROR_REPEATED_ATTEMPTS\000"
 7994      455F4552 
 7994      524F525F 
 7994      52455045 
 7994      41544544 
 7995              	.LASF221:
 7996 25d9 4359424C 		.ascii	"CYBLE_AIOS_DESCR_VALUE_T\000"
 7996      455F4149 
 7996      4F535F44 
 7996      45534352 
 7996      5F56414C 
 7997              	.LASF351:
 7998 25f2 4359424C 		.ascii	"CYBLE_EVT_ESSS_DESCR_WRITE\000"
 7998      455F4556 
 7998      545F4553 
 7998      53535F44 
 7998      45534352 
 7999              	.LASF347:
 8000 260d 4359424C 		.ascii	"CYBLE_EVT_ESSS_INDICATION_ENABLED\000"
 8000      455F4556 
 8000      545F4553 
 8000      53535F49 
 8000      4E444943 
 8001              	.LASF12:
 8002 262f 666C6F61 		.ascii	"float\000"
 8002      7400
 8003              	.LASF471:
 8004 2635 4359424C 		.ascii	"CYBLE_EVT_SCPSC_NOTIFICATION\000"
 8004      455F4556 
 8004      545F5343 
 8004      5053435F 
ARM GAS  C:\Windows\TEMP\cc5RoFpJ.s 			page 185


 8004      4E4F5449 
 8005              	.LASF373:
 8006 2652 4359424C 		.ascii	"CYBLE_EVT_HIDSS_REPORT_MODE_ENTER\000"
 8006      455F4556 
 8006      545F4849 
 8006      4453535F 
 8006      5245504F 
 8007              	.LASF352:
 8008 2674 4359424C 		.ascii	"CYBLE_EVT_ESSC_NOTIFICATION\000"
 8008      455F4556 
 8008      545F4553 
 8008      53435F4E 
 8008      4F544946 
 8009              	.LASF110:
 8010 2690 4359424C 		.ascii	"CYBLE_ERROR_FLASH_WRITE_NOT_PERMITED\000"
 8010      455F4552 
 8010      524F525F 
 8010      464C4153 
 8010      485F5752 
 8011              	.LASF371:
 8012 26b5 4359424C 		.ascii	"CYBLE_EVT_HIDSS_NOTIFICATION_DISABLED\000"
 8012      455F4556 
 8012      545F4849 
 8012      4453535F 
 8012      4E4F5449 
 8013              	.LASF71:
 8014 26db 4359424C 		.ascii	"CYBLE_EVT_GATTS_READ_CHAR_VAL_ACCESS_REQ\000"
 8014      455F4556 
 8014      545F4741 
 8014      5454535F 
 8014      52454144 
 8015              	.LASF259:
 8016 2704 4359424C 		.ascii	"CYBLE_EVT_ANCSC_READ_DESCR_RESPONSE\000"
 8016      455F4556 
 8016      545F414E 
 8016      4353435F 
 8016      52454144 
 8017              	.LASF131:
 8018 2728 4359424C 		.ascii	"CYBLE_GATT_ERR_INSUFFICIENT_AUTHORIZATION\000"
 8018      455F4741 
 8018      54545F45 
 8018      52525F49 
 8018      4E535546 
 8019              	.LASF220:
 8020 2752 64657363 		.ascii	"descrIndex\000"
 8020      72496E64 
 8020      657800
 8021              	.LASF170:
 8022 275d 61747472 		.ascii	"attrHandle\000"
 8022      48616E64 
 8022      6C6500
 8023              	.LASF488:
 8024 2768 4359424C 		.ascii	"CYBLE_EVT_UDSC_NOTIFICATION\000"
 8024      455F4556 
 8024      545F5544 
 8024      53435F4E 
 8024      4F544946 
ARM GAS  C:\Windows\TEMP\cc5RoFpJ.s 			page 186


 8025              	.LASF502:
 8026 2784 4359424C 		.ascii	"CYBLE_EVT_WPTSC_WRITE_CHAR_RESPONSE\000"
 8026      455F4556 
 8026      545F5750 
 8026      5453435F 
 8026      57524954 
 8027              	.LASF176:
 8028 27a8 4359424C 		.ascii	"CYBLE_GATTS_WRITE_REQ_PARAM_T\000"
 8028      455F4741 
 8028      5454535F 
 8028      57524954 
 8028      455F5245 
 8029              	.LASF8:
 8030 27c6 756E7369 		.ascii	"unsigned int\000"
 8030      676E6564 
 8030      20696E74 
 8030      00
 8031              	.LASF63:
 8032 27d3 4359424C 		.ascii	"CYBLE_EVT_GATTS_PREP_WRITE_REQ\000"
 8032      455F4556 
 8032      545F4741 
 8032      5454535F 
 8032      50524550 
 8033              	.LASF189:
 8034 27f2 61747445 		.ascii	"attEndHandle\000"
 8034      6E644861 
 8034      6E646C65 
 8034      00
 8035              	.LASF128:
 8036 27ff 4359424C 		.ascii	"CYBLE_GATT_ERR_INSUFFICIENT_AUTHENTICATION\000"
 8036      455F4741 
 8036      54545F45 
 8036      52525F49 
 8036      4E535546 
 8037              	.LASF193:
 8038 282a 4359424C 		.ascii	"CYBLE_AIOS_DIGITAL\000"
 8038      455F4149 
 8038      4F535F44 
 8038      49474954 
 8038      414C00
 8039              	.LASF295:
 8040 283d 4359424C 		.ascii	"CYBLE_EVT_BMSC_WRITE_CHAR_RESPONSE\000"
 8040      455F4556 
 8040      545F424D 
 8040      53435F57 
 8040      52495445 
 8041              	.LASF337:
 8042 2860 4359424C 		.ascii	"CYBLE_EVT_CTSS_NOTIFICATION_DISABLED\000"
 8042      455F4556 
 8042      545F4354 
 8042      53535F4E 
 8042      4F544946 
 8043              	.LASF196:
 8044 2885 4359424C 		.ascii	"CYBLE_AIOS_CHAR_COUNT\000"
 8044      455F4149 
 8044      4F535F43 
 8044      4841525F 
ARM GAS  C:\Windows\TEMP\cc5RoFpJ.s 			page 187


 8044      434F554E 
 8045              	.LASF284:
 8046 289b 4359424C 		.ascii	"CYBLE_EVT_BLSS_INDICATION_DISABLED\000"
 8046      455F4556 
 8046      545F424C 
 8046      53535F49 
 8046      4E444943 
 8047              	.LASF469:
 8048 28be 4359424C 		.ascii	"CYBLE_EVT_SCPSS_NOTIFICATION_DISABLED\000"
 8048      455F4556 
 8048      545F5343 
 8048      5053535F 
 8048      4E4F5449 
 8049              	.LASF349:
 8050 28e4 4359424C 		.ascii	"CYBLE_EVT_ESSS_INDICATION_CONFIRMATION\000"
 8050      455F4556 
 8050      545F4553 
 8050      53535F49 
 8050      4E444943 
 8051              	.LASF146:
 8052 290b 4359424C 		.ascii	"CYBLE_GATTS_ERR_PROCEDURE_ALREADY_IN_PROGRESS\000"
 8052      455F4741 
 8052      5454535F 
 8052      4552525F 
 8052      50524F43 
 8053              	.LASF252:
 8054 2939 4359424C 		.ascii	"CYBLE_EVT_AIOSC_WRITE_DESCR_RESPONSE\000"
 8054      455F4556 
 8054      545F4149 
 8054      4F53435F 
 8054      57524954 
 8055              	.LASF222:
 8056 295e 4359424C 		.ascii	"CYBLE_AUTHENTICATION_REQUEST_REPLY\000"
 8056      455F4155 
 8056      5448454E 
 8056      54494341 
 8056      54494F4E 
 8057              	.LASF102:
 8058 2981 4359424C 		.ascii	"CYBLE_ERROR_L2CAP_PSM_WRONG_ENCODING\000"
 8058      455F4552 
 8058      524F525F 
 8058      4C324341 
 8058      505F5053 
 8059              	.LASF287:
 8060 29a6 4359424C 		.ascii	"CYBLE_EVT_BLSS_NOTIFICATION_DISABLED\000"
 8060      455F4556 
 8060      545F424C 
 8060      53535F4E 
 8060      4F544946 
 8061              	.LASF133:
 8062 29cb 4359424C 		.ascii	"CYBLE_GATT_ERR_ATTRIBUTE_NOT_FOUND\000"
 8062      455F4741 
 8062      54545F45 
 8062      52525F41 
 8062      54545249 
 8063              	.LASF407:
 8064 29ee 4359424C 		.ascii	"CYBLE_EVT_HTSC_WRITE_CHAR_RESPONSE\000"
ARM GAS  C:\Windows\TEMP\cc5RoFpJ.s 			page 188


 8064      455F4556 
 8064      545F4854 
 8064      53435F57 
 8064      52495445 
 8065              	.LASF507:
 8066 2a11 4359424C 		.ascii	"CYBLE_EVT_WSSS_INDICATION_DISABLED\000"
 8066      455F4556 
 8066      545F5753 
 8066      53535F49 
 8066      4E444943 
 8067              	.LASF389:
 8068 2a34 4359424C 		.ascii	"CYBLE_EVT_HPSC_WRITE_CHAR_RESPONSE\000"
 8068      455F4556 
 8068      545F4850 
 8068      53435F57 
 8068      52495445 
 8069              	.LASF88:
 8070 2a57 4359424C 		.ascii	"CYBLE_EVT_MAX\000"
 8070      455F4556 
 8070      545F4D41 
 8070      5800
 8071              	.LASF35:
 8072 2a65 4359424C 		.ascii	"CYBLE_EVT_GAPC_SCAN_START_STOP\000"
 8072      455F4556 
 8072      545F4741 
 8072      50435F53 
 8072      43414E5F 
 8073              	.LASF262:
 8074 2a84 4359424C 		.ascii	"CYBLE_EVT_ANSS_NOTIFICATION_ENABLED\000"
 8074      455F4556 
 8074      545F414E 
 8074      53535F4E 
 8074      4F544946 
 8075              	.LASF60:
 8076 2aa8 4359424C 		.ascii	"CYBLE_EVT_GATTS_WRITE_REQ\000"
 8076      455F4556 
 8076      545F4741 
 8076      5454535F 
 8076      57524954 
 8077              	.LASF490:
 8078 2ac2 4359424C 		.ascii	"CYBLE_EVT_UDSC_WRITE_CHAR_RESPONSE\000"
 8078      455F4556 
 8078      545F5544 
 8078      53435F57 
 8078      52495445 
 8079              	.LASF550:
 8080 2ae5 6E756D4F 		.ascii	"numOfDigital\000"
 8080      66446967 
 8080      6974616C 
 8080      00
 8081              	.LASF501:
 8082 2af2 4359424C 		.ascii	"CYBLE_EVT_WPTSC_INDICATION\000"
 8082      455F4556 
 8082      545F5750 
 8082      5453435F 
 8082      494E4449 
 8083              	.LASF27:
ARM GAS  C:\Windows\TEMP\cc5RoFpJ.s 			page 189


 8084 2b0d 4359424C 		.ascii	"CYBLE_EVT_GAP_PASSKEY_DISPLAY_REQUEST\000"
 8084      455F4556 
 8084      545F4741 
 8084      505F5041 
 8084      53534B45 
 8085              	.LASF118:
 8086 2b33 4359424C 		.ascii	"CYBLE_ERROR_IND_DISABLED\000"
 8086      455F4552 
 8086      524F525F 
 8086      494E445F 
 8086      44495341 
 8087              	.LASF117:
 8088 2b4c 4359424C 		.ascii	"CYBLE_ERROR_NTF_DISABLED\000"
 8088      455F4552 
 8088      524F525F 
 8088      4E54465F 
 8088      44495341 
 8089              	.LASF200:
 8090 2b65 4359424C 		.ascii	"CYBLE_AIOS_CHAR_USER_DESCRIPTION_DESCR\000"
 8090      455F4149 
 8090      4F535F43 
 8090      4841525F 
 8090      55534552 
 8091              	.LASF57:
 8092 2b8c 4359424C 		.ascii	"CYBLE_EVT_GATTC_READ_RSP\000"
 8092      455F4556 
 8092      545F4741 
 8092      5454435F 
 8092      52454144 
 8093              	.LASF318:
 8094 2ba5 4359424C 		.ascii	"CYBLE_EVT_CPSC_INDICATION\000"
 8094      455F4556 
 8094      545F4350 
 8094      53435F49 
 8094      4E444943 
 8095              	.LASF197:
 8096 2bbf 4359424C 		.ascii	"CYBLE_AIOS_CHAR_INDEX_T\000"
 8096      455F4149 
 8096      4F535F43 
 8096      4841525F 
 8096      494E4445 
 8097              	.LASF130:
 8098 2bd7 4359424C 		.ascii	"CYBLE_GATT_ERR_INVALID_OFFSET\000"
 8098      455F4741 
 8098      54545F45 
 8098      52525F49 
 8098      4E56414C 
 8099              	.LASF344:
 8100 2bf5 4359424C 		.ascii	"CYBLE_EVT_DISC_READ_CHAR_RESPONSE\000"
 8100      455F4556 
 8100      545F4449 
 8100      53435F52 
 8100      4541445F 
 8101              	.LASF77:
 8102 2c17 4359424C 		.ascii	"CYBLE_EVT_L2CAP_CBFC_CONN_CNF\000"
 8102      455F4556 
 8102      545F4C32 
ARM GAS  C:\Windows\TEMP\cc5RoFpJ.s 			page 190


 8102      4341505F 
 8102      43424643 
 8103              	.LASF179:
 8104 2c35 4359424C 		.ascii	"CYBLE_GATTS_ATT_GEN_VAL_LEN_T\000"
 8104      455F4741 
 8104      5454535F 
 8104      4154545F 
 8104      47454E5F 
 8105              	.LASF408:
 8106 2c53 4359424C 		.ascii	"CYBLE_EVT_HTSC_READ_DESCR_RESPONSE\000"
 8106      455F4556 
 8106      545F4854 
 8106      53435F52 
 8106      4541445F 
 8107              	.LASF513:
 8108 2c76 4359424C 		.ascii	"CYBLE_DEBUG_EVT_BLESS_INT\000"
 8108      455F4445 
 8108      4255475F 
 8108      4556545F 
 8108      424C4553 
 8109              	.LASF161:
 8110 2c90 4359424C 		.ascii	"CYBLE_GATT_ERR_OUT_OF_RANGE\000"
 8110      455F4741 
 8110      54545F45 
 8110      52525F4F 
 8110      55545F4F 
 8111              	.LASF363:
 8112 2cac 4359424C 		.ascii	"CYBLE_EVT_GLSS_WRITE_CHAR\000"
 8112      455F4556 
 8112      545F474C 
 8112      53535F57 
 8112      52495445 
 8113              	.LASF87:
 8114 2cc6 4359424C 		.ascii	"CYBLE_EVT_FLASH_CORRUPT\000"
 8114      455F4556 
 8114      545F464C 
 8114      4153485F 
 8114      434F5252 
 8115              	.LASF15:
 8116 2cde 6C6F6E67 		.ascii	"long double\000"
 8116      20646F75 
 8116      626C6500 
 8117              	.LASF300:
 8118 2cea 4359424C 		.ascii	"CYBLE_EVT_CGMSS_NOTIFICATION_ENABLED\000"
 8118      455F4556 
 8118      545F4347 
 8118      4D53535F 
 8118      4E4F5449 
 8119              	.LASF393:
 8120 2d0f 4359424C 		.ascii	"CYBLE_EVT_HRSC_NOTIFICATION\000"
 8120      455F4556 
 8120      545F4852 
 8120      53435F4E 
 8120      4F544946 
 8121              	.LASF23:
 8122 2d2b 4359424C 		.ascii	"CYBLE_EVT_MEMORY_REQUEST\000"
 8122      455F4556 
ARM GAS  C:\Windows\TEMP\cc5RoFpJ.s 			page 191


 8122      545F4D45 
 8122      4D4F5259 
 8122      5F524551 
 8123              	.LASF249:
 8124 2d44 4359424C 		.ascii	"CYBLE_EVT_AIOSC_READ_CHAR_RESPONSE\000"
 8124      455F4556 
 8124      545F4149 
 8124      4F53435F 
 8124      52454144 
 8125              	.LASF576:
 8126 2d67 4379426C 		.ascii	"CyBle_Get16ByPtr\000"
 8126      655F4765 
 8126      74313642 
 8126      79507472 
 8126      00
 8127              	.LASF538:
 8128 2d78 6C6F6352 		.ascii	"locReqHandle\000"
 8128      65714861 
 8128      6E646C65 
 8128      00
 8129              	.LASF458:
 8130 2d85 4359424C 		.ascii	"CYBLE_EVT_RSCSS_INDICATION_CONFIRMATION\000"
 8130      455F4556 
 8130      545F5253 
 8130      4353535F 
 8130      494E4449 
 8131              	.LASF380:
 8132 2dad 4359424C 		.ascii	"CYBLE_EVT_HIDSC_READ_DESCR_RESPONSE\000"
 8132      455F4556 
 8132      545F4849 
 8132      4453435F 
 8132      52454144 
 8133              	.LASF529:
 8134 2dd1 6E746652 		.ascii	"ntfReqParam\000"
 8134      65715061 
 8134      72616D00 
 8135              	.LASF394:
 8136 2ddd 4359424C 		.ascii	"CYBLE_EVT_HRSC_READ_CHAR_RESPONSE\000"
 8136      455F4556 
 8136      545F4852 
 8136      53435F52 
 8136      4541445F 
 8137              	.LASF272:
 8138 2dff 4359424C 		.ascii	"CYBLE_EVT_BASC_NOTIFICATION\000"
 8138      455F4556 
 8138      545F4241 
 8138      53435F4E 
 8138      4F544946 
 8139              	.LASF532:
 8140 2e1b 4379426C 		.ascii	"CyBle_AiosRegisterAttrCallback\000"
 8140      655F4169 
 8140      6F735265 
 8140      67697374 
 8140      65724174 
 8141              	.LASF33:
 8142 2e3a 4359424C 		.ascii	"CYBLE_EVT_GAP_ENCRYPT_CHANGE\000"
 8142      455F4556 
ARM GAS  C:\Windows\TEMP\cc5RoFpJ.s 			page 192


 8142      545F4741 
 8142      505F454E 
 8142      43525950 
 8143              	.LASF560:
 8144 2e57 4379426C 		.ascii	"CyBle_AiossSetCharacteristicValue\000"
 8144      655F4169 
 8144      6F737353 
 8144      65744368 
 8144      61726163 
 8145              	.LASF434:
 8146 2e79 4359424C 		.ascii	"CYBLE_EVT_NDCSC_READ_CHAR_RESPONSE\000"
 8146      455F4556 
 8146      545F4E44 
 8146      4353435F 
 8146      52454144 
 8147              	.LASF552:
 8148 2e9c 4379426C 		.ascii	"CyBle_AiossWriteEventHandler\000"
 8148      655F4169 
 8148      6F737357 
 8148      72697465 
 8148      4576656E 
 8149              	.LASF235:
 8150 2eb9 4359424C 		.ascii	"CYBLE_EVT_GATTC_DESCR_DUPLICATION\000"
 8150      455F4556 
 8150      545F4741 
 8150      5454435F 
 8150      44455343 
 8151              	.LASF51:
 8152 2edb 4359424C 		.ascii	"CYBLE_EVT_GATTS_XCNHG_MTU_REQ\000"
 8152      455F4556 
 8152      545F4741 
 8152      5454535F 
 8152      58434E48 
 8153              	.LASF383:
 8154 2ef9 4359424C 		.ascii	"CYBLE_EVT_HPSS_NOTIFICATION_DISABLED\000"
 8154      455F4556 
 8154      545F4850 
 8154      53535F4E 
 8154      4F544946 
 8155              	.LASF535:
 8156 2f1e 6C6F6343 		.ascii	"locCharIndex\000"
 8156      68617249 
 8156      6E646578 
 8156      00
 8157              	.LASF483:
 8158 2f2b 4359424C 		.ascii	"CYBLE_EVT_UDSS_NOTIFICATION_ENABLED\000"
 8158      455F4556 
 8158      545F5544 
 8158      53535F4E 
 8158      4F544946 
 8159              	.LASF244:
 8160 2f4f 4359424C 		.ascii	"CYBLE_EVT_AIOSS_INDICATION_CONFIRMED\000"
 8160      455F4556 
 8160      545F4149 
 8160      4F53535F 
 8160      494E4449 
 8161              	.LASF424:
ARM GAS  C:\Windows\TEMP\cc5RoFpJ.s 			page 193


 8162 2f74 4359424C 		.ascii	"CYBLE_EVT_LNSS_INDICATION_CONFIRMED\000"
 8162      455F4556 
 8162      545F4C4E 
 8162      53535F49 
 8162      4E444943 
 8163              	.LASF47:
 8164 2f98 4359424C 		.ascii	"CYBLE_EVT_GAP_SMP_LOC_P256_KEYS_GEN_AND_SET_COMPLET"
 8164      455F4556 
 8164      545F4741 
 8164      505F534D 
 8164      505F4C4F 
 8165 2fcb 4500     		.ascii	"E\000"
 8166              	.LASF269:
 8167 2fcd 4359424C 		.ascii	"CYBLE_EVT_ANSC_WRITE_DESCR_RESPONSE\000"
 8167      455F4556 
 8167      545F414E 
 8167      53435F57 
 8167      52495445 
 8168              	.LASF430:
 8169 2ff1 4359424C 		.ascii	"CYBLE_EVT_LNSC_READ_CHAR_RESPONSE\000"
 8169      455F4556 
 8169      545F4C4E 
 8169      53435F52 
 8169      4541445F 
 8170              	.LASF360:
 8171 3013 4359424C 		.ascii	"CYBLE_EVT_GLSS_INDICATION_CONFIRMED\000"
 8171      455F4556 
 8171      545F474C 
 8171      53535F49 
 8171      4E444943 
 8172              	.LASF519:
 8173 3037 4359424C 		.ascii	"CYBLE_STATE_T\000"
 8173      455F5354 
 8173      4154455F 
 8173      5400
 8174              	.LASF226:
 8175 3045 4359424C 		.ascii	"CYBLE_EVT_GATTS_INDICATION_ENABLED\000"
 8175      455F4556 
 8175      545F4741 
 8175      5454535F 
 8175      494E4449 
 8176              	.LASF7:
 8177 3068 6C6F6E67 		.ascii	"long long unsigned int\000"
 8177      206C6F6E 
 8177      6720756E 
 8177      7369676E 
 8177      65642069 
 8178              	.LASF124:
 8179 307f 4359424C 		.ascii	"CYBLE_GATT_ERR_INVALID_HANDLE\000"
 8179      455F4741 
 8179      54545F45 
 8179      52525F49 
 8179      4E56414C 
 8180              	.LASF19:
 8181 309d 4359424C 		.ascii	"CYBLE_EVT_TIMEOUT\000"
 8181      455F4556 
 8181      545F5449 
ARM GAS  C:\Windows\TEMP\cc5RoFpJ.s 			page 194


 8181      4D454F55 
 8181      5400
 8182              	.LASF341:
 8183 30af 4359424C 		.ascii	"CYBLE_EVT_CTSC_READ_DESCR_RESPONSE\000"
 8183      455F4556 
 8183      545F4354 
 8183      53435F52 
 8183      4541445F 
 8184              	.LASF148:
 8185 30d2 4359424C 		.ascii	"CYBLE_GATT_ERR_MISSING_CRC\000"
 8185      455F4741 
 8185      54545F45 
 8185      52525F4D 
 8185      49535349 
 8186              	.LASF120:
 8187 30ed 4359424C 		.ascii	"CYBLE_ERROR_INVALID_STATE\000"
 8187      455F4552 
 8187      524F525F 
 8187      494E5641 
 8187      4C49445F 
 8188              	.LASF163:
 8189 3107 4359424C 		.ascii	"CYBLE_GATT_DB_ATTR_HANDLE_T\000"
 8189      455F4741 
 8189      54545F44 
 8189      425F4154 
 8189      54525F48 
 8190              	.LASF242:
 8191 3123 4359424C 		.ascii	"CYBLE_EVT_AIOSS_INDICATION_ENABLED\000"
 8191      455F4556 
 8191      545F4149 
 8191      4F53535F 
 8191      494E4449 
 8192              	.LASF80:
 8193 3146 4359424C 		.ascii	"CYBLE_EVT_L2CAP_CBFC_DATA_READ\000"
 8193      455F4556 
 8193      545F4C32 
 8193      4341505F 
 8193      43424643 
 8194              	.LASF123:
 8195 3165 4359424C 		.ascii	"CYBLE_GATT_ERR_NONE\000"
 8195      455F4741 
 8195      54545F45 
 8195      52525F4E 
 8195      4F4E4500 
 8196              	.LASF169:
 8197 3179 76616C75 		.ascii	"value\000"
 8197      6500
 8198              	.LASF317:
 8199 317f 4359424C 		.ascii	"CYBLE_EVT_CPSC_NOTIFICATION\000"
 8199      455F4556 
 8199      545F4350 
 8199      53435F4E 
 8199      4F544946 
 8200              	.LASF292:
 8201 319b 4359424C 		.ascii	"CYBLE_EVT_BLSC_WRITE_DESCR_RESPONSE\000"
 8201      455F4556 
 8201      545F424C 
ARM GAS  C:\Windows\TEMP\cc5RoFpJ.s 			page 195


 8201      53435F57 
 8201      52495445 
 8202              	.LASF211:
 8203 31bf 63686172 		.ascii	"charInfoPtr\000"
 8203      496E666F 
 8203      50747200 
 8204              	.LASF190:
 8205 31cb 61747456 		.ascii	"attValue\000"
 8205      616C7565 
 8205      00
 8206              	.LASF429:
 8207 31d4 4359424C 		.ascii	"CYBLE_EVT_LNSC_NOTIFICATION\000"
 8207      455F4556 
 8207      545F4C4E 
 8207      53435F4E 
 8207      4F544946 
 8208              	.LASF339:
 8209 31f0 4359424C 		.ascii	"CYBLE_EVT_CTSC_NOTIFICATION\000"
 8209      455F4556 
 8209      545F4354 
 8209      53435F4E 
 8209      4F544946 
 8210              	.LASF114:
 8211 320c 4359424C 		.ascii	"CYBLE_ERROR_FLASH_WRITE\000"
 8211      455F4552 
 8211      524F525F 
 8211      464C4153 
 8211      485F5752 
 8212              	.LASF359:
 8213 3224 4359424C 		.ascii	"CYBLE_EVT_GLSS_INDICATION_DISABLED\000"
 8213      455F4556 
 8213      545F474C 
 8213      53535F49 
 8213      4E444943 
 8214              	.LASF145:
 8215 3247 4359424C 		.ascii	"CYBLE_GATT_ERR_HTS_OUT_OF_RANGE\000"
 8215      455F4741 
 8215      54545F45 
 8215      52525F48 
 8215      54535F4F 
 8216              	.LASF245:
 8217 3267 4359424C 		.ascii	"CYBLE_EVT_AIOSS_CHAR_WRITE\000"
 8217      455F4556 
 8217      545F4149 
 8217      4F53535F 
 8217      43484152 
 8218              	.LASF233:
 8219 3282 4359424C 		.ascii	"CYBLE_EVT_GATTC_SRVC_DUPLICATION\000"
 8219      455F4556 
 8219      545F4741 
 8219      5454435F 
 8219      53525643 
 8220              	.LASF559:
 8221 32a3 64657363 		.ascii	"descInd\000"
 8221      496E6400 
 8222              	.LASF422:
 8223 32ab 4359424C 		.ascii	"CYBLE_EVT_LNSS_INDICATION_ENABLED\000"
ARM GAS  C:\Windows\TEMP\cc5RoFpJ.s 			page 196


 8223      455F4556 
 8223      545F4C4E 
 8223      53535F49 
 8223      4E444943 
 8224              	.LASF255:
 8225 32cd 4359424C 		.ascii	"CYBLE_EVT_ANCSS_NOTIFICATION_DISABLED\000"
 8225      455F4556 
 8225      545F414E 
 8225      4353535F 
 8225      4E4F5449 
 8226              	.LASF174:
 8227 32f3 636F6E6E 		.ascii	"connHandle\000"
 8227      48616E64 
 8227      6C6500
 8228              	.LASF177:
 8229 32fe 61637475 		.ascii	"actualLength\000"
 8229      616C4C65 
 8229      6E677468 
 8229      00
 8230              	.LASF271:
 8231 330b 4359424C 		.ascii	"CYBLE_EVT_BASS_NOTIFICATION_DISABLED\000"
 8231      455F4556 
 8231      545F4241 
 8231      53535F4E 
 8231      4F544946 
 8232              	.LASF442:
 8233 3330 4359424C 		.ascii	"CYBLE_EVT_PLXSS_WRITE_CHAR\000"
 8233      455F4556 
 8233      545F504C 
 8233      5853535F 
 8233      57524954 
 8234              	.LASF309:
 8235 334b 4359424C 		.ascii	"CYBLE_EVT_CPSS_NOTIFICATION_ENABLED\000"
 8235      455F4556 
 8235      545F4350 
 8235      53535F4E 
 8235      4F544946 
 8236              	.LASF478:
 8237 336f 4359424C 		.ascii	"CYBLE_EVT_TPSC_READ_DESCR_RESPONSE\000"
 8237      455F4556 
 8237      545F5450 
 8237      53435F52 
 8237      4541445F 
 8238              	.LASF567:
 8239 3392 6379426C 		.ascii	"cyBle_pendingFlashWrite\000"
 8239      655F7065 
 8239      6E64696E 
 8239      67466C61 
 8239      73685772 
 8240              	.LASF493:
 8241 33aa 4359424C 		.ascii	"CYBLE_EVT_UDSC_ERROR_RESPONSE\000"
 8241      455F4556 
 8241      545F5544 
 8241      53435F45 
 8241      52524F52 
 8242              	.LASF55:
 8243 33c8 4359424C 		.ascii	"CYBLE_EVT_GATTC_FIND_INFO_RSP\000"
ARM GAS  C:\Windows\TEMP\cc5RoFpJ.s 			page 197


 8243      455F4556 
 8243      545F4741 
 8243      5454435F 
 8243      46494E44 
 8244              	.LASF54:
 8245 33e6 4359424C 		.ascii	"CYBLE_EVT_GATTC_READ_BY_TYPE_RSP\000"
 8245      455F4556 
 8245      545F4741 
 8245      5454435F 
 8245      52454144 
 8246              	.LASF436:
 8247 3407 4359424C 		.ascii	"CYBLE_EVT_PASSS_NOTIFICATION_DISABLED\000"
 8247      455F4556 
 8247      545F5041 
 8247      5353535F 
 8247      4E4F5449 
 8248              	.LASF307:
 8249 342d 4359424C 		.ascii	"CYBLE_EVT_CGMSC_READ_DESCR_RESPONSE\000"
 8249      455F4556 
 8249      545F4347 
 8249      4D53435F 
 8249      52454144 
 8250              	.LASF378:
 8251 3451 4359424C 		.ascii	"CYBLE_EVT_HIDSC_READ_CHAR_RESPONSE\000"
 8251      455F4556 
 8251      545F4849 
 8251      4453435F 
 8251      52454144 
 8252              	.LASF150:
 8253 3474 4359424C 		.ascii	"CYBLE_GATTS_ERR_OPERATION_FAILED\000"
 8253      455F4741 
 8253      5454535F 
 8253      4552525F 
 8253      4F504552 
 8254              	.LASF215:
 8255 3495 4359424C 		.ascii	"CYBLE_AIOSS_T\000"
 8255      455F4149 
 8255      4F53535F 
 8255      5400
 8256              	.LASF523:
 8257 34a3 61706952 		.ascii	"apiResult\000"
 8257      6573756C 
 8257      7400
 8258              	.LASF572:
 8259 34ad 6379426C 		.ascii	"cyBle_state\000"
 8259      655F7374 
 8259      61746500 
 8260              	.LASF475:
 8261 34b9 4359424C 		.ascii	"CYBLE_EVT_TPSS_NOTIFICATION_DISABLED\000"
 8261      455F4556 
 8261      545F5450 
 8261      53535F4E 
 8261      4F544946 
 8262              	.LASF472:
 8263 34de 4359424C 		.ascii	"CYBLE_EVT_SCPSC_READ_DESCR_RESPONSE\000"
 8263      455F4556 
 8263      545F5343 
ARM GAS  C:\Windows\TEMP\cc5RoFpJ.s 			page 198


 8263      5053435F 
 8263      52454144 
 8264              	.LASF397:
 8265 3502 4359424C 		.ascii	"CYBLE_EVT_HRSC_WRITE_DESCR_RESPONSE\000"
 8265      455F4556 
 8265      545F4852 
 8265      53435F57 
 8265      52495445 
 8266              	.LASF427:
 8267 3526 4359424C 		.ascii	"CYBLE_EVT_LNSS_WRITE_CHAR\000"
 8267      455F4556 
 8267      545F4C4E 
 8267      53535F57 
 8267      52495445 
 8268              	.LASF542:
 8269 3540 63757272 		.ascii	"currentDescriptionValue\000"
 8269      656E7444 
 8269      65736372 
 8269      69707469 
 8269      6F6E5661 
 8270              	.LASF350:
 8271 3558 4359424C 		.ascii	"CYBLE_EVT_ESSS_CHAR_WRITE\000"
 8271      455F4556 
 8271      545F4553 
 8271      53535F43 
 8271      4841525F 
 8272              	.LASF61:
 8273 3572 4359424C 		.ascii	"CYBLE_EVT_GATTC_WRITE_RSP\000"
 8273      455F4556 
 8273      545F4741 
 8273      5454435F 
 8273      57524954 
 8274              	.LASF345:
 8275 358c 4359424C 		.ascii	"CYBLE_EVT_ESSS_NOTIFICATION_ENABLED\000"
 8275      455F4556 
 8275      545F4553 
 8275      53535F4E 
 8275      4F544946 
 8276              	.LASF518:
 8277 35b0 4359424C 		.ascii	"CYBLE_STATE_DISCONNECTED\000"
 8277      455F5354 
 8277      4154455F 
 8277      44495343 
 8277      4F4E4E45 
 8278              	.LASF185:
 8279 35c9 4359424C 		.ascii	"CYBLE_GATTS_ATT_VALUE_T\000"
 8279      455F4741 
 8279      5454535F 
 8279      4154545F 
 8279      56414C55 
 8280              	.LASF551:
 8281 35e1 4379426C 		.ascii	"CyBle_AiosInit\000"
 8281      655F4169 
 8281      6F73496E 
 8281      697400
 8282              	.LASF537:
 8283 35f0 6C6F6343 		.ascii	"locCharInstance\000"
ARM GAS  C:\Windows\TEMP\cc5RoFpJ.s 			page 199


 8283      68617249 
 8283      6E737461 
 8283      6E636500 
 8284              	.LASF460:
 8285 3600 4359424C 		.ascii	"CYBLE_EVT_RSCSC_NOTIFICATION\000"
 8285      455F4556 
 8285      545F5253 
 8285      4353435F 
 8285      4E4F5449 
 8286              	.LASF182:
 8287 361d 4359424C 		.ascii	"CYBLE_GATTS_ATT_PACK_VAL_LEN_T\000"
 8287      455F4741 
 8287      5454535F 
 8287      4154545F 
 8287      5041434B 
 8288              	.LASF30:
 8289 363c 4359424C 		.ascii	"CYBLE_EVT_GAPP_ADVERTISEMENT_START_STOP\000"
 8289      455F4556 
 8289      545F4741 
 8289      50505F41 
 8289      44564552 
 8290              	.LASF285:
 8291 3664 4359424C 		.ascii	"CYBLE_EVT_BLSS_INDICATION_CONFIRMED\000"
 8291      455F4556 
 8291      545F424C 
 8291      53535F49 
 8291      4E444943 
 8292              	.LASF504:
 8293 3688 4359424C 		.ascii	"CYBLE_EVT_WPTSC_READ_DESCR_RESPONSE\000"
 8293      455F4556 
 8293      545F5750 
 8293      5453435F 
 8293      52454144 
 8294              	.LASF257:
 8295 36ac 4359424C 		.ascii	"CYBLE_EVT_ANCSC_NOTIFICATION\000"
 8295      455F4556 
 8295      545F414E 
 8295      4353435F 
 8295      4E4F5449 
 8296              	.LASF178:
 8297 36c9 61747447 		.ascii	"attGenericVal\000"
 8297      656E6572 
 8297      69635661 
 8297      6C00
 8298              	.LASF208:
 8299 36d7 63686172 		.ascii	"charHandle\000"
 8299      48616E64 
 8299      6C6500
 8300              	.LASF306:
 8301 36e2 4359424C 		.ascii	"CYBLE_EVT_CGMSC_WRITE_CHAR_RESPONSE\000"
 8301      455F4556 
 8301      545F4347 
 8301      4D53435F 
 8301      57524954 
 8302              	.LASF9:
 8303 3706 75696E74 		.ascii	"uint8\000"
 8303      3800
ARM GAS  C:\Windows\TEMP\cc5RoFpJ.s 			page 200


 8304              	.LASF406:
 8305 370c 4359424C 		.ascii	"CYBLE_EVT_HTSC_READ_CHAR_RESPONSE\000"
 8305      455F4556 
 8305      545F4854 
 8305      53435F52 
 8305      4541445F 
 8306              	.LASF38:
 8307 372e 4359424C 		.ascii	"CYBLE_EVT_GAP_KEYPRESS_NOTIFICATION\000"
 8307      455F4556 
 8307      545F4741 
 8307      505F4B45 
 8307      59505245 
 8308              	.LASF441:
 8309 3752 4359424C 		.ascii	"CYBLE_EVT_PASSC_WRITE_DESCR_RESPONSE\000"
 8309      455F4556 
 8309      545F5041 
 8309      5353435F 
 8309      57524954 
 8310              	.LASF2:
 8311 3777 73686F72 		.ascii	"short int\000"
 8311      7420696E 
 8311      7400
 8312              	.LASF175:
 8313 3781 68616E64 		.ascii	"handleValPair\000"
 8313      6C655661 
 8313      6C506169 
 8313      7200
 8314              	.LASF293:
 8315 378f 4359424C 		.ascii	"CYBLE_EVT_BMSS_WRITE_CHAR\000"
 8315      455F4556 
 8315      545F424D 
 8315      53535F57 
 8315      52495445 
 8316              	.LASF181:
 8317 37a9 61747447 		.ascii	"attGenericValLen\000"
 8317      656E6572 
 8317      69635661 
 8317      6C4C656E 
 8317      00
 8318              	.LASF183:
 8319 37ba 61747446 		.ascii	"attFormatValue\000"
 8319      6F726D61 
 8319      7456616C 
 8319      756500
 8320              	.LASF250:
 8321 37c9 4359424C 		.ascii	"CYBLE_EVT_AIOSC_WRITE_CHAR_RESPONSE\000"
 8321      455F4556 
 8321      545F4149 
 8321      4F53435F 
 8321      57524954 
 8322              	.LASF112:
 8323 37ed 4359424C 		.ascii	"CYBLE_ERROR_HARDWARE_FAILURE\000"
 8323      455F4552 
 8323      524F525F 
 8323      48415244 
 8323      57415245 
 8324              	.LASF144:
ARM GAS  C:\Windows\TEMP\cc5RoFpJ.s 			page 201


 8325 380a 4359424C 		.ascii	"CYBLE_GATT_ERR_CPS_INAPPROPRIATE_CONNECTION_PARAMET"
 8325      455F4741 
 8325      54545F45 
 8325      52525F43 
 8325      50535F49 
 8326 383d 45525300 		.ascii	"ERS\000"
 8327              	.LASF304:
 8328 3841 4359424C 		.ascii	"CYBLE_EVT_CGMSC_NOTIFICATION\000"
 8328      455F4556 
 8328      545F4347 
 8328      4D53435F 
 8328      4E4F5449 
 8329              	.LASF129:
 8330 385e 4359424C 		.ascii	"CYBLE_GATT_ERR_REQUEST_NOT_SUPPORTED\000"
 8330      455F4741 
 8330      54545F45 
 8330      52525F52 
 8330      45515545 
 8331              	.LASF48:
 8332 3883 4359424C 		.ascii	"CYBLE_EVT_GATTC_ERROR_RSP\000"
 8332      455F4556 
 8332      545F4741 
 8332      5454435F 
 8332      4552524F 
 8333              	.LASF355:
 8334 389d 4359424C 		.ascii	"CYBLE_EVT_ESSC_WRITE_CHAR_RESPONSE\000"
 8334      455F4556 
 8334      545F4553 
 8334      53435F57 
 8334      52495445 
 8335              	.LASF261:
 8336 38c0 4359424C 		.ascii	"CYBLE_EVT_ANCSC_ERROR_RESPONSE\000"
 8336      455F4556 
 8336      545F414E 
 8336      4353435F 
 8336      4552524F 
 8337              	.LASF275:
 8338 38df 4359424C 		.ascii	"CYBLE_EVT_BASC_WRITE_DESCR_RESPONSE\000"
 8338      455F4556 
 8338      545F4241 
 8338      53435F57 
 8338      52495445 
 8339              	.LASF229:
 8340 3903 4359424C 		.ascii	"CYBLE_EVT_GATTC_SRVC_DISCOVERY_FAILED\000"
 8340      455F4556 
 8340      545F4741 
 8340      5454435F 
 8340      53525643 
 8341              	.LASF358:
 8342 3929 4359424C 		.ascii	"CYBLE_EVT_GLSS_INDICATION_ENABLED\000"
 8342      455F4556 
 8342      545F474C 
 8342      53535F49 
 8342      4E444943 
 8343              	.LASF264:
 8344 394b 4359424C 		.ascii	"CYBLE_EVT_ANSS_CHAR_WRITE\000"
 8344      455F4556 
ARM GAS  C:\Windows\TEMP\cc5RoFpJ.s 			page 202


 8344      545F414E 
 8344      53535F43 
 8344      4841525F 
 8345              	.LASF76:
 8346 3965 4359424C 		.ascii	"CYBLE_EVT_L2CAP_CBFC_CONN_IND\000"
 8346      455F4556 
 8346      545F4C32 
 8346      4341505F 
 8346      43424643 
 8347              	.LASF64:
 8348 3983 4359424C 		.ascii	"CYBLE_EVT_GATTS_EXEC_WRITE_REQ\000"
 8348      455F4556 
 8348      545F4741 
 8348      5454535F 
 8348      45584543 
 8349              	.LASF24:
 8350 39a2 4359424C 		.ascii	"CYBLE_EVT_GAPC_SCAN_PROGRESS_RESULT\000"
 8350      455F4556 
 8350      545F4741 
 8350      50435F53 
 8350      43414E5F 
 8351              	.LASF387:
 8352 39c6 4359424C 		.ascii	"CYBLE_EVT_HPSC_READ_DESCR_RESPONSE\000"
 8352      455F4556 
 8352      545F4850 
 8352      53435F52 
 8352      4541445F 
 8353              	.LASF338:
 8354 39e9 4359424C 		.ascii	"CYBLE_EVT_CTSS_CHAR_WRITE\000"
 8354      455F4556 
 8354      545F4354 
 8354      53535F43 
 8354      4841525F 
 8355              	.LASF207:
 8356 3a03 4359424C 		.ascii	"CYBLE_AIOS_DESCR_INDEX_T\000"
 8356      455F4149 
 8356      4F535F44 
 8356      45534352 
 8356      5F494E44 
 8357              	.LASF480:
 8358 3a1c 4359424C 		.ascii	"CYBLE_EVT_UDSS_INDICATION_ENABLED\000"
 8358      455F4556 
 8358      545F5544 
 8358      53535F49 
 8358      4E444943 
 8359              	.LASF418:
 8360 3a3e 4359424C 		.ascii	"CYBLE_EVT_IPSC_READ_BLOB_RSP\000"
 8360      455F4556 
 8360      545F4950 
 8360      53435F52 
 8360      4541445F 
 8361              	.LASF162:
 8362 3a5b 4359424C 		.ascii	"CYBLE_GATT_ERR_CODE_T\000"
 8362      455F4741 
 8362      54545F45 
 8362      52525F43 
 8362      4F44455F 
ARM GAS  C:\Windows\TEMP\cc5RoFpJ.s 			page 203


 8363              	.LASF157:
 8364 3a71 4359424C 		.ascii	"CYBLE_GATT_ERR_ANCS_INVALID_PARAMETER\000"
 8364      455F4741 
 8364      54545F45 
 8364      52525F41 
 8364      4E43535F 
 8365              	.LASF98:
 8366 3a97 4359424C 		.ascii	"CYBLE_ERROR_GAP_ROLE\000"
 8366      455F4552 
 8366      524F525F 
 8366      4741505F 
 8366      524F4C45 
 8367              	.LASF400:
 8368 3aac 4359424C 		.ascii	"CYBLE_EVT_HTSS_INDICATION_ENABLED\000"
 8368      455F4556 
 8368      545F4854 
 8368      53535F49 
 8368      4E444943 
 8369              	.LASF491:
 8370 3ace 4359424C 		.ascii	"CYBLE_EVT_UDSC_READ_DESCR_RESPONSE\000"
 8370      455F4556 
 8370      545F5544 
 8370      53435F52 
 8370      4541445F 
 8371              	.LASF246:
 8372 3af1 4359424C 		.ascii	"CYBLE_EVT_AIOSS_DESCR_WRITE\000"
 8372      455F4556 
 8372      545F4149 
 8372      4F53535F 
 8372      44455343 
 8373              	.LASF45:
 8374 3b0d 4359424C 		.ascii	"CYBLE_EVT_GAP_SCAN_REQ_RECVD\000"
 8374      455F4556 
 8374      545F4741 
 8374      505F5343 
 8374      414E5F52 
 8375              	.LASF273:
 8376 3b2a 4359424C 		.ascii	"CYBLE_EVT_BASC_READ_CHAR_RESPONSE\000"
 8376      455F4556 
 8376      545F4241 
 8376      53435F52 
 8376      4541445F 
 8377              	.LASF365:
 8378 3b4c 4359424C 		.ascii	"CYBLE_EVT_GLSC_NOTIFICATION\000"
 8378      455F4556 
 8378      545F474C 
 8378      53435F4E 
 8378      4F544946 
 8379              	.LASF154:
 8380 3b68 4359424C 		.ascii	"CYBLE_GATT_ERR_ANS_COMMAND_NOT_SUPPORTED\000"
 8380      455F4741 
 8380      54545F45 
 8380      52525F41 
 8380      4E535F43 
 8381              	.LASF470:
 8382 3b91 4359424C 		.ascii	"CYBLE_EVT_SCPSS_SCAN_INT_WIN_CHAR_WRITE\000"
 8382      455F4556 
ARM GAS  C:\Windows\TEMP\cc5RoFpJ.s 			page 204


 8382      545F5343 
 8382      5053535F 
 8382      5343414E 
 8383              	.LASF566:
 8384 3bb9 6379426C 		.ascii	"cyBle_eventHandlerFlag\000"
 8384      655F6576 
 8384      656E7448 
 8384      616E646C 
 8384      6572466C 
 8385              	.LASF227:
 8386 3bd0 4359424C 		.ascii	"CYBLE_EVT_GATTS_INDICATION_DISABLED\000"
 8386      455F4556 
 8386      545F4741 
 8386      5454535F 
 8386      494E4449 
 8387              	.LASF95:
 8388 3bf4 4359424C 		.ascii	"CYBLE_ERROR_NO_CONNECTION\000"
 8388      455F4552 
 8388      524F525F 
 8388      4E4F5F43 
 8388      4F4E4E45 
 8389              	.LASF582:
 8390 3c0e 6D656D63 		.ascii	"memcpy\000"
 8390      707900
 8391              	.LASF296:
 8392 3c15 4359424C 		.ascii	"CYBLE_EVT_BMSC_READ_DESCR_RESPONSE\000"
 8392      455F4556 
 8392      545F424D 
 8392      53435F52 
 8392      4541445F 
 8393              	.LASF85:
 8394 3c38 4359424C 		.ascii	"CYBLE_EVT_LE_PING_AUTH_TIMEOUT\000"
 8394      455F4556 
 8394      545F4C45 
 8394      5F50494E 
 8394      475F4155 
 8395              	.LASF122:
 8396 3c57 4359424C 		.ascii	"CYBLE_API_RESULT_T\000"
 8396      455F4150 
 8396      495F5245 
 8396      53554C54 
 8396      5F5400
 8397              	.LASF298:
 8398 3c6a 4359424C 		.ascii	"CYBLE_EVT_CGMSS_INDICATION_DISABLED\000"
 8398      455F4556 
 8398      545F4347 
 8398      4D53535F 
 8398      494E4449 
 8399              	.LASF239:
 8400 3c8e 4359424C 		.ascii	"CYBLE_EVT_GATTC_DISCOVERY_COMPLETE\000"
 8400      455F4556 
 8400      545F4741 
 8400      5454435F 
 8400      44495343 
 8401              	.LASF302:
 8402 3cb1 4359424C 		.ascii	"CYBLE_EVT_CGMSS_WRITE_CHAR\000"
 8402      455F4556 
ARM GAS  C:\Windows\TEMP\cc5RoFpJ.s 			page 205


 8402      545F4347 
 8402      4D53535F 
 8402      57524954 
 8403              	.LASF369:
 8404 3ccc 4359424C 		.ascii	"CYBLE_EVT_GLSC_WRITE_DESCR_RESPONSE\000"
 8404      455F4556 
 8404      545F474C 
 8404      53435F57 
 8404      52495445 
 8405              	.LASF67:
 8406 3cf0 4359424C 		.ascii	"CYBLE_EVT_GATTC_HANDLE_VALUE_IND\000"
 8406      455F4556 
 8406      545F4741 
 8406      5454435F 
 8406      48414E44 
 8407              	.LASF323:
 8408 3d11 4359424C 		.ascii	"CYBLE_EVT_CPSC_SCAN_PROGRESS_RESULT\000"
 8408      455F4556 
 8408      545F4350 
 8408      53435F53 
 8408      43414E5F 
 8409              	.LASF464:
 8410 3d35 4359424C 		.ascii	"CYBLE_EVT_RSCSC_READ_DESCR_RESPONSE\000"
 8410      455F4556 
 8410      545F5253 
 8410      4353435F 
 8410      52454144 
 8411              	.LASF101:
 8412 3d59 4359424C 		.ascii	"CYBLE_ERROR_SEC_FAILED\000"
 8412      455F4552 
 8412      524F525F 
 8412      5345435F 
 8412      4641494C 
 8413              	.LASF22:
 8414 3d70 4359424C 		.ascii	"CYBLE_EVT_STACK_BUSY_STATUS\000"
 8414      455F4556 
 8414      545F5354 
 8414      41434B5F 
 8414      42555359 
 8415              	.LASF417:
 8416 3d8c 4359424C 		.ascii	"CYBLE_EVT_IPSC_ERROR_RESPONSE\000"
 8416      455F4556 
 8416      545F4950 
 8416      53435F45 
 8416      52524F52 
 8417              	.LASF409:
 8418 3daa 4359424C 		.ascii	"CYBLE_EVT_HTSC_WRITE_DESCR_RESPONSE\000"
 8418      455F4556 
 8418      545F4854 
 8418      53435F57 
 8418      52495445 
 8419              	.LASF36:
 8420 3dce 4359424C 		.ascii	"CYBLE_EVT_GAP_KEYINFO_EXCHNGE_CMPLT\000"
 8420      455F4556 
 8420      545F4741 
 8420      505F4B45 
 8420      59494E46 
ARM GAS  C:\Windows\TEMP\cc5RoFpJ.s 			page 206


 8421              	.LASF505:
 8422 3df2 4359424C 		.ascii	"CYBLE_EVT_WPTSC_WRITE_DESCR_RESPONSE\000"
 8422      455F4556 
 8422      545F5750 
 8422      5453435F 
 8422      57524954 
 8423              	.LASF556:
 8424 3e17 77724465 		.ascii	"wrDescrReqParam\000"
 8424      73637252 
 8424      65715061 
 8424      72616D00 
 8425              	.LASF73:
 8426 3e27 4359424C 		.ascii	"CYBLE_EVT_L2CAP_CONN_PARAM_UPDATE_REQ\000"
 8426      455F4556 
 8426      545F4C32 
 8426      4341505F 
 8426      434F4E4E 
 8427              	.LASF301:
 8428 3e4d 4359424C 		.ascii	"CYBLE_EVT_CGMSS_NOTIFICATION_DISABLED\000"
 8428      455F4556 
 8428      545F4347 
 8428      4D53535F 
 8428      4E4F5449 
 8429              	.LASF202:
 8430 3e73 4359424C 		.ascii	"CYBLE_AIOS_VALUE_TRIGGER_SETTINGS\000"
 8430      455F4149 
 8430      4F535F56 
 8430      414C5545 
 8430      5F545249 
 8431              	.LASF543:
 8432 3e95 6D696E44 		.ascii	"minDescriptionValue\000"
 8432      65736372 
 8432      69707469 
 8432      6F6E5661 
 8432      6C756500 
 8433              	.LASF533:
 8434 3ea9 4379426C 		.ascii	"CyBle_AiossConfirmationEventHandler\000"
 8434      655F4169 
 8434      6F737343 
 8434      6F6E6669 
 8434      726D6174 
 8435              	.LASF540:
 8436 3ecd 67617474 		.ascii	"gattErr\000"
 8436      45727200 
 8437              	.LASF230:
 8438 3ed5 4359424C 		.ascii	"CYBLE_EVT_GATTC_INCL_DISCOVERY_FAILED\000"
 8438      455F4556 
 8438      545F4741 
 8438      5454435F 
 8438      494E434C 
 8439              	.LASF126:
 8440 3efb 4359424C 		.ascii	"CYBLE_GATT_ERR_WRITE_NOT_PERMITTED\000"
 8440      455F4741 
 8440      54545F45 
 8440      52525F57 
 8440      52495445 
 8441              	.LASF3:
ARM GAS  C:\Windows\TEMP\cc5RoFpJ.s 			page 207


 8442 3f1e 73686F72 		.ascii	"short unsigned int\000"
 8442      7420756E 
 8442      7369676E 
 8442      65642069 
 8442      6E7400
 8443              	.LASF138:
 8444 3f31 4359424C 		.ascii	"CYBLE_GATT_ERR_INSUFFICIENT_ENCRYPTION\000"
 8444      455F4741 
 8444      54545F45 
 8444      52525F49 
 8444      4E535546 
 8445              	.LASF267:
 8446 3f58 4359424C 		.ascii	"CYBLE_EVT_ANSC_WRITE_CHAR_RESPONSE\000"
 8446      455F4556 
 8446      545F414E 
 8446      53435F57 
 8446      52495445 
 8447              	.LASF432:
 8448 3f7b 4359424C 		.ascii	"CYBLE_EVT_LNSC_READ_DESCR_RESPONSE\000"
 8448      455F4556 
 8448      545F4C4E 
 8448      53435F52 
 8448      4541445F 
 8449              	.LASF516:
 8450 3f9e 4359424C 		.ascii	"CYBLE_STATE_CONNECTED\000"
 8450      455F5354 
 8450      4154455F 
 8450      434F4E4E 
 8450      45435445 
 8451              	.LASF167:
 8452 3fb4 61637475 		.ascii	"actualLen\000"
 8452      616C4C65 
 8452      6E00
 8453              	.LASF531:
 8454 3fbe 696E6452 		.ascii	"indReqParam\000"
 8454      65715061 
 8454      72616D00 
 8455              	.LASF544:
 8456 3fca 6D696E44 		.ascii	"minDescriptionValueTmp\000"
 8456      65736372 
 8456      69707469 
 8456      6F6E5661 
 8456      6C756554 
 8457              	.LASF256:
 8458 3fe1 4359424C 		.ascii	"CYBLE_EVT_ANCSS_WRITE_CHAR\000"
 8458      455F4556 
 8458      545F414E 
 8458      4353535F 
 8458      57524954 
 8459              	.LASF364:
 8460 3ffc 4359424C 		.ascii	"CYBLE_EVT_GLSC_INDICATION\000"
 8460      455F4556 
 8460      545F474C 
 8460      53435F49 
 8460      4E444943 
 8461              	.LASF315:
 8462 4016 4359424C 		.ascii	"CYBLE_EVT_CPSS_BROADCAST_DISABLED\000"
ARM GAS  C:\Windows\TEMP\cc5RoFpJ.s 			page 208


 8462      455F4556 
 8462      545F4350 
 8462      53535F42 
 8462      524F4144 
 8463              	.LASF526:
 8464 4038 4379426C 		.ascii	"CyBle_AiossGetCharacteristicDescriptor\000"
 8464      655F4169 
 8464      6F737347 
 8464      65744368 
 8464      61726163 
 8465              	.LASF198:
 8466 405f 4359424C 		.ascii	"CYBLE_AIOS_CCCD\000"
 8466      455F4149 
 8466      4F535F43 
 8466      43434400 
 8467              	.LASF204:
 8468 406f 4359424C 		.ascii	"CYBLE_AIOS_VRD\000"
 8468      455F4149 
 8468      4F535F56 
 8468      524400
 8469              	.LASF165:
 8470 407e 61747449 		.ascii	"attId\000"
 8470      6400
 8471              	.LASF91:
 8472 4084 4359424C 		.ascii	"CYBLE_ERROR_INVALID_OPERATION\000"
 8472      455F4552 
 8472      524F525F 
 8472      494E5641 
 8472      4C49445F 
 8473              	.LASF21:
 8474 40a2 4359424C 		.ascii	"CYBLE_EVT_HCI_STATUS\000"
 8474      455F4556 
 8474      545F4843 
 8474      495F5354 
 8474      41545553 
 8475              	.LASF575:
 8476 40b7 4379426C 		.ascii	"CyBle_GattsNotification\000"
 8476      655F4761 
 8476      7474734E 
 8476      6F746966 
 8476      69636174 
 8477              	.LASF50:
 8478 40cf 4359424C 		.ascii	"CYBLE_EVT_GATT_DISCONNECT_IND\000"
 8478      455F4556 
 8478      545F4741 
 8478      54545F44 
 8478      4953434F 
 8479              	.LASF225:
 8480 40ed 4359424C 		.ascii	"CYBLE_KEY_EXCHANGE_INFO_REQUEST_REPLY\000"
 8480      455F4B45 
 8480      595F4558 
 8480      4348414E 
 8480      47455F49 
 8481              	.LASF83:
 8482 4113 4359424C 		.ascii	"CYBLE_EVT_L2CAP_CBFC_DATA_WRITE_IND\000"
 8482      455F4556 
 8482      545F4C32 
ARM GAS  C:\Windows\TEMP\cc5RoFpJ.s 			page 209


 8482      4341505F 
 8482      43424643 
 8483              	.LASF223:
 8484 4137 4359424C 		.ascii	"CYBLE_PASSKEY_ENTRY_REQUEST_REPLY\000"
 8484      455F5041 
 8484      53534B45 
 8484      595F454E 
 8484      5452595F 
 8485              	.LASF282:
 8486 4159 4359424C 		.ascii	"CYBLE_EVT_BCSC_WRITE_DESCR_RESPONSE\000"
 8486      455F4556 
 8486      545F4243 
 8486      53435F57 
 8486      52495445 
 8487              	.LASF206:
 8488 417d 4359424C 		.ascii	"CYBLE_AIOS_DESCR_COUNT\000"
 8488      455F4149 
 8488      4F535F44 
 8488      45534352 
 8488      5F434F55 
 8489              	.LASF510:
 8490 4194 4359424C 		.ascii	"CYBLE_EVT_WSSC_READ_CHAR_RESPONSE\000"
 8490      455F4556 
 8490      545F5753 
 8490      53435F52 
 8490      4541445F 
 8491              	.LASF580:
 8492 41b6 47656E65 		.ascii	"Generated_Source\\PSoC4\\BLE_1_aios.c\000"
 8492      72617465 
 8492      645F536F 
 8492      75726365 
 8492      5C50536F 
 8493              	.LASF72:
 8494 41da 4359424C 		.ascii	"CYBLE_EVT_GATTC_LONG_PROCEDURE_END\000"
 8494      455F4556 
 8494      545F4741 
 8494      5454435F 
 8494      4C4F4E47 
 8495              	.LASF265:
 8496 41fd 4359424C 		.ascii	"CYBLE_EVT_ANSC_NOTIFICATION\000"
 8496      455F4556 
 8496      545F414E 
 8496      53435F4E 
 8496      4F544946 
 8497              	.LASF32:
 8498 4219 4359424C 		.ascii	"CYBLE_EVT_GAP_DEVICE_DISCONNECTED\000"
 8498      455F4556 
 8498      545F4741 
 8498      505F4445 
 8498      56494345 
 8499              	.LASF372:
 8500 423b 4359424C 		.ascii	"CYBLE_EVT_HIDSS_BOOT_MODE_ENTER\000"
 8500      455F4556 
 8500      545F4849 
 8500      4453535F 
 8500      424F4F54 
 8501              	.LASF68:
ARM GAS  C:\Windows\TEMP\cc5RoFpJ.s 			page 210


 8502 425b 4359424C 		.ascii	"CYBLE_EVT_GATTS_HANDLE_VALUE_CNF\000"
 8502      455F4556 
 8502      545F4741 
 8502      5454535F 
 8502      48414E44 
 8503              	.LASF413:
 8504 427c 4359424C 		.ascii	"CYBLE_EVT_IPSC_READ_MULTIPLE_CHAR_RESPONSE\000"
 8504      455F4556 
 8504      545F4950 
 8504      53435F52 
 8504      4541445F 
 8505              	.LASF334:
 8506 42a7 4359424C 		.ascii	"CYBLE_EVT_CSCSC_READ_DESCR_RESPONSE\000"
 8506      455F4556 
 8506      545F4353 
 8506      4353435F 
 8506      52454144 
 8507              	.LASF10:
 8508 42cb 75696E74 		.ascii	"uint16\000"
 8508      313600
 8509              	.LASF258:
 8510 42d2 4359424C 		.ascii	"CYBLE_EVT_ANCSC_WRITE_CHAR_RESPONSE\000"
 8510      455F4556 
 8510      545F414E 
 8510      4353435F 
 8510      57524954 
 8511              	.LASF99:
 8512 42f6 4359424C 		.ascii	"CYBLE_ERROR_TX_POWER_READ\000"
 8512      455F4552 
 8512      524F525F 
 8512      54585F50 
 8512      4F574552 
 8513              	.LASF454:
 8514 4310 4359424C 		.ascii	"CYBLE_EVT_RSCSS_NOTIFICATION_ENABLED\000"
 8514      455F4556 
 8514      545F5253 
 8514      4353535F 
 8514      4E4F5449 
 8515              	.LASF263:
 8516 4335 4359424C 		.ascii	"CYBLE_EVT_ANSS_NOTIFICATION_DISABLED\000"
 8516      455F4556 
 8516      545F414E 
 8516      53535F4E 
 8516      4F544946 
 8517              	.LASF405:
 8518 435a 4359424C 		.ascii	"CYBLE_EVT_HTSC_INDICATION\000"
 8518      455F4556 
 8518      545F4854 
 8518      53435F49 
 8518      4E444943 
 8519              	.LASF370:
 8520 4374 4359424C 		.ascii	"CYBLE_EVT_HIDSS_NOTIFICATION_ENABLED\000"
 8520      455F4556 
 8520      545F4849 
 8520      4453535F 
 8520      4E4F5449 
 8521              	.LASF402:
ARM GAS  C:\Windows\TEMP\cc5RoFpJ.s 			page 211


 8522 4399 4359424C 		.ascii	"CYBLE_EVT_HTSS_INDICATION_CONFIRMED\000"
 8522      455F4556 
 8522      545F4854 
 8522      53535F49 
 8522      4E444943 
 8523              	.LASF241:
 8524 43bd 4359424C 		.ascii	"CYBLE_EVT_AIOSS_NOTIFICATION_DISABLED\000"
 8524      455F4556 
 8524      545F4149 
 8524      4F53535F 
 8524      4E4F5449 
 8525              	.LASF219:
 8526 43e3 4359424C 		.ascii	"CYBLE_AIOS_CHAR_VALUE_T\000"
 8526      455F4149 
 8526      4F535F43 
 8526      4841525F 
 8526      56414C55 
 8527              	.LASF498:
 8528 43fb 4359424C 		.ascii	"CYBLE_EVT_WPTSS_INDICATION_CONFIRMED\000"
 8528      455F4556 
 8528      545F5750 
 8528      5453535F 
 8528      494E4449 
 8529              	.LASF392:
 8530 4420 4359424C 		.ascii	"CYBLE_EVT_HRSS_NOTIFICATION_DISABLED\000"
 8530      455F4556 
 8530      545F4852 
 8530      53535F4E 
 8530      4F544946 
 8531              		.ident	"GCC: (GNU Tools for ARM Embedded Processors) 5.4.1 20160609 (release) [ARM/embedded-5-bran
