ARM GAS  C:\Windows\TEMP\cc5RoFpJ.s 			page 1


   1              		.syntax unified
   2              		.cpu cortex-m0
   3              		.fpu softvfp
   4              		.eabi_attribute 20, 1
   5              		.eabi_attribute 21, 1
   6              		.eabi_attribute 23, 3
   7              		.eabi_attribute 24, 1
   8              		.eabi_attribute 25, 1
   9              		.eabi_attribute 26, 1
  10              		.eabi_attribute 30, 1
  11              		.eabi_attribute 34, 0
  12              		.eabi_attribute 18, 4
  13              		.thumb
  14              		.syntax unified
  15              		.file	"BLE_1_aios.c"
  16              		.text
  17              	.Ltext0:
  18              		.cfi_sections	.debug_frame
  19              		.section	.text.CyBle_AiosRegisterAttrCallback,"ax",%progbits
  20              		.align	2
  21              		.global	CyBle_AiosRegisterAttrCallback
  22              		.code	16
  23              		.thumb_func
  24              		.type	CyBle_AiosRegisterAttrCallback, %function
  25              	CyBle_AiosRegisterAttrCallback:
  26              	.LFB3:
  27              		.file 1 "Generated_Source\\PSoC4\\BLE_1_aios.c"
   1:Generated_Source\PSoC4/BLE_1_aios.c **** /***************************************************************************//**
   2:Generated_Source\PSoC4/BLE_1_aios.c **** * \file CYBLE_aios.c
   3:Generated_Source\PSoC4/BLE_1_aios.c **** * \version 3.30
   4:Generated_Source\PSoC4/BLE_1_aios.c **** * 
   5:Generated_Source\PSoC4/BLE_1_aios.c **** * \brief
   6:Generated_Source\PSoC4/BLE_1_aios.c **** *  Contains the source code for Automation Input Output Service.
   7:Generated_Source\PSoC4/BLE_1_aios.c **** * 
   8:Generated_Source\PSoC4/BLE_1_aios.c **** ********************************************************************************
   9:Generated_Source\PSoC4/BLE_1_aios.c **** * \copyright
  10:Generated_Source\PSoC4/BLE_1_aios.c **** * Copyright 2016, Cypress Semiconductor Corporation.  All rights reserved.
  11:Generated_Source\PSoC4/BLE_1_aios.c **** * You may use this file only in accordance with the license, terms, conditions,
  12:Generated_Source\PSoC4/BLE_1_aios.c **** * disclaimers, and limitations in the end user license agreement accompanying
  13:Generated_Source\PSoC4/BLE_1_aios.c **** * the software package with which this file was provided.
  14:Generated_Source\PSoC4/BLE_1_aios.c **** *******************************************************************************/
  15:Generated_Source\PSoC4/BLE_1_aios.c **** 
  16:Generated_Source\PSoC4/BLE_1_aios.c **** #include "BLE_1_eventHandler.h"
  17:Generated_Source\PSoC4/BLE_1_aios.c **** #include "BLE_1_aios.h"
  18:Generated_Source\PSoC4/BLE_1_aios.c ****  
  19:Generated_Source\PSoC4/BLE_1_aios.c **** 
  20:Generated_Source\PSoC4/BLE_1_aios.c **** #ifdef CYBLE_AIOS_SERVER
  21:Generated_Source\PSoC4/BLE_1_aios.c **** /* Generated code */
  22:Generated_Source\PSoC4/BLE_1_aios.c **** /* Digital characteristic data */
  23:Generated_Source\PSoC4/BLE_1_aios.c **** static CYBLE_AIOSS_CHAR_T aiossCharIdx0[0x02u] = {
  24:Generated_Source\PSoC4/BLE_1_aios.c ****     {
  25:Generated_Source\PSoC4/BLE_1_aios.c ****         0x0010u, /* Handle of the Digital characteristic */ 
  26:Generated_Source\PSoC4/BLE_1_aios.c ****         
  27:Generated_Source\PSoC4/BLE_1_aios.c ****             /* Array of Descriptors handles */
  28:Generated_Source\PSoC4/BLE_1_aios.c ****             {
  29:Generated_Source\PSoC4/BLE_1_aios.c ****                 CYBLE_GATT_INVALID_ATTR_HANDLE_VALUE, /* Handle of the Client Characteristic Config
  30:Generated_Source\PSoC4/BLE_1_aios.c ****                 0x0011u, /* Handle of the Characteristic Presentation Format descriptor */ 
ARM GAS  C:\Windows\TEMP\cc5RoFpJ.s 			page 2


  31:Generated_Source\PSoC4/BLE_1_aios.c ****                 0x0012u, /* Handle of the Characteristic User Description descriptor */ 
  32:Generated_Source\PSoC4/BLE_1_aios.c ****                 CYBLE_GATT_INVALID_ATTR_HANDLE_VALUE, /* Handle of the Characteristic Extended Prop
  33:Generated_Source\PSoC4/BLE_1_aios.c ****                 0x0013u, /* Handle of the Value Trigger Setting descriptor */ 
  34:Generated_Source\PSoC4/BLE_1_aios.c ****                 0x0014u, /* Handle of the Time Trigger Setting descriptor */ 
  35:Generated_Source\PSoC4/BLE_1_aios.c ****                 0x0015u, /* Handle of the Number of Digitals descriptor */ 
  36:Generated_Source\PSoC4/BLE_1_aios.c ****             }, 
  37:Generated_Source\PSoC4/BLE_1_aios.c ****     },
  38:Generated_Source\PSoC4/BLE_1_aios.c ****     {
  39:Generated_Source\PSoC4/BLE_1_aios.c ****         0x0021u, /* Handle of the Digital 2 characteristic */ 
  40:Generated_Source\PSoC4/BLE_1_aios.c ****         
  41:Generated_Source\PSoC4/BLE_1_aios.c ****             /* Array of Descriptors handles */
  42:Generated_Source\PSoC4/BLE_1_aios.c ****             {
  43:Generated_Source\PSoC4/BLE_1_aios.c ****                 CYBLE_GATT_INVALID_ATTR_HANDLE_VALUE, /* Handle of the Client Characteristic Config
  44:Generated_Source\PSoC4/BLE_1_aios.c ****                 0x0022u, /* Handle of the Characteristic Presentation Format descriptor */ 
  45:Generated_Source\PSoC4/BLE_1_aios.c ****                 0x0023u, /* Handle of the Characteristic User Description descriptor */ 
  46:Generated_Source\PSoC4/BLE_1_aios.c ****                 CYBLE_GATT_INVALID_ATTR_HANDLE_VALUE, /* Handle of the Characteristic Extended Prop
  47:Generated_Source\PSoC4/BLE_1_aios.c ****                 0x0024u, /* Handle of the Value Trigger Setting descriptor */ 
  48:Generated_Source\PSoC4/BLE_1_aios.c ****                 0x0025u, /* Handle of the Time Trigger Setting descriptor */ 
  49:Generated_Source\PSoC4/BLE_1_aios.c ****                 0x0026u, /* Handle of the Number of Digitals descriptor */ 
  50:Generated_Source\PSoC4/BLE_1_aios.c ****             }, 
  51:Generated_Source\PSoC4/BLE_1_aios.c ****     },
  52:Generated_Source\PSoC4/BLE_1_aios.c **** };
  53:Generated_Source\PSoC4/BLE_1_aios.c **** 
  54:Generated_Source\PSoC4/BLE_1_aios.c **** /* Analog characteristic data */
  55:Generated_Source\PSoC4/BLE_1_aios.c **** static CYBLE_AIOSS_CHAR_T aiossCharIdx1[0x02u] = {
  56:Generated_Source\PSoC4/BLE_1_aios.c ****     {
  57:Generated_Source\PSoC4/BLE_1_aios.c ****         0x0017u, /* Handle of the Analog characteristic */ 
  58:Generated_Source\PSoC4/BLE_1_aios.c ****         
  59:Generated_Source\PSoC4/BLE_1_aios.c ****             /* Array of Descriptors handles */
  60:Generated_Source\PSoC4/BLE_1_aios.c ****             {
  61:Generated_Source\PSoC4/BLE_1_aios.c ****                 CYBLE_GATT_INVALID_ATTR_HANDLE_VALUE, /* Handle of the Client Characteristic Config
  62:Generated_Source\PSoC4/BLE_1_aios.c ****                 0x0018u, /* Handle of the Characteristic Presentation Format descriptor */ 
  63:Generated_Source\PSoC4/BLE_1_aios.c ****                 0x0019u, /* Handle of the Characteristic User Description descriptor */ 
  64:Generated_Source\PSoC4/BLE_1_aios.c ****                 CYBLE_GATT_INVALID_ATTR_HANDLE_VALUE, /* Handle of the Characteristic Extended Prop
  65:Generated_Source\PSoC4/BLE_1_aios.c ****                 0x001Au, /* Handle of the Value Trigger Setting descriptor */ 
  66:Generated_Source\PSoC4/BLE_1_aios.c ****                 0x001Bu, /* Handle of the Time Trigger Setting descriptor */ 
  67:Generated_Source\PSoC4/BLE_1_aios.c ****                 0x001Cu, /* Handle of the Valid Range descriptor */ 
  68:Generated_Source\PSoC4/BLE_1_aios.c ****             }, 
  69:Generated_Source\PSoC4/BLE_1_aios.c ****     },
  70:Generated_Source\PSoC4/BLE_1_aios.c ****     {
  71:Generated_Source\PSoC4/BLE_1_aios.c ****         0x0028u, /* Handle of the Analog 2 characteristic */ 
  72:Generated_Source\PSoC4/BLE_1_aios.c ****         
  73:Generated_Source\PSoC4/BLE_1_aios.c ****             /* Array of Descriptors handles */
  74:Generated_Source\PSoC4/BLE_1_aios.c ****             {
  75:Generated_Source\PSoC4/BLE_1_aios.c ****                 CYBLE_GATT_INVALID_ATTR_HANDLE_VALUE, /* Handle of the Client Characteristic Config
  76:Generated_Source\PSoC4/BLE_1_aios.c ****                 0x0029u, /* Handle of the Characteristic Presentation Format descriptor */ 
  77:Generated_Source\PSoC4/BLE_1_aios.c ****                 0x002Au, /* Handle of the Characteristic User Description descriptor */ 
  78:Generated_Source\PSoC4/BLE_1_aios.c ****                 CYBLE_GATT_INVALID_ATTR_HANDLE_VALUE, /* Handle of the Characteristic Extended Prop
  79:Generated_Source\PSoC4/BLE_1_aios.c ****                 0x002Bu, /* Handle of the Value Trigger Setting descriptor */ 
  80:Generated_Source\PSoC4/BLE_1_aios.c ****                 0x002Cu, /* Handle of the Time Trigger Setting descriptor */ 
  81:Generated_Source\PSoC4/BLE_1_aios.c ****                 0x002Du, /* Handle of the Valid Range descriptor */ 
  82:Generated_Source\PSoC4/BLE_1_aios.c ****             }, 
  83:Generated_Source\PSoC4/BLE_1_aios.c ****     },
  84:Generated_Source\PSoC4/BLE_1_aios.c **** };
  85:Generated_Source\PSoC4/BLE_1_aios.c **** 
  86:Generated_Source\PSoC4/BLE_1_aios.c **** /* Aggregate characteristic data */
  87:Generated_Source\PSoC4/BLE_1_aios.c **** static CYBLE_AIOSS_CHAR_T aiossCharIdx2[0x01u] = {
ARM GAS  C:\Windows\TEMP\cc5RoFpJ.s 			page 3


  88:Generated_Source\PSoC4/BLE_1_aios.c ****     {
  89:Generated_Source\PSoC4/BLE_1_aios.c ****         0x001Eu, /* Handle of the Aggregate characteristic */ 
  90:Generated_Source\PSoC4/BLE_1_aios.c ****         
  91:Generated_Source\PSoC4/BLE_1_aios.c ****             /* Array of Descriptors handles */
  92:Generated_Source\PSoC4/BLE_1_aios.c ****             {
  93:Generated_Source\PSoC4/BLE_1_aios.c ****                 0x001Fu, /* Handle of the Client Characteristic Configuration descriptor */ 
  94:Generated_Source\PSoC4/BLE_1_aios.c ****                 CYBLE_GATT_INVALID_ATTR_HANDLE_VALUE, 
  95:Generated_Source\PSoC4/BLE_1_aios.c ****                 CYBLE_GATT_INVALID_ATTR_HANDLE_VALUE, 
  96:Generated_Source\PSoC4/BLE_1_aios.c ****                 CYBLE_GATT_INVALID_ATTR_HANDLE_VALUE, 
  97:Generated_Source\PSoC4/BLE_1_aios.c ****                 CYBLE_GATT_INVALID_ATTR_HANDLE_VALUE, 
  98:Generated_Source\PSoC4/BLE_1_aios.c ****                 CYBLE_GATT_INVALID_ATTR_HANDLE_VALUE, 
  99:Generated_Source\PSoC4/BLE_1_aios.c ****                 CYBLE_GATT_INVALID_ATTR_HANDLE_VALUE, 
 100:Generated_Source\PSoC4/BLE_1_aios.c ****             }, 
 101:Generated_Source\PSoC4/BLE_1_aios.c ****     },
 102:Generated_Source\PSoC4/BLE_1_aios.c **** };
 103:Generated_Source\PSoC4/BLE_1_aios.c **** 
 104:Generated_Source\PSoC4/BLE_1_aios.c **** /* Number of AIOS characteristics instances */
 105:Generated_Source\PSoC4/BLE_1_aios.c **** uint8 cyBle_aiossCharInstances[0x03u] = {
 106:Generated_Source\PSoC4/BLE_1_aios.c ****     0x02u, 0x02u, 0x01u
 107:Generated_Source\PSoC4/BLE_1_aios.c **** };
 108:Generated_Source\PSoC4/BLE_1_aios.c **** 
 109:Generated_Source\PSoC4/BLE_1_aios.c **** const CYBLE_AIOSS_T cyBle_aioss =
 110:Generated_Source\PSoC4/BLE_1_aios.c **** {
 111:Generated_Source\PSoC4/BLE_1_aios.c ****     0x000Eu,    /* Handle of the AIOS service */
 112:Generated_Source\PSoC4/BLE_1_aios.c ****     {
 113:Generated_Source\PSoC4/BLE_1_aios.c ****         {
 114:Generated_Source\PSoC4/BLE_1_aios.c ****             &aiossCharIdx0[0], /* Handle of the Digital characteristic */ 
 115:Generated_Source\PSoC4/BLE_1_aios.c ****         }, 
 116:Generated_Source\PSoC4/BLE_1_aios.c ****         {
 117:Generated_Source\PSoC4/BLE_1_aios.c ****             &aiossCharIdx1[0], /* Handle of the Analog characteristic */ 
 118:Generated_Source\PSoC4/BLE_1_aios.c ****         }, 
 119:Generated_Source\PSoC4/BLE_1_aios.c ****         {
 120:Generated_Source\PSoC4/BLE_1_aios.c ****             &aiossCharIdx2[0], /* Handle of the Aggregate characteristic */ 
 121:Generated_Source\PSoC4/BLE_1_aios.c ****         }, 
 122:Generated_Source\PSoC4/BLE_1_aios.c ****     },
 123:Generated_Source\PSoC4/BLE_1_aios.c **** };
 124:Generated_Source\PSoC4/BLE_1_aios.c **** 
 125:Generated_Source\PSoC4/BLE_1_aios.c **** /* End of generated code */
 126:Generated_Source\PSoC4/BLE_1_aios.c ****     
 127:Generated_Source\PSoC4/BLE_1_aios.c **** static CYBLE_GATT_DB_ATTR_HANDLE_T cyBle_aiossReqHandle;
 128:Generated_Source\PSoC4/BLE_1_aios.c **** 
 129:Generated_Source\PSoC4/BLE_1_aios.c **** #endif /* CYBLE_AIOS_SERVER */
 130:Generated_Source\PSoC4/BLE_1_aios.c **** 
 131:Generated_Source\PSoC4/BLE_1_aios.c **** #ifdef CYBLE_AIOS_CLIENT
 132:Generated_Source\PSoC4/BLE_1_aios.c **** /* Generated code */
 133:Generated_Source\PSoC4/BLE_1_aios.c **** 
 134:Generated_Source\PSoC4/BLE_1_aios.c **** /* End of generated code */
 135:Generated_Source\PSoC4/BLE_1_aios.c **** 
 136:Generated_Source\PSoC4/BLE_1_aios.c **** static CYBLE_GATT_DB_ATTR_HANDLE_T cyBle_aioscReqHandle;
 137:Generated_Source\PSoC4/BLE_1_aios.c **** 
 138:Generated_Source\PSoC4/BLE_1_aios.c **** uint8 cyBle_aioscActiveCharIndex = 0u;
 139:Generated_Source\PSoC4/BLE_1_aios.c **** uint8 cyBle_aioscActiveCharInstance = 0u;
 140:Generated_Source\PSoC4/BLE_1_aios.c **** uint8 cyBle_aioscPrevCharInstIndex;
 141:Generated_Source\PSoC4/BLE_1_aios.c **** 
 142:Generated_Source\PSoC4/BLE_1_aios.c **** #endif /* (CYBLE_AIOS_CLIENT) */
 143:Generated_Source\PSoC4/BLE_1_aios.c **** 
 144:Generated_Source\PSoC4/BLE_1_aios.c **** static CYBLE_CALLBACK_T CyBle_AiosApplCallback = NULL;
ARM GAS  C:\Windows\TEMP\cc5RoFpJ.s 			page 4


 145:Generated_Source\PSoC4/BLE_1_aios.c **** 
 146:Generated_Source\PSoC4/BLE_1_aios.c **** /******************************************************************************
 147:Generated_Source\PSoC4/BLE_1_aios.c **** * Function Name: CyBle_AiosInit
 148:Generated_Source\PSoC4/BLE_1_aios.c **** ***************************************************************************//**
 149:Generated_Source\PSoC4/BLE_1_aios.c **** * 
 150:Generated_Source\PSoC4/BLE_1_aios.c **** *  This function initializes the Automation IO Service.
 151:Generated_Source\PSoC4/BLE_1_aios.c **** * 
 152:Generated_Source\PSoC4/BLE_1_aios.c **** ******************************************************************************/
 153:Generated_Source\PSoC4/BLE_1_aios.c **** void CyBle_AiosInit(void)
 154:Generated_Source\PSoC4/BLE_1_aios.c **** {
 155:Generated_Source\PSoC4/BLE_1_aios.c **** #ifdef CYBLE_AIOS_CLIENT
 156:Generated_Source\PSoC4/BLE_1_aios.c ****    
 157:Generated_Source\PSoC4/BLE_1_aios.c ****     uint8 i;
 158:Generated_Source\PSoC4/BLE_1_aios.c ****     uint8 j;
 159:Generated_Source\PSoC4/BLE_1_aios.c **** 
 160:Generated_Source\PSoC4/BLE_1_aios.c ****     cyBle_aioscActiveCharIndex = 0u;
 161:Generated_Source\PSoC4/BLE_1_aios.c ****     cyBle_aioscActiveCharInstance = 0u;
 162:Generated_Source\PSoC4/BLE_1_aios.c ****     cyBle_aioscPrevCharInstIndex = 0u;
 163:Generated_Source\PSoC4/BLE_1_aios.c **** 
 164:Generated_Source\PSoC4/BLE_1_aios.c ****     if(cyBle_serverInfo[CYBLE_SRVI_AIOS].range.startHandle == CYBLE_GATT_INVALID_ATTR_HANDLE_VALUE)
 165:Generated_Source\PSoC4/BLE_1_aios.c ****     {
 166:Generated_Source\PSoC4/BLE_1_aios.c ****         for(i = (uint8) CYBLE_AIOS_DIGITAL; (i < ((uint8) CYBLE_AIOS_CHAR_COUNT)); i++)
 167:Generated_Source\PSoC4/BLE_1_aios.c ****         {
 168:Generated_Source\PSoC4/BLE_1_aios.c ****             for(j = 0u; j < cyBle_aioscCharInstances[i]; j++)
 169:Generated_Source\PSoC4/BLE_1_aios.c ****             {
 170:Generated_Source\PSoC4/BLE_1_aios.c ****                 (void) memset(&cyBle_aiosc.charInfoAddr[i].charInfoPtr[j], 0, sizeof(CYBLE_AIOSC_CH
 171:Generated_Source\PSoC4/BLE_1_aios.c ****             }
 172:Generated_Source\PSoC4/BLE_1_aios.c ****         }
 173:Generated_Source\PSoC4/BLE_1_aios.c ****     }
 174:Generated_Source\PSoC4/BLE_1_aios.c ****     cyBle_aioscReqHandle = CYBLE_GATT_INVALID_ATTR_HANDLE_VALUE;
 175:Generated_Source\PSoC4/BLE_1_aios.c ****     
 176:Generated_Source\PSoC4/BLE_1_aios.c **** #endif /* CYBLE_AIOS_CLIENT */
 177:Generated_Source\PSoC4/BLE_1_aios.c **** 
 178:Generated_Source\PSoC4/BLE_1_aios.c **** #ifdef CYBLE_AIOS_SERVER
 179:Generated_Source\PSoC4/BLE_1_aios.c ****     (void)CyBle_AiosSetAggregateChar();
 180:Generated_Source\PSoC4/BLE_1_aios.c **** #endif /* CYBLE_AIOS_SERVER */
 181:Generated_Source\PSoC4/BLE_1_aios.c **** 
 182:Generated_Source\PSoC4/BLE_1_aios.c **** }
 183:Generated_Source\PSoC4/BLE_1_aios.c **** 
 184:Generated_Source\PSoC4/BLE_1_aios.c **** /******************************************************************************
 185:Generated_Source\PSoC4/BLE_1_aios.c **** * Function Name: CyBle_AiosRegisterAttrCallback
 186:Generated_Source\PSoC4/BLE_1_aios.c **** ***************************************************************************//**
 187:Generated_Source\PSoC4/BLE_1_aios.c **** * 
 188:Generated_Source\PSoC4/BLE_1_aios.c **** *  Registers a callback function for service specific attribute operations.
 189:Generated_Source\PSoC4/BLE_1_aios.c **** *  Service specific write requests from peer device will not be handled with
 190:Generated_Source\PSoC4/BLE_1_aios.c **** *  unregistered callback function.
 191:Generated_Source\PSoC4/BLE_1_aios.c **** * 
 192:Generated_Source\PSoC4/BLE_1_aios.c **** *  \param callbackFunc:  An application layer event callback function to receive
 193:Generated_Source\PSoC4/BLE_1_aios.c **** *                 events from the BLE Component. The definition of
 194:Generated_Source\PSoC4/BLE_1_aios.c **** *                 CYBLE_CALLBACK_T for AIOS Service is:\n
 195:Generated_Source\PSoC4/BLE_1_aios.c **** *                 typedef void (* CYBLE_CALLBACK_T) (uint32 eventCode,
 196:Generated_Source\PSoC4/BLE_1_aios.c **** *                                                    void *eventParam)
 197:Generated_Source\PSoC4/BLE_1_aios.c **** *                 * eventCode:  Indicates the event that triggered this callback
 198:Generated_Source\PSoC4/BLE_1_aios.c **** *                   (e.g. CYBLE_EVT_AIOS_NOTIFICATION_ENABLED).
 199:Generated_Source\PSoC4/BLE_1_aios.c **** *                 * eventParam: Contains the parameters corresponding to the
 200:Generated_Source\PSoC4/BLE_1_aios.c **** *                   current event. (e.g. Pointer to CYBLE_AIOS_CHAR_VALUE_T
 201:Generated_Source\PSoC4/BLE_1_aios.c **** *                   structure that contains details of the characteristic
ARM GAS  C:\Windows\TEMP\cc5RoFpJ.s 			page 5


 202:Generated_Source\PSoC4/BLE_1_aios.c **** *                   for which the notification enabled event was triggered).
 203:Generated_Source\PSoC4/BLE_1_aios.c **** * 
 204:Generated_Source\PSoC4/BLE_1_aios.c **** ******************************************************************************/
 205:Generated_Source\PSoC4/BLE_1_aios.c **** void CyBle_AiosRegisterAttrCallback(CYBLE_CALLBACK_T callbackFunc)
 206:Generated_Source\PSoC4/BLE_1_aios.c **** {
  28              		.loc 1 206 0
  29              		.cfi_startproc
  30              		@ args = 0, pretend = 0, frame = 0
  31              		@ frame_needed = 0, uses_anonymous_args = 0
  32              		@ link register save eliminated.
  33              	.LVL0:
 207:Generated_Source\PSoC4/BLE_1_aios.c ****     CyBle_AiosApplCallback = callbackFunc;
  34              		.loc 1 207 0
  35 0000 014B     		ldr	r3, .L2
  36 0002 1860     		str	r0, [r3]
 208:Generated_Source\PSoC4/BLE_1_aios.c ****     
 209:Generated_Source\PSoC4/BLE_1_aios.c **** }
  37              		.loc 1 209 0
  38              		@ sp needed
  39 0004 7047     		bx	lr
  40              	.L3:
  41 0006 C046     		.align	2
  42              	.L2:
  43 0008 00000000 		.word	.LANCHOR0
  44              		.cfi_endproc
  45              	.LFE3:
  46              		.size	CyBle_AiosRegisterAttrCallback, .-CyBle_AiosRegisterAttrCallback
  47              		.section	.text.CyBle_AiossGetCharacteristicValue,"ax",%progbits
  48              		.align	2
  49              		.global	CyBle_AiossGetCharacteristicValue
  50              		.code	16
  51              		.thumb_func
  52              		.type	CyBle_AiossGetCharacteristicValue, %function
  53              	CyBle_AiossGetCharacteristicValue:
  54              	.LFB6:
 210:Generated_Source\PSoC4/BLE_1_aios.c **** 
 211:Generated_Source\PSoC4/BLE_1_aios.c **** #ifdef CYBLE_AIOS_SERVER
 212:Generated_Source\PSoC4/BLE_1_aios.c **** 
 213:Generated_Source\PSoC4/BLE_1_aios.c **** /******************************************************************************
 214:Generated_Source\PSoC4/BLE_1_aios.c **** * Function Name: CyBle_AiossWriteEventHandler
 215:Generated_Source\PSoC4/BLE_1_aios.c **** ***************************************************************************//**
 216:Generated_Source\PSoC4/BLE_1_aios.c **** * 
 217:Generated_Source\PSoC4/BLE_1_aios.c **** *  Handles the Write Request Event.
 218:Generated_Source\PSoC4/BLE_1_aios.c **** * 
 219:Generated_Source\PSoC4/BLE_1_aios.c **** *  \param eventParam: The pointer to the data structure specified by the event.
 220:Generated_Source\PSoC4/BLE_1_aios.c **** * 
 221:Generated_Source\PSoC4/BLE_1_aios.c **** * \return
 222:Generated_Source\PSoC4/BLE_1_aios.c **** *  CYBLE_GATT_ERR_CODE_T - An API result state if the API succeeded
 223:Generated_Source\PSoC4/BLE_1_aios.c **** *  (CYBLE_GATT_ERR_NONE) or failed with error codes:
 224:Generated_Source\PSoC4/BLE_1_aios.c **** *   * CYBLE_GATTS_ERR_PROCEDURE_ALREADY_IN_PROGRESS - profile or service
 225:Generated_Source\PSoC4/BLE_1_aios.c **** *                           request cannot be serviced because an operation t
 226:Generated_Source\PSoC4/BLE_1_aios.c **** *                           hat has been previously triggered is still in progress.
 227:Generated_Source\PSoC4/BLE_1_aios.c **** *   * CYBLE_GATTS_ERR_CCCD_IMPROPERLY_CONFIGURED - Client Characteristic Configuration 
 228:Generated_Source\PSoC4/BLE_1_aios.c **** *                           descriptor is not configured according to the requirements
 229:Generated_Source\PSoC4/BLE_1_aios.c **** *                           of the profile or service.
 230:Generated_Source\PSoC4/BLE_1_aios.c **** * 
 231:Generated_Source\PSoC4/BLE_1_aios.c **** ******************************************************************************/
ARM GAS  C:\Windows\TEMP\cc5RoFpJ.s 			page 6


 232:Generated_Source\PSoC4/BLE_1_aios.c **** CYBLE_GATT_ERR_CODE_T CyBle_AiossWriteEventHandler(CYBLE_GATTS_WRITE_REQ_PARAM_T *eventParam)
 233:Generated_Source\PSoC4/BLE_1_aios.c **** {
 234:Generated_Source\PSoC4/BLE_1_aios.c ****     uint8 i;
 235:Generated_Source\PSoC4/BLE_1_aios.c ****     uint8 j;
 236:Generated_Source\PSoC4/BLE_1_aios.c ****     CYBLE_GATT_ERR_CODE_T gattErr = CYBLE_GATT_ERR_NONE;
 237:Generated_Source\PSoC4/BLE_1_aios.c ****     CYBLE_GATT_DB_ATTR_HANDLE_T tmpHandle;
 238:Generated_Source\PSoC4/BLE_1_aios.c ****     uint8 foundItem = CYBLE_AIOS_UNDEFINED_ITEM;
 239:Generated_Source\PSoC4/BLE_1_aios.c ****     CYBLE_AIOSS_CHAR_T *aiosCharInfoPtr;
 240:Generated_Source\PSoC4/BLE_1_aios.c ****     CYBLE_AIOS_DESCR_VALUE_T wrDescrReqParam;
 241:Generated_Source\PSoC4/BLE_1_aios.c ****     uint32 event = 0u;
 242:Generated_Source\PSoC4/BLE_1_aios.c ****     CYBLE_AIOS_CHAR_VALUE_T wrCharReqParam;
 243:Generated_Source\PSoC4/BLE_1_aios.c ****     uint8 descInd;
 244:Generated_Source\PSoC4/BLE_1_aios.c ****     
 245:Generated_Source\PSoC4/BLE_1_aios.c ****     tmpHandle = eventParam->handleValPair.attrHandle;
 246:Generated_Source\PSoC4/BLE_1_aios.c ****     
 247:Generated_Source\PSoC4/BLE_1_aios.c ****     if(CyBle_AiosApplCallback != NULL)
 248:Generated_Source\PSoC4/BLE_1_aios.c ****     {
 249:Generated_Source\PSoC4/BLE_1_aios.c ****         /* Go through all possible Service characteristics.
 250:Generated_Source\PSoC4/BLE_1_aios.c ****         * Exit the handler in following conditions:
 251:Generated_Source\PSoC4/BLE_1_aios.c ****         * 1) No more characteristic left;
 252:Generated_Source\PSoC4/BLE_1_aios.c ****         * 2) Characteristic or descriptor was successfully written;
 253:Generated_Source\PSoC4/BLE_1_aios.c ****         * 3) Error occurred while writing characteristic or descriptor.
 254:Generated_Source\PSoC4/BLE_1_aios.c ****         */
 255:Generated_Source\PSoC4/BLE_1_aios.c ****         for(i = 0u; ((i < ((uint8) CYBLE_AIOS_CHAR_COUNT)) && (foundItem == 0u) && (gattErr == CYBL
 256:Generated_Source\PSoC4/BLE_1_aios.c ****             i++)
 257:Generated_Source\PSoC4/BLE_1_aios.c ****         {
 258:Generated_Source\PSoC4/BLE_1_aios.c ****             /* Check if characteristic is enabled. If the pointer to the characteristic
 259:Generated_Source\PSoC4/BLE_1_aios.c ****             * is not "NULL", there is at least one instance of the characteristic in
 260:Generated_Source\PSoC4/BLE_1_aios.c ****             * the AIO Service.
 261:Generated_Source\PSoC4/BLE_1_aios.c ****             */
 262:Generated_Source\PSoC4/BLE_1_aios.c ****             
 263:Generated_Source\PSoC4/BLE_1_aios.c ****             if(cyBle_aioss.charInfoAddr[i].charInfoPtr != NULL)
 264:Generated_Source\PSoC4/BLE_1_aios.c ****             {   
 265:Generated_Source\PSoC4/BLE_1_aios.c ****                 for(j = 0u; j < cyBle_aiossCharInstances[i]; j++)
 266:Generated_Source\PSoC4/BLE_1_aios.c ****                 {
 267:Generated_Source\PSoC4/BLE_1_aios.c ****                     aiosCharInfoPtr = &cyBle_aioss.charInfoAddr[i].charInfoPtr[j];
 268:Generated_Source\PSoC4/BLE_1_aios.c ****                     
 269:Generated_Source\PSoC4/BLE_1_aios.c ****                     /* Client Characteristic Write Request handling */
 270:Generated_Source\PSoC4/BLE_1_aios.c ****                     if(tmpHandle == aiosCharInfoPtr->charHandle)
 271:Generated_Source\PSoC4/BLE_1_aios.c ****                     {
 272:Generated_Source\PSoC4/BLE_1_aios.c ****                         wrDescrReqParam.descrIndex = CYBLE_AIOS_DESCR_COUNT;
 273:Generated_Source\PSoC4/BLE_1_aios.c ****                         foundItem = CYBLE_AIOS_CHARACTERISTIC_ITEM;
 274:Generated_Source\PSoC4/BLE_1_aios.c ****                     }                
 275:Generated_Source\PSoC4/BLE_1_aios.c ****                     
 276:Generated_Source\PSoC4/BLE_1_aios.c ****                     /* Client Characteristic Descriptor Write Request handling */
 277:Generated_Source\PSoC4/BLE_1_aios.c ****                     else
 278:Generated_Source\PSoC4/BLE_1_aios.c ****                     {
 279:Generated_Source\PSoC4/BLE_1_aios.c ****                         /* No handle match was found */
 280:Generated_Source\PSoC4/BLE_1_aios.c ****                         wrDescrReqParam.descrIndex = CYBLE_AIOS_DESCR_COUNT;
 281:Generated_Source\PSoC4/BLE_1_aios.c ****                         
 282:Generated_Source\PSoC4/BLE_1_aios.c ****                         for(descInd = 0u; (descInd < (uint8)CYBLE_AIOS_DESCR_COUNT) && (foundItem !
 283:Generated_Source\PSoC4/BLE_1_aios.c ****                         {
 284:Generated_Source\PSoC4/BLE_1_aios.c **** 	                        if(aiosCharInfoPtr->descrHandle[descInd] == tmpHandle)
 285:Generated_Source\PSoC4/BLE_1_aios.c **** 	                        {
 286:Generated_Source\PSoC4/BLE_1_aios.c **** 		                        wrDescrReqParam.descrIndex = (CYBLE_AIOS_DESCR_INDEX_T)descInd;
 287:Generated_Source\PSoC4/BLE_1_aios.c **** 		                        foundItem = CYBLE_AIOS_DESCRIPTOR_ITEM;
 288:Generated_Source\PSoC4/BLE_1_aios.c **** 	                        }
ARM GAS  C:\Windows\TEMP\cc5RoFpJ.s 			page 7


 289:Generated_Source\PSoC4/BLE_1_aios.c ****                         }
 290:Generated_Source\PSoC4/BLE_1_aios.c ****                     }
 291:Generated_Source\PSoC4/BLE_1_aios.c ****                        
 292:Generated_Source\PSoC4/BLE_1_aios.c ****                     /* Verify if requested handle was found and successfully handled */
 293:Generated_Source\PSoC4/BLE_1_aios.c ****                     if((gattErr == CYBLE_GATT_ERR_NONE) && (foundItem == CYBLE_AIOS_DESCRIPTOR_ITEM
 294:Generated_Source\PSoC4/BLE_1_aios.c ****                     {
 295:Generated_Source\PSoC4/BLE_1_aios.c ****                         switch(wrDescrReqParam.descrIndex)
 296:Generated_Source\PSoC4/BLE_1_aios.c ****                         {
 297:Generated_Source\PSoC4/BLE_1_aios.c ****                         case CYBLE_AIOS_CCCD :
 298:Generated_Source\PSoC4/BLE_1_aios.c ****                              /* Verify that optional notification property is enabled for character
 299:Generated_Source\PSoC4/BLE_1_aios.c ****                             if(CYBLE_IS_NOTIFICATION_SUPPORTED(aiosCharInfoPtr->charHandle))
 300:Generated_Source\PSoC4/BLE_1_aios.c ****                             {
 301:Generated_Source\PSoC4/BLE_1_aios.c ****                                 if(CYBLE_IS_NOTIFICATION_ENABLED_IN_PTR(eventParam->handleValPair.v
 302:Generated_Source\PSoC4/BLE_1_aios.c ****                                 {
 303:Generated_Source\PSoC4/BLE_1_aios.c ****                                     event = (uint32)CYBLE_EVT_AIOSS_NOTIFICATION_ENABLED;
 304:Generated_Source\PSoC4/BLE_1_aios.c ****                                 }
 305:Generated_Source\PSoC4/BLE_1_aios.c ****                                 else
 306:Generated_Source\PSoC4/BLE_1_aios.c ****                                 {
 307:Generated_Source\PSoC4/BLE_1_aios.c ****                                     event = (uint32)CYBLE_EVT_AIOSS_NOTIFICATION_DISABLED;
 308:Generated_Source\PSoC4/BLE_1_aios.c ****                                 }
 309:Generated_Source\PSoC4/BLE_1_aios.c **** 
 310:Generated_Source\PSoC4/BLE_1_aios.c ****                             #if((CYBLE_GAP_ROLE_PERIPHERAL || CYBLE_GAP_ROLE_CENTRAL) && \
 311:Generated_Source\PSoC4/BLE_1_aios.c ****                                 (CYBLE_BONDING_REQUIREMENT == CYBLE_BONDING_YES))
 312:Generated_Source\PSoC4/BLE_1_aios.c ****                                 /* Set flag to store bonding data to flash */
 313:Generated_Source\PSoC4/BLE_1_aios.c ****                                 if(cyBle_peerBonding == CYBLE_GAP_BONDING)
 314:Generated_Source\PSoC4/BLE_1_aios.c ****                                 {
 315:Generated_Source\PSoC4/BLE_1_aios.c ****                                     cyBle_pendingFlashWrite |= CYBLE_PENDING_CCCD_FLASH_WRITE_BIT;
 316:Generated_Source\PSoC4/BLE_1_aios.c ****                                 }
 317:Generated_Source\PSoC4/BLE_1_aios.c ****                             #endif /* (CYBLE_BONDING_REQUIREMENT == CYBLE_BONDING_YES) */
 318:Generated_Source\PSoC4/BLE_1_aios.c ****                             }
 319:Generated_Source\PSoC4/BLE_1_aios.c ****                             else if(CYBLE_IS_INDICATION_SUPPORTED(aiosCharInfoPtr->charHandle))
 320:Generated_Source\PSoC4/BLE_1_aios.c ****                             {
 321:Generated_Source\PSoC4/BLE_1_aios.c ****                                 if(CYBLE_IS_INDICATION_ENABLED_IN_PTR(eventParam->handleValPair.val
 322:Generated_Source\PSoC4/BLE_1_aios.c ****                                 {
 323:Generated_Source\PSoC4/BLE_1_aios.c ****                                     event = (uint32)CYBLE_EVT_AIOSS_INDICATION_ENABLED;
 324:Generated_Source\PSoC4/BLE_1_aios.c ****                                 }
 325:Generated_Source\PSoC4/BLE_1_aios.c ****                                 else
 326:Generated_Source\PSoC4/BLE_1_aios.c ****                                 {
 327:Generated_Source\PSoC4/BLE_1_aios.c ****                                     event = (uint32)CYBLE_EVT_AIOSS_INDICATION_DISABLED;
 328:Generated_Source\PSoC4/BLE_1_aios.c ****                                 }
 329:Generated_Source\PSoC4/BLE_1_aios.c **** 
 330:Generated_Source\PSoC4/BLE_1_aios.c ****                             #if((CYBLE_GAP_ROLE_PERIPHERAL || CYBLE_GAP_ROLE_CENTRAL) && \
 331:Generated_Source\PSoC4/BLE_1_aios.c ****                                 (CYBLE_BONDING_REQUIREMENT == CYBLE_BONDING_YES))
 332:Generated_Source\PSoC4/BLE_1_aios.c ****                                 /* Set flag to store bonding data to flash */
 333:Generated_Source\PSoC4/BLE_1_aios.c ****                                 if(cyBle_peerBonding == CYBLE_GAP_BONDING)
 334:Generated_Source\PSoC4/BLE_1_aios.c ****                                 {
 335:Generated_Source\PSoC4/BLE_1_aios.c ****                                     cyBle_pendingFlashWrite |= CYBLE_PENDING_CCCD_FLASH_WRITE_BIT;
 336:Generated_Source\PSoC4/BLE_1_aios.c ****                                 }
 337:Generated_Source\PSoC4/BLE_1_aios.c ****                             #endif /* (CYBLE_BONDING_REQUIREMENT == CYBLE_BONDING_YES) */
 338:Generated_Source\PSoC4/BLE_1_aios.c ****                             }
 339:Generated_Source\PSoC4/BLE_1_aios.c ****                             else
 340:Generated_Source\PSoC4/BLE_1_aios.c ****                             {
 341:Generated_Source\PSoC4/BLE_1_aios.c ****                                 gattErr = CYBLE_GATT_ERR_REQUEST_NOT_SUPPORTED;
 342:Generated_Source\PSoC4/BLE_1_aios.c ****                             }
 343:Generated_Source\PSoC4/BLE_1_aios.c ****                             break;
 344:Generated_Source\PSoC4/BLE_1_aios.c ****                             
 345:Generated_Source\PSoC4/BLE_1_aios.c ****                         case CYBLE_AIOS_CHAR_USER_DESCRIPTION_DESCR:
ARM GAS  C:\Windows\TEMP\cc5RoFpJ.s 			page 8


 346:Generated_Source\PSoC4/BLE_1_aios.c ****                             if(CYBLE_GATT_DB_ATTR_GET_ATTR_GEN_MAX_LEN(
 347:Generated_Source\PSoC4/BLE_1_aios.c ****                                 aiosCharInfoPtr->descrHandle[CYBLE_AIOS_CHAR_USER_DESCRIPTION_DESCR
 348:Generated_Source\PSoC4/BLE_1_aios.c ****                                     eventParam->handleValPair.value.len)
 349:Generated_Source\PSoC4/BLE_1_aios.c ****                             {
 350:Generated_Source\PSoC4/BLE_1_aios.c ****                                 /* Set new length of the descriptor value */
 351:Generated_Source\PSoC4/BLE_1_aios.c ****                                 CYBLE_GATT_DB_ATTR_SET_ATTR_GEN_LEN(
 352:Generated_Source\PSoC4/BLE_1_aios.c ****                                     aiosCharInfoPtr->descrHandle[CYBLE_AIOS_CHAR_USER_DESCRIPTION_D
 353:Generated_Source\PSoC4/BLE_1_aios.c ****                                         eventParam->handleValPair.value.len);
 354:Generated_Source\PSoC4/BLE_1_aios.c ****                             }
 355:Generated_Source\PSoC4/BLE_1_aios.c ****                             else
 356:Generated_Source\PSoC4/BLE_1_aios.c ****                             {
 357:Generated_Source\PSoC4/BLE_1_aios.c ****                                 gattErr = CYBLE_GATT_ERR_INVALID_ATTRIBUTE_LEN;
 358:Generated_Source\PSoC4/BLE_1_aios.c ****                             }
 359:Generated_Source\PSoC4/BLE_1_aios.c ****                             break;
 360:Generated_Source\PSoC4/BLE_1_aios.c ****                         
 361:Generated_Source\PSoC4/BLE_1_aios.c ****                         case CYBLE_AIOS_VALUE_TRIGGER_SETTINGS:  
 362:Generated_Source\PSoC4/BLE_1_aios.c ****                             /* Trigger condition value not supported.*/
 363:Generated_Source\PSoC4/BLE_1_aios.c ****                             if( eventParam->handleValPair.value.val[0u] >= CYBLE_AIOS_VALUE_TRIGGER
 364:Generated_Source\PSoC4/BLE_1_aios.c ****                             {
 365:Generated_Source\PSoC4/BLE_1_aios.c ****                                 gattErr = CYBLE_GATT_ERR_TRIGGER_CODITION_VALUE_NOT_SUPPORTED;
 366:Generated_Source\PSoC4/BLE_1_aios.c ****                             }
 367:Generated_Source\PSoC4/BLE_1_aios.c ****                             break;
 368:Generated_Source\PSoC4/BLE_1_aios.c **** 
 369:Generated_Source\PSoC4/BLE_1_aios.c ****                         case CYBLE_AIOS_TIME_TRIGGER_SETTINGS:     
 370:Generated_Source\PSoC4/BLE_1_aios.c ****                             /* Trigger condition value not supported.*/
 371:Generated_Source\PSoC4/BLE_1_aios.c ****                             if( eventParam->handleValPair.value.val[0u] >= CYBLE_AIOS_TIME_TRIGGER_
 372:Generated_Source\PSoC4/BLE_1_aios.c ****                             {
 373:Generated_Source\PSoC4/BLE_1_aios.c ****                                 gattErr = CYBLE_GATT_ERR_TRIGGER_CODITION_VALUE_NOT_SUPPORTED;
 374:Generated_Source\PSoC4/BLE_1_aios.c ****                             }
 375:Generated_Source\PSoC4/BLE_1_aios.c ****                             break;
 376:Generated_Source\PSoC4/BLE_1_aios.c ****                             
 377:Generated_Source\PSoC4/BLE_1_aios.c ****                         default:
 378:Generated_Source\PSoC4/BLE_1_aios.c ****                             break;
 379:Generated_Source\PSoC4/BLE_1_aios.c ****                         }    
 380:Generated_Source\PSoC4/BLE_1_aios.c ****                     }                    
 381:Generated_Source\PSoC4/BLE_1_aios.c ****                     
 382:Generated_Source\PSoC4/BLE_1_aios.c ****                     /* Check is there no error conditions happen yet */
 383:Generated_Source\PSoC4/BLE_1_aios.c ****                     if((gattErr == CYBLE_GATT_ERR_NONE)
 384:Generated_Source\PSoC4/BLE_1_aios.c ****                     && ( (foundItem == CYBLE_AIOS_CHARACTERISTIC_ITEM) || (foundItem == CYBLE_AIOS_
 385:Generated_Source\PSoC4/BLE_1_aios.c ****                     {
 386:Generated_Source\PSoC4/BLE_1_aios.c ****                         gattErr = CyBle_GattDbCheckPermission(eventParam->handleValPair.attrHandle,
 387:Generated_Source\PSoC4/BLE_1_aios.c ****                                                               &eventParam->connHandle,
 388:Generated_Source\PSoC4/BLE_1_aios.c ****                                                               CYBLE_GATT_DB_WRITE | CYBLE_GATT_DB_P
 389:Generated_Source\PSoC4/BLE_1_aios.c ****                         
 390:Generated_Source\PSoC4/BLE_1_aios.c ****                         if(gattErr == CYBLE_GATT_ERR_NONE)
 391:Generated_Source\PSoC4/BLE_1_aios.c ****                         {
 392:Generated_Source\PSoC4/BLE_1_aios.c ****                             /* Fill data and pass it to user */
 393:Generated_Source\PSoC4/BLE_1_aios.c ****                                                           
 394:Generated_Source\PSoC4/BLE_1_aios.c ****                             if( foundItem == CYBLE_AIOS_CHARACTERISTIC_ITEM)
 395:Generated_Source\PSoC4/BLE_1_aios.c ****                             {
 396:Generated_Source\PSoC4/BLE_1_aios.c ****                                 wrCharReqParam.connHandle = eventParam->connHandle;
 397:Generated_Source\PSoC4/BLE_1_aios.c ****                                 wrCharReqParam.charIndex = (CYBLE_AIOS_CHAR_INDEX_T) i;
 398:Generated_Source\PSoC4/BLE_1_aios.c ****                                 wrCharReqParam.charInstance = j;
 399:Generated_Source\PSoC4/BLE_1_aios.c ****                                 wrCharReqParam.gattErrorCode = CYBLE_GATT_ERR_NONE;
 400:Generated_Source\PSoC4/BLE_1_aios.c ****                                 wrCharReqParam.value = &eventParam->handleValPair.value;
 401:Generated_Source\PSoC4/BLE_1_aios.c ****                             
 402:Generated_Source\PSoC4/BLE_1_aios.c ****                                 CyBle_AiosApplCallback(CYBLE_EVT_AIOSS_CHAR_WRITE, &wrCharReqParam)
ARM GAS  C:\Windows\TEMP\cc5RoFpJ.s 			page 9


 403:Generated_Source\PSoC4/BLE_1_aios.c ****                             }
 404:Generated_Source\PSoC4/BLE_1_aios.c ****                             else if (foundItem == CYBLE_AIOS_DESCRIPTOR_ITEM)
 405:Generated_Source\PSoC4/BLE_1_aios.c ****                             {
 406:Generated_Source\PSoC4/BLE_1_aios.c ****                                 wrDescrReqParam.connHandle = eventParam->connHandle;
 407:Generated_Source\PSoC4/BLE_1_aios.c ****                                 wrDescrReqParam.charIndex = (CYBLE_AIOS_CHAR_INDEX_T) i;
 408:Generated_Source\PSoC4/BLE_1_aios.c ****                                 wrDescrReqParam.charInstance = j;
 409:Generated_Source\PSoC4/BLE_1_aios.c ****                                 wrDescrReqParam.gattErrorCode = CYBLE_GATT_ERR_NONE;
 410:Generated_Source\PSoC4/BLE_1_aios.c ****                                 wrDescrReqParam.value = &eventParam->handleValPair.value;
 411:Generated_Source\PSoC4/BLE_1_aios.c ****                             
 412:Generated_Source\PSoC4/BLE_1_aios.c ****                                 CyBle_AiosApplCallback(CYBLE_EVT_AIOSS_DESCR_WRITE, &wrDescrReqPara
 413:Generated_Source\PSoC4/BLE_1_aios.c ****                             }
 414:Generated_Source\PSoC4/BLE_1_aios.c ****                             else 
 415:Generated_Source\PSoC4/BLE_1_aios.c ****                             {
 416:Generated_Source\PSoC4/BLE_1_aios.c ****                                 /* No handle match was found */
 417:Generated_Source\PSoC4/BLE_1_aios.c ****                             }
 418:Generated_Source\PSoC4/BLE_1_aios.c **** 
 419:Generated_Source\PSoC4/BLE_1_aios.c ****                             /* Write value to GATT database */
 420:Generated_Source\PSoC4/BLE_1_aios.c ****                             gattErr = CyBle_GattsWriteAttributeValue(&eventParam->handleValPair, 0u
 421:Generated_Source\PSoC4/BLE_1_aios.c ****                                 &eventParam->connHandle, CYBLE_GATT_DB_PEER_INITIATED);
 422:Generated_Source\PSoC4/BLE_1_aios.c ****                             
 423:Generated_Source\PSoC4/BLE_1_aios.c ****                             if( event != 0u )
 424:Generated_Source\PSoC4/BLE_1_aios.c ****                             {   
 425:Generated_Source\PSoC4/BLE_1_aios.c ****                                 CyBle_AiosApplCallback(event, &wrDescrReqParam);
 426:Generated_Source\PSoC4/BLE_1_aios.c ****                             }
 427:Generated_Source\PSoC4/BLE_1_aios.c ****                             else 
 428:Generated_Source\PSoC4/BLE_1_aios.c ****                             {
 429:Generated_Source\PSoC4/BLE_1_aios.c ****                                 /* No event was found */
 430:Generated_Source\PSoC4/BLE_1_aios.c ****                             }
 431:Generated_Source\PSoC4/BLE_1_aios.c ****                         }
 432:Generated_Source\PSoC4/BLE_1_aios.c ****                         cyBle_eventHandlerFlag &= (uint8)~CYBLE_CALLBACK;
 433:Generated_Source\PSoC4/BLE_1_aios.c ****                         break;
 434:Generated_Source\PSoC4/BLE_1_aios.c ****                     }
 435:Generated_Source\PSoC4/BLE_1_aios.c ****                 }
 436:Generated_Source\PSoC4/BLE_1_aios.c ****             }
 437:Generated_Source\PSoC4/BLE_1_aios.c ****         }
 438:Generated_Source\PSoC4/BLE_1_aios.c ****     }
 439:Generated_Source\PSoC4/BLE_1_aios.c **** 
 440:Generated_Source\PSoC4/BLE_1_aios.c ****     if(gattErr != CYBLE_GATT_ERR_NONE )
 441:Generated_Source\PSoC4/BLE_1_aios.c ****     {
 442:Generated_Source\PSoC4/BLE_1_aios.c ****         /* Indicate that request was handled */
 443:Generated_Source\PSoC4/BLE_1_aios.c ****         cyBle_eventHandlerFlag &= (uint8)~CYBLE_CALLBACK;
 444:Generated_Source\PSoC4/BLE_1_aios.c ****     }
 445:Generated_Source\PSoC4/BLE_1_aios.c ****     else
 446:Generated_Source\PSoC4/BLE_1_aios.c ****     {   
 447:Generated_Source\PSoC4/BLE_1_aios.c ****         if( foundItem == CYBLE_AIOS_CHARACTERISTIC_ITEM )
 448:Generated_Source\PSoC4/BLE_1_aios.c ****         {
 449:Generated_Source\PSoC4/BLE_1_aios.c ****             gattErr = CyBle_AiosSetAggregateChar();
 450:Generated_Source\PSoC4/BLE_1_aios.c ****         }
 451:Generated_Source\PSoC4/BLE_1_aios.c ****     }
 452:Generated_Source\PSoC4/BLE_1_aios.c ****     
 453:Generated_Source\PSoC4/BLE_1_aios.c ****     return (gattErr);
 454:Generated_Source\PSoC4/BLE_1_aios.c **** }
 455:Generated_Source\PSoC4/BLE_1_aios.c **** 
 456:Generated_Source\PSoC4/BLE_1_aios.c **** /******************************************************************************
 457:Generated_Source\PSoC4/BLE_1_aios.c **** * Function Name: CyBle_AiossSetCharacteristicValue
 458:Generated_Source\PSoC4/BLE_1_aios.c **** ***************************************************************************//**
 459:Generated_Source\PSoC4/BLE_1_aios.c **** * 
ARM GAS  C:\Windows\TEMP\cc5RoFpJ.s 			page 10


 460:Generated_Source\PSoC4/BLE_1_aios.c **** *  Sets the characteristic value of the service in the local database.
 461:Generated_Source\PSoC4/BLE_1_aios.c **** * 
 462:Generated_Source\PSoC4/BLE_1_aios.c **** *  \param charIndex: The index of the service characteristic. Starts with zero.
 463:Generated_Source\PSoC4/BLE_1_aios.c **** *  \param charInstance: The instance number of the characteristic specified by
 464:Generated_Source\PSoC4/BLE_1_aios.c **** *                "charIndex".
 465:Generated_Source\PSoC4/BLE_1_aios.c **** *  \param attrSize: The size (in bytes) of the characteristic value attribute.
 466:Generated_Source\PSoC4/BLE_1_aios.c **** *  \param attrValue: The pointer to the characteristic value data that should be
 467:Generated_Source\PSoC4/BLE_1_aios.c **** *             stored in the GATT database.
 468:Generated_Source\PSoC4/BLE_1_aios.c **** * 
 469:Generated_Source\PSoC4/BLE_1_aios.c **** * \return
 470:Generated_Source\PSoC4/BLE_1_aios.c **** *  A return value is of type CYBLE_API_RESULT_T.
 471:Generated_Source\PSoC4/BLE_1_aios.c **** *  * CYBLE_ERROR_OK - The request handled successfully.
 472:Generated_Source\PSoC4/BLE_1_aios.c **** *  * CYBLE_ERROR_INVALID_PARAMETER - Validation of the input parameter failed.
 473:Generated_Source\PSoC4/BLE_1_aios.c **** *  * CYBLE_ERROR_GATT_DB_INVALID_ATTR_HANDLE - An optional characteristic is
 474:Generated_Source\PSoC4/BLE_1_aios.c **** *                                               absent.
 475:Generated_Source\PSoC4/BLE_1_aios.c **** ******************************************************************************/
 476:Generated_Source\PSoC4/BLE_1_aios.c **** CYBLE_API_RESULT_T CyBle_AiossSetCharacteristicValue(CYBLE_AIOS_CHAR_INDEX_T charIndex,
 477:Generated_Source\PSoC4/BLE_1_aios.c ****     uint8 charInstance, uint8 attrSize, uint8 *attrValue)
 478:Generated_Source\PSoC4/BLE_1_aios.c **** {
 479:Generated_Source\PSoC4/BLE_1_aios.c ****     CYBLE_API_RESULT_T apiResult = CYBLE_ERROR_INVALID_PARAMETER;
 480:Generated_Source\PSoC4/BLE_1_aios.c **** 
 481:Generated_Source\PSoC4/BLE_1_aios.c ****     /* Validate range of AIOS characteristics */
 482:Generated_Source\PSoC4/BLE_1_aios.c ****     if((charIndex < CYBLE_AIOS_CHAR_COUNT) && (charInstance < cyBle_aiossCharInstances[charIndex]))
 483:Generated_Source\PSoC4/BLE_1_aios.c ****     {
 484:Generated_Source\PSoC4/BLE_1_aios.c ****         /* Check if requested characteristic is present in Service.
 485:Generated_Source\PSoC4/BLE_1_aios.c ****         * There are three conditions which should be checked: 1) The pointer to
 486:Generated_Source\PSoC4/BLE_1_aios.c ****         * "CYBLE_AIOS_CHAR_T" is not NULL, 2) The handle of the characteristic is
 487:Generated_Source\PSoC4/BLE_1_aios.c ****         * a valid handle, 3) The requested instance is a valid characteristic
 488:Generated_Source\PSoC4/BLE_1_aios.c ****         * instance.
 489:Generated_Source\PSoC4/BLE_1_aios.c ****         */
 490:Generated_Source\PSoC4/BLE_1_aios.c ****         if((cyBle_aioss.charInfoAddr[charIndex].charInfoPtr != NULL) &&
 491:Generated_Source\PSoC4/BLE_1_aios.c ****             (CYBLE_GATT_INVALID_ATTR_HANDLE_VALUE !=
 492:Generated_Source\PSoC4/BLE_1_aios.c ****                 cyBle_aioss.charInfoAddr[charIndex].charInfoPtr[charInstance].charHandle))
 493:Generated_Source\PSoC4/BLE_1_aios.c ****         {
 494:Generated_Source\PSoC4/BLE_1_aios.c ****             CYBLE_GATT_HANDLE_VALUE_PAIR_T locHandleValuePair;
 495:Generated_Source\PSoC4/BLE_1_aios.c **** 
 496:Generated_Source\PSoC4/BLE_1_aios.c ****             locHandleValuePair.attrHandle =
 497:Generated_Source\PSoC4/BLE_1_aios.c ****                 cyBle_aioss.charInfoAddr[charIndex].charInfoPtr[charInstance].charHandle;
 498:Generated_Source\PSoC4/BLE_1_aios.c ****             locHandleValuePair.value.len = attrSize;
 499:Generated_Source\PSoC4/BLE_1_aios.c ****             locHandleValuePair.value.val = attrValue;
 500:Generated_Source\PSoC4/BLE_1_aios.c **** 
 501:Generated_Source\PSoC4/BLE_1_aios.c ****             /* Store data in database */
 502:Generated_Source\PSoC4/BLE_1_aios.c ****             if(CyBle_GattsWriteAttributeValue(&locHandleValuePair, 0u, NULL, CYBLE_GATT_DB_LOCALLY_
 503:Generated_Source\PSoC4/BLE_1_aios.c ****                 CYBLE_GATT_ERR_NONE)
 504:Generated_Source\PSoC4/BLE_1_aios.c ****             {
 505:Generated_Source\PSoC4/BLE_1_aios.c ****                 apiResult = CYBLE_ERROR_OK;
 506:Generated_Source\PSoC4/BLE_1_aios.c ****             }
 507:Generated_Source\PSoC4/BLE_1_aios.c ****         }
 508:Generated_Source\PSoC4/BLE_1_aios.c ****         else
 509:Generated_Source\PSoC4/BLE_1_aios.c ****         {
 510:Generated_Source\PSoC4/BLE_1_aios.c ****             apiResult = CYBLE_ERROR_GATT_DB_INVALID_ATTR_HANDLE;
 511:Generated_Source\PSoC4/BLE_1_aios.c ****         }
 512:Generated_Source\PSoC4/BLE_1_aios.c ****     }
 513:Generated_Source\PSoC4/BLE_1_aios.c ****     
 514:Generated_Source\PSoC4/BLE_1_aios.c ****     if ( apiResult == CYBLE_ERROR_OK )
 515:Generated_Source\PSoC4/BLE_1_aios.c ****     {   
 516:Generated_Source\PSoC4/BLE_1_aios.c ****         if(CyBle_AiosSetAggregateChar() != CYBLE_GATT_ERR_NONE)
ARM GAS  C:\Windows\TEMP\cc5RoFpJ.s 			page 11


 517:Generated_Source\PSoC4/BLE_1_aios.c ****         {   
 518:Generated_Source\PSoC4/BLE_1_aios.c ****             apiResult = CYBLE_ERROR_GATT_DB_INVALID_ATTR_HANDLE;
 519:Generated_Source\PSoC4/BLE_1_aios.c ****         }
 520:Generated_Source\PSoC4/BLE_1_aios.c ****     }
 521:Generated_Source\PSoC4/BLE_1_aios.c ****     
 522:Generated_Source\PSoC4/BLE_1_aios.c ****     return (apiResult);
 523:Generated_Source\PSoC4/BLE_1_aios.c **** }
 524:Generated_Source\PSoC4/BLE_1_aios.c **** 
 525:Generated_Source\PSoC4/BLE_1_aios.c **** /******************************************************************************
 526:Generated_Source\PSoC4/BLE_1_aios.c **** * Function Name: CyBle_AiossGetCharacteristicValue
 527:Generated_Source\PSoC4/BLE_1_aios.c **** ***************************************************************************//**
 528:Generated_Source\PSoC4/BLE_1_aios.c **** * 
 529:Generated_Source\PSoC4/BLE_1_aios.c **** *  Gets the characteristic value of the service, which is a value identified by
 530:Generated_Source\PSoC4/BLE_1_aios.c **** *  charIndex.
 531:Generated_Source\PSoC4/BLE_1_aios.c **** * 
 532:Generated_Source\PSoC4/BLE_1_aios.c **** *  \param charIndex: The index of the service characteristic. Starts with zero.
 533:Generated_Source\PSoC4/BLE_1_aios.c **** *  \param charInstance: The instance number of the characteristic specified by
 534:Generated_Source\PSoC4/BLE_1_aios.c **** *                "charIndex".
 535:Generated_Source\PSoC4/BLE_1_aios.c **** *  \param attrSize: The size of the characteristic value attribute.
 536:Generated_Source\PSoC4/BLE_1_aios.c **** *  \param attrValue: The pointer to the location where characteristic value data
 537:Generated_Source\PSoC4/BLE_1_aios.c **** *             should be stored.
 538:Generated_Source\PSoC4/BLE_1_aios.c **** * 
 539:Generated_Source\PSoC4/BLE_1_aios.c **** * \return
 540:Generated_Source\PSoC4/BLE_1_aios.c **** *  A return value is of type CYBLE_API_RESULT_T.
 541:Generated_Source\PSoC4/BLE_1_aios.c **** *  * CYBLE_ERROR_OK - The request handled successfully
 542:Generated_Source\PSoC4/BLE_1_aios.c **** *  * CYBLE_ERROR_INVALID_PARAMETER - Validation of the input parameter failed
 543:Generated_Source\PSoC4/BLE_1_aios.c **** *  * CYBLE_ERROR_GATT_DB_INVALID_ATTR_HANDLE - An optional characteristic is
 544:Generated_Source\PSoC4/BLE_1_aios.c **** *                                               absent.
 545:Generated_Source\PSoC4/BLE_1_aios.c **** *
 546:Generated_Source\PSoC4/BLE_1_aios.c **** ******************************************************************************/
 547:Generated_Source\PSoC4/BLE_1_aios.c **** CYBLE_API_RESULT_T CyBle_AiossGetCharacteristicValue(CYBLE_AIOS_CHAR_INDEX_T charIndex, 
 548:Generated_Source\PSoC4/BLE_1_aios.c ****     uint8 charInstance, uint8 attrSize, uint8 *attrValue)
 549:Generated_Source\PSoC4/BLE_1_aios.c **** {
  55              		.loc 1 549 0
  56              		.cfi_startproc
  57              		@ args = 0, pretend = 0, frame = 16
  58              		@ frame_needed = 0, uses_anonymous_args = 0
  59              	.LVL1:
  60 0000 30B5     		push	{r4, r5, lr}
  61              		.cfi_def_cfa_offset 12
  62              		.cfi_offset 4, -12
  63              		.cfi_offset 5, -8
  64              		.cfi_offset 14, -4
  65 0002 85B0     		sub	sp, sp, #20
  66              		.cfi_def_cfa_offset 32
  67              	.LVL2:
 550:Generated_Source\PSoC4/BLE_1_aios.c ****      CYBLE_API_RESULT_T apiResult = CYBLE_ERROR_INVALID_PARAMETER;
 551:Generated_Source\PSoC4/BLE_1_aios.c **** 
 552:Generated_Source\PSoC4/BLE_1_aios.c ****     if((charIndex < CYBLE_AIOS_CHAR_COUNT) && (charInstance < cyBle_aiossCharInstances[charIndex]))
  68              		.loc 1 552 0
  69 0004 0228     		cmp	r0, #2
  70 0006 25D8     		bhi	.L7
  71              		.loc 1 552 0 is_stmt 0 discriminator 1
  72 0008 174C     		ldr	r4, .L12
  73 000a 245C     		ldrb	r4, [r4, r0]
  74 000c 8C42     		cmp	r4, r1
  75 000e 23D9     		bls	.L8
ARM GAS  C:\Windows\TEMP\cc5RoFpJ.s 			page 12


 553:Generated_Source\PSoC4/BLE_1_aios.c ****     {
 554:Generated_Source\PSoC4/BLE_1_aios.c ****         /* Check if requested characteristic is present in Service. There are three
 555:Generated_Source\PSoC4/BLE_1_aios.c ****         * conditions to be checked: 1) The pointer to "CYBLE_AIOSS_CHAR_T" record in
 556:Generated_Source\PSoC4/BLE_1_aios.c ****         * the cyBle_aioss struct is not NULL, 2) The handle of the characteristic is a 
 557:Generated_Source\PSoC4/BLE_1_aios.c ****         * valid handle, 3) The requested instance is a valid characteristic instance.
 558:Generated_Source\PSoC4/BLE_1_aios.c ****         */
 559:Generated_Source\PSoC4/BLE_1_aios.c ****         if((cyBle_aioss.charInfoAddr[charIndex].charInfoPtr != NULL) &&
  76              		.loc 1 559 0 is_stmt 1
  77 0010 8000     		lsls	r0, r0, #2
  78              	.LVL3:
  79 0012 164C     		ldr	r4, .L12+4
  80 0014 2018     		adds	r0, r4, r0
  81 0016 4468     		ldr	r4, [r0, #4]
  82 0018 002C     		cmp	r4, #0
  83 001a 1FD0     		beq	.L9
 560:Generated_Source\PSoC4/BLE_1_aios.c ****             (cyBle_aioss.charInfoAddr[charIndex].charInfoPtr[charInstance].charHandle != CYBLE_GATT
  84              		.loc 1 560 0 discriminator 1
  85 001c 0901     		lsls	r1, r1, #4
  86              	.LVL4:
  87 001e 6418     		adds	r4, r4, r1
  88 0020 2188     		ldrh	r1, [r4]
 559:Generated_Source\PSoC4/BLE_1_aios.c ****             (cyBle_aioss.charInfoAddr[charIndex].charInfoPtr[charInstance].charHandle != CYBLE_GATT
  89              		.loc 1 559 0 discriminator 1
  90 0022 0029     		cmp	r1, #0
  91 0024 1CD0     		beq	.L10
  92              	.LBB2:
 561:Generated_Source\PSoC4/BLE_1_aios.c ****         {
 562:Generated_Source\PSoC4/BLE_1_aios.c ****             CYBLE_GATT_HANDLE_VALUE_PAIR_T locHandleValuePair;
 563:Generated_Source\PSoC4/BLE_1_aios.c **** 
 564:Generated_Source\PSoC4/BLE_1_aios.c ****             locHandleValuePair.attrHandle = cyBle_aioss.charInfoAddr[charIndex].charInfoPtr[charIns
  93              		.loc 1 564 0
  94 0026 01A8     		add	r0, sp, #4
  95 0028 0181     		strh	r1, [r0, #8]
 565:Generated_Source\PSoC4/BLE_1_aios.c ****             locHandleValuePair.value.len = attrSize;
  96              		.loc 1 565 0
  97 002a 95B2     		uxth	r5, r2
  98 002c 8580     		strh	r5, [r0, #4]
 566:Generated_Source\PSoC4/BLE_1_aios.c ****             locHandleValuePair.value.val = attrValue;
  99              		.loc 1 566 0
 100 002e 0193     		str	r3, [sp, #4]
 567:Generated_Source\PSoC4/BLE_1_aios.c **** 
 568:Generated_Source\PSoC4/BLE_1_aios.c ****             /* Read characteristic value from database */
 569:Generated_Source\PSoC4/BLE_1_aios.c ****             if(CyBle_GattsReadAttributeValue(&locHandleValuePair, NULL, CYBLE_GATT_DB_LOCALLY_INITI
 101              		.loc 1 569 0
 102 0030 0022     		movs	r2, #0
 103              	.LVL5:
 104 0032 0021     		movs	r1, #0
 105 0034 FFF7FEFF 		bl	CyBle_GattsReadAttributeValue
 106              	.LVL6:
 107 0038 0028     		cmp	r0, #0
 108 003a 09D1     		bne	.L11
 109              	.LVL7:
 570:Generated_Source\PSoC4/BLE_1_aios.c ****                 CYBLE_GATT_ERR_NONE)
 571:Generated_Source\PSoC4/BLE_1_aios.c ****             {
 572:Generated_Source\PSoC4/BLE_1_aios.c ****                 apiResult = CYBLE_ERROR_OK;
 573:Generated_Source\PSoC4/BLE_1_aios.c ****                 
 574:Generated_Source\PSoC4/BLE_1_aios.c ****             /* Set new length of the descriptor value */
ARM GAS  C:\Windows\TEMP\cc5RoFpJ.s 			page 13


 575:Generated_Source\PSoC4/BLE_1_aios.c ****             CYBLE_GATT_DB_ATTR_SET_ATTR_GEN_LEN(cyBle_aioss.charInfoAddr[charIndex].charInfoPtr[cha
 110              		.loc 1 575 0
 111 003c 2388     		ldrh	r3, [r4]
 112 003e 013B     		subs	r3, r3, #1
 113 0040 9A00     		lsls	r2, r3, #2
 114 0042 D318     		adds	r3, r2, r3
 115 0044 9A00     		lsls	r2, r3, #2
 116 0046 0A4B     		ldr	r3, .L12+8
 117 0048 9A18     		adds	r2, r3, r2
 118 004a 1369     		ldr	r3, [r2, #16]
 119 004c 1D80     		strh	r5, [r3]
 120 004e 08E0     		b	.L5
 121              	.LVL8:
 122              	.L11:
 123              	.LBE2:
 550:Generated_Source\PSoC4/BLE_1_aios.c **** 
 124              		.loc 1 550 0
 125 0050 0120     		movs	r0, #1
 561:Generated_Source\PSoC4/BLE_1_aios.c ****             CYBLE_GATT_HANDLE_VALUE_PAIR_T locHandleValuePair;
 126              		.loc 1 561 0
 127 0052 06E0     		b	.L5
 128              	.LVL9:
 129              	.L7:
 550:Generated_Source\PSoC4/BLE_1_aios.c **** 
 130              		.loc 1 550 0
 131 0054 0120     		movs	r0, #1
 132              	.LVL10:
 133 0056 04E0     		b	.L5
 134              	.LVL11:
 135              	.L8:
 136 0058 0120     		movs	r0, #1
 137              	.LVL12:
 138 005a 02E0     		b	.L5
 139              	.L9:
 576:Generated_Source\PSoC4/BLE_1_aios.c ****                                                 attrSize);
 577:Generated_Source\PSoC4/BLE_1_aios.c ****             }
 578:Generated_Source\PSoC4/BLE_1_aios.c ****         }
 579:Generated_Source\PSoC4/BLE_1_aios.c ****         else
 580:Generated_Source\PSoC4/BLE_1_aios.c ****         {
 581:Generated_Source\PSoC4/BLE_1_aios.c ****             apiResult = CYBLE_ERROR_GATT_DB_INVALID_ATTR_HANDLE;
 140              		.loc 1 581 0
 141 005c 1320     		movs	r0, #19
 142 005e 00E0     		b	.L5
 143              	.LVL13:
 144              	.L10:
 145 0060 1320     		movs	r0, #19
 146              	.LVL14:
 147              	.L5:
 582:Generated_Source\PSoC4/BLE_1_aios.c ****         }
 583:Generated_Source\PSoC4/BLE_1_aios.c ****     }
 584:Generated_Source\PSoC4/BLE_1_aios.c **** 
 585:Generated_Source\PSoC4/BLE_1_aios.c ****     return (apiResult);
 586:Generated_Source\PSoC4/BLE_1_aios.c ****     
 587:Generated_Source\PSoC4/BLE_1_aios.c **** }
 148              		.loc 1 587 0
 149 0062 05B0     		add	sp, sp, #20
 150              		@ sp needed
ARM GAS  C:\Windows\TEMP\cc5RoFpJ.s 			page 14


 151 0064 30BD     		pop	{r4, r5, pc}
 152              	.L13:
 153 0066 C046     		.align	2
 154              	.L12:
 155 0068 00000000 		.word	.LANCHOR1
 156 006c 00000000 		.word	.LANCHOR2
 157 0070 00000000 		.word	cyBle_gattDB
 158              		.cfi_endproc
 159              	.LFE6:
 160              		.size	CyBle_AiossGetCharacteristicValue, .-CyBle_AiossGetCharacteristicValue
 161              		.section	.text.CyBle_AiossGetCharacteristicDescriptor,"ax",%progbits
 162              		.align	2
 163              		.global	CyBle_AiossGetCharacteristicDescriptor
 164              		.code	16
 165              		.thumb_func
 166              		.type	CyBle_AiossGetCharacteristicDescriptor, %function
 167              	CyBle_AiossGetCharacteristicDescriptor:
 168              	.LFB7:
 588:Generated_Source\PSoC4/BLE_1_aios.c **** 
 589:Generated_Source\PSoC4/BLE_1_aios.c **** /******************************************************************************
 590:Generated_Source\PSoC4/BLE_1_aios.c **** * Function Name: CyBle_AiossGetCharacteristicDescriptor
 591:Generated_Source\PSoC4/BLE_1_aios.c **** ***************************************************************************//**
 592:Generated_Source\PSoC4/BLE_1_aios.c **** * 
 593:Generated_Source\PSoC4/BLE_1_aios.c **** *  Gets a characteristic descriptor of a specified characteristic of the
 594:Generated_Source\PSoC4/BLE_1_aios.c **** *  Automation Input Outtput Service from the local GATT database.
 595:Generated_Source\PSoC4/BLE_1_aios.c **** * 
 596:Generated_Source\PSoC4/BLE_1_aios.c **** *  \param charIndex: The index of the characteristic.
 597:Generated_Source\PSoC4/BLE_1_aios.c **** *  \param charInstance: The instance number of the characteristic specified by
 598:Generated_Source\PSoC4/BLE_1_aios.c **** *                "charIndex".
 599:Generated_Source\PSoC4/BLE_1_aios.c **** *  \param descrIndex: The index of the characteristic descriptor.
 600:Generated_Source\PSoC4/BLE_1_aios.c **** *  \param attrSize: The size of the characteristic descriptor attribute.
 601:Generated_Source\PSoC4/BLE_1_aios.c **** *  \param attrValue: The pointer to the location where characteristic descriptor 
 602:Generated_Source\PSoC4/BLE_1_aios.c **** *               value data should be stored.
 603:Generated_Source\PSoC4/BLE_1_aios.c **** * 
 604:Generated_Source\PSoC4/BLE_1_aios.c **** * \return
 605:Generated_Source\PSoC4/BLE_1_aios.c **** *  Return value is of type CYBLE_API_RESULT_T.
 606:Generated_Source\PSoC4/BLE_1_aios.c **** *  * CYBLE_ERROR_OK - The request handled successfully
 607:Generated_Source\PSoC4/BLE_1_aios.c **** *  * CYBLE_ERROR_INVALID_PARAMETER - Validation of the input parameter failed
 608:Generated_Source\PSoC4/BLE_1_aios.c **** *  * CYBLE_ERROR_GATT_DB_INVALID_ATTR_HANDLE - Optional descriptor is absent
 609:Generated_Source\PSoC4/BLE_1_aios.c **** *
 610:Generated_Source\PSoC4/BLE_1_aios.c **** ******************************************************************************/
 611:Generated_Source\PSoC4/BLE_1_aios.c **** CYBLE_API_RESULT_T CyBle_AiossGetCharacteristicDescriptor(CYBLE_AIOS_CHAR_INDEX_T charIndex, 
 612:Generated_Source\PSoC4/BLE_1_aios.c ****      uint8 charInstance, CYBLE_AIOS_DESCR_INDEX_T descrIndex, uint8 attrSize, uint8 *attrValue)
 613:Generated_Source\PSoC4/BLE_1_aios.c **** {
 169              		.loc 1 613 0
 170              		.cfi_startproc
 171              		@ args = 4, pretend = 0, frame = 16
 172              		@ frame_needed = 0, uses_anonymous_args = 0
 173              	.LVL15:
 174 0000 70B5     		push	{r4, r5, r6, lr}
 175              		.cfi_def_cfa_offset 16
 176              		.cfi_offset 4, -16
 177              		.cfi_offset 5, -12
 178              		.cfi_offset 6, -8
 179              		.cfi_offset 14, -4
 180 0002 84B0     		sub	sp, sp, #16
 181              		.cfi_def_cfa_offset 32
ARM GAS  C:\Windows\TEMP\cc5RoFpJ.s 			page 15


 182 0004 1400     		movs	r4, r2
 183              	.LVL16:
 614:Generated_Source\PSoC4/BLE_1_aios.c ****     
 615:Generated_Source\PSoC4/BLE_1_aios.c ****      CYBLE_API_RESULT_T apiResult = CYBLE_ERROR_INVALID_PARAMETER;
 616:Generated_Source\PSoC4/BLE_1_aios.c **** 
 617:Generated_Source\PSoC4/BLE_1_aios.c ****     if((charIndex < CYBLE_AIOS_CHAR_COUNT) && (charInstance < cyBle_aiossCharInstances[charIndex]) 
 184              		.loc 1 617 0
 185 0006 0228     		cmp	r0, #2
 186 0008 2FD8     		bhi	.L17
 187              		.loc 1 617 0 is_stmt 0 discriminator 1
 188 000a 1E4A     		ldr	r2, .L24
 189              	.LVL17:
 190 000c 125C     		ldrb	r2, [r2, r0]
 191 000e 8A42     		cmp	r2, r1
 192 0010 2DD9     		bls	.L18
 193              		.loc 1 617 0 discriminator 2
 194 0012 062C     		cmp	r4, #6
 195 0014 2DD8     		bhi	.L19
 618:Generated_Source\PSoC4/BLE_1_aios.c ****         (descrIndex < CYBLE_AIOS_DESCR_COUNT ))
 619:Generated_Source\PSoC4/BLE_1_aios.c ****     {
 620:Generated_Source\PSoC4/BLE_1_aios.c ****         /* Check if requested descriptor is present in Service.
 621:Generated_Source\PSoC4/BLE_1_aios.c ****         * There are three conditions to be checked: 1) The pointer to
 622:Generated_Source\PSoC4/BLE_1_aios.c ****         * "CYBLE_AiosS_CHAR_T" is not NULL, 2) The handle of the characteristic is
 623:Generated_Source\PSoC4/BLE_1_aios.c ****         * a valid handle, 3) The handle of the descriptor is a valid handle.
 624:Generated_Source\PSoC4/BLE_1_aios.c ****         */
 625:Generated_Source\PSoC4/BLE_1_aios.c ****         if((cyBle_aioss.charInfoAddr[charIndex].charInfoPtr != NULL) &&
 196              		.loc 1 625 0 is_stmt 1
 197 0016 8000     		lsls	r0, r0, #2
 198              	.LVL18:
 199 0018 1B4A     		ldr	r2, .L24+4
 200 001a 1018     		adds	r0, r2, r0
 201 001c 4568     		ldr	r5, [r0, #4]
 202 001e 002D     		cmp	r5, #0
 203 0020 29D0     		beq	.L20
 626:Generated_Source\PSoC4/BLE_1_aios.c ****             (cyBle_aioss.charInfoAddr[charIndex].charInfoPtr[charInstance].charHandle != CYBLE_GATT
 204              		.loc 1 626 0 discriminator 1
 205 0022 0901     		lsls	r1, r1, #4
 206              	.LVL19:
 207 0024 6D18     		adds	r5, r5, r1
 208 0026 2A88     		ldrh	r2, [r5]
 625:Generated_Source\PSoC4/BLE_1_aios.c ****             (cyBle_aioss.charInfoAddr[charIndex].charInfoPtr[charInstance].charHandle != CYBLE_GATT
 209              		.loc 1 625 0 discriminator 1
 210 0028 002A     		cmp	r2, #0
 211 002a 26D0     		beq	.L21
 627:Generated_Source\PSoC4/BLE_1_aios.c ****                     (cyBle_aioss.charInfoAddr[charIndex].charInfoPtr[charInstance].descrHandle[desc
 212              		.loc 1 627 0
 213 002c 6200     		lsls	r2, r4, #1
 214 002e AA18     		adds	r2, r5, r2
 215 0030 5288     		ldrh	r2, [r2, #2]
 626:Generated_Source\PSoC4/BLE_1_aios.c ****             (cyBle_aioss.charInfoAddr[charIndex].charInfoPtr[charInstance].charHandle != CYBLE_GATT
 216              		.loc 1 626 0
 217 0032 002A     		cmp	r2, #0
 218 0034 23D0     		beq	.L22
 219              	.LBB3:
 628:Generated_Source\PSoC4/BLE_1_aios.c ****         {
 629:Generated_Source\PSoC4/BLE_1_aios.c ****             CYBLE_GATT_HANDLE_VALUE_PAIR_T locHandleValuePair;
 630:Generated_Source\PSoC4/BLE_1_aios.c **** 
ARM GAS  C:\Windows\TEMP\cc5RoFpJ.s 			page 16


 631:Generated_Source\PSoC4/BLE_1_aios.c ****             locHandleValuePair.attrHandle =
 220              		.loc 1 631 0
 221 0036 01A8     		add	r0, sp, #4
 222 0038 0281     		strh	r2, [r0, #8]
 632:Generated_Source\PSoC4/BLE_1_aios.c ****                 cyBle_aioss.charInfoAddr[charIndex].charInfoPtr[charInstance].descrHandle[descrInde
 633:Generated_Source\PSoC4/BLE_1_aios.c ****             locHandleValuePair.value.len = attrSize;
 223              		.loc 1 633 0
 224 003a 9EB2     		uxth	r6, r3
 225 003c 8680     		strh	r6, [r0, #4]
 634:Generated_Source\PSoC4/BLE_1_aios.c ****             locHandleValuePair.value.val = attrValue;
 226              		.loc 1 634 0
 227 003e 089B     		ldr	r3, [sp, #32]
 228              	.LVL20:
 229 0040 0193     		str	r3, [sp, #4]
 635:Generated_Source\PSoC4/BLE_1_aios.c ****                         
 636:Generated_Source\PSoC4/BLE_1_aios.c ****             /* Read characteristic value from database */
 637:Generated_Source\PSoC4/BLE_1_aios.c ****             if(CyBle_GattsReadAttributeValue(&locHandleValuePair, NULL, CYBLE_GATT_DB_LOCALLY_INITI
 230              		.loc 1 637 0
 231 0042 0022     		movs	r2, #0
 232 0044 0021     		movs	r1, #0
 233 0046 FFF7FEFF 		bl	CyBle_GattsReadAttributeValue
 234              	.LVL21:
 235 004a 0028     		cmp	r0, #0
 236 004c 0BD1     		bne	.L23
 237              	.LVL22:
 638:Generated_Source\PSoC4/BLE_1_aios.c ****                 CYBLE_GATT_ERR_NONE)
 639:Generated_Source\PSoC4/BLE_1_aios.c ****             {
 640:Generated_Source\PSoC4/BLE_1_aios.c ****                 apiResult = CYBLE_ERROR_OK;
 641:Generated_Source\PSoC4/BLE_1_aios.c ****                 
 642:Generated_Source\PSoC4/BLE_1_aios.c ****                 /* Set new length of the descriptor value */
 643:Generated_Source\PSoC4/BLE_1_aios.c ****                 CYBLE_GATT_DB_ATTR_SET_ATTR_GEN_LEN(cyBle_aioss.charInfoAddr[charIndex].charInfoPtr
 238              		.loc 1 643 0
 239 004e 6400     		lsls	r4, r4, #1
 240 0050 2D19     		adds	r5, r5, r4
 241 0052 6B88     		ldrh	r3, [r5, #2]
 242 0054 013B     		subs	r3, r3, #1
 243 0056 9A00     		lsls	r2, r3, #2
 244 0058 D318     		adds	r3, r2, r3
 245 005a 9A00     		lsls	r2, r3, #2
 246 005c 0B4B     		ldr	r3, .L24+8
 247 005e 9A18     		adds	r2, r3, r2
 248 0060 1369     		ldr	r3, [r2, #16]
 249 0062 1E80     		strh	r6, [r3]
 250 0064 0CE0     		b	.L15
 251              	.LVL23:
 252              	.L23:
 253              	.LBE3:
 615:Generated_Source\PSoC4/BLE_1_aios.c **** 
 254              		.loc 1 615 0
 255 0066 0120     		movs	r0, #1
 628:Generated_Source\PSoC4/BLE_1_aios.c ****             CYBLE_GATT_HANDLE_VALUE_PAIR_T locHandleValuePair;
 256              		.loc 1 628 0
 257 0068 0AE0     		b	.L15
 258              	.LVL24:
 259              	.L17:
 615:Generated_Source\PSoC4/BLE_1_aios.c **** 
 260              		.loc 1 615 0
ARM GAS  C:\Windows\TEMP\cc5RoFpJ.s 			page 17


 261 006a 0120     		movs	r0, #1
 262              	.LVL25:
 263 006c 08E0     		b	.L15
 264              	.LVL26:
 265              	.L18:
 266 006e 0120     		movs	r0, #1
 267              	.LVL27:
 268 0070 06E0     		b	.L15
 269              	.LVL28:
 270              	.L19:
 271 0072 0120     		movs	r0, #1
 272              	.LVL29:
 273 0074 04E0     		b	.L15
 274              	.L20:
 644:Generated_Source\PSoC4/BLE_1_aios.c ****                                                     descrHandle[descrIndex],
 645:Generated_Source\PSoC4/BLE_1_aios.c ****                                                     attrSize);
 646:Generated_Source\PSoC4/BLE_1_aios.c ****             }
 647:Generated_Source\PSoC4/BLE_1_aios.c ****         }
 648:Generated_Source\PSoC4/BLE_1_aios.c ****         else
 649:Generated_Source\PSoC4/BLE_1_aios.c ****         {
 650:Generated_Source\PSoC4/BLE_1_aios.c ****             apiResult = CYBLE_ERROR_GATT_DB_INVALID_ATTR_HANDLE;
 275              		.loc 1 650 0
 276 0076 1320     		movs	r0, #19
 277 0078 02E0     		b	.L15
 278              	.LVL30:
 279              	.L21:
 280 007a 1320     		movs	r0, #19
 281 007c 00E0     		b	.L15
 282              	.L22:
 283 007e 1320     		movs	r0, #19
 284              	.LVL31:
 285              	.L15:
 651:Generated_Source\PSoC4/BLE_1_aios.c ****         }
 652:Generated_Source\PSoC4/BLE_1_aios.c ****     }
 653:Generated_Source\PSoC4/BLE_1_aios.c ****     return (apiResult);
 654:Generated_Source\PSoC4/BLE_1_aios.c **** }
 286              		.loc 1 654 0
 287 0080 04B0     		add	sp, sp, #16
 288              		@ sp needed
 289 0082 70BD     		pop	{r4, r5, r6, pc}
 290              	.L25:
 291              		.align	2
 292              	.L24:
 293 0084 00000000 		.word	.LANCHOR1
 294 0088 00000000 		.word	.LANCHOR2
 295 008c 00000000 		.word	cyBle_gattDB
 296              		.cfi_endproc
 297              	.LFE7:
 298              		.size	CyBle_AiossGetCharacteristicDescriptor, .-CyBle_AiossGetCharacteristicDescriptor
 299              		.section	.text.CyBle_AiossSetCharacteristicDescriptor,"ax",%progbits
 300              		.align	2
 301              		.global	CyBle_AiossSetCharacteristicDescriptor
 302              		.code	16
 303              		.thumb_func
 304              		.type	CyBle_AiossSetCharacteristicDescriptor, %function
 305              	CyBle_AiossSetCharacteristicDescriptor:
 306              	.LFB8:
ARM GAS  C:\Windows\TEMP\cc5RoFpJ.s 			page 18


 655:Generated_Source\PSoC4/BLE_1_aios.c **** 
 656:Generated_Source\PSoC4/BLE_1_aios.c **** /******************************************************************************
 657:Generated_Source\PSoC4/BLE_1_aios.c **** * Function Name: CyBle_AiossSetCharacteristicDescriptor
 658:Generated_Source\PSoC4/BLE_1_aios.c **** ***************************************************************************//**
 659:Generated_Source\PSoC4/BLE_1_aios.c **** * 
 660:Generated_Source\PSoC4/BLE_1_aios.c **** *  Set a characteristic descriptor of a specified characteristic of the Indoor 
 661:Generated_Source\PSoC4/BLE_1_aios.c **** *  Positioning Service from the local GATT database.
 662:Generated_Source\PSoC4/BLE_1_aios.c **** * 
 663:Generated_Source\PSoC4/BLE_1_aios.c **** *  \param charIndex: The index of the characteristic.
 664:Generated_Source\PSoC4/BLE_1_aios.c **** *  \param charInstance: The instance number of the characteristic specified by
 665:Generated_Source\PSoC4/BLE_1_aios.c **** *                "charIndex".
 666:Generated_Source\PSoC4/BLE_1_aios.c **** *  \param descrIndex: The index of the characteristic descriptor.
 667:Generated_Source\PSoC4/BLE_1_aios.c **** *  \param attrSize: The size of the characteristic descriptor attribute.
 668:Generated_Source\PSoC4/BLE_1_aios.c **** *  \param attrValue: The pointer to the descriptor value data to 
 669:Generated_Source\PSoC4/BLE_1_aios.c **** *             be stored in the GATT database.
 670:Generated_Source\PSoC4/BLE_1_aios.c **** * 
 671:Generated_Source\PSoC4/BLE_1_aios.c **** * \return
 672:Generated_Source\PSoC4/BLE_1_aios.c **** *  Return value is of type CYBLE_API_RESULT_T.
 673:Generated_Source\PSoC4/BLE_1_aios.c **** *  * CYBLE_ERROR_OK - The request handled successfully
 674:Generated_Source\PSoC4/BLE_1_aios.c **** *  * CYBLE_ERROR_INVALID_PARAMETER - Validation of the input parameter failed
 675:Generated_Source\PSoC4/BLE_1_aios.c **** *  * CYBLE_ERROR_GATT_DB_INVALID_ATTR_HANDLE - Optional descriptor is absent
 676:Generated_Source\PSoC4/BLE_1_aios.c **** *
 677:Generated_Source\PSoC4/BLE_1_aios.c **** ******************************************************************************/
 678:Generated_Source\PSoC4/BLE_1_aios.c **** CYBLE_API_RESULT_T CyBle_AiossSetCharacteristicDescriptor(CYBLE_AIOS_CHAR_INDEX_T charIndex, 
 679:Generated_Source\PSoC4/BLE_1_aios.c ****      uint8 charInstance, CYBLE_AIOS_DESCR_INDEX_T descrIndex, uint8 attrSize, uint8 *attrValue)
 680:Generated_Source\PSoC4/BLE_1_aios.c **** {
 307              		.loc 1 680 0
 308              		.cfi_startproc
 309              		@ args = 4, pretend = 0, frame = 16
 310              		@ frame_needed = 0, uses_anonymous_args = 0
 311              	.LVL32:
 312 0000 10B5     		push	{r4, lr}
 313              		.cfi_def_cfa_offset 8
 314              		.cfi_offset 4, -8
 315              		.cfi_offset 14, -4
 316 0002 84B0     		sub	sp, sp, #16
 317              		.cfi_def_cfa_offset 24
 318              	.LVL33:
 681:Generated_Source\PSoC4/BLE_1_aios.c ****       CYBLE_API_RESULT_T apiResult = CYBLE_ERROR_INVALID_PARAMETER;
 682:Generated_Source\PSoC4/BLE_1_aios.c **** 
 683:Generated_Source\PSoC4/BLE_1_aios.c ****     if((charIndex < CYBLE_AIOS_CHAR_COUNT) && (charInstance < cyBle_aiossCharInstances[charIndex]) 
 319              		.loc 1 683 0
 320 0004 0228     		cmp	r0, #2
 321 0006 25D8     		bhi	.L29
 322              		.loc 1 683 0 is_stmt 0 discriminator 1
 323 0008 194C     		ldr	r4, .L36
 324 000a 245C     		ldrb	r4, [r4, r0]
 325 000c 8C42     		cmp	r4, r1
 326 000e 23D9     		bls	.L30
 327              		.loc 1 683 0 discriminator 2
 328 0010 062A     		cmp	r2, #6
 329 0012 23D8     		bhi	.L31
 684:Generated_Source\PSoC4/BLE_1_aios.c ****         (descrIndex < CYBLE_AIOS_DESCR_COUNT))
 685:Generated_Source\PSoC4/BLE_1_aios.c ****     {
 686:Generated_Source\PSoC4/BLE_1_aios.c ****         /* Check if requested descriptor is present in Service.
 687:Generated_Source\PSoC4/BLE_1_aios.c ****         * There are three conditions to be checked: 1) The pointer to
 688:Generated_Source\PSoC4/BLE_1_aios.c ****         * "CYBLE_AiosS_CHAR_T" is not NULL, 2) The handle of the characteristic is
ARM GAS  C:\Windows\TEMP\cc5RoFpJ.s 			page 19


 689:Generated_Source\PSoC4/BLE_1_aios.c ****         * a valid handle, 3) The handle of the descriptor is a valid handle.
 690:Generated_Source\PSoC4/BLE_1_aios.c ****         */
 691:Generated_Source\PSoC4/BLE_1_aios.c ****         if((cyBle_aioss.charInfoAddr[charIndex].charInfoPtr != NULL) &&
 330              		.loc 1 691 0 is_stmt 1
 331 0014 8000     		lsls	r0, r0, #2
 332              	.LVL34:
 333 0016 174C     		ldr	r4, .L36+4
 334 0018 2018     		adds	r0, r4, r0
 335 001a 4068     		ldr	r0, [r0, #4]
 336 001c 0028     		cmp	r0, #0
 337 001e 1FD0     		beq	.L32
 692:Generated_Source\PSoC4/BLE_1_aios.c ****             (cyBle_aioss.charInfoAddr[charIndex].charInfoPtr[charInstance].charHandle != CYBLE_GATT
 338              		.loc 1 692 0 discriminator 1
 339 0020 0901     		lsls	r1, r1, #4
 340              	.LVL35:
 341 0022 4118     		adds	r1, r0, r1
 342 0024 0888     		ldrh	r0, [r1]
 691:Generated_Source\PSoC4/BLE_1_aios.c ****             (cyBle_aioss.charInfoAddr[charIndex].charInfoPtr[charInstance].charHandle != CYBLE_GATT
 343              		.loc 1 691 0 discriminator 1
 344 0026 0028     		cmp	r0, #0
 345 0028 1CD0     		beq	.L33
 693:Generated_Source\PSoC4/BLE_1_aios.c ****                         (cyBle_aioss.charInfoAddr[charIndex].charInfoPtr[charInstance].descrHandle[
 346              		.loc 1 693 0
 347 002a 5200     		lsls	r2, r2, #1
 348              	.LVL36:
 349 002c 8918     		adds	r1, r1, r2
 350 002e 4A88     		ldrh	r2, [r1, #2]
 692:Generated_Source\PSoC4/BLE_1_aios.c ****             (cyBle_aioss.charInfoAddr[charIndex].charInfoPtr[charInstance].charHandle != CYBLE_GATT
 351              		.loc 1 692 0
 352 0030 002A     		cmp	r2, #0
 353 0032 19D0     		beq	.L34
 354              	.LBB4:
 694:Generated_Source\PSoC4/BLE_1_aios.c ****         {
 695:Generated_Source\PSoC4/BLE_1_aios.c ****             CYBLE_GATT_HANDLE_VALUE_PAIR_T locHandleValuePair;
 696:Generated_Source\PSoC4/BLE_1_aios.c **** 
 697:Generated_Source\PSoC4/BLE_1_aios.c ****             locHandleValuePair.attrHandle =
 355              		.loc 1 697 0
 356 0034 01A8     		add	r0, sp, #4
 357 0036 0281     		strh	r2, [r0, #8]
 698:Generated_Source\PSoC4/BLE_1_aios.c ****                 cyBle_aioss.charInfoAddr[charIndex].charInfoPtr[charInstance].descrHandle[descrInde
 699:Generated_Source\PSoC4/BLE_1_aios.c ****             locHandleValuePair.value.len = attrSize;
 358              		.loc 1 699 0
 359 0038 8380     		strh	r3, [r0, #4]
 700:Generated_Source\PSoC4/BLE_1_aios.c ****             locHandleValuePair.value.val = attrValue;
 360              		.loc 1 700 0
 361 003a 069B     		ldr	r3, [sp, #24]
 362              	.LVL37:
 363 003c 0193     		str	r3, [sp, #4]
 701:Generated_Source\PSoC4/BLE_1_aios.c **** 
 702:Generated_Source\PSoC4/BLE_1_aios.c ****             if(CyBle_GattsWriteAttributeValue(&locHandleValuePair, 0u, NULL, CYBLE_GATT_DB_LOCALLY_
 364              		.loc 1 702 0
 365 003e 0023     		movs	r3, #0
 366 0040 0022     		movs	r2, #0
 367 0042 0021     		movs	r1, #0
 368 0044 FFF7FEFF 		bl	CyBle_GattsWriteAttributeValue
 369              	.LVL38:
 370 0048 0028     		cmp	r0, #0
ARM GAS  C:\Windows\TEMP\cc5RoFpJ.s 			page 20


 371 004a 01D0     		beq	.L35
 372              	.LBE4:
 681:Generated_Source\PSoC4/BLE_1_aios.c **** 
 373              		.loc 1 681 0
 374 004c 0120     		movs	r0, #1
 375 004e 0CE0     		b	.L27
 376              	.L35:
 377              	.LBB5:
 703:Generated_Source\PSoC4/BLE_1_aios.c ****                 CYBLE_GATT_ERR_NONE)
 704:Generated_Source\PSoC4/BLE_1_aios.c ****             {
 705:Generated_Source\PSoC4/BLE_1_aios.c ****                 apiResult = CYBLE_ERROR_OK;
 378              		.loc 1 705 0
 379 0050 0020     		movs	r0, #0
 380              	.LVL39:
 381              	.LBE5:
 694:Generated_Source\PSoC4/BLE_1_aios.c ****             CYBLE_GATT_HANDLE_VALUE_PAIR_T locHandleValuePair;
 382              		.loc 1 694 0
 383 0052 0AE0     		b	.L27
 384              	.LVL40:
 385              	.L29:
 681:Generated_Source\PSoC4/BLE_1_aios.c **** 
 386              		.loc 1 681 0
 387 0054 0120     		movs	r0, #1
 388              	.LVL41:
 389 0056 08E0     		b	.L27
 390              	.LVL42:
 391              	.L30:
 392 0058 0120     		movs	r0, #1
 393              	.LVL43:
 394 005a 06E0     		b	.L27
 395              	.LVL44:
 396              	.L31:
 397 005c 0120     		movs	r0, #1
 398              	.LVL45:
 399 005e 04E0     		b	.L27
 400              	.L32:
 706:Generated_Source\PSoC4/BLE_1_aios.c ****             }
 707:Generated_Source\PSoC4/BLE_1_aios.c ****         }
 708:Generated_Source\PSoC4/BLE_1_aios.c ****         else
 709:Generated_Source\PSoC4/BLE_1_aios.c ****         {
 710:Generated_Source\PSoC4/BLE_1_aios.c ****             apiResult = CYBLE_ERROR_GATT_DB_INVALID_ATTR_HANDLE;
 401              		.loc 1 710 0
 402 0060 1320     		movs	r0, #19
 403 0062 02E0     		b	.L27
 404              	.LVL46:
 405              	.L33:
 406 0064 1320     		movs	r0, #19
 407 0066 00E0     		b	.L27
 408              	.LVL47:
 409              	.L34:
 410 0068 1320     		movs	r0, #19
 411              	.LVL48:
 412              	.L27:
 711:Generated_Source\PSoC4/BLE_1_aios.c ****         }
 712:Generated_Source\PSoC4/BLE_1_aios.c ****     }
 713:Generated_Source\PSoC4/BLE_1_aios.c ****     return (apiResult);
 714:Generated_Source\PSoC4/BLE_1_aios.c **** }
ARM GAS  C:\Windows\TEMP\cc5RoFpJ.s 			page 21


 413              		.loc 1 714 0
 414 006a 04B0     		add	sp, sp, #16
 415              		@ sp needed
 416 006c 10BD     		pop	{r4, pc}
 417              	.L37:
 418 006e C046     		.align	2
 419              	.L36:
 420 0070 00000000 		.word	.LANCHOR1
 421 0074 00000000 		.word	.LANCHOR2
 422              		.cfi_endproc
 423              	.LFE8:
 424              		.size	CyBle_AiossSetCharacteristicDescriptor, .-CyBle_AiossSetCharacteristicDescriptor
 425              		.section	.text.CyBle_AiossSendNotification,"ax",%progbits
 426              		.align	2
 427              		.global	CyBle_AiossSendNotification
 428              		.code	16
 429              		.thumb_func
 430              		.type	CyBle_AiossSendNotification, %function
 431              	CyBle_AiossSendNotification:
 432              	.LFB9:
 715:Generated_Source\PSoC4/BLE_1_aios.c **** 
 716:Generated_Source\PSoC4/BLE_1_aios.c **** /******************************************************************************
 717:Generated_Source\PSoC4/BLE_1_aios.c **** * Function Name: CyBle_AiossSendNotification
 718:Generated_Source\PSoC4/BLE_1_aios.c **** ***************************************************************************//**
 719:Generated_Source\PSoC4/BLE_1_aios.c **** * 
 720:Generated_Source\PSoC4/BLE_1_aios.c **** *  Sends a notification with a characteristic value of the Automation Input Output
 721:Generated_Source\PSoC4/BLE_1_aios.c **** *  Service, which is a value specified by charIndex, to the client's device.
 722:Generated_Source\PSoC4/BLE_1_aios.c **** *
 723:Generated_Source\PSoC4/BLE_1_aios.c **** *  On enabling notification successfully for a service characteristic, if the GATT
 724:Generated_Source\PSoC4/BLE_1_aios.c **** *  server has an updated value to be notified to the GATT Client, it sends out a
 725:Generated_Source\PSoC4/BLE_1_aios.c **** *  'Handle Value Notification' which results in CYBLE_EVT_AIOSC_NOTIFICATION event
 726:Generated_Source\PSoC4/BLE_1_aios.c **** *  at the GATT Client's end.
 727:Generated_Source\PSoC4/BLE_1_aios.c **** * 
 728:Generated_Source\PSoC4/BLE_1_aios.c **** *  \param connHandle: The connection handle.
 729:Generated_Source\PSoC4/BLE_1_aios.c **** *  \param charIndex: The index of the service characteristic. Starts with zero.
 730:Generated_Source\PSoC4/BLE_1_aios.c **** *  \param charInstance: The instance number of the characteristic specified by 
 731:Generated_Source\PSoC4/BLE_1_aios.c **** *                "charIndex".
 732:Generated_Source\PSoC4/BLE_1_aios.c **** *  \param attrSize: The size of the characteristic value attribute.
 733:Generated_Source\PSoC4/BLE_1_aios.c **** *  \param attrValue: The pointer to the characteristic value data that should be
 734:Generated_Source\PSoC4/BLE_1_aios.c **** *               sent to the client's device.
 735:Generated_Source\PSoC4/BLE_1_aios.c **** * 
 736:Generated_Source\PSoC4/BLE_1_aios.c **** * \return
 737:Generated_Source\PSoC4/BLE_1_aios.c **** *  A return value is of type CYBLE_API_RESULT_T.
 738:Generated_Source\PSoC4/BLE_1_aios.c **** *   * CYBLE_ERROR_OK - The request handled successfully
 739:Generated_Source\PSoC4/BLE_1_aios.c **** *   * CYBLE_ERROR_INVALID_PARAMETER - Validation of the input parameter failed
 740:Generated_Source\PSoC4/BLE_1_aios.c **** *   * CYBLE_ERROR_INVALID_OPERATION - This operation is not permitted
 741:Generated_Source\PSoC4/BLE_1_aios.c **** *   * CYBLE_ERROR_INVALID_STATE - Connection with the client is not established
 742:Generated_Source\PSoC4/BLE_1_aios.c **** *   * CYBLE_ERROR_MEMORY_ALLOCATION_FAILED - Memory allocation failed.
 743:Generated_Source\PSoC4/BLE_1_aios.c **** *   * CYBLE_ERROR_NTF_DISABLED - A notification is not enabled by the client.
 744:Generated_Source\PSoC4/BLE_1_aios.c **** *   * CYBLE_ERROR_GATT_DB_INVALID_ATTR_HANDLE - An optional characteristic is
 745:Generated_Source\PSoC4/BLE_1_aios.c **** *                                               absent.
 746:Generated_Source\PSoC4/BLE_1_aios.c **** *
 747:Generated_Source\PSoC4/BLE_1_aios.c **** ******************************************************************************/
 748:Generated_Source\PSoC4/BLE_1_aios.c **** CYBLE_API_RESULT_T CyBle_AiossSendNotification(CYBLE_CONN_HANDLE_T connHandle,
 749:Generated_Source\PSoC4/BLE_1_aios.c ****     CYBLE_AIOS_CHAR_INDEX_T charIndex, uint8 charInstance, uint8 attrSize, uint8 *attrValue)
 750:Generated_Source\PSoC4/BLE_1_aios.c **** {
 433              		.loc 1 750 0
ARM GAS  C:\Windows\TEMP\cc5RoFpJ.s 			page 22


 434              		.cfi_startproc
 435              		@ args = 4, pretend = 0, frame = 24
 436              		@ frame_needed = 0, uses_anonymous_args = 0
 437              	.LVL49:
 438 0000 30B5     		push	{r4, r5, lr}
 439              		.cfi_def_cfa_offset 12
 440              		.cfi_offset 4, -12
 441              		.cfi_offset 5, -8
 442              		.cfi_offset 14, -4
 443 0002 87B0     		sub	sp, sp, #28
 444              		.cfi_def_cfa_offset 40
 445 0004 01AC     		add	r4, sp, #4
 446 0006 2080     		strh	r0, [r4]
 447 0008 1C00     		movs	r4, r3
 448              	.LVL50:
 751:Generated_Source\PSoC4/BLE_1_aios.c ****     CYBLE_API_RESULT_T apiResult = CYBLE_ERROR_INVALID_PARAMETER;
 752:Generated_Source\PSoC4/BLE_1_aios.c **** 
 753:Generated_Source\PSoC4/BLE_1_aios.c ****     if((charIndex < CYBLE_AIOS_CHAR_COUNT) && (charInstance < cyBle_aiossCharInstances[charIndex]))
 449              		.loc 1 753 0
 450 000a 0229     		cmp	r1, #2
 451 000c 28D8     		bhi	.L40
 452              		.loc 1 753 0 is_stmt 0 discriminator 1
 453 000e 1C4B     		ldr	r3, .L46
 454              	.LVL51:
 455 0010 5B5C     		ldrb	r3, [r3, r1]
 456 0012 9342     		cmp	r3, r2
 457 0014 26D9     		bls	.L41
 754:Generated_Source\PSoC4/BLE_1_aios.c ****     {
 755:Generated_Source\PSoC4/BLE_1_aios.c ****         if((cyBle_aioss.charInfoAddr[charIndex].charInfoPtr != NULL) && 
 458              		.loc 1 755 0 is_stmt 1
 459 0016 8900     		lsls	r1, r1, #2
 460              	.LVL52:
 461 0018 1A4B     		ldr	r3, .L46+4
 462 001a 5918     		adds	r1, r3, r1
 463 001c 4D68     		ldr	r5, [r1, #4]
 464 001e 002D     		cmp	r5, #0
 465 0020 22D0     		beq	.L42
 756:Generated_Source\PSoC4/BLE_1_aios.c ****             (cyBle_aioss.charInfoAddr[charIndex].charInfoPtr[charInstance].descrHandle[CYBLE_AIOS_C
 466              		.loc 1 756 0 discriminator 1
 467 0022 1201     		lsls	r2, r2, #4
 468              	.LVL53:
 469 0024 AD18     		adds	r5, r5, r2
 470 0026 6B88     		ldrh	r3, [r5, #2]
 755:Generated_Source\PSoC4/BLE_1_aios.c ****             (cyBle_aioss.charInfoAddr[charIndex].charInfoPtr[charInstance].descrHandle[CYBLE_AIOS_C
 471              		.loc 1 755 0 discriminator 1
 472 0028 002B     		cmp	r3, #0
 473 002a 1FD0     		beq	.L43
 757:Generated_Source\PSoC4/BLE_1_aios.c ****         {
 758:Generated_Source\PSoC4/BLE_1_aios.c ****             /* Send notification if it is enabled and connected */
 759:Generated_Source\PSoC4/BLE_1_aios.c ****             if(CyBle_GetState() != CYBLE_STATE_CONNECTED)
 474              		.loc 1 759 0
 475 002c 164A     		ldr	r2, .L46+8
 476 002e 1278     		ldrb	r2, [r2]
 477 0030 022A     		cmp	r2, #2
 478 0032 1DD1     		bne	.L44
 760:Generated_Source\PSoC4/BLE_1_aios.c ****             {
 761:Generated_Source\PSoC4/BLE_1_aios.c ****                 apiResult = CYBLE_ERROR_INVALID_STATE;
ARM GAS  C:\Windows\TEMP\cc5RoFpJ.s 			page 23


 762:Generated_Source\PSoC4/BLE_1_aios.c ****             }
 763:Generated_Source\PSoC4/BLE_1_aios.c ****             
 764:Generated_Source\PSoC4/BLE_1_aios.c ****             else if(!CYBLE_IS_NOTIFICATION_ENABLED(
 479              		.loc 1 764 0
 480 0034 013B     		subs	r3, r3, #1
 481 0036 9A00     		lsls	r2, r3, #2
 482 0038 D318     		adds	r3, r2, r3
 483 003a 9A00     		lsls	r2, r3, #2
 484 003c 134B     		ldr	r3, .L46+12
 485 003e 9A18     		adds	r2, r3, r2
 486 0040 1369     		ldr	r3, [r2, #16]
 487 0042 5868     		ldr	r0, [r3, #4]
 488 0044 FFF7FEFF 		bl	CyBle_Get16ByPtr
 489              	.LVL54:
 490 0048 C307     		lsls	r3, r0, #31
 491 004a 14D5     		bpl	.L45
 492              	.LBB6:
 765:Generated_Source\PSoC4/BLE_1_aios.c ****                 cyBle_aioss.charInfoAddr[charIndex].charInfoPtr[charInstance].descrHandle[CYBLE_AIO
 766:Generated_Source\PSoC4/BLE_1_aios.c ****             {
 767:Generated_Source\PSoC4/BLE_1_aios.c ****                 apiResult = CYBLE_ERROR_NTF_DISABLED;
 768:Generated_Source\PSoC4/BLE_1_aios.c ****             }
 769:Generated_Source\PSoC4/BLE_1_aios.c ****             else
 770:Generated_Source\PSoC4/BLE_1_aios.c ****             {
 771:Generated_Source\PSoC4/BLE_1_aios.c ****                 CYBLE_GATTS_HANDLE_VALUE_NTF_T ntfReqParam;
 772:Generated_Source\PSoC4/BLE_1_aios.c **** 
 773:Generated_Source\PSoC4/BLE_1_aios.c ****                 /* Fill all fields of write request structure ... */
 774:Generated_Source\PSoC4/BLE_1_aios.c ****                 ntfReqParam.attrHandle = cyBle_aioss.charInfoAddr[charIndex].charInfoPtr[charInstan
 493              		.loc 1 774 0
 494 004c 2B88     		ldrh	r3, [r5]
 495 004e 03A9     		add	r1, sp, #12
 496 0050 0B81     		strh	r3, [r1, #8]
 775:Generated_Source\PSoC4/BLE_1_aios.c ****                 ntfReqParam.value.val = attrValue;
 497              		.loc 1 775 0
 498 0052 0A9B     		ldr	r3, [sp, #40]
 499 0054 0393     		str	r3, [sp, #12]
 776:Generated_Source\PSoC4/BLE_1_aios.c ****                 ntfReqParam.value.len = attrSize;
 500              		.loc 1 776 0
 501 0056 8C80     		strh	r4, [r1, #4]
 777:Generated_Source\PSoC4/BLE_1_aios.c **** 
 778:Generated_Source\PSoC4/BLE_1_aios.c ****                 /* Send notification to client using previously filled structure */
 779:Generated_Source\PSoC4/BLE_1_aios.c ****                 apiResult = CyBle_GattsNotification(connHandle, &ntfReqParam);
 502              		.loc 1 779 0
 503 0058 0198     		ldr	r0, [sp, #4]
 504 005a FFF7FEFF 		bl	CyBle_GattsNotification
 505              	.LVL55:
 506 005e 0CE0     		b	.L39
 507              	.LVL56:
 508              	.L40:
 509              	.LBE6:
 751:Generated_Source\PSoC4/BLE_1_aios.c **** 
 510              		.loc 1 751 0
 511 0060 0120     		movs	r0, #1
 512 0062 0AE0     		b	.L39
 513              	.LVL57:
 514              	.L41:
 515 0064 0120     		movs	r0, #1
 516 0066 08E0     		b	.L39
ARM GAS  C:\Windows\TEMP\cc5RoFpJ.s 			page 24


 517              	.LVL58:
 518              	.L42:
 780:Generated_Source\PSoC4/BLE_1_aios.c ****             }
 781:Generated_Source\PSoC4/BLE_1_aios.c ****         }
 782:Generated_Source\PSoC4/BLE_1_aios.c ****         else
 783:Generated_Source\PSoC4/BLE_1_aios.c ****         {
 784:Generated_Source\PSoC4/BLE_1_aios.c ****             apiResult = CYBLE_ERROR_GATT_DB_INVALID_ATTR_HANDLE;
 519              		.loc 1 784 0
 520 0068 1320     		movs	r0, #19
 521 006a 06E0     		b	.L39
 522              	.LVL59:
 523              	.L43:
 524 006c 1320     		movs	r0, #19
 525 006e 04E0     		b	.L39
 526              	.L44:
 761:Generated_Source\PSoC4/BLE_1_aios.c ****             }
 527              		.loc 1 761 0
 528 0070 0420     		movs	r0, #4
 529 0072 FF30     		adds	r0, r0, #255
 530 0074 01E0     		b	.L39
 531              	.L45:
 767:Generated_Source\PSoC4/BLE_1_aios.c ****             }
 532              		.loc 1 767 0
 533 0076 8020     		movs	r0, #128
 534 0078 4000     		lsls	r0, r0, #1
 535              	.LVL60:
 536              	.L39:
 785:Generated_Source\PSoC4/BLE_1_aios.c ****         }
 786:Generated_Source\PSoC4/BLE_1_aios.c ****     }
 787:Generated_Source\PSoC4/BLE_1_aios.c **** 
 788:Generated_Source\PSoC4/BLE_1_aios.c ****     return (apiResult);
 789:Generated_Source\PSoC4/BLE_1_aios.c **** }
 537              		.loc 1 789 0
 538 007a 07B0     		add	sp, sp, #28
 539              		@ sp needed
 540 007c 30BD     		pop	{r4, r5, pc}
 541              	.L47:
 542 007e C046     		.align	2
 543              	.L46:
 544 0080 00000000 		.word	.LANCHOR1
 545 0084 00000000 		.word	.LANCHOR2
 546 0088 00000000 		.word	cyBle_state
 547 008c 00000000 		.word	cyBle_gattDB
 548              		.cfi_endproc
 549              	.LFE9:
 550              		.size	CyBle_AiossSendNotification, .-CyBle_AiossSendNotification
 551              		.section	.text.CyBle_AiossSendIndication,"ax",%progbits
 552              		.align	2
 553              		.global	CyBle_AiossSendIndication
 554              		.code	16
 555              		.thumb_func
 556              		.type	CyBle_AiossSendIndication, %function
 557              	CyBle_AiossSendIndication:
 558              	.LFB10:
 790:Generated_Source\PSoC4/BLE_1_aios.c **** 
 791:Generated_Source\PSoC4/BLE_1_aios.c **** /******************************************************************************
 792:Generated_Source\PSoC4/BLE_1_aios.c **** * Function Name: CyBle_AiossSendIndication
ARM GAS  C:\Windows\TEMP\cc5RoFpJ.s 			page 25


 793:Generated_Source\PSoC4/BLE_1_aios.c **** ***************************************************************************//**
 794:Generated_Source\PSoC4/BLE_1_aios.c **** * 
 795:Generated_Source\PSoC4/BLE_1_aios.c **** *  Sends an indication with a characteristic value of the Automation Input Output
 796:Generated_Source\PSoC4/BLE_1_aios.c **** *  Service, which is a value specified by charIndex, to the client's device.
 797:Generated_Source\PSoC4/BLE_1_aios.c **** *  
 798:Generated_Source\PSoC4/BLE_1_aios.c **** *  On enabling indication successfully, if the GATT server has an updated value to be 
 799:Generated_Source\PSoC4/BLE_1_aios.c **** *  indicated to the GATT Client, it sends out a 'Handle Value Indication' which
 800:Generated_Source\PSoC4/BLE_1_aios.c **** *  results in CYBLE_EVT_AIOSC_INDICATION or CYBLE_EVT_GATTC_HANDLE_VALUE_IND (if 
 801:Generated_Source\PSoC4/BLE_1_aios.c **** *  service specific callback function is not registered) event at the GATT Client's end.
 802:Generated_Source\PSoC4/BLE_1_aios.c **** *
 803:Generated_Source\PSoC4/BLE_1_aios.c **** *  \param connHandle: The connection handle.
 804:Generated_Source\PSoC4/BLE_1_aios.c **** *  \param charIndex: The index of the service characteristic.
 805:Generated_Source\PSoC4/BLE_1_aios.c **** *  \param charInstance: The instance number of the characteristic specified by 
 806:Generated_Source\PSoC4/BLE_1_aios.c **** *                "charIndex".
 807:Generated_Source\PSoC4/BLE_1_aios.c **** *  \param attrSize: The size of the characteristic value attribute.
 808:Generated_Source\PSoC4/BLE_1_aios.c **** *  \param attrValue: The pointer to the characteristic value data that should be
 809:Generated_Source\PSoC4/BLE_1_aios.c **** *               sent to the client's device.
 810:Generated_Source\PSoC4/BLE_1_aios.c **** * 
 811:Generated_Source\PSoC4/BLE_1_aios.c **** * \return
 812:Generated_Source\PSoC4/BLE_1_aios.c **** *  A return value is of type CYBLE_API_RESULT_T.
 813:Generated_Source\PSoC4/BLE_1_aios.c **** *   * CYBLE_ERROR_OK - The request handled successfully
 814:Generated_Source\PSoC4/BLE_1_aios.c **** *   * CYBLE_ERROR_INVALID_PARAMETER - Validation of the input parameter failed
 815:Generated_Source\PSoC4/BLE_1_aios.c **** *   * CYBLE_ERROR_INVALID_OPERATION - This operation is not permitted
 816:Generated_Source\PSoC4/BLE_1_aios.c **** *   * CYBLE_ERROR_INVALID_STATE - Connection with the client is not established
 817:Generated_Source\PSoC4/BLE_1_aios.c **** *   * CYBLE_ERROR_MEMORY_ALLOCATION_FAILED - Memory allocation failed.
 818:Generated_Source\PSoC4/BLE_1_aios.c **** *   * CYBLE_ERROR_IND_DISABLED - Indication is not enabled by the client.
 819:Generated_Source\PSoC4/BLE_1_aios.c **** *   * CYBLE_ERROR_GATT_DB_INVALID_ATTR_HANDLE - An optional characteristic is
 820:Generated_Source\PSoC4/BLE_1_aios.c **** *                                               absent.
 821:Generated_Source\PSoC4/BLE_1_aios.c **** *
 822:Generated_Source\PSoC4/BLE_1_aios.c **** * \events
 823:Generated_Source\PSoC4/BLE_1_aios.c **** *  In case of successful execution (return value = CYBLE_ERROR_OK)
 824:Generated_Source\PSoC4/BLE_1_aios.c **** *  the next events can appear: \n
 825:Generated_Source\PSoC4/BLE_1_aios.c **** *   If the Aios service-specific callback is registered 
 826:Generated_Source\PSoC4/BLE_1_aios.c **** *      (with CyBle_AiosRegisterAttrCallback):
 827:Generated_Source\PSoC4/BLE_1_aios.c **** *  * CYBLE_EVT_AiosS_INDICATION_CONFIRMED - in case if the indication is
 828:Generated_Source\PSoC4/BLE_1_aios.c **** *                                successfully delivered to the peer device.
 829:Generated_Source\PSoC4/BLE_1_aios.c **** *  .
 830:Generated_Source\PSoC4/BLE_1_aios.c **** *   Otherwise (if the Aios service-specific callback is not registered):
 831:Generated_Source\PSoC4/BLE_1_aios.c **** *  * CYBLE_EVT_GATTS_HANDLE_VALUE_CNF - in case if the indication is
 832:Generated_Source\PSoC4/BLE_1_aios.c **** *                                successfully delivered to the peer device.
 833:Generated_Source\PSoC4/BLE_1_aios.c **** *
 834:Generated_Source\PSoC4/BLE_1_aios.c **** ******************************************************************************/
 835:Generated_Source\PSoC4/BLE_1_aios.c **** CYBLE_API_RESULT_T CyBle_AiossSendIndication(CYBLE_CONN_HANDLE_T connHandle,
 836:Generated_Source\PSoC4/BLE_1_aios.c ****     CYBLE_AIOS_CHAR_INDEX_T charIndex, uint8 charInstance, uint8 attrSize, uint8 *attrValue)
 837:Generated_Source\PSoC4/BLE_1_aios.c **** {
 559              		.loc 1 837 0
 560              		.cfi_startproc
 561              		@ args = 4, pretend = 0, frame = 24
 562              		@ frame_needed = 0, uses_anonymous_args = 0
 563              	.LVL61:
 564 0000 30B5     		push	{r4, r5, lr}
 565              		.cfi_def_cfa_offset 12
 566              		.cfi_offset 4, -12
 567              		.cfi_offset 5, -8
 568              		.cfi_offset 14, -4
 569 0002 87B0     		sub	sp, sp, #28
 570              		.cfi_def_cfa_offset 40
ARM GAS  C:\Windows\TEMP\cc5RoFpJ.s 			page 26


 571 0004 01AC     		add	r4, sp, #4
 572 0006 2080     		strh	r0, [r4]
 573 0008 1C00     		movs	r4, r3
 574              	.LVL62:
 838:Generated_Source\PSoC4/BLE_1_aios.c ****     /* Store new data in database */
 839:Generated_Source\PSoC4/BLE_1_aios.c ****     CYBLE_API_RESULT_T apiResult = CYBLE_ERROR_OK;
 840:Generated_Source\PSoC4/BLE_1_aios.c ****     
 841:Generated_Source\PSoC4/BLE_1_aios.c ****     /* Send indication if it is enabled and connected */
 842:Generated_Source\PSoC4/BLE_1_aios.c ****     if(charIndex >= CYBLE_AIOS_CHAR_COUNT)
 575              		.loc 1 842 0
 576 000a 0229     		cmp	r1, #2
 577 000c 2CD8     		bhi	.L51
 843:Generated_Source\PSoC4/BLE_1_aios.c ****     {
 844:Generated_Source\PSoC4/BLE_1_aios.c ****         apiResult = CYBLE_ERROR_INVALID_PARAMETER;
 845:Generated_Source\PSoC4/BLE_1_aios.c ****     }
 846:Generated_Source\PSoC4/BLE_1_aios.c ****     else if(charInstance >= cyBle_aiossCharInstances[charIndex])
 578              		.loc 1 846 0
 579 000e 1D4B     		ldr	r3, .L56
 580              	.LVL63:
 581 0010 5B5C     		ldrb	r3, [r3, r1]
 582 0012 9342     		cmp	r3, r2
 583 0014 2AD9     		bls	.L52
 847:Generated_Source\PSoC4/BLE_1_aios.c ****     {
 848:Generated_Source\PSoC4/BLE_1_aios.c ****         apiResult = CYBLE_ERROR_INVALID_PARAMETER;
 849:Generated_Source\PSoC4/BLE_1_aios.c ****     }
 850:Generated_Source\PSoC4/BLE_1_aios.c ****     else if(CYBLE_STATE_CONNECTED != CyBle_GetState())
 584              		.loc 1 850 0
 585 0016 1C4B     		ldr	r3, .L56+4
 586 0018 1B78     		ldrb	r3, [r3]
 587 001a 022B     		cmp	r3, #2
 588 001c 28D1     		bne	.L53
 851:Generated_Source\PSoC4/BLE_1_aios.c ****     {
 852:Generated_Source\PSoC4/BLE_1_aios.c ****         apiResult = CYBLE_ERROR_INVALID_STATE;
 853:Generated_Source\PSoC4/BLE_1_aios.c ****     }
 854:Generated_Source\PSoC4/BLE_1_aios.c ****     else if(!CYBLE_IS_INDICATION_ENABLED(
 589              		.loc 1 854 0
 590 001e 8900     		lsls	r1, r1, #2
 591              	.LVL64:
 592 0020 1A4B     		ldr	r3, .L56+8
 593 0022 5918     		adds	r1, r3, r1
 594 0024 4D68     		ldr	r5, [r1, #4]
 595 0026 1201     		lsls	r2, r2, #4
 596              	.LVL65:
 597 0028 AD18     		adds	r5, r5, r2
 598 002a 6B88     		ldrh	r3, [r5, #2]
 599 002c 013B     		subs	r3, r3, #1
 600 002e 9A00     		lsls	r2, r3, #2
 601 0030 D318     		adds	r3, r2, r3
 602 0032 9A00     		lsls	r2, r3, #2
 603 0034 164B     		ldr	r3, .L56+12
 604 0036 9A18     		adds	r2, r3, r2
 605 0038 1369     		ldr	r3, [r2, #16]
 606 003a 5868     		ldr	r0, [r3, #4]
 607 003c FFF7FEFF 		bl	CyBle_Get16ByPtr
 608              	.LVL66:
 609 0040 8307     		lsls	r3, r0, #30
 610 0042 18D5     		bpl	.L54
ARM GAS  C:\Windows\TEMP\cc5RoFpJ.s 			page 27


 855:Generated_Source\PSoC4/BLE_1_aios.c ****         cyBle_aioss.charInfoAddr[charIndex].charInfoPtr[charInstance].descrHandle[CYBLE_AIOS_CCCD])
 856:Generated_Source\PSoC4/BLE_1_aios.c ****     {
 857:Generated_Source\PSoC4/BLE_1_aios.c ****         apiResult = CYBLE_ERROR_IND_DISABLED;
 858:Generated_Source\PSoC4/BLE_1_aios.c ****     }
 859:Generated_Source\PSoC4/BLE_1_aios.c ****     else
 860:Generated_Source\PSoC4/BLE_1_aios.c ****     {
 861:Generated_Source\PSoC4/BLE_1_aios.c ****         if(cyBle_aioss.charInfoAddr[charIndex].charInfoPtr[charInstance].charHandle != CYBLE_GATT_I
 611              		.loc 1 861 0
 612 0044 2B88     		ldrh	r3, [r5]
 613 0046 002B     		cmp	r3, #0
 614 0048 18D0     		beq	.L55
 615              	.LBB7:
 862:Generated_Source\PSoC4/BLE_1_aios.c ****         {
 863:Generated_Source\PSoC4/BLE_1_aios.c ****             CYBLE_GATTS_HANDLE_VALUE_IND_T indReqParam;
 864:Generated_Source\PSoC4/BLE_1_aios.c **** 
 865:Generated_Source\PSoC4/BLE_1_aios.c ****             /* Fill all fields of write request structure ... */
 866:Generated_Source\PSoC4/BLE_1_aios.c ****             indReqParam.attrHandle = cyBle_aioss.charInfoAddr[charIndex].charInfoPtr[charInstance].
 616              		.loc 1 866 0
 617 004a 03A9     		add	r1, sp, #12
 618 004c 0B81     		strh	r3, [r1, #8]
 867:Generated_Source\PSoC4/BLE_1_aios.c ****             indReqParam.value.val = attrValue;
 619              		.loc 1 867 0
 620 004e 0A9B     		ldr	r3, [sp, #40]
 621 0050 0393     		str	r3, [sp, #12]
 868:Generated_Source\PSoC4/BLE_1_aios.c ****             indReqParam.value.len = attrSize;
 622              		.loc 1 868 0
 623 0052 8C80     		strh	r4, [r1, #4]
 869:Generated_Source\PSoC4/BLE_1_aios.c **** 
 870:Generated_Source\PSoC4/BLE_1_aios.c ****             /* Send indication to client using previously filled structure */
 871:Generated_Source\PSoC4/BLE_1_aios.c ****             apiResult = CyBle_GattsIndication(connHandle, &indReqParam);
 624              		.loc 1 871 0
 625 0054 0198     		ldr	r0, [sp, #4]
 626 0056 FFF7FEFF 		bl	CyBle_GattsIndication
 627              	.LVL67:
 872:Generated_Source\PSoC4/BLE_1_aios.c ****             /* Save handle to support service specific value confirmation response from client */
 873:Generated_Source\PSoC4/BLE_1_aios.c ****             if(apiResult == CYBLE_ERROR_OK)
 628              		.loc 1 873 0
 629 005a 0028     		cmp	r0, #0
 630 005c 0FD1     		bne	.L49
 874:Generated_Source\PSoC4/BLE_1_aios.c ****             {
 875:Generated_Source\PSoC4/BLE_1_aios.c ****                 cyBle_aiossReqHandle = indReqParam.attrHandle;
 631              		.loc 1 875 0
 632 005e 03AB     		add	r3, sp, #12
 633 0060 1A89     		ldrh	r2, [r3, #8]
 634 0062 0C4B     		ldr	r3, .L56+16
 635 0064 9A80     		strh	r2, [r3, #4]
 636 0066 0AE0     		b	.L49
 637              	.LVL68:
 638              	.L51:
 639              	.LBE7:
 844:Generated_Source\PSoC4/BLE_1_aios.c ****     }
 640              		.loc 1 844 0
 641 0068 0120     		movs	r0, #1
 642 006a 08E0     		b	.L49
 643              	.LVL69:
 644              	.L52:
 848:Generated_Source\PSoC4/BLE_1_aios.c ****     }
ARM GAS  C:\Windows\TEMP\cc5RoFpJ.s 			page 28


 645              		.loc 1 848 0
 646 006c 0120     		movs	r0, #1
 647 006e 06E0     		b	.L49
 648              	.L53:
 852:Generated_Source\PSoC4/BLE_1_aios.c ****     }
 649              		.loc 1 852 0
 650 0070 0420     		movs	r0, #4
 651 0072 FF30     		adds	r0, r0, #255
 652 0074 03E0     		b	.L49
 653              	.LVL70:
 654              	.L54:
 857:Generated_Source\PSoC4/BLE_1_aios.c ****     }
 655              		.loc 1 857 0
 656 0076 0220     		movs	r0, #2
 657 0078 FF30     		adds	r0, r0, #255
 658 007a 00E0     		b	.L49
 659              	.L55:
 876:Generated_Source\PSoC4/BLE_1_aios.c ****             }
 877:Generated_Source\PSoC4/BLE_1_aios.c ****         }
 878:Generated_Source\PSoC4/BLE_1_aios.c ****         else
 879:Generated_Source\PSoC4/BLE_1_aios.c ****         {
 880:Generated_Source\PSoC4/BLE_1_aios.c ****             apiResult = CYBLE_ERROR_GATT_DB_INVALID_ATTR_HANDLE;
 660              		.loc 1 880 0
 661 007c 1320     		movs	r0, #19
 662              	.LVL71:
 663              	.L49:
 881:Generated_Source\PSoC4/BLE_1_aios.c ****         }
 882:Generated_Source\PSoC4/BLE_1_aios.c ****     }
 883:Generated_Source\PSoC4/BLE_1_aios.c ****     return (apiResult);
 884:Generated_Source\PSoC4/BLE_1_aios.c **** }
 664              		.loc 1 884 0
 665 007e 07B0     		add	sp, sp, #28
 666              		@ sp needed
 667 0080 30BD     		pop	{r4, r5, pc}
 668              	.L57:
 669 0082 C046     		.align	2
 670              	.L56:
 671 0084 00000000 		.word	.LANCHOR1
 672 0088 00000000 		.word	cyBle_state
 673 008c 00000000 		.word	.LANCHOR2
 674 0090 00000000 		.word	cyBle_gattDB
 675 0094 00000000 		.word	.LANCHOR0
 676              		.cfi_endproc
 677              	.LFE10:
 678              		.size	CyBle_AiossSendIndication, .-CyBle_AiossSendIndication
 679              		.section	.text.CyBle_AiossConfirmationEventHandler,"ax",%progbits
 680              		.align	2
 681              		.global	CyBle_AiossConfirmationEventHandler
 682              		.code	16
 683              		.thumb_func
 684              		.type	CyBle_AiossConfirmationEventHandler, %function
 685              	CyBle_AiossConfirmationEventHandler:
 686              	.LFB11:
 885:Generated_Source\PSoC4/BLE_1_aios.c **** 
 886:Generated_Source\PSoC4/BLE_1_aios.c **** /******************************************************************************
 887:Generated_Source\PSoC4/BLE_1_aios.c **** * Function Name: CyBle_AiossConfirmationEventHandler
 888:Generated_Source\PSoC4/BLE_1_aios.c **** ***************************************************************************//**
ARM GAS  C:\Windows\TEMP\cc5RoFpJ.s 			page 29


 889:Generated_Source\PSoC4/BLE_1_aios.c **** * 
 890:Generated_Source\PSoC4/BLE_1_aios.c **** *  Handles a Value Confirmation request event from the BLE stack.
 891:Generated_Source\PSoC4/BLE_1_aios.c **** * 
 892:Generated_Source\PSoC4/BLE_1_aios.c **** *  eventParam - The pointer to a structure of type CYBLE_CONN_HANDLE_T.
 893:Generated_Source\PSoC4/BLE_1_aios.c **** *  
 894:Generated_Source\PSoC4/BLE_1_aios.c **** ******************************************************************************/
 895:Generated_Source\PSoC4/BLE_1_aios.c **** void CyBle_AiossConfirmationEventHandler(const CYBLE_CONN_HANDLE_T *eventParam)
 896:Generated_Source\PSoC4/BLE_1_aios.c **** {
 687              		.loc 1 896 0
 688              		.cfi_startproc
 689              		@ args = 0, pretend = 0, frame = 16
 690              		@ frame_needed = 0, uses_anonymous_args = 0
 691              	.LVL72:
 692 0000 F0B5     		push	{r4, r5, r6, r7, lr}
 693              		.cfi_def_cfa_offset 20
 694              		.cfi_offset 4, -20
 695              		.cfi_offset 5, -16
 696              		.cfi_offset 6, -12
 697              		.cfi_offset 7, -8
 698              		.cfi_offset 14, -4
 699 0002 85B0     		sub	sp, sp, #20
 700              		.cfi_def_cfa_offset 40
 701 0004 0500     		movs	r5, r0
 702              	.LVL73:
 897:Generated_Source\PSoC4/BLE_1_aios.c ****     CYBLE_AIOS_CHAR_INDEX_T locCharIndex;
 898:Generated_Source\PSoC4/BLE_1_aios.c ****     CYBLE_AIOS_CHAR_VALUE_T locCharValue;
 899:Generated_Source\PSoC4/BLE_1_aios.c ****     uint8 locCharInstance;
 900:Generated_Source\PSoC4/BLE_1_aios.c ****     uint8 locReqHandle = 0u;
 901:Generated_Source\PSoC4/BLE_1_aios.c **** 
 902:Generated_Source\PSoC4/BLE_1_aios.c ****     if((CyBle_AiosApplCallback != NULL) && (cyBle_aiossReqHandle != CYBLE_GATT_INVALID_ATTR_HANDLE_
 703              		.loc 1 902 0
 704 0006 204B     		ldr	r3, .L67
 705 0008 1B68     		ldr	r3, [r3]
 706 000a 002B     		cmp	r3, #0
 707 000c 39D0     		beq	.L58
 708              		.loc 1 902 0 is_stmt 0 discriminator 1
 709 000e 1E4B     		ldr	r3, .L67
 710 0010 9B88     		ldrh	r3, [r3, #4]
 711 0012 002B     		cmp	r3, #0
 712 0014 2FD1     		bne	.L65
 713 0016 34E0     		b	.L58
 714              	.LVL74:
 715              	.L63:
 903:Generated_Source\PSoC4/BLE_1_aios.c ****     {
 904:Generated_Source\PSoC4/BLE_1_aios.c ****         for(locCharIndex = CYBLE_AIOS_DIGITAL; (locCharIndex < CYBLE_AIOS_CHAR_COUNT) && (locReqHan
 905:Generated_Source\PSoC4/BLE_1_aios.c ****             locCharIndex++)
 906:Generated_Source\PSoC4/BLE_1_aios.c ****         {
 907:Generated_Source\PSoC4/BLE_1_aios.c ****             for(locCharInstance = 0u; (locCharInstance < cyBle_aiossCharInstances[locCharIndex]) &&
 908:Generated_Source\PSoC4/BLE_1_aios.c ****                 locCharInstance++)
 909:Generated_Source\PSoC4/BLE_1_aios.c ****             {
 910:Generated_Source\PSoC4/BLE_1_aios.c ****                 if(cyBle_aiossReqHandle == cyBle_aioss.charInfoAddr[locCharIndex].charInfoPtr[locCh
 716              		.loc 1 910 0 is_stmt 1
 717 0018 9B00     		lsls	r3, r3, #2
 718 001a 1C4A     		ldr	r2, .L67+4
 719 001c D318     		adds	r3, r2, r3
 720 001e 5A68     		ldr	r2, [r3, #4]
 721 0020 2301     		lsls	r3, r4, #4
ARM GAS  C:\Windows\TEMP\cc5RoFpJ.s 			page 30


 722 0022 D25A     		ldrh	r2, [r2, r3]
 723 0024 184B     		ldr	r3, .L67
 724 0026 9B88     		ldrh	r3, [r3, #4]
 725 0028 9A42     		cmp	r2, r3
 726 002a 16D1     		bne	.L61
 911:Generated_Source\PSoC4/BLE_1_aios.c ****                 {
 912:Generated_Source\PSoC4/BLE_1_aios.c ****                     locCharValue.connHandle = *eventParam;
 727              		.loc 1 912 0
 728 002c 01AF     		add	r7, sp, #4
 729 002e 0222     		movs	r2, #2
 730 0030 2900     		movs	r1, r5
 731              	.LVL75:
 732 0032 3800     		movs	r0, r7
 733 0034 FFF7FEFF 		bl	memcpy
 734              	.LVL76:
 913:Generated_Source\PSoC4/BLE_1_aios.c ****                     locCharValue.charIndex = locCharIndex;
 735              		.loc 1 913 0
 736 0038 BE70     		strb	r6, [r7, #2]
 914:Generated_Source\PSoC4/BLE_1_aios.c ****                     locCharValue.charInstance = locCharInstance;
 737              		.loc 1 914 0
 738 003a FC70     		strb	r4, [r7, #3]
 915:Generated_Source\PSoC4/BLE_1_aios.c ****                     locCharValue.value = NULL;
 739              		.loc 1 915 0
 740 003c 0022     		movs	r2, #0
 741 003e 7A60     		str	r2, [r7, #4]
 916:Generated_Source\PSoC4/BLE_1_aios.c ****                     cyBle_eventHandlerFlag &= (uint8)~CYBLE_CALLBACK;
 742              		.loc 1 916 0
 743 0040 1349     		ldr	r1, .L67+8
 744 0042 0B78     		ldrb	r3, [r1]
 745 0044 0120     		movs	r0, #1
 746 0046 8343     		bics	r3, r0
 747 0048 0B70     		strb	r3, [r1]
 917:Generated_Source\PSoC4/BLE_1_aios.c ****                     cyBle_aiossReqHandle = CYBLE_GATT_INVALID_ATTR_HANDLE_VALUE;
 748              		.loc 1 917 0
 749 004a 0F4B     		ldr	r3, .L67
 750 004c 9A80     		strh	r2, [r3, #4]
 918:Generated_Source\PSoC4/BLE_1_aios.c ****                     CyBle_AiosApplCallback((uint32)CYBLE_EVT_AIOSS_INDICATION_CONFIRMED, &locCharVa
 751              		.loc 1 918 0
 752 004e 1B68     		ldr	r3, [r3]
 753 0050 3900     		movs	r1, r7
 754 0052 1630     		adds	r0, r0, #22
 755 0054 FF30     		adds	r0, r0, #255
 756 0056 9847     		blx	r3
 757              	.LVL77:
 919:Generated_Source\PSoC4/BLE_1_aios.c ****                     locReqHandle = 1u;
 758              		.loc 1 919 0
 759 0058 0121     		movs	r1, #1
 760              	.LVL78:
 761              	.L61:
 908:Generated_Source\PSoC4/BLE_1_aios.c ****             {
 762              		.loc 1 908 0
 763 005a 0134     		adds	r4, r4, #1
 764              	.LVL79:
 765 005c E4B2     		uxtb	r4, r4
 766              	.LVL80:
 767 005e 00E0     		b	.L64
 768              	.LVL81:
ARM GAS  C:\Windows\TEMP\cc5RoFpJ.s 			page 31


 769              	.L66:
 770 0060 0024     		movs	r4, #0
 771              	.L64:
 772              	.LVL82:
 907:Generated_Source\PSoC4/BLE_1_aios.c ****                 locCharInstance++)
 773              		.loc 1 907 0 discriminator 1
 774 0062 3300     		movs	r3, r6
 775 0064 0B4A     		ldr	r2, .L67+12
 776 0066 925D     		ldrb	r2, [r2, r6]
 777 0068 9442     		cmp	r4, r2
 778 006a 01D2     		bcs	.L62
 907:Generated_Source\PSoC4/BLE_1_aios.c ****                 locCharInstance++)
 779              		.loc 1 907 0 is_stmt 0 discriminator 2
 780 006c 0029     		cmp	r1, #0
 781 006e D3D0     		beq	.L63
 782              	.L62:
 905:Generated_Source\PSoC4/BLE_1_aios.c ****         {
 783              		.loc 1 905 0 is_stmt 1
 784 0070 0136     		adds	r6, r6, #1
 785              	.LVL83:
 786 0072 F6B2     		uxtb	r6, r6
 787              	.LVL84:
 788 0074 01E0     		b	.L60
 789              	.LVL85:
 790              	.L65:
 791 0076 0021     		movs	r1, #0
 792 0078 0026     		movs	r6, #0
 793              	.LVL86:
 794              	.L60:
 904:Generated_Source\PSoC4/BLE_1_aios.c ****             locCharIndex++)
 795              		.loc 1 904 0 discriminator 1
 796 007a 022E     		cmp	r6, #2
 797 007c 01D8     		bhi	.L58
 904:Generated_Source\PSoC4/BLE_1_aios.c ****             locCharIndex++)
 798              		.loc 1 904 0 is_stmt 0 discriminator 2
 799 007e 0029     		cmp	r1, #0
 800 0080 EED0     		beq	.L66
 801              	.LVL87:
 802              	.L58:
 920:Generated_Source\PSoC4/BLE_1_aios.c ****                 }
 921:Generated_Source\PSoC4/BLE_1_aios.c ****             }
 922:Generated_Source\PSoC4/BLE_1_aios.c ****         }
 923:Generated_Source\PSoC4/BLE_1_aios.c ****     }
 924:Generated_Source\PSoC4/BLE_1_aios.c **** }
 803              		.loc 1 924 0 is_stmt 1
 804 0082 05B0     		add	sp, sp, #20
 805              		@ sp needed
 806              	.LVL88:
 807 0084 F0BD     		pop	{r4, r5, r6, r7, pc}
 808              	.L68:
 809 0086 C046     		.align	2
 810              	.L67:
 811 0088 00000000 		.word	.LANCHOR0
 812 008c 00000000 		.word	.LANCHOR2
 813 0090 00000000 		.word	cyBle_eventHandlerFlag
 814 0094 00000000 		.word	.LANCHOR1
 815              		.cfi_endproc
ARM GAS  C:\Windows\TEMP\cc5RoFpJ.s 			page 32


 816              	.LFE11:
 817              		.size	CyBle_AiossConfirmationEventHandler, .-CyBle_AiossConfirmationEventHandler
 818              		.section	.text.CyBle_AiosSetAggregateChar,"ax",%progbits
 819              		.align	2
 820              		.global	CyBle_AiosSetAggregateChar
 821              		.code	16
 822              		.thumb_func
 823              		.type	CyBle_AiosSetAggregateChar, %function
 824              	CyBle_AiosSetAggregateChar:
 825              	.LFB12:
 925:Generated_Source\PSoC4/BLE_1_aios.c **** 
 926:Generated_Source\PSoC4/BLE_1_aios.c **** /******************************************************************************
 927:Generated_Source\PSoC4/BLE_1_aios.c **** * Function Name: CyBle_AiosSetAggregateChar
 928:Generated_Source\PSoC4/BLE_1_aios.c **** ***************************************************************************//**
 929:Generated_Source\PSoC4/BLE_1_aios.c **** *
 930:Generated_Source\PSoC4/BLE_1_aios.c **** *  Sets the value for Aggregate characteristic. 
 931:Generated_Source\PSoC4/BLE_1_aios.c **** *  All of the defined Digital characteristics with the Read property set be
 932:Generated_Source\PSoC4/BLE_1_aios.c **** *  part of Aggregate (if available). The length of each of the Digital characteristics 
 933:Generated_Source\PSoC4/BLE_1_aios.c **** *  that is part of the Aggregate is determined from the number of signals defined in the 
 934:Generated_Source\PSoC4/BLE_1_aios.c **** *  Number of Digitals descriptor of the Digital characteristic. The Digital part byte 
 935:Generated_Source\PSoC4/BLE_1_aios.c **** *  aligned and trailing bits (if any) set to 0. The order of the Digital characteristics 
 936:Generated_Source\PSoC4/BLE_1_aios.c **** *  is determined by the value in the Description field of the Characteristic Presentation 
 937:Generated_Source\PSoC4/BLE_1_aios.c **** *  Format descriptor with the lowest value first. 
 938:Generated_Source\PSoC4/BLE_1_aios.c **** *  All of the defined Analog characteristics with Read property set part of the Aggregate
 939:Generated_Source\PSoC4/BLE_1_aios.c **** *  (if available). The order of the Analog characteristics is determined by the value in 
 940:Generated_Source\PSoC4/BLE_1_aios.c **** *  the Description field of the Characteristic Presentation Format descriptor with the 
 941:Generated_Source\PSoC4/BLE_1_aios.c **** *  lowest value first. 
 942:Generated_Source\PSoC4/BLE_1_aios.c **** *  The first analog input follows directly after the last Digital characteristic.
 943:Generated_Source\PSoC4/BLE_1_aios.c **** * 
 944:Generated_Source\PSoC4/BLE_1_aios.c **** * \return
 945:Generated_Source\PSoC4/BLE_1_aios.c **** *  A return value is of type CYBLE_GATT_ERR_CODE_T.
 946:Generated_Source\PSoC4/BLE_1_aios.c **** *  * CYBLE_GATT_ERR_NONE - The advertisement packet collected successfully.
 947:Generated_Source\PSoC4/BLE_1_aios.c **** *  * CYBLE_GATT_ERR_INVALID_HANDLE - 'handleValuePair.attrHandle' is not valid.
 948:Generated_Source\PSoC4/BLE_1_aios.c **** *
 949:Generated_Source\PSoC4/BLE_1_aios.c **** ******************************************************************************/
 950:Generated_Source\PSoC4/BLE_1_aios.c **** CYBLE_GATT_ERR_CODE_T CyBle_AiosSetAggregateChar(void)
 951:Generated_Source\PSoC4/BLE_1_aios.c **** {
 826              		.loc 1 951 0
 827              		.cfi_startproc
 828              		@ args = 0, pretend = 0, frame = 64
 829              		@ frame_needed = 0, uses_anonymous_args = 0
 830 0000 F0B5     		push	{r4, r5, r6, r7, lr}
 831              		.cfi_def_cfa_offset 20
 832              		.cfi_offset 4, -20
 833              		.cfi_offset 5, -16
 834              		.cfi_offset 6, -12
 835              		.cfi_offset 7, -8
 836              		.cfi_offset 14, -4
 837 0002 5F46     		mov	r7, fp
 838 0004 5646     		mov	r6, r10
 839 0006 4D46     		mov	r5, r9
 840 0008 4446     		mov	r4, r8
 841 000a F0B4     		push	{r4, r5, r6, r7}
 842              		.cfi_def_cfa_offset 36
 843              		.cfi_offset 8, -36
 844              		.cfi_offset 9, -32
 845              		.cfi_offset 10, -28
ARM GAS  C:\Windows\TEMP\cc5RoFpJ.s 			page 33


 846              		.cfi_offset 11, -24
 847 000c 91B0     		sub	sp, sp, #68
 848              		.cfi_def_cfa_offset 104
 849              	.LVL89:
 952:Generated_Source\PSoC4/BLE_1_aios.c ****     CYBLE_GATT_ERR_CODE_T gattErr = CYBLE_GATT_ERR_NONE;
 953:Generated_Source\PSoC4/BLE_1_aios.c ****     CYBLE_GATT_HANDLE_VALUE_PAIR_T locHandleValuePair;
 954:Generated_Source\PSoC4/BLE_1_aios.c ****     CYBLE_AIOS_CHAR_INDEX_T locCharIndex;
 955:Generated_Source\PSoC4/BLE_1_aios.c ****     uint8 locCharInstance;
 956:Generated_Source\PSoC4/BLE_1_aios.c ****     uint8 attrValue[CYBLE_AIOS_CHAR_PRESENTATION_FORMAT_LEN];
 957:Generated_Source\PSoC4/BLE_1_aios.c ****     uint8 aggregateChar[CYBLE_GATT_MTU-3];
 958:Generated_Source\PSoC4/BLE_1_aios.c ****     uint16 currentDescriptionValue;
 959:Generated_Source\PSoC4/BLE_1_aios.c ****     uint16 minDescriptionValue;
 960:Generated_Source\PSoC4/BLE_1_aios.c ****     uint16 minDescriptionValueTmp = 0xFFFFu;
 961:Generated_Source\PSoC4/BLE_1_aios.c ****     uint16 maxDescriptionValue;
 962:Generated_Source\PSoC4/BLE_1_aios.c ****     uint16 minDescriptionNumber;
 963:Generated_Source\PSoC4/BLE_1_aios.c ****     uint8 locCharInstanceNumber;
 964:Generated_Source\PSoC4/BLE_1_aios.c ****     uint8 aggregateCharIndex = 0u;
 965:Generated_Source\PSoC4/BLE_1_aios.c ****     uint8 aggregateDigitalBits = 0u;
 966:Generated_Source\PSoC4/BLE_1_aios.c ****     uint8 numOfDigital;
 967:Generated_Source\PSoC4/BLE_1_aios.c ****     uint8 i;
 968:Generated_Source\PSoC4/BLE_1_aios.c ****     
 969:Generated_Source\PSoC4/BLE_1_aios.c ****     for(i = 0; i < (CYBLE_GATT_MTU-3u); i++)
 850              		.loc 1 969 0
 851 000e 0023     		movs	r3, #0
 852 0010 04E0     		b	.L70
 853              	.LVL90:
 854              	.L71:
 970:Generated_Source\PSoC4/BLE_1_aios.c ****     {   
 971:Generated_Source\PSoC4/BLE_1_aios.c ****         aggregateChar[i] = 0u;
 855              		.loc 1 971 0 discriminator 3
 856 0012 0021     		movs	r1, #0
 857 0014 06AA     		add	r2, sp, #24
 858 0016 D154     		strb	r1, [r2, r3]
 969:Generated_Source\PSoC4/BLE_1_aios.c ****     {   
 859              		.loc 1 969 0 discriminator 3
 860 0018 0133     		adds	r3, r3, #1
 861              	.LVL91:
 862 001a DBB2     		uxtb	r3, r3
 863              	.LVL92:
 864              	.L70:
 969:Generated_Source\PSoC4/BLE_1_aios.c ****     {   
 865              		.loc 1 969 0 is_stmt 0 discriminator 1
 866 001c 132B     		cmp	r3, #19
 867 001e F8D9     		bls	.L71
 868 0020 0023     		movs	r3, #0
 869              	.LVL93:
 870 0022 04E0     		b	.L72
 871              	.LVL94:
 872              	.L73:
 972:Generated_Source\PSoC4/BLE_1_aios.c ****     }
 973:Generated_Source\PSoC4/BLE_1_aios.c ****     
 974:Generated_Source\PSoC4/BLE_1_aios.c ****     for(i = 0; i < CYBLE_AIOS_CHAR_PRESENTATION_FORMAT_LEN; i++)
 975:Generated_Source\PSoC4/BLE_1_aios.c ****     {   
 976:Generated_Source\PSoC4/BLE_1_aios.c ****         attrValue[i] = 0u;
 873              		.loc 1 976 0 is_stmt 1 discriminator 3
 874 0024 0021     		movs	r1, #0
 875 0026 0BAA     		add	r2, sp, #44
ARM GAS  C:\Windows\TEMP\cc5RoFpJ.s 			page 34


 876 0028 D154     		strb	r1, [r2, r3]
 974:Generated_Source\PSoC4/BLE_1_aios.c ****     {   
 877              		.loc 1 974 0 discriminator 3
 878 002a 0133     		adds	r3, r3, #1
 879              	.LVL95:
 880 002c DBB2     		uxtb	r3, r3
 881              	.LVL96:
 882              	.L72:
 974:Generated_Source\PSoC4/BLE_1_aios.c ****     {   
 883              		.loc 1 974 0 is_stmt 0 discriminator 1
 884 002e 062B     		cmp	r3, #6
 885 0030 F8D9     		bls	.L73
 977:Generated_Source\PSoC4/BLE_1_aios.c ****     }
 978:Generated_Source\PSoC4/BLE_1_aios.c ****    
 979:Generated_Source\PSoC4/BLE_1_aios.c ****     if((cyBle_aioss.charInfoAddr[CYBLE_AIOS_AGGREGATE].charInfoPtr != NULL) &&
 980:Generated_Source\PSoC4/BLE_1_aios.c ****         (CYBLE_GATT_INVALID_ATTR_HANDLE_VALUE != cyBle_aioss.charInfoAddr[CYBLE_AIOS_AGGREGATE].cha
 886              		.loc 1 980 0 is_stmt 1 discriminator 1
 887 0032 764B     		ldr	r3, .L95
 888              	.LVL97:
 889 0034 9B88     		ldrh	r3, [r3, #4]
 979:Generated_Source\PSoC4/BLE_1_aios.c ****         (CYBLE_GATT_INVALID_ATTR_HANDLE_VALUE != cyBle_aioss.charInfoAddr[CYBLE_AIOS_AGGREGATE].cha
 890              		.loc 1 979 0 discriminator 1
 891 0036 002B     		cmp	r3, #0
 892 0038 00D0     		beq	.LCB912
 893 003a C5E0     		b	.L88	@long jump
 894              	.LCB912:
 952:Generated_Source\PSoC4/BLE_1_aios.c ****     CYBLE_GATT_HANDLE_VALUE_PAIR_T locHandleValuePair;
 895              		.loc 1 952 0
 896 003c 0020     		movs	r0, #0
 897 003e DEE0     		b	.L75
 898              	.LVL98:
 899              	.L79:
 981:Generated_Source\PSoC4/BLE_1_aios.c ****     {
 982:Generated_Source\PSoC4/BLE_1_aios.c ****         for(locCharIndex = CYBLE_AIOS_DIGITAL; (locCharIndex <= CYBLE_AIOS_ANALOG) && (gattErr == C
 983:Generated_Source\PSoC4/BLE_1_aios.c ****                         locCharIndex++)
 984:Generated_Source\PSoC4/BLE_1_aios.c ****         {
 985:Generated_Source\PSoC4/BLE_1_aios.c ****             minDescriptionValue = 0u;
 986:Generated_Source\PSoC4/BLE_1_aios.c ****             minDescriptionNumber = 0u;
 987:Generated_Source\PSoC4/BLE_1_aios.c ****             
 988:Generated_Source\PSoC4/BLE_1_aios.c ****             for(locCharInstanceNumber = 0u; 
 989:Generated_Source\PSoC4/BLE_1_aios.c ****                     (locCharInstanceNumber < cyBle_aiossCharInstances[locCharIndex]) && (gattErr ==
 990:Generated_Source\PSoC4/BLE_1_aios.c ****                             locCharInstanceNumber++)
 991:Generated_Source\PSoC4/BLE_1_aios.c ****             {   
 992:Generated_Source\PSoC4/BLE_1_aios.c ****                 maxDescriptionValue = CYBLE_AIOS_MAX_CHAR_DESCRIPTION_VALUE;
 993:Generated_Source\PSoC4/BLE_1_aios.c ****                 
 994:Generated_Source\PSoC4/BLE_1_aios.c ****                 for(locCharInstance = 0u; 
 995:Generated_Source\PSoC4/BLE_1_aios.c ****                         (locCharInstance < cyBle_aiossCharInstances[locCharIndex]) && (gattErr == C
 996:Generated_Source\PSoC4/BLE_1_aios.c ****                                 locCharInstance++)
 997:Generated_Source\PSoC4/BLE_1_aios.c ****                 {
 998:Generated_Source\PSoC4/BLE_1_aios.c ****                     if((cyBle_aioss.charInfoAddr[locCharIndex].charInfoPtr != NULL) &&
 900              		.loc 1 998 0
 901 0040 AB00     		lsls	r3, r5, #2
 902 0042 734A     		ldr	r2, .L95+4
 903 0044 D318     		adds	r3, r2, r3
 904 0046 5A68     		ldr	r2, [r3, #4]
 905 0048 002A     		cmp	r2, #0
 906 004a 12D0     		beq	.L89
ARM GAS  C:\Windows\TEMP\cc5RoFpJ.s 			page 35


 999:Generated_Source\PSoC4/BLE_1_aios.c ****                         (cyBle_aioss.charInfoAddr[locCharIndex].charInfoPtr[locCharInstance].charHa
 907              		.loc 1 999 0 discriminator 1
 908 004c 2301     		lsls	r3, r4, #4
 909 004e D318     		adds	r3, r2, r3
 910 0050 1A88     		ldrh	r2, [r3]
 998:Generated_Source\PSoC4/BLE_1_aios.c ****                         (cyBle_aioss.charInfoAddr[locCharIndex].charInfoPtr[locCharInstance].charHa
 911              		.loc 1 998 0 discriminator 1
 912 0052 002A     		cmp	r2, #0
 913 0054 0FD0     		beq	.L90
1000:Generated_Source\PSoC4/BLE_1_aios.c ****                                 != CYBLE_GATT_INVALID_ATTR_HANDLE_VALUE) &&
1001:Generated_Source\PSoC4/BLE_1_aios.c ****                         (cyBle_aioss.charInfoAddr[locCharIndex].charInfoPtr[locCharInstance].descrH
 914              		.loc 1 1001 0
 915 0056 9B88     		ldrh	r3, [r3, #4]
1000:Generated_Source\PSoC4/BLE_1_aios.c ****                                 != CYBLE_GATT_INVALID_ATTR_HANDLE_VALUE) &&
 916              		.loc 1 1000 0
 917 0058 002B     		cmp	r3, #0
 918 005a 0ED0     		beq	.L91
1002:Generated_Source\PSoC4/BLE_1_aios.c ****                                 != CYBLE_GATT_INVALID_ATTR_HANDLE_VALUE))
1003:Generated_Source\PSoC4/BLE_1_aios.c ****                     {
1004:Generated_Source\PSoC4/BLE_1_aios.c ****                         locHandleValuePair.attrHandle =
 919              		.loc 1 1004 0
 920 005c 0DA8     		add	r0, sp, #52
 921              	.LVL99:
 922 005e 0381     		strh	r3, [r0, #8]
1005:Generated_Source\PSoC4/BLE_1_aios.c ****                             cyBle_aioss.charInfoAddr[locCharIndex].charInfoPtr[locCharInstance].des
1006:Generated_Source\PSoC4/BLE_1_aios.c ****                         locHandleValuePair.value.len = CYBLE_AIOS_CHAR_PRESENTATION_FORMAT_LEN;
 923              		.loc 1 1006 0
 924 0060 0723     		movs	r3, #7
 925 0062 8380     		strh	r3, [r0, #4]
1007:Generated_Source\PSoC4/BLE_1_aios.c ****                         locHandleValuePair.value.val = attrValue;
 926              		.loc 1 1007 0
 927 0064 0BAB     		add	r3, sp, #44
 928 0066 0D93     		str	r3, [sp, #52]
1008:Generated_Source\PSoC4/BLE_1_aios.c ****                            
1009:Generated_Source\PSoC4/BLE_1_aios.c ****                         gattErr = CyBle_GattsReadAttributeValue(&locHandleValuePair, NULL, CYBLE_GA
 929              		.loc 1 1009 0
 930 0068 0022     		movs	r2, #0
 931 006a 0021     		movs	r1, #0
 932 006c FFF7FEFF 		bl	CyBle_GattsReadAttributeValue
 933              	.LVL100:
 934 0070 04E0     		b	.L76
 935              	.L89:
1010:Generated_Source\PSoC4/BLE_1_aios.c ****                     }
1011:Generated_Source\PSoC4/BLE_1_aios.c ****                     else
1012:Generated_Source\PSoC4/BLE_1_aios.c ****                     {
1013:Generated_Source\PSoC4/BLE_1_aios.c ****                         gattErr = CYBLE_GATT_ERR_INVALID_HANDLE;
 936              		.loc 1 1013 0
 937 0072 0120     		movs	r0, #1
 938              	.LVL101:
 939 0074 02E0     		b	.L76
 940              	.LVL102:
 941              	.L90:
 942 0076 0120     		movs	r0, #1
 943              	.LVL103:
 944 0078 00E0     		b	.L76
 945              	.LVL104:
 946              	.L91:
ARM GAS  C:\Windows\TEMP\cc5RoFpJ.s 			page 36


 947 007a 0120     		movs	r0, #1
 948              	.LVL105:
 949              	.L76:
1014:Generated_Source\PSoC4/BLE_1_aios.c ****                     }
1015:Generated_Source\PSoC4/BLE_1_aios.c ****                    
1016:Generated_Source\PSoC4/BLE_1_aios.c ****                     if (gattErr == CYBLE_GATT_ERR_NONE)
 950              		.loc 1 1016 0
 951 007c 0028     		cmp	r0, #0
 952 007e 0CD1     		bne	.L77
1017:Generated_Source\PSoC4/BLE_1_aios.c ****                     {   
1018:Generated_Source\PSoC4/BLE_1_aios.c ****                         currentDescriptionValue = ((uint16)(((uint16)attrValue[CYBLE_AIOS_CHAR_PRES
 953              		.loc 1 1018 0
 954 0080 0BAA     		add	r2, sp, #44
 955 0082 9379     		ldrb	r3, [r2, #6]
 956 0084 1B02     		lsls	r3, r3, #8
 957 0086 5279     		ldrb	r2, [r2, #5]
 958 0088 1343     		orrs	r3, r2
 959              	.LVL106:
1019:Generated_Source\PSoC4/BLE_1_aios.c ****                         
1020:Generated_Source\PSoC4/BLE_1_aios.c ****                         if ((currentDescriptionValue < maxDescriptionValue) &&
 960              		.loc 1 1020 0
 961 008a 9E42     		cmp	r6, r3
 962 008c 05D9     		bls	.L77
 963              		.loc 1 1020 0 is_stmt 0 discriminator 1
 964 008e 9A45     		cmp	r10, r3
 965 0090 03D2     		bcs	.L77
 966              	.LVL107:
1021:Generated_Source\PSoC4/BLE_1_aios.c ****                             (currentDescriptionValue > minDescriptionValue) )
1022:Generated_Source\PSoC4/BLE_1_aios.c ****                         {
1023:Generated_Source\PSoC4/BLE_1_aios.c ****                             maxDescriptionValue = currentDescriptionValue;
1024:Generated_Source\PSoC4/BLE_1_aios.c ****                             minDescriptionNumber = locCharInstance;
 967              		.loc 1 1024 0 is_stmt 1
 968 0092 A2B2     		uxth	r2, r4
 969 0094 9346     		mov	fp, r2
 970              	.LVL108:
1023:Generated_Source\PSoC4/BLE_1_aios.c ****                             minDescriptionNumber = locCharInstance;
 971              		.loc 1 1023 0
 972 0096 1E00     		movs	r6, r3
1025:Generated_Source\PSoC4/BLE_1_aios.c ****                             minDescriptionValueTmp = currentDescriptionValue;
 973              		.loc 1 1025 0
 974 0098 0093     		str	r3, [sp]
 975              	.LVL109:
 976              	.L77:
 996:Generated_Source\PSoC4/BLE_1_aios.c ****                 {
 977              		.loc 1 996 0
 978 009a 0134     		adds	r4, r4, #1
 979              	.LVL110:
 980 009c E4B2     		uxtb	r4, r4
 981              	.LVL111:
 982 009e 01E0     		b	.L85
 983              	.LVL112:
 984              	.L93:
 985 00a0 5C4E     		ldr	r6, .L95+8
 986 00a2 0024     		movs	r4, #0
 987              	.L85:
 988              	.LVL113:
 995:Generated_Source\PSoC4/BLE_1_aios.c ****                                 locCharInstance++)
ARM GAS  C:\Windows\TEMP\cc5RoFpJ.s 			page 37


 989              		.loc 1 995 0 discriminator 1
 990 00a4 594B     		ldr	r3, .L95
 991 00a6 5B5D     		ldrb	r3, [r3, r5]
 994:Generated_Source\PSoC4/BLE_1_aios.c ****                         (locCharInstance < cyBle_aiossCharInstances[locCharIndex]) && (gattErr == C
 992              		.loc 1 994 0 discriminator 1
 993 00a8 9C42     		cmp	r4, r3
 994 00aa 01D2     		bcs	.L78
 995:Generated_Source\PSoC4/BLE_1_aios.c ****                                 locCharInstance++)
 995              		.loc 1 995 0
 996 00ac 0028     		cmp	r0, #0
 997 00ae C7D0     		beq	.L79
 998              	.L78:
 999              	.LVL114:
1026:Generated_Source\PSoC4/BLE_1_aios.c ****                         }
1027:Generated_Source\PSoC4/BLE_1_aios.c ****                     }
1028:Generated_Source\PSoC4/BLE_1_aios.c ****                 }
1029:Generated_Source\PSoC4/BLE_1_aios.c ****             
1030:Generated_Source\PSoC4/BLE_1_aios.c ****                 minDescriptionValue = minDescriptionValueTmp;
1031:Generated_Source\PSoC4/BLE_1_aios.c ****                 
1032:Generated_Source\PSoC4/BLE_1_aios.c ****                 if (locCharIndex == CYBLE_AIOS_DIGITAL)
 1000              		.loc 1 1032 0
 1001 00b0 4346     		mov	r3, r8
 1002 00b2 002B     		cmp	r3, #0
 1003 00b4 53D1     		bne	.L80
1033:Generated_Source\PSoC4/BLE_1_aios.c ****                 {   
1034:Generated_Source\PSoC4/BLE_1_aios.c ****                     /* Read descriptor CYBLE_AIOS_NUM_OF_DIGITAL_DESCR value from database */
1035:Generated_Source\PSoC4/BLE_1_aios.c ****                     locHandleValuePair.attrHandle =
1036:Generated_Source\PSoC4/BLE_1_aios.c ****                         cyBle_aioss.charInfoAddr[CYBLE_AIOS_DIGITAL].charInfoPtr[minDescriptionNumb
 1004              		.loc 1 1036 0
 1005 00b6 5B46     		mov	r3, fp
 1006 00b8 1B01     		lsls	r3, r3, #4
 1007 00ba 544C     		ldr	r4, .L95
 1008              	.LVL115:
 1009 00bc 1434     		adds	r4, r4, #20
 1010 00be E418     		adds	r4, r4, r3
 1011 00c0 E389     		ldrh	r3, [r4, #14]
1035:Generated_Source\PSoC4/BLE_1_aios.c ****                         cyBle_aioss.charInfoAddr[CYBLE_AIOS_DIGITAL].charInfoPtr[minDescriptionNumb
 1012              		.loc 1 1035 0
 1013 00c2 0DA8     		add	r0, sp, #52
 1014              	.LVL116:
 1015 00c4 0381     		strh	r3, [r0, #8]
1037:Generated_Source\PSoC4/BLE_1_aios.c ****                     locHandleValuePair.value.len = CYBLE_AIOS_NUM_OF_DIGITAL_DESCR_LEN;
 1016              		.loc 1 1037 0
 1017 00c6 0123     		movs	r3, #1
 1018 00c8 8380     		strh	r3, [r0, #4]
1038:Generated_Source\PSoC4/BLE_1_aios.c ****                     locHandleValuePair.value.val = &numOfDigital;
 1019              		.loc 1 1038 0
 1020 00ca 04AB     		add	r3, sp, #16
 1021 00cc 0733     		adds	r3, r3, #7
 1022 00ce 0D93     		str	r3, [sp, #52]
1039:Generated_Source\PSoC4/BLE_1_aios.c ****                     
1040:Generated_Source\PSoC4/BLE_1_aios.c ****                     gattErr = CyBle_GattsReadAttributeValue(&locHandleValuePair, NULL, CYBLE_GATT_D
 1023              		.loc 1 1040 0
 1024 00d0 0022     		movs	r2, #0
 1025 00d2 0021     		movs	r1, #0
 1026 00d4 FFF7FEFF 		bl	CyBle_GattsReadAttributeValue
 1027              	.LVL117:
ARM GAS  C:\Windows\TEMP\cc5RoFpJ.s 			page 38


1041:Generated_Source\PSoC4/BLE_1_aios.c ****                         
1042:Generated_Source\PSoC4/BLE_1_aios.c ****                     if (gattErr == CYBLE_GATT_ERR_NONE)    
 1028              		.loc 1 1042 0
 1029 00d8 0028     		cmp	r0, #0
 1030 00da 5BD1     		bne	.L81
1043:Generated_Source\PSoC4/BLE_1_aios.c ****                     {
1044:Generated_Source\PSoC4/BLE_1_aios.c ****                         locHandleValuePair.attrHandle =
1045:Generated_Source\PSoC4/BLE_1_aios.c ****                             cyBle_aioss.charInfoAddr[CYBLE_AIOS_DIGITAL].charInfoPtr[minDescription
 1031              		.loc 1 1045 0
 1032 00dc 2388     		ldrh	r3, [r4]
1044:Generated_Source\PSoC4/BLE_1_aios.c ****                             cyBle_aioss.charInfoAddr[CYBLE_AIOS_DIGITAL].charInfoPtr[minDescription
 1033              		.loc 1 1044 0
 1034 00de 0DA8     		add	r0, sp, #52
 1035              	.LVL118:
 1036 00e0 0381     		strh	r3, [r0, #8]
1046:Generated_Source\PSoC4/BLE_1_aios.c ****                         locHandleValuePair.value.len = (numOfDigital / 4) + 1;
 1037              		.loc 1 1046 0
 1038 00e2 04AB     		add	r3, sp, #16
 1039 00e4 0733     		adds	r3, r3, #7
 1040 00e6 1B78     		ldrb	r3, [r3]
 1041 00e8 9B08     		lsrs	r3, r3, #2
 1042 00ea 0133     		adds	r3, r3, #1
 1043 00ec 8380     		strh	r3, [r0, #4]
1047:Generated_Source\PSoC4/BLE_1_aios.c ****                         locHandleValuePair.value.val = &aggregateChar[aggregateCharIndex + 1];
 1044              		.loc 1 1047 0
 1045 00ee 4C46     		mov	r4, r9
 1046 00f0 4B46     		mov	r3, r9
 1047 00f2 0133     		adds	r3, r3, #1
 1048 00f4 06AA     		add	r2, sp, #24
 1049 00f6 9446     		mov	ip, r2
 1050 00f8 6344     		add	r3, r3, ip
 1051 00fa 0D93     		str	r3, [sp, #52]
1048:Generated_Source\PSoC4/BLE_1_aios.c ****                                             
1049:Generated_Source\PSoC4/BLE_1_aios.c ****                         gattErr = CyBle_GattsReadAttributeValue(&locHandleValuePair, NULL, CYBLE_GA
 1052              		.loc 1 1049 0
 1053 00fc 0022     		movs	r2, #0
 1054 00fe 0021     		movs	r1, #0
 1055 0100 FFF7FEFF 		bl	CyBle_GattsReadAttributeValue
 1056              	.LVL119:
1050:Generated_Source\PSoC4/BLE_1_aios.c ****                         
1051:Generated_Source\PSoC4/BLE_1_aios.c ****                         if (gattErr == CYBLE_GATT_ERR_NONE)    
 1057              		.loc 1 1051 0
 1058 0104 0028     		cmp	r0, #0
 1059 0106 14D0     		beq	.L92
 1060 0108 44E0     		b	.L81
 1061              	.LVL120:
 1062              	.L83:
1052:Generated_Source\PSoC4/BLE_1_aios.c ****                         {    
1053:Generated_Source\PSoC4/BLE_1_aios.c ****                             for (i = 0; i < ((numOfDigital / 4u) + 1u); i++)
1054:Generated_Source\PSoC4/BLE_1_aios.c ****                             {
1055:Generated_Source\PSoC4/BLE_1_aios.c ****                                 aggregateChar[aggregateCharIndex+i] |= (uint8)(aggregateChar[aggreg
 1063              		.loc 1 1055 0 discriminator 3
 1064 010a 039B     		ldr	r3, [sp, #12]
 1065 010c CE18     		adds	r6, r1, r3
 1066 010e 751C     		adds	r5, r6, #1
 1067 0110 06AB     		add	r3, sp, #24
 1068 0112 5A5D     		ldrb	r2, [r3, r5]
ARM GAS  C:\Windows\TEMP\cc5RoFpJ.s 			page 39


 1069 0114 0198     		ldr	r0, [sp, #4]
 1070 0116 8240     		lsls	r2, r2, r0
 1071 0118 9246     		mov	r10, r2
 1072 011a 9A5D     		ldrb	r2, [r3, r6]
 1073 011c 5446     		mov	r4, r10
 1074 011e 1443     		orrs	r4, r2
 1075 0120 9C55     		strb	r4, [r3, r6]
1056:Generated_Source\PSoC4/BLE_1_aios.c ****                                 aggregateChar[aggregateCharIndex + i + 1] >>= (8 - aggregateDigital
 1076              		.loc 1 1056 0 discriminator 3
 1077 0122 0826     		movs	r6, #8
 1078 0124 361A     		subs	r6, r6, r0
 1079 0126 5A5D     		ldrb	r2, [r3, r5]
 1080 0128 3241     		asrs	r2, r2, r6
 1081 012a 5A55     		strb	r2, [r3, r5]
1053:Generated_Source\PSoC4/BLE_1_aios.c ****                             {
 1082              		.loc 1 1053 0 discriminator 3
 1083 012c 0131     		adds	r1, r1, #1
 1084              	.LVL121:
 1085 012e C9B2     		uxtb	r1, r1
 1086              	.LVL122:
 1087 0130 02E0     		b	.L82
 1088              	.LVL123:
 1089              	.L92:
 1090 0132 0021     		movs	r1, #0
 1091 0134 0290     		str	r0, [sp, #8]
 1092 0136 0394     		str	r4, [sp, #12]
 1093              	.LVL124:
 1094              	.L82:
1053:Generated_Source\PSoC4/BLE_1_aios.c ****                             {
 1095              		.loc 1 1053 0 is_stmt 0 discriminator 1
 1096 0138 04AB     		add	r3, sp, #16
 1097 013a DD79     		ldrb	r5, [r3, #7]
 1098 013c AB08     		lsrs	r3, r5, #2
 1099 013e 0133     		adds	r3, r3, #1
 1100 0140 9942     		cmp	r1, r3
 1101 0142 E2D3     		bcc	.L83
 1102 0144 0298     		ldr	r0, [sp, #8]
1057:Generated_Source\PSoC4/BLE_1_aios.c ****                             }
1058:Generated_Source\PSoC4/BLE_1_aios.c **** 
1059:Generated_Source\PSoC4/BLE_1_aios.c ****                             aggregateCharIndex += (((aggregateDigitalBits / 2u) + numOfDigital) / 4
 1103              		.loc 1 1059 0 is_stmt 1
 1104 0146 019B     		ldr	r3, [sp, #4]
 1105 0148 5B08     		lsrs	r3, r3, #1
 1106 014a EB18     		adds	r3, r5, r3
 1107 014c 9A08     		lsrs	r2, r3, #2
 1108 014e 4A44     		add	r2, r2, r9
 1109 0150 D2B2     		uxtb	r2, r2
 1110 0152 9146     		mov	r9, r2
 1111              	.LVL125:
1060:Generated_Source\PSoC4/BLE_1_aios.c ****                             aggregateDigitalBits = (((aggregateDigitalBits / 2u) + numOfDigital) % 
 1112              		.loc 1 1060 0
 1113 0154 0322     		movs	r2, #3
 1114 0156 1340     		ands	r3, r2
 1115 0158 5B00     		lsls	r3, r3, #1
 1116 015a 0193     		str	r3, [sp, #4]
 1117              	.LVL126:
 1118 015c 1AE0     		b	.L81
ARM GAS  C:\Windows\TEMP\cc5RoFpJ.s 			page 40


 1119              	.LVL127:
 1120              	.L80:
1061:Generated_Source\PSoC4/BLE_1_aios.c ****                         }
1062:Generated_Source\PSoC4/BLE_1_aios.c ****                     }
1063:Generated_Source\PSoC4/BLE_1_aios.c ****                 }
1064:Generated_Source\PSoC4/BLE_1_aios.c ****                 else if(locCharIndex == CYBLE_AIOS_ANALOG)
 1121              		.loc 1 1064 0
 1122 015e 4346     		mov	r3, r8
 1123 0160 012B     		cmp	r3, #1
 1124 0162 17D1     		bne	.L81
1065:Generated_Source\PSoC4/BLE_1_aios.c ****                 {
1066:Generated_Source\PSoC4/BLE_1_aios.c ****                     /* Read characteristic CYBLE_AIOS_ANALOG value from database */ 
1067:Generated_Source\PSoC4/BLE_1_aios.c ****                     locHandleValuePair.attrHandle =
1068:Generated_Source\PSoC4/BLE_1_aios.c ****                         cyBle_aioss.charInfoAddr[locCharIndex].charInfoPtr[minDescriptionNumber].ch
 1125              		.loc 1 1068 0
 1126 0164 AD00     		lsls	r5, r5, #2
 1127 0166 2A4B     		ldr	r3, .L95+4
 1128 0168 5D19     		adds	r5, r3, r5
 1129 016a 6A68     		ldr	r2, [r5, #4]
 1130 016c 5B46     		mov	r3, fp
 1131 016e 1B01     		lsls	r3, r3, #4
 1132 0170 D35A     		ldrh	r3, [r2, r3]
1067:Generated_Source\PSoC4/BLE_1_aios.c ****                         cyBle_aioss.charInfoAddr[locCharIndex].charInfoPtr[minDescriptionNumber].ch
 1133              		.loc 1 1067 0
 1134 0172 0DA8     		add	r0, sp, #52
 1135              	.LVL128:
 1136 0174 0381     		strh	r3, [r0, #8]
1069:Generated_Source\PSoC4/BLE_1_aios.c ****                     locHandleValuePair.value.len = CYBLE_AIOS_ANALOG_LEN;
 1137              		.loc 1 1069 0
 1138 0176 0223     		movs	r3, #2
 1139 0178 8380     		strh	r3, [r0, #4]
1070:Generated_Source\PSoC4/BLE_1_aios.c ****                     locHandleValuePair.value.val = &aggregateChar[aggregateCharIndex];
 1140              		.loc 1 1070 0
 1141 017a 06AB     		add	r3, sp, #24
 1142 017c 4B44     		add	r3, r3, r9
 1143 017e 0D93     		str	r3, [sp, #52]
1071:Generated_Source\PSoC4/BLE_1_aios.c ****                                         
1072:Generated_Source\PSoC4/BLE_1_aios.c ****                     gattErr = CyBle_GattsReadAttributeValue(&locHandleValuePair, NULL, CYBLE_GATT_D
 1144              		.loc 1 1072 0
 1145 0180 0022     		movs	r2, #0
 1146 0182 0021     		movs	r1, #0
 1147 0184 FFF7FEFF 		bl	CyBle_GattsReadAttributeValue
 1148              	.LVL129:
1073:Generated_Source\PSoC4/BLE_1_aios.c ****                     if (gattErr == CYBLE_GATT_ERR_NONE)    
 1149              		.loc 1 1073 0
 1150 0188 0028     		cmp	r0, #0
 1151 018a 03D1     		bne	.L81
1074:Generated_Source\PSoC4/BLE_1_aios.c ****                     {
1075:Generated_Source\PSoC4/BLE_1_aios.c ****                         aggregateCharIndex += 2u;
 1152              		.loc 1 1075 0
 1153 018c 4B46     		mov	r3, r9
 1154 018e 0233     		adds	r3, r3, #2
 1155 0190 DBB2     		uxtb	r3, r3
 1156 0192 9946     		mov	r9, r3
 1157              	.LVL130:
 1158              	.L81:
 990:Generated_Source\PSoC4/BLE_1_aios.c ****             {   
ARM GAS  C:\Windows\TEMP\cc5RoFpJ.s 			page 41


 1159              		.loc 1 990 0
 1160 0194 0137     		adds	r7, r7, #1
 1161              	.LVL131:
 1162 0196 FFB2     		uxtb	r7, r7
 1163              	.LVL132:
1030:Generated_Source\PSoC4/BLE_1_aios.c ****                 
 1164              		.loc 1 1030 0
 1165 0198 009B     		ldr	r3, [sp]
 1166 019a 9A46     		mov	r10, r3
 1167 019c 04E0     		b	.L87
 1168              	.LVL133:
 1169              	.L94:
 1170 019e 0023     		movs	r3, #0
 1171 01a0 9B46     		mov	fp, r3
 1172 01a2 9A46     		mov	r10, r3
 1173 01a4 B846     		mov	r8, r7
 1174 01a6 1F00     		movs	r7, r3
 1175              	.LVL134:
 1176              	.L87:
 989:Generated_Source\PSoC4/BLE_1_aios.c ****                             locCharInstanceNumber++)
 1177              		.loc 1 989 0 discriminator 1
 1178 01a8 4546     		mov	r5, r8
 1179 01aa 184B     		ldr	r3, .L95
 1180 01ac 5B5D     		ldrb	r3, [r3, r5]
 988:Generated_Source\PSoC4/BLE_1_aios.c ****                     (locCharInstanceNumber < cyBle_aiossCharInstances[locCharIndex]) && (gattErr ==
 1181              		.loc 1 988 0 discriminator 1
 1182 01ae 9F42     		cmp	r7, r3
 1183 01b0 02D2     		bcs	.L84
 989:Generated_Source\PSoC4/BLE_1_aios.c ****                             locCharInstanceNumber++)
 1184              		.loc 1 989 0
 1185 01b2 0028     		cmp	r0, #0
 1186 01b4 00D1     		bne	.LCB1273
 1187 01b6 73E7     		b	.L93	@long jump
 1188              	.LCB1273:
 1189              	.L84:
 1190 01b8 4746     		mov	r7, r8
 1191              	.LVL135:
1076:Generated_Source\PSoC4/BLE_1_aios.c ****                     }
1077:Generated_Source\PSoC4/BLE_1_aios.c ****                 }
1078:Generated_Source\PSoC4/BLE_1_aios.c ****                 else
1079:Generated_Source\PSoC4/BLE_1_aios.c ****                 {
1080:Generated_Source\PSoC4/BLE_1_aios.c ****                    /* Do nothing */
1081:Generated_Source\PSoC4/BLE_1_aios.c ****                 }
1082:Generated_Source\PSoC4/BLE_1_aios.c ****             }  
1083:Generated_Source\PSoC4/BLE_1_aios.c ****             aggregateCharIndex++;
 1192              		.loc 1 1083 0
 1193 01ba 4B46     		mov	r3, r9
 1194 01bc 0133     		adds	r3, r3, #1
 1195 01be DBB2     		uxtb	r3, r3
 1196 01c0 9946     		mov	r9, r3
 1197              	.LVL136:
 983:Generated_Source\PSoC4/BLE_1_aios.c ****         {
 1198              		.loc 1 983 0
 1199 01c2 7B1C     		adds	r3, r7, #1
 1200 01c4 DFB2     		uxtb	r7, r3
 1201              	.LVL137:
 1202 01c6 06E0     		b	.L74
ARM GAS  C:\Windows\TEMP\cc5RoFpJ.s 			page 42


 1203              	.LVL138:
 1204              	.L88:
 1205 01c8 0023     		movs	r3, #0
 1206 01ca 9946     		mov	r9, r3
 1207 01cc 114A     		ldr	r2, .L95+8
 1208 01ce 0092     		str	r2, [sp]
 1209 01d0 0027     		movs	r7, #0
 1210 01d2 0020     		movs	r0, #0
 1211 01d4 0193     		str	r3, [sp, #4]
 1212              	.LVL139:
 1213              	.L74:
 982:Generated_Source\PSoC4/BLE_1_aios.c ****                         locCharIndex++)
 1214              		.loc 1 982 0 discriminator 1
 1215 01d6 012F     		cmp	r7, #1
 1216 01d8 01D8     		bhi	.L86
 982:Generated_Source\PSoC4/BLE_1_aios.c ****                         locCharIndex++)
 1217              		.loc 1 982 0 is_stmt 0 discriminator 2
 1218 01da 0028     		cmp	r0, #0
 1219 01dc DFD0     		beq	.L94
 1220              	.L86:
1084:Generated_Source\PSoC4/BLE_1_aios.c ****         }
1085:Generated_Source\PSoC4/BLE_1_aios.c ****         
1086:Generated_Source\PSoC4/BLE_1_aios.c ****         if (gattErr == CYBLE_GATT_ERR_NONE)
 1221              		.loc 1 1086 0 is_stmt 1
 1222 01de 0028     		cmp	r0, #0
 1223 01e0 0DD1     		bne	.L75
1087:Generated_Source\PSoC4/BLE_1_aios.c ****         {
1088:Generated_Source\PSoC4/BLE_1_aios.c ****             locHandleValuePair.attrHandle = cyBle_aioss.charInfoAddr[CYBLE_AIOS_AGGREGATE].charInfo
 1224              		.loc 1 1088 0
 1225 01e2 0A4B     		ldr	r3, .L95
 1226 01e4 9B88     		ldrh	r3, [r3, #4]
 1227 01e6 0DA8     		add	r0, sp, #52
 1228              	.LVL140:
 1229 01e8 0381     		strh	r3, [r0, #8]
1089:Generated_Source\PSoC4/BLE_1_aios.c ****             locHandleValuePair.value.len = aggregateCharIndex-1u;
 1230              		.loc 1 1089 0
 1231 01ea 4B46     		mov	r3, r9
 1232 01ec 013B     		subs	r3, r3, #1
 1233 01ee 8380     		strh	r3, [r0, #4]
1090:Generated_Source\PSoC4/BLE_1_aios.c ****             locHandleValuePair.value.val = aggregateChar;
 1234              		.loc 1 1090 0
 1235 01f0 06AB     		add	r3, sp, #24
 1236 01f2 0D93     		str	r3, [sp, #52]
1091:Generated_Source\PSoC4/BLE_1_aios.c **** 
1092:Generated_Source\PSoC4/BLE_1_aios.c ****             /* Store data in database */
1093:Generated_Source\PSoC4/BLE_1_aios.c ****             gattErr = CyBle_GattsWriteAttributeValue(&locHandleValuePair, 0u, NULL, CYBLE_GATT_DB_L
 1237              		.loc 1 1093 0
 1238 01f4 0023     		movs	r3, #0
 1239 01f6 0022     		movs	r2, #0
 1240 01f8 0021     		movs	r1, #0
 1241 01fa FFF7FEFF 		bl	CyBle_GattsWriteAttributeValue
 1242              	.LVL141:
 1243              	.L75:
1094:Generated_Source\PSoC4/BLE_1_aios.c ****         }
1095:Generated_Source\PSoC4/BLE_1_aios.c ****     }    
1096:Generated_Source\PSoC4/BLE_1_aios.c ****     return gattErr;
1097:Generated_Source\PSoC4/BLE_1_aios.c **** }
ARM GAS  C:\Windows\TEMP\cc5RoFpJ.s 			page 43


 1244              		.loc 1 1097 0
 1245 01fe 11B0     		add	sp, sp, #68
 1246              		@ sp needed
 1247 0200 3CBC     		pop	{r2, r3, r4, r5}
 1248 0202 9046     		mov	r8, r2
 1249 0204 9946     		mov	r9, r3
 1250 0206 A246     		mov	r10, r4
 1251 0208 AB46     		mov	fp, r5
 1252 020a F0BD     		pop	{r4, r5, r6, r7, pc}
 1253              	.L96:
 1254              		.align	2
 1255              	.L95:
 1256 020c 00000000 		.word	.LANCHOR1
 1257 0210 00000000 		.word	.LANCHOR2
 1258 0214 FFFF0000 		.word	65535
 1259              		.cfi_endproc
 1260              	.LFE12:
 1261              		.size	CyBle_AiosSetAggregateChar, .-CyBle_AiosSetAggregateChar
 1262              		.section	.text.CyBle_AiosInit,"ax",%progbits
 1263              		.align	2
 1264              		.global	CyBle_AiosInit
 1265              		.code	16
 1266              		.thumb_func
 1267              		.type	CyBle_AiosInit, %function
 1268              	CyBle_AiosInit:
 1269              	.LFB2:
 154:Generated_Source\PSoC4/BLE_1_aios.c **** #ifdef CYBLE_AIOS_CLIENT
 1270              		.loc 1 154 0
 1271              		.cfi_startproc
 1272              		@ args = 0, pretend = 0, frame = 0
 1273              		@ frame_needed = 0, uses_anonymous_args = 0
 1274 0000 10B5     		push	{r4, lr}
 1275              		.cfi_def_cfa_offset 8
 1276              		.cfi_offset 4, -8
 1277              		.cfi_offset 14, -4
 179:Generated_Source\PSoC4/BLE_1_aios.c **** #endif /* CYBLE_AIOS_SERVER */
 1278              		.loc 1 179 0
 1279 0002 FFF7FEFF 		bl	CyBle_AiosSetAggregateChar
 1280              	.LVL142:
 182:Generated_Source\PSoC4/BLE_1_aios.c **** 
 1281              		.loc 1 182 0
 1282              		@ sp needed
 1283 0006 10BD     		pop	{r4, pc}
 1284              		.cfi_endproc
 1285              	.LFE2:
 1286              		.size	CyBle_AiosInit, .-CyBle_AiosInit
 1287              		.section	.text.CyBle_AiossWriteEventHandler,"ax",%progbits
 1288              		.align	2
 1289              		.global	CyBle_AiossWriteEventHandler
 1290              		.code	16
 1291              		.thumb_func
 1292              		.type	CyBle_AiossWriteEventHandler, %function
 1293              	CyBle_AiossWriteEventHandler:
 1294              	.LFB4:
 233:Generated_Source\PSoC4/BLE_1_aios.c ****     uint8 i;
 1295              		.loc 1 233 0
 1296              		.cfi_startproc
ARM GAS  C:\Windows\TEMP\cc5RoFpJ.s 			page 44


 1297              		@ args = 0, pretend = 0, frame = 24
 1298              		@ frame_needed = 0, uses_anonymous_args = 0
 1299              	.LVL143:
 1300 0000 F0B5     		push	{r4, r5, r6, r7, lr}
 1301              		.cfi_def_cfa_offset 20
 1302              		.cfi_offset 4, -20
 1303              		.cfi_offset 5, -16
 1304              		.cfi_offset 6, -12
 1305              		.cfi_offset 7, -8
 1306              		.cfi_offset 14, -4
 1307 0002 5F46     		mov	r7, fp
 1308 0004 5646     		mov	r6, r10
 1309 0006 4D46     		mov	r5, r9
 1310 0008 4446     		mov	r4, r8
 1311 000a F0B4     		push	{r4, r5, r6, r7}
 1312              		.cfi_def_cfa_offset 36
 1313              		.cfi_offset 8, -36
 1314              		.cfi_offset 9, -32
 1315              		.cfi_offset 10, -28
 1316              		.cfi_offset 11, -24
 1317 000c 87B0     		sub	sp, sp, #28
 1318              		.cfi_def_cfa_offset 64
 1319 000e 8246     		mov	r10, r0
 1320              	.LVL144:
 245:Generated_Source\PSoC4/BLE_1_aios.c ****     
 1321              		.loc 1 245 0
 1322 0010 8689     		ldrh	r6, [r0, #12]
 1323              	.LVL145:
 247:Generated_Source\PSoC4/BLE_1_aios.c ****     {
 1324              		.loc 1 247 0
 1325 0012 924B     		ldr	r3, .L133
 1326 0014 1B68     		ldr	r3, [r3]
 1327 0016 002B     		cmp	r3, #0
 1328 0018 00D0     		beq	.LCB1422
 1329 001a FDE0     		b	.L125	@long jump
 1330              	.LCB1422:
 238:Generated_Source\PSoC4/BLE_1_aios.c ****     CYBLE_AIOSS_CHAR_T *aiosCharInfoPtr;
 1331              		.loc 1 238 0
 1332 001c 0024     		movs	r4, #0
 236:Generated_Source\PSoC4/BLE_1_aios.c ****     CYBLE_GATT_DB_ATTR_HANDLE_T tmpHandle;
 1333              		.loc 1 236 0
 1334 001e 0027     		movs	r7, #0
 1335 0020 07E1     		b	.L100
 1336              	.LVL146:
 1337              	.L122:
 263:Generated_Source\PSoC4/BLE_1_aios.c ****             {   
 1338              		.loc 1 263 0
 1339 0022 C846     		mov	r8, r9
 1340 0024 4B46     		mov	r3, r9
 1341 0026 9B00     		lsls	r3, r3, #2
 1342 0028 8D4A     		ldr	r2, .L133+4
 1343 002a D318     		adds	r3, r2, r3
 1344 002c 5B68     		ldr	r3, [r3, #4]
 1345 002e 002B     		cmp	r3, #0
 1346 0030 00D0     		beq	.LCB1441
 1347 0032 E5E0     		b	.L126	@long jump
 1348              	.LCB1441:
ARM GAS  C:\Windows\TEMP\cc5RoFpJ.s 			page 45


 1349 0034 EBE0     		b	.L102
 1350              	.LVL147:
 1351              	.L121:
 267:Generated_Source\PSoC4/BLE_1_aios.c ****                     
 1352              		.loc 1 267 0
 1353 0036 4346     		mov	r3, r8
 1354 0038 9B00     		lsls	r3, r3, #2
 1355 003a 894A     		ldr	r2, .L133+4
 1356 003c D318     		adds	r3, r2, r3
 1357 003e 5968     		ldr	r1, [r3, #4]
 1358 0040 2B01     		lsls	r3, r5, #4
 1359 0042 C918     		adds	r1, r1, r3
 1360              	.LVL148:
 270:Generated_Source\PSoC4/BLE_1_aios.c ****                     {
 1361              		.loc 1 270 0
 1362 0044 0B88     		ldrh	r3, [r1]
 1363 0046 9E42     		cmp	r6, r3
 1364 0048 04D1     		bne	.L103
 272:Generated_Source\PSoC4/BLE_1_aios.c ****                         foundItem = CYBLE_AIOS_CHARACTERISTIC_ITEM;
 1365              		.loc 1 272 0
 1366 004a 0722     		movs	r2, #7
 1367 004c 03AB     		add	r3, sp, #12
 1368 004e 1A71     		strb	r2, [r3, #4]
 1369              	.LVL149:
 273:Generated_Source\PSoC4/BLE_1_aios.c ****                     }                
 1370              		.loc 1 273 0
 1371 0050 0124     		movs	r4, #1
 1372 0052 12E0     		b	.L104
 1373              	.LVL150:
 1374              	.L103:
 280:Generated_Source\PSoC4/BLE_1_aios.c ****                         
 1375              		.loc 1 280 0
 1376 0054 0722     		movs	r2, #7
 1377 0056 03AB     		add	r3, sp, #12
 1378 0058 1A71     		strb	r2, [r3, #4]
 1379              	.LVL151:
 282:Generated_Source\PSoC4/BLE_1_aios.c ****                         {
 1380              		.loc 1 282 0
 1381 005a 0023     		movs	r3, #0
 1382 005c 09E0     		b	.L105
 1383              	.LVL152:
 1384              	.L107:
 284:Generated_Source\PSoC4/BLE_1_aios.c **** 	                        {
 1385              		.loc 1 284 0
 1386 005e 5A00     		lsls	r2, r3, #1
 1387 0060 8A18     		adds	r2, r1, r2
 1388 0062 5288     		ldrh	r2, [r2, #2]
 1389 0064 9642     		cmp	r6, r2
 1390 0066 02D1     		bne	.L106
 286:Generated_Source\PSoC4/BLE_1_aios.c **** 		                        foundItem = CYBLE_AIOS_DESCRIPTOR_ITEM;
 1391              		.loc 1 286 0
 1392 0068 03AA     		add	r2, sp, #12
 1393 006a 1371     		strb	r3, [r2, #4]
 1394              	.LVL153:
 287:Generated_Source\PSoC4/BLE_1_aios.c **** 	                        }
 1395              		.loc 1 287 0
 1396 006c 0224     		movs	r4, #2
ARM GAS  C:\Windows\TEMP\cc5RoFpJ.s 			page 46


 1397              	.LVL154:
 1398              	.L106:
 282:Generated_Source\PSoC4/BLE_1_aios.c ****                         {
 1399              		.loc 1 282 0 discriminator 2
 1400 006e 0133     		adds	r3, r3, #1
 1401              	.LVL155:
 1402 0070 DBB2     		uxtb	r3, r3
 1403              	.LVL156:
 1404              	.L105:
 282:Generated_Source\PSoC4/BLE_1_aios.c ****                         {
 1405              		.loc 1 282 0 is_stmt 0 discriminator 1
 1406 0072 062B     		cmp	r3, #6
 1407 0074 01D8     		bhi	.L104
 282:Generated_Source\PSoC4/BLE_1_aios.c ****                         {
 1408              		.loc 1 282 0 discriminator 3
 1409 0076 022C     		cmp	r4, #2
 1410 0078 F1D1     		bne	.L107
 1411              	.LVL157:
 1412              	.L104:
 293:Generated_Source\PSoC4/BLE_1_aios.c ****                     {
 1413              		.loc 1 293 0 is_stmt 1
 1414 007a 002F     		cmp	r7, #0
 1415 007c 6FD1     		bne	.L108
 293:Generated_Source\PSoC4/BLE_1_aios.c ****                     {
 1416              		.loc 1 293 0 is_stmt 0 discriminator 1
 1417 007e 022C     		cmp	r4, #2
 1418 0080 6DD1     		bne	.L108
 295:Generated_Source\PSoC4/BLE_1_aios.c ****                         {
 1419              		.loc 1 295 0 is_stmt 1
 1420 0082 03AB     		add	r3, sp, #12
 1421 0084 1B79     		ldrb	r3, [r3, #4]
 1422 0086 022B     		cmp	r3, #2
 1423 0088 42D0     		beq	.L109
 1424 008a 02D8     		bhi	.L110
 1425 008c 002B     		cmp	r3, #0
 1426 008e 05D0     		beq	.L111
 1427 0090 65E0     		b	.L108
 1428              	.L110:
 1429 0092 042B     		cmp	r3, #4
 1430 0094 50D0     		beq	.L112
 1431 0096 052B     		cmp	r3, #5
 1432 0098 54D0     		beq	.L113
 1433 009a 60E0     		b	.L108
 1434              	.L111:
 299:Generated_Source\PSoC4/BLE_1_aios.c ****                             {
 1435              		.loc 1 299 0
 1436 009c 0B88     		ldrh	r3, [r1]
 1437 009e 013B     		subs	r3, r3, #1
 1438 00a0 9A00     		lsls	r2, r3, #2
 1439 00a2 D318     		adds	r3, r2, r3
 1440 00a4 9A00     		lsls	r2, r3, #2
 1441 00a6 6F4B     		ldr	r3, .L133+8
 1442 00a8 9A18     		adds	r2, r3, r2
 1443 00aa 5368     		ldr	r3, [r2, #4]
 1444 00ac DA02     		lsls	r2, r3, #11
 1445 00ae 16D5     		bpl	.L114
 301:Generated_Source\PSoC4/BLE_1_aios.c ****                                 {
ARM GAS  C:\Windows\TEMP\cc5RoFpJ.s 			page 47


 1446              		.loc 1 301 0
 1447 00b0 5346     		mov	r3, r10
 1448 00b2 5868     		ldr	r0, [r3, #4]
 1449 00b4 FFF7FEFF 		bl	CyBle_Get16ByPtr
 1450              	.LVL158:
 1451 00b8 C307     		lsls	r3, r0, #31
 1452 00ba 03D5     		bpl	.L127
 303:Generated_Source\PSoC4/BLE_1_aios.c ****                                 }
 1453              		.loc 1 303 0
 1454 00bc 8923     		movs	r3, #137
 1455 00be 5B00     		lsls	r3, r3, #1
 1456 00c0 9B46     		mov	fp, r3
 1457              	.LVL159:
 1458 00c2 02E0     		b	.L115
 1459              	.LVL160:
 1460              	.L127:
 307:Generated_Source\PSoC4/BLE_1_aios.c ****                                 }
 1461              		.loc 1 307 0
 1462 00c4 1423     		movs	r3, #20
 1463 00c6 FF33     		adds	r3, r3, #255
 1464 00c8 9B46     		mov	fp, r3
 1465              	.LVL161:
 1466              	.L115:
 313:Generated_Source\PSoC4/BLE_1_aios.c ****                                 {
 1467              		.loc 1 313 0
 1468 00ca 674B     		ldr	r3, .L133+12
 1469 00cc 1B78     		ldrb	r3, [r3]
 1470 00ce 012B     		cmp	r3, #1
 1471 00d0 45D1     		bne	.L108
 315:Generated_Source\PSoC4/BLE_1_aios.c ****                                 }
 1472              		.loc 1 315 0
 1473 00d2 664A     		ldr	r2, .L133+16
 1474 00d4 1178     		ldrb	r1, [r2]
 1475 00d6 0223     		movs	r3, #2
 1476 00d8 0B43     		orrs	r3, r1
 1477 00da 1370     		strb	r3, [r2]
 1478 00dc 3FE0     		b	.L108
 1479              	.LVL162:
 1480              	.L114:
 319:Generated_Source\PSoC4/BLE_1_aios.c ****                             {
 1481              		.loc 1 319 0
 1482 00de 9B02     		lsls	r3, r3, #10
 1483 00e0 36D5     		bpl	.L128
 321:Generated_Source\PSoC4/BLE_1_aios.c ****                                 {
 1484              		.loc 1 321 0
 1485 00e2 5346     		mov	r3, r10
 1486 00e4 5868     		ldr	r0, [r3, #4]
 1487 00e6 FFF7FEFF 		bl	CyBle_Get16ByPtr
 1488              	.LVL163:
 1489 00ea 8307     		lsls	r3, r0, #30
 1490 00ec 03D5     		bpl	.L129
 323:Generated_Source\PSoC4/BLE_1_aios.c ****                                 }
 1491              		.loc 1 323 0
 1492 00ee 8A23     		movs	r3, #138
 1493 00f0 5B00     		lsls	r3, r3, #1
 1494 00f2 9B46     		mov	fp, r3
 1495              	.LVL164:
ARM GAS  C:\Windows\TEMP\cc5RoFpJ.s 			page 48


 1496 00f4 02E0     		b	.L116
 1497              	.LVL165:
 1498              	.L129:
 327:Generated_Source\PSoC4/BLE_1_aios.c ****                                 }
 1499              		.loc 1 327 0
 1500 00f6 1623     		movs	r3, #22
 1501 00f8 FF33     		adds	r3, r3, #255
 1502 00fa 9B46     		mov	fp, r3
 1503              	.LVL166:
 1504              	.L116:
 333:Generated_Source\PSoC4/BLE_1_aios.c ****                                 {
 1505              		.loc 1 333 0
 1506 00fc 5A4B     		ldr	r3, .L133+12
 1507 00fe 1B78     		ldrb	r3, [r3]
 1508 0100 012B     		cmp	r3, #1
 1509 0102 2CD1     		bne	.L108
 335:Generated_Source\PSoC4/BLE_1_aios.c ****                                 }
 1510              		.loc 1 335 0
 1511 0104 594A     		ldr	r2, .L133+16
 1512 0106 1178     		ldrb	r1, [r2]
 1513 0108 0223     		movs	r3, #2
 1514 010a 0B43     		orrs	r3, r1
 1515 010c 1370     		strb	r3, [r2]
 1516 010e 26E0     		b	.L108
 1517              	.LVL167:
 1518              	.L109:
 346:Generated_Source\PSoC4/BLE_1_aios.c ****                                 aiosCharInfoPtr->descrHandle[CYBLE_AIOS_CHAR_USER_DESCRIPTION_DESCR
 1519              		.loc 1 346 0
 1520 0110 CB88     		ldrh	r3, [r1, #6]
 1521 0112 013B     		subs	r3, r3, #1
 1522 0114 9900     		lsls	r1, r3, #2
 1523              	.LVL168:
 1524 0116 C918     		adds	r1, r1, r3
 1525 0118 8A00     		lsls	r2, r1, #2
 1526 011a 5249     		ldr	r1, .L133+8
 1527 011c 8A18     		adds	r2, r1, r2
 1528 011e 9189     		ldrh	r1, [r2, #12]
 348:Generated_Source\PSoC4/BLE_1_aios.c ****                             {
 1529              		.loc 1 348 0
 1530 0120 5246     		mov	r2, r10
 1531 0122 1289     		ldrh	r2, [r2, #8]
 346:Generated_Source\PSoC4/BLE_1_aios.c ****                                 aiosCharInfoPtr->descrHandle[CYBLE_AIOS_CHAR_USER_DESCRIPTION_DESCR
 1532              		.loc 1 346 0
 1533 0124 9142     		cmp	r1, r2
 1534 0126 15D3     		bcc	.L130
 351:Generated_Source\PSoC4/BLE_1_aios.c ****                                     aiosCharInfoPtr->descrHandle[CYBLE_AIOS_CHAR_USER_DESCRIPTION_D
 1535              		.loc 1 351 0
 1536 0128 9900     		lsls	r1, r3, #2
 1537 012a CB18     		adds	r3, r1, r3
 1538 012c 9900     		lsls	r1, r3, #2
 1539 012e 4D4B     		ldr	r3, .L133+8
 1540 0130 5918     		adds	r1, r3, r1
 1541 0132 0B69     		ldr	r3, [r1, #16]
 1542 0134 1A80     		strh	r2, [r3]
 1543 0136 12E0     		b	.L108
 1544              	.LVL169:
 1545              	.L112:
ARM GAS  C:\Windows\TEMP\cc5RoFpJ.s 			page 49


 363:Generated_Source\PSoC4/BLE_1_aios.c ****                             {
 1546              		.loc 1 363 0
 1547 0138 5346     		mov	r3, r10
 1548 013a 5B68     		ldr	r3, [r3, #4]
 1549 013c 1B78     		ldrb	r3, [r3]
 1550 013e 062B     		cmp	r3, #6
 1551 0140 0AD8     		bhi	.L131
 1552 0142 0CE0     		b	.L108
 1553              	.L113:
 371:Generated_Source\PSoC4/BLE_1_aios.c ****                             {
 1554              		.loc 1 371 0
 1555 0144 5346     		mov	r3, r10
 1556 0146 5B68     		ldr	r3, [r3, #4]
 1557 0148 1B78     		ldrb	r3, [r3]
 1558 014a 022B     		cmp	r3, #2
 1559 014c 06D8     		bhi	.L132
 1560 014e 06E0     		b	.L108
 1561              	.L128:
 341:Generated_Source\PSoC4/BLE_1_aios.c ****                             }
 1562              		.loc 1 341 0
 1563 0150 0627     		movs	r7, #6
 1564              	.LVL170:
 1565 0152 04E0     		b	.L108
 1566              	.LVL171:
 1567              	.L130:
 357:Generated_Source\PSoC4/BLE_1_aios.c ****                             }
 1568              		.loc 1 357 0
 1569 0154 0D27     		movs	r7, #13
 1570              	.LVL172:
 1571 0156 02E0     		b	.L108
 1572              	.LVL173:
 1573              	.L131:
 365:Generated_Source\PSoC4/BLE_1_aios.c ****                             }
 1574              		.loc 1 365 0
 1575 0158 8027     		movs	r7, #128
 1576              	.LVL174:
 1577 015a 00E0     		b	.L108
 1578              	.LVL175:
 1579              	.L132:
 373:Generated_Source\PSoC4/BLE_1_aios.c ****                             }
 1580              		.loc 1 373 0
 1581 015c 8027     		movs	r7, #128
 1582              	.LVL176:
 1583              	.L108:
 383:Generated_Source\PSoC4/BLE_1_aios.c ****                     && ( (foundItem == CYBLE_AIOS_CHARACTERISTIC_ITEM) || (foundItem == CYBLE_AIOS_
 1584              		.loc 1 383 0
 1585 015e 002F     		cmp	r7, #0
 1586 0160 4BD1     		bne	.L117
 384:Generated_Source\PSoC4/BLE_1_aios.c ****                     {
 1587              		.loc 1 384 0
 1588 0162 631E     		subs	r3, r4, #1
 1589 0164 DBB2     		uxtb	r3, r3
 1590 0166 012B     		cmp	r3, #1
 1591 0168 47D8     		bhi	.L117
 386:Generated_Source\PSoC4/BLE_1_aios.c ****                                                               &eventParam->connHandle,
 1592              		.loc 1 386 0
 1593 016a 5346     		mov	r3, r10
ARM GAS  C:\Windows\TEMP\cc5RoFpJ.s 			page 50


 1594 016c 9889     		ldrh	r0, [r3, #12]
 1595 016e 4222     		movs	r2, #66
 1596 0170 5146     		mov	r1, r10
 1597 0172 FFF7FEFF 		bl	CyBle_GattDbCheckPermission
 1598              	.LVL177:
 1599 0176 071E     		subs	r7, r0, #0
 1600              	.LVL178:
 390:Generated_Source\PSoC4/BLE_1_aios.c ****                         {
 1601              		.loc 1 390 0
 1602 0178 39D1     		bne	.L118
 394:Generated_Source\PSoC4/BLE_1_aios.c ****                             {
 1603              		.loc 1 394 0
 1604 017a 012C     		cmp	r4, #1
 1605 017c 14D1     		bne	.L119
 396:Generated_Source\PSoC4/BLE_1_aios.c ****                                 wrCharReqParam.charIndex = (CYBLE_AIOS_CHAR_INDEX_T) i;
 1606              		.loc 1 396 0
 1607 017e 5346     		mov	r3, r10
 1608 0180 1B88     		ldrh	r3, [r3]
 1609 0182 6A46     		mov	r2, sp
 1610 0184 1380     		strh	r3, [r2]
 397:Generated_Source\PSoC4/BLE_1_aios.c ****                                 wrCharReqParam.charInstance = j;
 1611              		.loc 1 397 0
 1612 0186 6B46     		mov	r3, sp
 1613 0188 4A46     		mov	r2, r9
 1614 018a 9A70     		strb	r2, [r3, #2]
 398:Generated_Source\PSoC4/BLE_1_aios.c ****                                 wrCharReqParam.gattErrorCode = CYBLE_GATT_ERR_NONE;
 1615              		.loc 1 398 0
 1616 018c DD70     		strb	r5, [r3, #3]
 399:Generated_Source\PSoC4/BLE_1_aios.c ****                                 wrCharReqParam.value = &eventParam->handleValPair.value;
 1617              		.loc 1 399 0
 1618 018e 0023     		movs	r3, #0
 1619 0190 6A46     		mov	r2, sp
 1620 0192 1372     		strb	r3, [r2, #8]
 400:Generated_Source\PSoC4/BLE_1_aios.c ****                             
 1621              		.loc 1 400 0
 1622 0194 5346     		mov	r3, r10
 1623 0196 0433     		adds	r3, r3, #4
 1624 0198 0193     		str	r3, [sp, #4]
 402:Generated_Source\PSoC4/BLE_1_aios.c ****                             }
 1625              		.loc 1 402 0
 1626 019a 304B     		ldr	r3, .L133
 1627 019c 1B68     		ldr	r3, [r3]
 1628 019e 6946     		mov	r1, sp
 1629 01a0 1820     		movs	r0, #24
 1630              	.LVL179:
 1631 01a2 FF30     		adds	r0, r0, #255
 1632 01a4 9847     		blx	r3
 1633              	.LVL180:
 1634 01a6 12E0     		b	.L120
 1635              	.LVL181:
 1636              	.L119:
 404:Generated_Source\PSoC4/BLE_1_aios.c ****                             {
 1637              		.loc 1 404 0
 1638 01a8 022C     		cmp	r4, #2
 1639 01aa 10D1     		bne	.L120
 406:Generated_Source\PSoC4/BLE_1_aios.c ****                                 wrDescrReqParam.charIndex = (CYBLE_AIOS_CHAR_INDEX_T) i;
 1640              		.loc 1 406 0
ARM GAS  C:\Windows\TEMP\cc5RoFpJ.s 			page 51


 1641 01ac 03A9     		add	r1, sp, #12
 1642 01ae 5346     		mov	r3, r10
 1643 01b0 1B88     		ldrh	r3, [r3]
 1644 01b2 0B80     		strh	r3, [r1]
 407:Generated_Source\PSoC4/BLE_1_aios.c ****                                 wrDescrReqParam.charInstance = j;
 1645              		.loc 1 407 0
 1646 01b4 4B46     		mov	r3, r9
 1647 01b6 8B70     		strb	r3, [r1, #2]
 408:Generated_Source\PSoC4/BLE_1_aios.c ****                                 wrDescrReqParam.gattErrorCode = CYBLE_GATT_ERR_NONE;
 1648              		.loc 1 408 0
 1649 01b8 CD70     		strb	r5, [r1, #3]
 409:Generated_Source\PSoC4/BLE_1_aios.c ****                                 wrDescrReqParam.value = &eventParam->handleValPair.value;
 1650              		.loc 1 409 0
 1651 01ba 0023     		movs	r3, #0
 1652 01bc 4B71     		strb	r3, [r1, #5]
 410:Generated_Source\PSoC4/BLE_1_aios.c ****                             
 1653              		.loc 1 410 0
 1654 01be 5346     		mov	r3, r10
 1655 01c0 0433     		adds	r3, r3, #4
 1656 01c2 8B60     		str	r3, [r1, #8]
 412:Generated_Source\PSoC4/BLE_1_aios.c ****                             }
 1657              		.loc 1 412 0
 1658 01c4 254B     		ldr	r3, .L133
 1659 01c6 1B68     		ldr	r3, [r3]
 1660 01c8 8C20     		movs	r0, #140
 1661              	.LVL182:
 1662 01ca 4000     		lsls	r0, r0, #1
 1663 01cc 9847     		blx	r3
 1664              	.LVL183:
 1665              	.L120:
 420:Generated_Source\PSoC4/BLE_1_aios.c ****                                 &eventParam->connHandle, CYBLE_GATT_DB_PEER_INITIATED);
 1666              		.loc 1 420 0
 1667 01ce 5346     		mov	r3, r10
 1668 01d0 181D     		adds	r0, r3, #4
 1669 01d2 4023     		movs	r3, #64
 1670 01d4 5246     		mov	r2, r10
 1671 01d6 0021     		movs	r1, #0
 1672 01d8 FFF7FEFF 		bl	CyBle_GattsWriteAttributeValue
 1673              	.LVL184:
 1674 01dc 0700     		movs	r7, r0
 1675              	.LVL185:
 423:Generated_Source\PSoC4/BLE_1_aios.c ****                             {   
 1676              		.loc 1 423 0
 1677 01de 5B46     		mov	r3, fp
 1678 01e0 002B     		cmp	r3, #0
 1679 01e2 04D0     		beq	.L118
 1680              	.LVL186:
 425:Generated_Source\PSoC4/BLE_1_aios.c ****                             }
 1681              		.loc 1 425 0
 1682 01e4 1D4B     		ldr	r3, .L133
 1683              	.LVL187:
 1684 01e6 1B68     		ldr	r3, [r3]
 1685 01e8 03A9     		add	r1, sp, #12
 1686 01ea 5846     		mov	r0, fp
 1687              	.LVL188:
 1688 01ec 9847     		blx	r3
 1689              	.LVL189:
ARM GAS  C:\Windows\TEMP\cc5RoFpJ.s 			page 52


 1690              	.L118:
 432:Generated_Source\PSoC4/BLE_1_aios.c ****                         break;
 1691              		.loc 1 432 0
 1692 01ee 204A     		ldr	r2, .L133+20
 1693 01f0 1378     		ldrb	r3, [r2]
 1694 01f2 0121     		movs	r1, #1
 1695 01f4 8B43     		bics	r3, r1
 1696 01f6 1370     		strb	r3, [r2]
 433:Generated_Source\PSoC4/BLE_1_aios.c ****                     }
 1697              		.loc 1 433 0
 1698 01f8 09E0     		b	.L102
 1699              	.L117:
 265:Generated_Source\PSoC4/BLE_1_aios.c ****                 {
 1700              		.loc 1 265 0 discriminator 2
 1701 01fa 0135     		adds	r5, r5, #1
 1702              	.LVL190:
 1703 01fc EDB2     		uxtb	r5, r5
 1704              	.LVL191:
 1705 01fe 00E0     		b	.L101
 1706              	.LVL192:
 1707              	.L126:
 1708 0200 0025     		movs	r5, #0
 1709              	.L101:
 1710              	.LVL193:
 265:Generated_Source\PSoC4/BLE_1_aios.c ****                 {
 1711              		.loc 1 265 0 is_stmt 0 discriminator 1
 1712 0202 1C4B     		ldr	r3, .L133+24
 1713 0204 4246     		mov	r2, r8
 1714 0206 9B5C     		ldrb	r3, [r3, r2]
 1715 0208 9D42     		cmp	r5, r3
 1716 020a 00D2     		bcs	.LCB1874
 1717 020c 13E7     		b	.L121	@long jump
 1718              	.LCB1874:
 1719              	.LVL194:
 1720              	.L102:
 256:Generated_Source\PSoC4/BLE_1_aios.c ****         {
 1721              		.loc 1 256 0 is_stmt 1
 1722 020e 4B46     		mov	r3, r9
 1723 0210 0133     		adds	r3, r3, #1
 1724 0212 DBB2     		uxtb	r3, r3
 1725 0214 9946     		mov	r9, r3
 1726              	.LVL195:
 1727 0216 04E0     		b	.L99
 1728              	.LVL196:
 1729              	.L125:
 1730 0218 0023     		movs	r3, #0
 1731 021a 9B46     		mov	fp, r3
 1732 021c 0024     		movs	r4, #0
 1733 021e 0027     		movs	r7, #0
 1734 0220 9946     		mov	r9, r3
 1735              	.LVL197:
 1736              	.L99:
 255:Generated_Source\PSoC4/BLE_1_aios.c ****             i++)
 1737              		.loc 1 255 0 discriminator 1
 1738 0222 4B46     		mov	r3, r9
 1739 0224 022B     		cmp	r3, #2
 1740 0226 04D8     		bhi	.L100
ARM GAS  C:\Windows\TEMP\cc5RoFpJ.s 			page 53


 255:Generated_Source\PSoC4/BLE_1_aios.c ****             i++)
 1741              		.loc 1 255 0 is_stmt 0 discriminator 2
 1742 0228 002C     		cmp	r4, #0
 1743 022a 02D1     		bne	.L100
 255:Generated_Source\PSoC4/BLE_1_aios.c ****             i++)
 1744              		.loc 1 255 0 discriminator 3
 1745 022c 002F     		cmp	r7, #0
 1746 022e 00D1     		bne	.LCB1919
 1747 0230 F7E6     		b	.L122	@long jump
 1748              	.LCB1919:
 1749              	.LVL198:
 1750              	.L100:
 440:Generated_Source\PSoC4/BLE_1_aios.c ****     {
 1751              		.loc 1 440 0 is_stmt 1
 1752 0232 002F     		cmp	r7, #0
 1753 0234 05D0     		beq	.L123
 443:Generated_Source\PSoC4/BLE_1_aios.c ****     }
 1754              		.loc 1 443 0
 1755 0236 0E4A     		ldr	r2, .L133+20
 1756 0238 1378     		ldrb	r3, [r2]
 1757 023a 0121     		movs	r1, #1
 1758 023c 8B43     		bics	r3, r1
 1759 023e 1370     		strb	r3, [r2]
 1760 0240 04E0     		b	.L124
 1761              	.L123:
 447:Generated_Source\PSoC4/BLE_1_aios.c ****         {
 1762              		.loc 1 447 0
 1763 0242 012C     		cmp	r4, #1
 1764 0244 02D1     		bne	.L124
 449:Generated_Source\PSoC4/BLE_1_aios.c ****         }
 1765              		.loc 1 449 0
 1766 0246 FFF7FEFF 		bl	CyBle_AiosSetAggregateChar
 1767              	.LVL199:
 1768 024a 0700     		movs	r7, r0
 1769              	.LVL200:
 1770              	.L124:
 454:Generated_Source\PSoC4/BLE_1_aios.c **** 
 1771              		.loc 1 454 0
 1772 024c 3800     		movs	r0, r7
 1773 024e 07B0     		add	sp, sp, #28
 1774              		@ sp needed
 1775              	.LVL201:
 1776              	.LVL202:
 1777              	.LVL203:
 1778              	.LVL204:
 1779 0250 3CBC     		pop	{r2, r3, r4, r5}
 1780 0252 9046     		mov	r8, r2
 1781 0254 9946     		mov	r9, r3
 1782 0256 A246     		mov	r10, r4
 1783 0258 AB46     		mov	fp, r5
 1784 025a F0BD     		pop	{r4, r5, r6, r7, pc}
 1785              	.L134:
 1786              		.align	2
 1787              	.L133:
 1788 025c 00000000 		.word	.LANCHOR0
 1789 0260 00000000 		.word	.LANCHOR2
 1790 0264 00000000 		.word	cyBle_gattDB
ARM GAS  C:\Windows\TEMP\cc5RoFpJ.s 			page 54


 1791 0268 00000000 		.word	cyBle_peerBonding
 1792 026c 00000000 		.word	cyBle_pendingFlashWrite
 1793 0270 00000000 		.word	cyBle_eventHandlerFlag
 1794 0274 00000000 		.word	.LANCHOR1
 1795              		.cfi_endproc
 1796              	.LFE4:
 1797              		.size	CyBle_AiossWriteEventHandler, .-CyBle_AiossWriteEventHandler
 1798              		.section	.text.CyBle_AiossSetCharacteristicValue,"ax",%progbits
 1799              		.align	2
 1800              		.global	CyBle_AiossSetCharacteristicValue
 1801              		.code	16
 1802              		.thumb_func
 1803              		.type	CyBle_AiossSetCharacteristicValue, %function
 1804              	CyBle_AiossSetCharacteristicValue:
 1805              	.LFB5:
 478:Generated_Source\PSoC4/BLE_1_aios.c ****     CYBLE_API_RESULT_T apiResult = CYBLE_ERROR_INVALID_PARAMETER;
 1806              		.loc 1 478 0
 1807              		.cfi_startproc
 1808              		@ args = 0, pretend = 0, frame = 16
 1809              		@ frame_needed = 0, uses_anonymous_args = 0
 1810              	.LVL205:
 1811 0000 10B5     		push	{r4, lr}
 1812              		.cfi_def_cfa_offset 8
 1813              		.cfi_offset 4, -8
 1814              		.cfi_offset 14, -4
 1815 0002 84B0     		sub	sp, sp, #16
 1816              		.cfi_def_cfa_offset 24
 1817              	.LVL206:
 482:Generated_Source\PSoC4/BLE_1_aios.c ****     {
 1818              		.loc 1 482 0
 1819 0004 0228     		cmp	r0, #2
 1820 0006 1CD8     		bhi	.L139
 482:Generated_Source\PSoC4/BLE_1_aios.c ****     {
 1821              		.loc 1 482 0 is_stmt 0 discriminator 1
 1822 0008 164C     		ldr	r4, .L145
 1823 000a 245C     		ldrb	r4, [r4, r0]
 1824 000c 8C42     		cmp	r4, r1
 1825 000e 1AD9     		bls	.L140
 490:Generated_Source\PSoC4/BLE_1_aios.c ****             (CYBLE_GATT_INVALID_ATTR_HANDLE_VALUE !=
 1826              		.loc 1 490 0 is_stmt 1
 1827 0010 8000     		lsls	r0, r0, #2
 1828              	.LVL207:
 1829 0012 154C     		ldr	r4, .L145+4
 1830 0014 2018     		adds	r0, r4, r0
 1831 0016 4068     		ldr	r0, [r0, #4]
 1832 0018 0028     		cmp	r0, #0
 1833 001a 16D0     		beq	.L141
 492:Generated_Source\PSoC4/BLE_1_aios.c ****         {
 1834              		.loc 1 492 0 discriminator 1
 1835 001c 0901     		lsls	r1, r1, #4
 1836              	.LVL208:
 1837 001e 415A     		ldrh	r1, [r0, r1]
 490:Generated_Source\PSoC4/BLE_1_aios.c ****             (CYBLE_GATT_INVALID_ATTR_HANDLE_VALUE !=
 1838              		.loc 1 490 0 discriminator 1
 1839 0020 0029     		cmp	r1, #0
 1840 0022 14D0     		beq	.L142
 1841              	.LBB8:
ARM GAS  C:\Windows\TEMP\cc5RoFpJ.s 			page 55


 496:Generated_Source\PSoC4/BLE_1_aios.c ****                 cyBle_aioss.charInfoAddr[charIndex].charInfoPtr[charInstance].charHandle;
 1842              		.loc 1 496 0
 1843 0024 01A8     		add	r0, sp, #4
 1844 0026 0181     		strh	r1, [r0, #8]
 498:Generated_Source\PSoC4/BLE_1_aios.c ****             locHandleValuePair.value.val = attrValue;
 1845              		.loc 1 498 0
 1846 0028 8280     		strh	r2, [r0, #4]
 499:Generated_Source\PSoC4/BLE_1_aios.c **** 
 1847              		.loc 1 499 0
 1848 002a 0193     		str	r3, [sp, #4]
 502:Generated_Source\PSoC4/BLE_1_aios.c ****                 CYBLE_GATT_ERR_NONE)
 1849              		.loc 1 502 0
 1850 002c 0023     		movs	r3, #0
 1851              	.LVL209:
 1852 002e 0022     		movs	r2, #0
 1853              	.LVL210:
 1854 0030 0021     		movs	r1, #0
 1855 0032 FFF7FEFF 		bl	CyBle_GattsWriteAttributeValue
 1856              	.LVL211:
 1857 0036 0028     		cmp	r0, #0
 1858 0038 01D0     		beq	.L143
 1859              	.LBE8:
 479:Generated_Source\PSoC4/BLE_1_aios.c **** 
 1860              		.loc 1 479 0
 1861 003a 0124     		movs	r4, #1
 1862 003c 08E0     		b	.L136
 1863              	.L143:
 1864              	.LBB9:
 505:Generated_Source\PSoC4/BLE_1_aios.c ****             }
 1865              		.loc 1 505 0
 1866 003e 0024     		movs	r4, #0
 1867              	.LVL212:
 1868              	.LBE9:
 493:Generated_Source\PSoC4/BLE_1_aios.c ****             CYBLE_GATT_HANDLE_VALUE_PAIR_T locHandleValuePair;
 1869              		.loc 1 493 0
 1870 0040 06E0     		b	.L136
 1871              	.LVL213:
 1872              	.L139:
 479:Generated_Source\PSoC4/BLE_1_aios.c **** 
 1873              		.loc 1 479 0
 1874 0042 0124     		movs	r4, #1
 1875 0044 04E0     		b	.L136
 1876              	.L140:
 1877 0046 0124     		movs	r4, #1
 1878 0048 02E0     		b	.L136
 1879              	.LVL214:
 1880              	.L141:
 510:Generated_Source\PSoC4/BLE_1_aios.c ****         }
 1881              		.loc 1 510 0
 1882 004a 1324     		movs	r4, #19
 1883 004c 00E0     		b	.L136
 1884              	.LVL215:
 1885              	.L142:
 1886 004e 1324     		movs	r4, #19
 1887              	.LVL216:
 1888              	.L136:
 514:Generated_Source\PSoC4/BLE_1_aios.c ****     {   
ARM GAS  C:\Windows\TEMP\cc5RoFpJ.s 			page 56


 1889              		.loc 1 514 0
 1890 0050 002C     		cmp	r4, #0
 1891 0052 04D1     		bne	.L138
 516:Generated_Source\PSoC4/BLE_1_aios.c ****         {   
 1892              		.loc 1 516 0
 1893 0054 FFF7FEFF 		bl	CyBle_AiosSetAggregateChar
 1894              	.LVL217:
 1895 0058 0028     		cmp	r0, #0
 1896 005a 00D0     		beq	.L138
 518:Generated_Source\PSoC4/BLE_1_aios.c ****         }
 1897              		.loc 1 518 0
 1898 005c 1334     		adds	r4, r4, #19
 1899              	.LVL218:
 1900              	.L138:
 523:Generated_Source\PSoC4/BLE_1_aios.c **** 
 1901              		.loc 1 523 0
 1902 005e 2000     		movs	r0, r4
 1903 0060 04B0     		add	sp, sp, #16
 1904              		@ sp needed
 1905              	.LVL219:
 1906 0062 10BD     		pop	{r4, pc}
 1907              	.L146:
 1908              		.align	2
 1909              	.L145:
 1910 0064 00000000 		.word	.LANCHOR1
 1911 0068 00000000 		.word	.LANCHOR2
 1912              		.cfi_endproc
 1913              	.LFE5:
 1914              		.size	CyBle_AiossSetCharacteristicValue, .-CyBle_AiossSetCharacteristicValue
 1915              		.global	cyBle_aioss
 1916              		.global	cyBle_aiossCharInstances
 1917              		.section	.rodata
 1918              		.align	2
 1919              		.set	.LANCHOR2,. + 0
 1920              		.type	cyBle_aioss, %object
 1921              		.size	cyBle_aioss, 16
 1922              	cyBle_aioss:
 1923 0000 0E00     		.short	14
 1924 0002 0000     		.space	2
 1925 0004 14000000 		.word	aiossCharIdx0
 1926 0008 34000000 		.word	aiossCharIdx1
 1927 000c 04000000 		.word	aiossCharIdx2
 1928              		.data
 1929              		.align	2
 1930              		.set	.LANCHOR1,. + 0
 1931              		.type	cyBle_aiossCharInstances, %object
 1932              		.size	cyBle_aiossCharInstances, 3
 1933              	cyBle_aiossCharInstances:
 1934 0000 02       		.byte	2
 1935 0001 02       		.byte	2
 1936 0002 01       		.byte	1
 1937 0003 00       		.space	1
 1938              		.type	aiossCharIdx2, %object
 1939              		.size	aiossCharIdx2, 16
 1940              	aiossCharIdx2:
 1941 0004 1E00     		.short	30
 1942 0006 1F00     		.short	31
ARM GAS  C:\Windows\TEMP\cc5RoFpJ.s 			page 57


 1943 0008 0000     		.short	0
 1944 000a 0000     		.short	0
 1945 000c 0000     		.short	0
 1946 000e 0000     		.short	0
 1947 0010 0000     		.short	0
 1948 0012 0000     		.short	0
 1949              		.type	aiossCharIdx0, %object
 1950              		.size	aiossCharIdx0, 32
 1951              	aiossCharIdx0:
 1952 0014 1000     		.short	16
 1953 0016 0000     		.short	0
 1954 0018 1100     		.short	17
 1955 001a 1200     		.short	18
 1956 001c 0000     		.short	0
 1957 001e 1300     		.short	19
 1958 0020 1400     		.short	20
 1959 0022 1500     		.short	21
 1960 0024 2100     		.short	33
 1961 0026 0000     		.short	0
 1962 0028 2200     		.short	34
 1963 002a 2300     		.short	35
 1964 002c 0000     		.short	0
 1965 002e 2400     		.short	36
 1966 0030 2500     		.short	37
 1967 0032 2600     		.short	38
 1968              		.type	aiossCharIdx1, %object
 1969              		.size	aiossCharIdx1, 32
 1970              	aiossCharIdx1:
 1971 0034 1700     		.short	23
 1972 0036 0000     		.short	0
 1973 0038 1800     		.short	24
 1974 003a 1900     		.short	25
 1975 003c 0000     		.short	0
 1976 003e 1A00     		.short	26
 1977 0040 1B00     		.short	27
 1978 0042 1C00     		.short	28
 1979 0044 2800     		.short	40
 1980 0046 0000     		.short	0
 1981 0048 2900     		.short	41
 1982 004a 2A00     		.short	42
 1983 004c 0000     		.short	0
 1984 004e 2B00     		.short	43
 1985 0050 2C00     		.short	44
 1986 0052 2D00     		.short	45
 1987              		.bss
 1988              		.align	2
 1989              		.set	.LANCHOR0,. + 0
 1990              		.type	CyBle_AiosApplCallback, %object
 1991              		.size	CyBle_AiosApplCallback, 4
 1992              	CyBle_AiosApplCallback:
 1993 0000 00000000 		.space	4
 1994              		.type	cyBle_aiossReqHandle, %object
 1995              		.size	cyBle_aiossReqHandle, 2
 1996              	cyBle_aiossReqHandle:
 1997 0004 0000     		.space	2
 1998              		.text
 1999              	.Letext0:
ARM GAS  C:\Windows\TEMP\cc5RoFpJ.s 			page 58


 2000              		.file 2 "Generated_Source\\PSoC4\\cytypes.h"
 2001              		.file 3 "Generated_Source\\PSoC4\\BLE_1_Stack.h"
 2002              		.file 4 "Generated_Source\\PSoC4\\BLE_1_StackGatt.h"
 2003              		.file 5 "Generated_Source\\PSoC4\\BLE_1_StackGattServer.h"
 2004              		.file 6 "Generated_Source\\PSoC4\\BLE_1_StackGattDb.h"
 2005              		.file 7 "Generated_Source\\PSoC4\\BLE_1.h"
 2006              		.file 8 "Generated_Source\\PSoC4\\BLE_1_aios.h"
 2007              		.file 9 "Generated_Source\\PSoC4\\BLE_1_eventHandler.h"
 2008              		.file 10 "Generated_Source\\PSoC4\\BLE_1_gatt.h"