ARM GAS  C:\Windows\TEMP\ccyNncCN.s 			page 1


   1              		.syntax unified
   2              		.cpu cortex-m0
   3              		.fpu softvfp
   4              		.eabi_attribute 20, 1
   5              		.eabi_attribute 21, 1
   6              		.eabi_attribute 23, 3
   7              		.eabi_attribute 24, 1
   8              		.eabi_attribute 25, 1
   9              		.eabi_attribute 26, 1
  10              		.eabi_attribute 30, 1
  11              		.eabi_attribute 34, 0
  12              		.eabi_attribute 18, 4
  13              		.thumb
  14              		.syntax unified
  15              		.file	"Bluetooth_aios.c"
  16              		.text
  17              	.Ltext0:
  18              		.cfi_sections	.debug_frame
  19              		.section	.text.CyBle_AiosInit,"ax",%progbits
  20              		.align	2
  21              		.global	CyBle_AiosInit
  22              		.code	16
  23              		.thumb_func
  24              		.type	CyBle_AiosInit, %function
  25              	CyBle_AiosInit:
  26              	.LFB2:
  27              		.file 1 "Generated_Source\\PSoC4\\Bluetooth_aios.c"
   1:Generated_Source\PSoC4/Bluetooth_aios.c **** /***************************************************************************//**
   2:Generated_Source\PSoC4/Bluetooth_aios.c **** * \file CYBLE_aios.c
   3:Generated_Source\PSoC4/Bluetooth_aios.c **** * \version 3.66
   4:Generated_Source\PSoC4/Bluetooth_aios.c **** * 
   5:Generated_Source\PSoC4/Bluetooth_aios.c **** * \brief
   6:Generated_Source\PSoC4/Bluetooth_aios.c **** *  Contains the source code for Automation Input Output Service.
   7:Generated_Source\PSoC4/Bluetooth_aios.c **** * 
   8:Generated_Source\PSoC4/Bluetooth_aios.c **** ********************************************************************************
   9:Generated_Source\PSoC4/Bluetooth_aios.c **** * \copyright
  10:Generated_Source\PSoC4/Bluetooth_aios.c **** * Copyright 2016-2020, Cypress Semiconductor Corporation.  All rights reserved.
  11:Generated_Source\PSoC4/Bluetooth_aios.c **** * You may use this file only in accordance with the license, terms, conditions,
  12:Generated_Source\PSoC4/Bluetooth_aios.c **** * disclaimers, and limitations in the end user license agreement accompanying
  13:Generated_Source\PSoC4/Bluetooth_aios.c **** * the software package with which this file was provided.
  14:Generated_Source\PSoC4/Bluetooth_aios.c **** *******************************************************************************/
  15:Generated_Source\PSoC4/Bluetooth_aios.c **** 
  16:Generated_Source\PSoC4/Bluetooth_aios.c **** #include "Bluetooth_eventHandler.h"
  17:Generated_Source\PSoC4/Bluetooth_aios.c **** #include "Bluetooth_aios.h"
  18:Generated_Source\PSoC4/Bluetooth_aios.c ****  
  19:Generated_Source\PSoC4/Bluetooth_aios.c **** 
  20:Generated_Source\PSoC4/Bluetooth_aios.c **** #ifdef CYBLE_AIOS_SERVER
  21:Generated_Source\PSoC4/Bluetooth_aios.c **** /* Generated code */
  22:Generated_Source\PSoC4/Bluetooth_aios.c **** /* Analog characteristic data */
  23:Generated_Source\PSoC4/Bluetooth_aios.c **** static CYBLE_AIOSS_CHAR_T aiossCharIdx1[0x04u] = {
  24:Generated_Source\PSoC4/Bluetooth_aios.c ****     {
  25:Generated_Source\PSoC4/Bluetooth_aios.c ****         0x0012u, /* Handle of the MotorLeft characteristic */ 
  26:Generated_Source\PSoC4/Bluetooth_aios.c ****         
  27:Generated_Source\PSoC4/Bluetooth_aios.c ****             /* Array of Descriptors handles */
  28:Generated_Source\PSoC4/Bluetooth_aios.c ****             {
  29:Generated_Source\PSoC4/Bluetooth_aios.c ****                 0x0013u, /* Handle of the Client Characteristic Configuration descriptor */ 
  30:Generated_Source\PSoC4/Bluetooth_aios.c ****                 0x0014u, /* Handle of the Characteristic Presentation Format descriptor */ 
ARM GAS  C:\Windows\TEMP\ccyNncCN.s 			page 2


  31:Generated_Source\PSoC4/Bluetooth_aios.c ****                 0x0015u, /* Handle of the Characteristic User Description descriptor */ 
  32:Generated_Source\PSoC4/Bluetooth_aios.c ****                 0x0016u, /* Handle of the Characteristic Extended Properties descriptor */ 
  33:Generated_Source\PSoC4/Bluetooth_aios.c ****                 0x0017u, /* Handle of the Value Trigger Setting descriptor */ 
  34:Generated_Source\PSoC4/Bluetooth_aios.c ****                 0x0018u, /* Handle of the Time Trigger Setting descriptor */ 
  35:Generated_Source\PSoC4/Bluetooth_aios.c ****                 0x0019u, /* Handle of the Valid Range descriptor */ 
  36:Generated_Source\PSoC4/Bluetooth_aios.c ****             }, 
  37:Generated_Source\PSoC4/Bluetooth_aios.c ****     },
  38:Generated_Source\PSoC4/Bluetooth_aios.c ****     {
  39:Generated_Source\PSoC4/Bluetooth_aios.c ****         0x001Bu, /* Handle of the MotorRight characteristic */ 
  40:Generated_Source\PSoC4/Bluetooth_aios.c ****         
  41:Generated_Source\PSoC4/Bluetooth_aios.c ****             /* Array of Descriptors handles */
  42:Generated_Source\PSoC4/Bluetooth_aios.c ****             {
  43:Generated_Source\PSoC4/Bluetooth_aios.c ****                 0x001Cu, /* Handle of the Client Characteristic Configuration descriptor */ 
  44:Generated_Source\PSoC4/Bluetooth_aios.c ****                 0x001Du, /* Handle of the Characteristic Presentation Format descriptor */ 
  45:Generated_Source\PSoC4/Bluetooth_aios.c ****                 0x001Eu, /* Handle of the Characteristic User Description descriptor */ 
  46:Generated_Source\PSoC4/Bluetooth_aios.c ****                 0x001Fu, /* Handle of the Characteristic Extended Properties descriptor */ 
  47:Generated_Source\PSoC4/Bluetooth_aios.c ****                 0x0020u, /* Handle of the Value Trigger Setting descriptor */ 
  48:Generated_Source\PSoC4/Bluetooth_aios.c ****                 0x0021u, /* Handle of the Time Trigger Setting descriptor */ 
  49:Generated_Source\PSoC4/Bluetooth_aios.c ****                 0x0022u, /* Handle of the Valid Range descriptor */ 
  50:Generated_Source\PSoC4/Bluetooth_aios.c ****             }, 
  51:Generated_Source\PSoC4/Bluetooth_aios.c ****     },
  52:Generated_Source\PSoC4/Bluetooth_aios.c ****     {
  53:Generated_Source\PSoC4/Bluetooth_aios.c ****         0x0024u, /* Handle of the MotorUp characteristic */ 
  54:Generated_Source\PSoC4/Bluetooth_aios.c ****         
  55:Generated_Source\PSoC4/Bluetooth_aios.c ****             /* Array of Descriptors handles */
  56:Generated_Source\PSoC4/Bluetooth_aios.c ****             {
  57:Generated_Source\PSoC4/Bluetooth_aios.c ****                 0x0025u, /* Handle of the Client Characteristic Configuration descriptor */ 
  58:Generated_Source\PSoC4/Bluetooth_aios.c ****                 0x0026u, /* Handle of the Characteristic Presentation Format descriptor */ 
  59:Generated_Source\PSoC4/Bluetooth_aios.c ****                 0x0027u, /* Handle of the Characteristic User Description descriptor */ 
  60:Generated_Source\PSoC4/Bluetooth_aios.c ****                 0x0028u, /* Handle of the Characteristic Extended Properties descriptor */ 
  61:Generated_Source\PSoC4/Bluetooth_aios.c ****                 0x0029u, /* Handle of the Value Trigger Setting descriptor */ 
  62:Generated_Source\PSoC4/Bluetooth_aios.c ****                 0x002Au, /* Handle of the Time Trigger Setting descriptor */ 
  63:Generated_Source\PSoC4/Bluetooth_aios.c ****                 0x002Bu, /* Handle of the Valid Range descriptor */ 
  64:Generated_Source\PSoC4/Bluetooth_aios.c ****             }, 
  65:Generated_Source\PSoC4/Bluetooth_aios.c ****     },
  66:Generated_Source\PSoC4/Bluetooth_aios.c ****     {
  67:Generated_Source\PSoC4/Bluetooth_aios.c ****         0x002Du, /* Handle of the MotorDown characteristic */ 
  68:Generated_Source\PSoC4/Bluetooth_aios.c ****         
  69:Generated_Source\PSoC4/Bluetooth_aios.c ****             /* Array of Descriptors handles */
  70:Generated_Source\PSoC4/Bluetooth_aios.c ****             {
  71:Generated_Source\PSoC4/Bluetooth_aios.c ****                 0x002Eu, /* Handle of the Client Characteristic Configuration descriptor */ 
  72:Generated_Source\PSoC4/Bluetooth_aios.c ****                 0x002Fu, /* Handle of the Characteristic Presentation Format descriptor */ 
  73:Generated_Source\PSoC4/Bluetooth_aios.c ****                 0x0030u, /* Handle of the Characteristic User Description descriptor */ 
  74:Generated_Source\PSoC4/Bluetooth_aios.c ****                 0x0031u, /* Handle of the Characteristic Extended Properties descriptor */ 
  75:Generated_Source\PSoC4/Bluetooth_aios.c ****                 0x0032u, /* Handle of the Value Trigger Setting descriptor */ 
  76:Generated_Source\PSoC4/Bluetooth_aios.c ****                 0x0033u, /* Handle of the Time Trigger Setting descriptor */ 
  77:Generated_Source\PSoC4/Bluetooth_aios.c ****                 CYBLE_GATT_INVALID_ATTR_HANDLE_VALUE, /* Handle of the Valid Range descriptor */ 
  78:Generated_Source\PSoC4/Bluetooth_aios.c ****             }, 
  79:Generated_Source\PSoC4/Bluetooth_aios.c ****     },
  80:Generated_Source\PSoC4/Bluetooth_aios.c **** };
  81:Generated_Source\PSoC4/Bluetooth_aios.c **** 
  82:Generated_Source\PSoC4/Bluetooth_aios.c **** /* Number of AIOS characteristics instances */
  83:Generated_Source\PSoC4/Bluetooth_aios.c **** uint8 cyBle_aiossCharInstances[0x03u] = {
  84:Generated_Source\PSoC4/Bluetooth_aios.c ****     0x00u, 0x04u, 0x00u
  85:Generated_Source\PSoC4/Bluetooth_aios.c **** };
  86:Generated_Source\PSoC4/Bluetooth_aios.c **** 
  87:Generated_Source\PSoC4/Bluetooth_aios.c **** const CYBLE_AIOSS_T cyBle_aioss =
ARM GAS  C:\Windows\TEMP\ccyNncCN.s 			page 3


  88:Generated_Source\PSoC4/Bluetooth_aios.c **** {
  89:Generated_Source\PSoC4/Bluetooth_aios.c ****     0x0010u,    /* Handle of the AIOS service */
  90:Generated_Source\PSoC4/Bluetooth_aios.c ****     {
  91:Generated_Source\PSoC4/Bluetooth_aios.c ****         {
  92:Generated_Source\PSoC4/Bluetooth_aios.c ****             NULL, /* Handle of the Digital characteristic */ 
  93:Generated_Source\PSoC4/Bluetooth_aios.c ****         }, 
  94:Generated_Source\PSoC4/Bluetooth_aios.c ****         {
  95:Generated_Source\PSoC4/Bluetooth_aios.c ****             &aiossCharIdx1[0], /* Handle of the Analog characteristic */ 
  96:Generated_Source\PSoC4/Bluetooth_aios.c ****         }, 
  97:Generated_Source\PSoC4/Bluetooth_aios.c ****         {
  98:Generated_Source\PSoC4/Bluetooth_aios.c ****             NULL, /* Handle of the Aggregate characteristic */ 
  99:Generated_Source\PSoC4/Bluetooth_aios.c ****         }, 
 100:Generated_Source\PSoC4/Bluetooth_aios.c ****     },
 101:Generated_Source\PSoC4/Bluetooth_aios.c **** };
 102:Generated_Source\PSoC4/Bluetooth_aios.c **** 
 103:Generated_Source\PSoC4/Bluetooth_aios.c **** /* End of generated code */
 104:Generated_Source\PSoC4/Bluetooth_aios.c ****     
 105:Generated_Source\PSoC4/Bluetooth_aios.c **** static CYBLE_GATT_DB_ATTR_HANDLE_T cyBle_aiossReqHandle;
 106:Generated_Source\PSoC4/Bluetooth_aios.c **** 
 107:Generated_Source\PSoC4/Bluetooth_aios.c **** #endif /* CYBLE_AIOS_SERVER */
 108:Generated_Source\PSoC4/Bluetooth_aios.c **** 
 109:Generated_Source\PSoC4/Bluetooth_aios.c **** #ifdef CYBLE_AIOS_CLIENT
 110:Generated_Source\PSoC4/Bluetooth_aios.c **** /* Generated code */
 111:Generated_Source\PSoC4/Bluetooth_aios.c **** 
 112:Generated_Source\PSoC4/Bluetooth_aios.c **** /* End of generated code */
 113:Generated_Source\PSoC4/Bluetooth_aios.c **** 
 114:Generated_Source\PSoC4/Bluetooth_aios.c **** static CYBLE_GATT_DB_ATTR_HANDLE_T cyBle_aioscReqHandle;
 115:Generated_Source\PSoC4/Bluetooth_aios.c **** 
 116:Generated_Source\PSoC4/Bluetooth_aios.c **** uint8 cyBle_aioscActiveCharIndex = 0u;
 117:Generated_Source\PSoC4/Bluetooth_aios.c **** uint8 cyBle_aioscActiveCharInstance = 0u;
 118:Generated_Source\PSoC4/Bluetooth_aios.c **** uint8 cyBle_aioscPrevCharInstIndex;
 119:Generated_Source\PSoC4/Bluetooth_aios.c **** 
 120:Generated_Source\PSoC4/Bluetooth_aios.c **** #endif /* (CYBLE_AIOS_CLIENT) */
 121:Generated_Source\PSoC4/Bluetooth_aios.c **** 
 122:Generated_Source\PSoC4/Bluetooth_aios.c **** static CYBLE_CALLBACK_T CyBle_AiosApplCallback = NULL;
 123:Generated_Source\PSoC4/Bluetooth_aios.c **** 
 124:Generated_Source\PSoC4/Bluetooth_aios.c **** /******************************************************************************
 125:Generated_Source\PSoC4/Bluetooth_aios.c **** * Function Name: CyBle_AiosInit
 126:Generated_Source\PSoC4/Bluetooth_aios.c **** ***************************************************************************//**
 127:Generated_Source\PSoC4/Bluetooth_aios.c **** * 
 128:Generated_Source\PSoC4/Bluetooth_aios.c **** *  This function initializes the Automation IO Service.
 129:Generated_Source\PSoC4/Bluetooth_aios.c **** * 
 130:Generated_Source\PSoC4/Bluetooth_aios.c **** ******************************************************************************/
 131:Generated_Source\PSoC4/Bluetooth_aios.c **** void CyBle_AiosInit(void)
 132:Generated_Source\PSoC4/Bluetooth_aios.c **** {
  28              		.loc 1 132 0
  29              		.cfi_startproc
  30              		@ args = 0, pretend = 0, frame = 0
  31              		@ frame_needed = 0, uses_anonymous_args = 0
  32              		@ link register save eliminated.
 133:Generated_Source\PSoC4/Bluetooth_aios.c **** #ifdef CYBLE_AIOS_CLIENT
 134:Generated_Source\PSoC4/Bluetooth_aios.c ****    
 135:Generated_Source\PSoC4/Bluetooth_aios.c ****     uint8 i;
 136:Generated_Source\PSoC4/Bluetooth_aios.c ****     uint8 j;
 137:Generated_Source\PSoC4/Bluetooth_aios.c **** 
 138:Generated_Source\PSoC4/Bluetooth_aios.c ****     cyBle_aioscActiveCharIndex = 0u;
 139:Generated_Source\PSoC4/Bluetooth_aios.c ****     cyBle_aioscActiveCharInstance = 0u;
ARM GAS  C:\Windows\TEMP\ccyNncCN.s 			page 4


 140:Generated_Source\PSoC4/Bluetooth_aios.c ****     cyBle_aioscPrevCharInstIndex = 0u;
 141:Generated_Source\PSoC4/Bluetooth_aios.c **** 
 142:Generated_Source\PSoC4/Bluetooth_aios.c ****     if(cyBle_serverInfo[CYBLE_SRVI_AIOS].range.startHandle == CYBLE_GATT_INVALID_ATTR_HANDLE_VALUE)
 143:Generated_Source\PSoC4/Bluetooth_aios.c ****     {
 144:Generated_Source\PSoC4/Bluetooth_aios.c ****         for(i = (uint8) CYBLE_AIOS_DIGITAL; (i < ((uint8) CYBLE_AIOS_CHAR_COUNT)); i++)
 145:Generated_Source\PSoC4/Bluetooth_aios.c ****         {
 146:Generated_Source\PSoC4/Bluetooth_aios.c ****             for(j = 0u; j < cyBle_aioscCharInstances[i]; j++)
 147:Generated_Source\PSoC4/Bluetooth_aios.c ****             {
 148:Generated_Source\PSoC4/Bluetooth_aios.c ****                 (void) memset(&cyBle_aiosc.charInfoAddr[i].charInfoPtr[j], 0, sizeof(CYBLE_AIOSC_CH
 149:Generated_Source\PSoC4/Bluetooth_aios.c ****             }
 150:Generated_Source\PSoC4/Bluetooth_aios.c ****         }
 151:Generated_Source\PSoC4/Bluetooth_aios.c ****     }
 152:Generated_Source\PSoC4/Bluetooth_aios.c ****     cyBle_aioscReqHandle = CYBLE_GATT_INVALID_ATTR_HANDLE_VALUE;
 153:Generated_Source\PSoC4/Bluetooth_aios.c ****     
 154:Generated_Source\PSoC4/Bluetooth_aios.c **** #endif /* CYBLE_AIOS_CLIENT */
 155:Generated_Source\PSoC4/Bluetooth_aios.c **** 
 156:Generated_Source\PSoC4/Bluetooth_aios.c **** #ifdef CYBLE_AIOS_SERVER
 157:Generated_Source\PSoC4/Bluetooth_aios.c ****     (void)CyBle_AiosSetAggregateChar();
 158:Generated_Source\PSoC4/Bluetooth_aios.c **** #endif /* CYBLE_AIOS_SERVER */
 159:Generated_Source\PSoC4/Bluetooth_aios.c **** 
 160:Generated_Source\PSoC4/Bluetooth_aios.c **** }
  33              		.loc 1 160 0
  34              		@ sp needed
  35 0000 7047     		bx	lr
  36              		.cfi_endproc
  37              	.LFE2:
  38              		.size	CyBle_AiosInit, .-CyBle_AiosInit
  39 0002 C046     		.section	.text.CyBle_AiosRegisterAttrCallback,"ax",%progbits
  40              		.align	2
  41              		.global	CyBle_AiosRegisterAttrCallback
  42              		.code	16
  43              		.thumb_func
  44              		.type	CyBle_AiosRegisterAttrCallback, %function
  45              	CyBle_AiosRegisterAttrCallback:
  46              	.LFB3:
 161:Generated_Source\PSoC4/Bluetooth_aios.c **** 
 162:Generated_Source\PSoC4/Bluetooth_aios.c **** /******************************************************************************
 163:Generated_Source\PSoC4/Bluetooth_aios.c **** * Function Name: CyBle_AiosRegisterAttrCallback
 164:Generated_Source\PSoC4/Bluetooth_aios.c **** ***************************************************************************//**
 165:Generated_Source\PSoC4/Bluetooth_aios.c **** * 
 166:Generated_Source\PSoC4/Bluetooth_aios.c **** *  Registers a callback function for service specific attribute operations.
 167:Generated_Source\PSoC4/Bluetooth_aios.c **** *  Service specific write requests from peer device will not be handled with
 168:Generated_Source\PSoC4/Bluetooth_aios.c **** *  unregistered callback function.
 169:Generated_Source\PSoC4/Bluetooth_aios.c **** * 
 170:Generated_Source\PSoC4/Bluetooth_aios.c **** *  \param callbackFunc:  An application layer event callback function to receive
 171:Generated_Source\PSoC4/Bluetooth_aios.c **** *                 events from the BLE Component. The definition of
 172:Generated_Source\PSoC4/Bluetooth_aios.c **** *                 CYBLE_CALLBACK_T for AIOS Service is:\n
 173:Generated_Source\PSoC4/Bluetooth_aios.c **** *                 typedef void (* CYBLE_CALLBACK_T) (uint32 eventCode,
 174:Generated_Source\PSoC4/Bluetooth_aios.c **** *                                                    void *eventParam)
 175:Generated_Source\PSoC4/Bluetooth_aios.c **** *                 * eventCode:  Indicates the event that triggered this callback
 176:Generated_Source\PSoC4/Bluetooth_aios.c **** *                   (e.g. CYBLE_EVT_AIOS_NOTIFICATION_ENABLED).
 177:Generated_Source\PSoC4/Bluetooth_aios.c **** *                 * eventParam: Contains the parameters corresponding to the
 178:Generated_Source\PSoC4/Bluetooth_aios.c **** *                   current event. (e.g. Pointer to CYBLE_AIOS_CHAR_VALUE_T
 179:Generated_Source\PSoC4/Bluetooth_aios.c **** *                   structure that contains details of the characteristic
 180:Generated_Source\PSoC4/Bluetooth_aios.c **** *                   for which the notification enabled event was triggered).
 181:Generated_Source\PSoC4/Bluetooth_aios.c **** * 
 182:Generated_Source\PSoC4/Bluetooth_aios.c **** ******************************************************************************/
ARM GAS  C:\Windows\TEMP\ccyNncCN.s 			page 5


 183:Generated_Source\PSoC4/Bluetooth_aios.c **** void CyBle_AiosRegisterAttrCallback(CYBLE_CALLBACK_T callbackFunc)
 184:Generated_Source\PSoC4/Bluetooth_aios.c **** {
  47              		.loc 1 184 0
  48              		.cfi_startproc
  49              		@ args = 0, pretend = 0, frame = 0
  50              		@ frame_needed = 0, uses_anonymous_args = 0
  51              		@ link register save eliminated.
  52              	.LVL0:
 185:Generated_Source\PSoC4/Bluetooth_aios.c ****     CyBle_AiosApplCallback = callbackFunc;
  53              		.loc 1 185 0
  54 0000 014B     		ldr	r3, .L3
  55 0002 1860     		str	r0, [r3]
 186:Generated_Source\PSoC4/Bluetooth_aios.c ****     
 187:Generated_Source\PSoC4/Bluetooth_aios.c **** }
  56              		.loc 1 187 0
  57              		@ sp needed
  58 0004 7047     		bx	lr
  59              	.L4:
  60 0006 C046     		.align	2
  61              	.L3:
  62 0008 00000000 		.word	.LANCHOR0
  63              		.cfi_endproc
  64              	.LFE3:
  65              		.size	CyBle_AiosRegisterAttrCallback, .-CyBle_AiosRegisterAttrCallback
  66              		.section	.text.CyBle_AiossGetCharacteristicValue,"ax",%progbits
  67              		.align	2
  68              		.global	CyBle_AiossGetCharacteristicValue
  69              		.code	16
  70              		.thumb_func
  71              		.type	CyBle_AiossGetCharacteristicValue, %function
  72              	CyBle_AiossGetCharacteristicValue:
  73              	.LFB6:
 188:Generated_Source\PSoC4/Bluetooth_aios.c **** 
 189:Generated_Source\PSoC4/Bluetooth_aios.c **** #ifdef CYBLE_AIOS_SERVER
 190:Generated_Source\PSoC4/Bluetooth_aios.c **** 
 191:Generated_Source\PSoC4/Bluetooth_aios.c **** /******************************************************************************
 192:Generated_Source\PSoC4/Bluetooth_aios.c **** * Function Name: CyBle_AiossWriteEventHandler
 193:Generated_Source\PSoC4/Bluetooth_aios.c **** ***************************************************************************//**
 194:Generated_Source\PSoC4/Bluetooth_aios.c **** * 
 195:Generated_Source\PSoC4/Bluetooth_aios.c **** *  Handles the Write Request Event.
 196:Generated_Source\PSoC4/Bluetooth_aios.c **** * 
 197:Generated_Source\PSoC4/Bluetooth_aios.c **** *  \param eventParam: The pointer to the data structure specified by the event.
 198:Generated_Source\PSoC4/Bluetooth_aios.c **** * 
 199:Generated_Source\PSoC4/Bluetooth_aios.c **** * \return
 200:Generated_Source\PSoC4/Bluetooth_aios.c **** *  CYBLE_GATT_ERR_CODE_T - A function return state if it succeeded
 201:Generated_Source\PSoC4/Bluetooth_aios.c **** *  (CYBLE_GATT_ERR_NONE) or failed with error codes:
 202:Generated_Source\PSoC4/Bluetooth_aios.c **** *   * CYBLE_GATTS_ERR_PROCEDURE_ALREADY_IN_PROGRESS - profile or service
 203:Generated_Source\PSoC4/Bluetooth_aios.c **** *                           request cannot be serviced because an operation t
 204:Generated_Source\PSoC4/Bluetooth_aios.c **** *                           hat has been previously triggered is still in
 205:Generated_Source\PSoC4/Bluetooth_aios.c **** *                           progress.
 206:Generated_Source\PSoC4/Bluetooth_aios.c **** *   * CYBLE_GATTS_ERR_CCCD_IMPROPERLY_CONFIGURED - Client Characteristic 
 207:Generated_Source\PSoC4/Bluetooth_aios.c ****                             Configuration descriptor is not configured according
 208:Generated_Source\PSoC4/Bluetooth_aios.c **** *                           to the requirements of the profile or service.       
 209:Generated_Source\PSoC4/Bluetooth_aios.c **** * 
 210:Generated_Source\PSoC4/Bluetooth_aios.c **** ******************************************************************************/
 211:Generated_Source\PSoC4/Bluetooth_aios.c **** CYBLE_GATT_ERR_CODE_T CyBle_AiossWriteEventHandler(CYBLE_GATTS_WRITE_REQ_PARAM_T *eventParam)
 212:Generated_Source\PSoC4/Bluetooth_aios.c **** {
ARM GAS  C:\Windows\TEMP\ccyNncCN.s 			page 6


 213:Generated_Source\PSoC4/Bluetooth_aios.c ****     uint8 i;
 214:Generated_Source\PSoC4/Bluetooth_aios.c ****     uint8 j;
 215:Generated_Source\PSoC4/Bluetooth_aios.c ****     CYBLE_GATT_ERR_CODE_T gattErr = CYBLE_GATT_ERR_NONE;
 216:Generated_Source\PSoC4/Bluetooth_aios.c ****     CYBLE_GATT_DB_ATTR_HANDLE_T tmpHandle;
 217:Generated_Source\PSoC4/Bluetooth_aios.c ****     uint8 foundItem = CYBLE_AIOS_UNDEFINED_ITEM;
 218:Generated_Source\PSoC4/Bluetooth_aios.c ****     CYBLE_AIOSS_CHAR_T *aiosCharInfoPtr;
 219:Generated_Source\PSoC4/Bluetooth_aios.c ****     CYBLE_AIOS_DESCR_VALUE_T wrDescrReqParam;
 220:Generated_Source\PSoC4/Bluetooth_aios.c ****     uint32 event = 0u;
 221:Generated_Source\PSoC4/Bluetooth_aios.c ****     CYBLE_AIOS_CHAR_VALUE_T wrCharReqParam;
 222:Generated_Source\PSoC4/Bluetooth_aios.c ****     uint8 descInd;
 223:Generated_Source\PSoC4/Bluetooth_aios.c ****     
 224:Generated_Source\PSoC4/Bluetooth_aios.c ****     tmpHandle = eventParam->handleValPair.attrHandle;
 225:Generated_Source\PSoC4/Bluetooth_aios.c ****     
 226:Generated_Source\PSoC4/Bluetooth_aios.c ****     if(CyBle_AiosApplCallback != NULL)
 227:Generated_Source\PSoC4/Bluetooth_aios.c ****     {
 228:Generated_Source\PSoC4/Bluetooth_aios.c ****         /* Go through all possible Service characteristics.
 229:Generated_Source\PSoC4/Bluetooth_aios.c ****         * Exit the handler in following conditions:
 230:Generated_Source\PSoC4/Bluetooth_aios.c ****         * 1) No more characteristic left;
 231:Generated_Source\PSoC4/Bluetooth_aios.c ****         * 2) Characteristic or descriptor was successfully written;
 232:Generated_Source\PSoC4/Bluetooth_aios.c ****         * 3) Error occurred while writing characteristic or descriptor.
 233:Generated_Source\PSoC4/Bluetooth_aios.c ****         */
 234:Generated_Source\PSoC4/Bluetooth_aios.c ****         for(i = 0u; ((i < ((uint8) CYBLE_AIOS_CHAR_COUNT)) && (foundItem == 0u) && (gattErr == CYBL
 235:Generated_Source\PSoC4/Bluetooth_aios.c ****             i++)
 236:Generated_Source\PSoC4/Bluetooth_aios.c ****         {
 237:Generated_Source\PSoC4/Bluetooth_aios.c ****             /* Check if characteristic is enabled. If the pointer to the characteristic
 238:Generated_Source\PSoC4/Bluetooth_aios.c ****             * is not "NULL", there is at least one instance of the characteristic in
 239:Generated_Source\PSoC4/Bluetooth_aios.c ****             * the AIO Service.
 240:Generated_Source\PSoC4/Bluetooth_aios.c ****             */
 241:Generated_Source\PSoC4/Bluetooth_aios.c ****             
 242:Generated_Source\PSoC4/Bluetooth_aios.c ****             if(cyBle_aioss.charInfoAddr[i].charInfoPtr != NULL)
 243:Generated_Source\PSoC4/Bluetooth_aios.c ****             {   
 244:Generated_Source\PSoC4/Bluetooth_aios.c ****                 for(j = 0u; j < cyBle_aiossCharInstances[i]; j++)
 245:Generated_Source\PSoC4/Bluetooth_aios.c ****                 {
 246:Generated_Source\PSoC4/Bluetooth_aios.c ****                     aiosCharInfoPtr = &cyBle_aioss.charInfoAddr[i].charInfoPtr[j];
 247:Generated_Source\PSoC4/Bluetooth_aios.c ****                     
 248:Generated_Source\PSoC4/Bluetooth_aios.c ****                     /* Client Characteristic Write Request handling */
 249:Generated_Source\PSoC4/Bluetooth_aios.c ****                     if(tmpHandle == aiosCharInfoPtr->charHandle)
 250:Generated_Source\PSoC4/Bluetooth_aios.c ****                     {
 251:Generated_Source\PSoC4/Bluetooth_aios.c ****                         wrDescrReqParam.descrIndex = CYBLE_AIOS_DESCR_COUNT;
 252:Generated_Source\PSoC4/Bluetooth_aios.c ****                         foundItem = CYBLE_AIOS_CHARACTERISTIC_ITEM;
 253:Generated_Source\PSoC4/Bluetooth_aios.c ****                     }                
 254:Generated_Source\PSoC4/Bluetooth_aios.c ****                     
 255:Generated_Source\PSoC4/Bluetooth_aios.c ****                     /* Client Characteristic Descriptor Write Request handling */
 256:Generated_Source\PSoC4/Bluetooth_aios.c ****                     else
 257:Generated_Source\PSoC4/Bluetooth_aios.c ****                     {
 258:Generated_Source\PSoC4/Bluetooth_aios.c ****                         /* No handle match was found */
 259:Generated_Source\PSoC4/Bluetooth_aios.c ****                         wrDescrReqParam.descrIndex = CYBLE_AIOS_DESCR_COUNT;
 260:Generated_Source\PSoC4/Bluetooth_aios.c ****                         
 261:Generated_Source\PSoC4/Bluetooth_aios.c ****                         for(descInd = 0u; (descInd < (uint8)CYBLE_AIOS_DESCR_COUNT) && (foundItem !
 262:Generated_Source\PSoC4/Bluetooth_aios.c ****                         {
 263:Generated_Source\PSoC4/Bluetooth_aios.c **** 	                        if(aiosCharInfoPtr->descrHandle[descInd] == tmpHandle)
 264:Generated_Source\PSoC4/Bluetooth_aios.c **** 	                        {
 265:Generated_Source\PSoC4/Bluetooth_aios.c **** 		                        wrDescrReqParam.descrIndex = (CYBLE_AIOS_DESCR_INDEX_T)descInd;
 266:Generated_Source\PSoC4/Bluetooth_aios.c **** 		                        foundItem = CYBLE_AIOS_DESCRIPTOR_ITEM;
 267:Generated_Source\PSoC4/Bluetooth_aios.c **** 	                        }
 268:Generated_Source\PSoC4/Bluetooth_aios.c ****                         }
 269:Generated_Source\PSoC4/Bluetooth_aios.c ****                     }
ARM GAS  C:\Windows\TEMP\ccyNncCN.s 			page 7


 270:Generated_Source\PSoC4/Bluetooth_aios.c ****                        
 271:Generated_Source\PSoC4/Bluetooth_aios.c ****                     /* Verify if requested handle was found and successfully handled */
 272:Generated_Source\PSoC4/Bluetooth_aios.c ****                     if((gattErr == CYBLE_GATT_ERR_NONE) && (foundItem == CYBLE_AIOS_DESCRIPTOR_ITEM
 273:Generated_Source\PSoC4/Bluetooth_aios.c ****                     {
 274:Generated_Source\PSoC4/Bluetooth_aios.c ****                         switch(wrDescrReqParam.descrIndex)
 275:Generated_Source\PSoC4/Bluetooth_aios.c ****                         {
 276:Generated_Source\PSoC4/Bluetooth_aios.c ****                         case CYBLE_AIOS_CCCD :
 277:Generated_Source\PSoC4/Bluetooth_aios.c ****                              /* Verify that optional notification property is enabled for character
 278:Generated_Source\PSoC4/Bluetooth_aios.c ****                             if(CYBLE_IS_NOTIFICATION_SUPPORTED(aiosCharInfoPtr->charHandle))
 279:Generated_Source\PSoC4/Bluetooth_aios.c ****                             {
 280:Generated_Source\PSoC4/Bluetooth_aios.c ****                                 if(CYBLE_IS_NOTIFICATION_ENABLED_IN_PTR(eventParam->handleValPair.v
 281:Generated_Source\PSoC4/Bluetooth_aios.c ****                                 {
 282:Generated_Source\PSoC4/Bluetooth_aios.c ****                                     event = (uint32)CYBLE_EVT_AIOSS_NOTIFICATION_ENABLED;
 283:Generated_Source\PSoC4/Bluetooth_aios.c ****                                 }
 284:Generated_Source\PSoC4/Bluetooth_aios.c ****                                 else
 285:Generated_Source\PSoC4/Bluetooth_aios.c ****                                 {
 286:Generated_Source\PSoC4/Bluetooth_aios.c ****                                     event = (uint32)CYBLE_EVT_AIOSS_NOTIFICATION_DISABLED;
 287:Generated_Source\PSoC4/Bluetooth_aios.c ****                                 }
 288:Generated_Source\PSoC4/Bluetooth_aios.c **** 
 289:Generated_Source\PSoC4/Bluetooth_aios.c ****                             #if((CYBLE_GAP_ROLE_PERIPHERAL || CYBLE_GAP_ROLE_CENTRAL) && \
 290:Generated_Source\PSoC4/Bluetooth_aios.c ****                                 (CYBLE_BONDING_REQUIREMENT == CYBLE_BONDING_YES))
 291:Generated_Source\PSoC4/Bluetooth_aios.c ****                                 /* Set flag to store bonding data to flash */
 292:Generated_Source\PSoC4/Bluetooth_aios.c ****                                 if(cyBle_peerBonding == CYBLE_GAP_BONDING)
 293:Generated_Source\PSoC4/Bluetooth_aios.c ****                                 {
 294:Generated_Source\PSoC4/Bluetooth_aios.c ****                                     cyBle_pendingFlashWrite |= CYBLE_PENDING_CCCD_FLASH_WRITE_BIT;
 295:Generated_Source\PSoC4/Bluetooth_aios.c ****                                 }
 296:Generated_Source\PSoC4/Bluetooth_aios.c ****                             #endif /* (CYBLE_BONDING_REQUIREMENT == CYBLE_BONDING_YES) */
 297:Generated_Source\PSoC4/Bluetooth_aios.c ****                             }
 298:Generated_Source\PSoC4/Bluetooth_aios.c ****                             else if(CYBLE_IS_INDICATION_SUPPORTED(aiosCharInfoPtr->charHandle))
 299:Generated_Source\PSoC4/Bluetooth_aios.c ****                             {
 300:Generated_Source\PSoC4/Bluetooth_aios.c ****                                 if(CYBLE_IS_INDICATION_ENABLED_IN_PTR(eventParam->handleValPair.val
 301:Generated_Source\PSoC4/Bluetooth_aios.c ****                                 {
 302:Generated_Source\PSoC4/Bluetooth_aios.c ****                                     event = (uint32)CYBLE_EVT_AIOSS_INDICATION_ENABLED;
 303:Generated_Source\PSoC4/Bluetooth_aios.c ****                                 }
 304:Generated_Source\PSoC4/Bluetooth_aios.c ****                                 else
 305:Generated_Source\PSoC4/Bluetooth_aios.c ****                                 {
 306:Generated_Source\PSoC4/Bluetooth_aios.c ****                                     event = (uint32)CYBLE_EVT_AIOSS_INDICATION_DISABLED;
 307:Generated_Source\PSoC4/Bluetooth_aios.c ****                                 }
 308:Generated_Source\PSoC4/Bluetooth_aios.c **** 
 309:Generated_Source\PSoC4/Bluetooth_aios.c ****                             #if((CYBLE_GAP_ROLE_PERIPHERAL || CYBLE_GAP_ROLE_CENTRAL) && \
 310:Generated_Source\PSoC4/Bluetooth_aios.c ****                                 (CYBLE_BONDING_REQUIREMENT == CYBLE_BONDING_YES))
 311:Generated_Source\PSoC4/Bluetooth_aios.c ****                                 /* Set flag to store bonding data to flash */
 312:Generated_Source\PSoC4/Bluetooth_aios.c ****                                 if(cyBle_peerBonding == CYBLE_GAP_BONDING)
 313:Generated_Source\PSoC4/Bluetooth_aios.c ****                                 {
 314:Generated_Source\PSoC4/Bluetooth_aios.c ****                                     cyBle_pendingFlashWrite |= CYBLE_PENDING_CCCD_FLASH_WRITE_BIT;
 315:Generated_Source\PSoC4/Bluetooth_aios.c ****                                 }
 316:Generated_Source\PSoC4/Bluetooth_aios.c ****                             #endif /* (CYBLE_BONDING_REQUIREMENT == CYBLE_BONDING_YES) */
 317:Generated_Source\PSoC4/Bluetooth_aios.c ****                             }
 318:Generated_Source\PSoC4/Bluetooth_aios.c ****                             else
 319:Generated_Source\PSoC4/Bluetooth_aios.c ****                             {
 320:Generated_Source\PSoC4/Bluetooth_aios.c ****                                 gattErr = CYBLE_GATT_ERR_REQUEST_NOT_SUPPORTED;
 321:Generated_Source\PSoC4/Bluetooth_aios.c ****                             }
 322:Generated_Source\PSoC4/Bluetooth_aios.c ****                             break;
 323:Generated_Source\PSoC4/Bluetooth_aios.c ****                             
 324:Generated_Source\PSoC4/Bluetooth_aios.c ****                         case CYBLE_AIOS_CHAR_USER_DESCRIPTION_DESCR:
 325:Generated_Source\PSoC4/Bluetooth_aios.c ****                             if(CYBLE_GATT_DB_ATTR_GET_ATTR_GEN_MAX_LEN(
 326:Generated_Source\PSoC4/Bluetooth_aios.c ****                                 aiosCharInfoPtr->descrHandle[CYBLE_AIOS_CHAR_USER_DESCRIPTION_DESCR
ARM GAS  C:\Windows\TEMP\ccyNncCN.s 			page 8


 327:Generated_Source\PSoC4/Bluetooth_aios.c ****                                     eventParam->handleValPair.value.len)
 328:Generated_Source\PSoC4/Bluetooth_aios.c ****                             {
 329:Generated_Source\PSoC4/Bluetooth_aios.c ****                                 /* Set new length of the descriptor value */
 330:Generated_Source\PSoC4/Bluetooth_aios.c ****                                 CYBLE_GATT_DB_ATTR_SET_ATTR_GEN_LEN(
 331:Generated_Source\PSoC4/Bluetooth_aios.c ****                                     aiosCharInfoPtr->descrHandle[CYBLE_AIOS_CHAR_USER_DESCRIPTION_D
 332:Generated_Source\PSoC4/Bluetooth_aios.c ****                                         eventParam->handleValPair.value.len);
 333:Generated_Source\PSoC4/Bluetooth_aios.c ****                             }
 334:Generated_Source\PSoC4/Bluetooth_aios.c ****                             else
 335:Generated_Source\PSoC4/Bluetooth_aios.c ****                             {
 336:Generated_Source\PSoC4/Bluetooth_aios.c ****                                 gattErr = CYBLE_GATT_ERR_INVALID_ATTRIBUTE_LEN;
 337:Generated_Source\PSoC4/Bluetooth_aios.c ****                             }
 338:Generated_Source\PSoC4/Bluetooth_aios.c ****                             break;
 339:Generated_Source\PSoC4/Bluetooth_aios.c ****                         
 340:Generated_Source\PSoC4/Bluetooth_aios.c ****                         case CYBLE_AIOS_VALUE_TRIGGER_SETTINGS:  
 341:Generated_Source\PSoC4/Bluetooth_aios.c ****                             /* Trigger condition value not supported.*/
 342:Generated_Source\PSoC4/Bluetooth_aios.c ****                             if( eventParam->handleValPair.value.val[0u] >= CYBLE_AIOS_VALUE_TRIGGER
 343:Generated_Source\PSoC4/Bluetooth_aios.c ****                             {
 344:Generated_Source\PSoC4/Bluetooth_aios.c ****                                 gattErr = CYBLE_GATT_ERR_TRIGGER_CODITION_VALUE_NOT_SUPPORTED;
 345:Generated_Source\PSoC4/Bluetooth_aios.c ****                             }
 346:Generated_Source\PSoC4/Bluetooth_aios.c ****                             break;
 347:Generated_Source\PSoC4/Bluetooth_aios.c **** 
 348:Generated_Source\PSoC4/Bluetooth_aios.c ****                         case CYBLE_AIOS_TIME_TRIGGER_SETTINGS:     
 349:Generated_Source\PSoC4/Bluetooth_aios.c ****                             /* Trigger condition value not supported.*/
 350:Generated_Source\PSoC4/Bluetooth_aios.c ****                             if( eventParam->handleValPair.value.val[0u] >= CYBLE_AIOS_TIME_TRIGGER_
 351:Generated_Source\PSoC4/Bluetooth_aios.c ****                             {
 352:Generated_Source\PSoC4/Bluetooth_aios.c ****                                 gattErr = CYBLE_GATT_ERR_TRIGGER_CODITION_VALUE_NOT_SUPPORTED;
 353:Generated_Source\PSoC4/Bluetooth_aios.c ****                             }
 354:Generated_Source\PSoC4/Bluetooth_aios.c ****                             break;
 355:Generated_Source\PSoC4/Bluetooth_aios.c ****                             
 356:Generated_Source\PSoC4/Bluetooth_aios.c ****                         default:
 357:Generated_Source\PSoC4/Bluetooth_aios.c ****                             break;
 358:Generated_Source\PSoC4/Bluetooth_aios.c ****                         }    
 359:Generated_Source\PSoC4/Bluetooth_aios.c ****                     }                    
 360:Generated_Source\PSoC4/Bluetooth_aios.c ****                     
 361:Generated_Source\PSoC4/Bluetooth_aios.c ****                     /* Check is there no error conditions happen yet */
 362:Generated_Source\PSoC4/Bluetooth_aios.c ****                     if((gattErr == CYBLE_GATT_ERR_NONE)
 363:Generated_Source\PSoC4/Bluetooth_aios.c ****                     && ( (foundItem == CYBLE_AIOS_CHARACTERISTIC_ITEM) || (foundItem == CYBLE_AIOS_
 364:Generated_Source\PSoC4/Bluetooth_aios.c ****                     {
 365:Generated_Source\PSoC4/Bluetooth_aios.c ****                         gattErr = CyBle_GattDbCheckPermission(eventParam->handleValPair.attrHandle,
 366:Generated_Source\PSoC4/Bluetooth_aios.c ****                                                               &eventParam->connHandle,
 367:Generated_Source\PSoC4/Bluetooth_aios.c ****                                                               CYBLE_GATT_DB_WRITE | CYBLE_GATT_DB_P
 368:Generated_Source\PSoC4/Bluetooth_aios.c ****                         
 369:Generated_Source\PSoC4/Bluetooth_aios.c ****                         if(gattErr == CYBLE_GATT_ERR_NONE)
 370:Generated_Source\PSoC4/Bluetooth_aios.c ****                         {
 371:Generated_Source\PSoC4/Bluetooth_aios.c ****                             /* Fill data and pass it to user */
 372:Generated_Source\PSoC4/Bluetooth_aios.c ****                                                           
 373:Generated_Source\PSoC4/Bluetooth_aios.c ****                             if( foundItem == CYBLE_AIOS_CHARACTERISTIC_ITEM)
 374:Generated_Source\PSoC4/Bluetooth_aios.c ****                             {
 375:Generated_Source\PSoC4/Bluetooth_aios.c ****                                 wrCharReqParam.connHandle = eventParam->connHandle;
 376:Generated_Source\PSoC4/Bluetooth_aios.c ****                                 wrCharReqParam.charIndex = (CYBLE_AIOS_CHAR_INDEX_T) i;
 377:Generated_Source\PSoC4/Bluetooth_aios.c ****                                 wrCharReqParam.charInstance = j;
 378:Generated_Source\PSoC4/Bluetooth_aios.c ****                                 wrCharReqParam.gattErrorCode = CYBLE_GATT_ERR_NONE;
 379:Generated_Source\PSoC4/Bluetooth_aios.c ****                                 wrCharReqParam.value = &eventParam->handleValPair.value;
 380:Generated_Source\PSoC4/Bluetooth_aios.c ****                             
 381:Generated_Source\PSoC4/Bluetooth_aios.c ****                                 CyBle_AiosApplCallback(CYBLE_EVT_AIOSS_CHAR_WRITE, &wrCharReqParam)
 382:Generated_Source\PSoC4/Bluetooth_aios.c ****                             }
 383:Generated_Source\PSoC4/Bluetooth_aios.c ****                             else if (foundItem == CYBLE_AIOS_DESCRIPTOR_ITEM)
ARM GAS  C:\Windows\TEMP\ccyNncCN.s 			page 9


 384:Generated_Source\PSoC4/Bluetooth_aios.c ****                             {
 385:Generated_Source\PSoC4/Bluetooth_aios.c ****                                 wrDescrReqParam.connHandle = eventParam->connHandle;
 386:Generated_Source\PSoC4/Bluetooth_aios.c ****                                 wrDescrReqParam.charIndex = (CYBLE_AIOS_CHAR_INDEX_T) i;
 387:Generated_Source\PSoC4/Bluetooth_aios.c ****                                 wrDescrReqParam.charInstance = j;
 388:Generated_Source\PSoC4/Bluetooth_aios.c ****                                 wrDescrReqParam.gattErrorCode = CYBLE_GATT_ERR_NONE;
 389:Generated_Source\PSoC4/Bluetooth_aios.c ****                                 wrDescrReqParam.value = &eventParam->handleValPair.value;
 390:Generated_Source\PSoC4/Bluetooth_aios.c ****                             
 391:Generated_Source\PSoC4/Bluetooth_aios.c ****                                 CyBle_AiosApplCallback(CYBLE_EVT_AIOSS_DESCR_WRITE, &wrDescrReqPara
 392:Generated_Source\PSoC4/Bluetooth_aios.c ****                             }
 393:Generated_Source\PSoC4/Bluetooth_aios.c ****                             else 
 394:Generated_Source\PSoC4/Bluetooth_aios.c ****                             {
 395:Generated_Source\PSoC4/Bluetooth_aios.c ****                                 /* No handle match was found */
 396:Generated_Source\PSoC4/Bluetooth_aios.c ****                             }
 397:Generated_Source\PSoC4/Bluetooth_aios.c **** 
 398:Generated_Source\PSoC4/Bluetooth_aios.c ****                             /* Write value to GATT database */
 399:Generated_Source\PSoC4/Bluetooth_aios.c ****                             gattErr = CyBle_GattsWriteAttributeValue(&eventParam->handleValPair, 0u
 400:Generated_Source\PSoC4/Bluetooth_aios.c ****                                 &eventParam->connHandle, CYBLE_GATT_DB_PEER_INITIATED);
 401:Generated_Source\PSoC4/Bluetooth_aios.c ****                             
 402:Generated_Source\PSoC4/Bluetooth_aios.c ****                             if( event != 0u )
 403:Generated_Source\PSoC4/Bluetooth_aios.c ****                             {   
 404:Generated_Source\PSoC4/Bluetooth_aios.c ****                                 CyBle_AiosApplCallback(event, &wrDescrReqParam);
 405:Generated_Source\PSoC4/Bluetooth_aios.c ****                             }
 406:Generated_Source\PSoC4/Bluetooth_aios.c ****                             else 
 407:Generated_Source\PSoC4/Bluetooth_aios.c ****                             {
 408:Generated_Source\PSoC4/Bluetooth_aios.c ****                                 /* No event was found */
 409:Generated_Source\PSoC4/Bluetooth_aios.c ****                             }
 410:Generated_Source\PSoC4/Bluetooth_aios.c ****                         }
 411:Generated_Source\PSoC4/Bluetooth_aios.c ****                         cyBle_eventHandlerFlag &= (uint8)~CYBLE_CALLBACK;
 412:Generated_Source\PSoC4/Bluetooth_aios.c ****                         break;
 413:Generated_Source\PSoC4/Bluetooth_aios.c ****                     }
 414:Generated_Source\PSoC4/Bluetooth_aios.c ****                 }
 415:Generated_Source\PSoC4/Bluetooth_aios.c ****             }
 416:Generated_Source\PSoC4/Bluetooth_aios.c ****         }
 417:Generated_Source\PSoC4/Bluetooth_aios.c ****     }
 418:Generated_Source\PSoC4/Bluetooth_aios.c **** 
 419:Generated_Source\PSoC4/Bluetooth_aios.c ****     if(gattErr != CYBLE_GATT_ERR_NONE )
 420:Generated_Source\PSoC4/Bluetooth_aios.c ****     {
 421:Generated_Source\PSoC4/Bluetooth_aios.c ****         /* Indicate that request was handled */
 422:Generated_Source\PSoC4/Bluetooth_aios.c ****         cyBle_eventHandlerFlag &= (uint8)~CYBLE_CALLBACK;
 423:Generated_Source\PSoC4/Bluetooth_aios.c ****     }
 424:Generated_Source\PSoC4/Bluetooth_aios.c ****     else
 425:Generated_Source\PSoC4/Bluetooth_aios.c ****     {   
 426:Generated_Source\PSoC4/Bluetooth_aios.c ****         if( foundItem == CYBLE_AIOS_CHARACTERISTIC_ITEM )
 427:Generated_Source\PSoC4/Bluetooth_aios.c ****         {
 428:Generated_Source\PSoC4/Bluetooth_aios.c ****             gattErr = CyBle_AiosSetAggregateChar();
 429:Generated_Source\PSoC4/Bluetooth_aios.c ****         }
 430:Generated_Source\PSoC4/Bluetooth_aios.c ****     }
 431:Generated_Source\PSoC4/Bluetooth_aios.c ****     
 432:Generated_Source\PSoC4/Bluetooth_aios.c ****     return (gattErr);
 433:Generated_Source\PSoC4/Bluetooth_aios.c **** }
 434:Generated_Source\PSoC4/Bluetooth_aios.c **** 
 435:Generated_Source\PSoC4/Bluetooth_aios.c **** /******************************************************************************
 436:Generated_Source\PSoC4/Bluetooth_aios.c **** * Function Name: CyBle_AiossSetCharacteristicValue
 437:Generated_Source\PSoC4/Bluetooth_aios.c **** ***************************************************************************//**
 438:Generated_Source\PSoC4/Bluetooth_aios.c **** * 
 439:Generated_Source\PSoC4/Bluetooth_aios.c **** *  Sets the characteristic value of the service in the local database.
 440:Generated_Source\PSoC4/Bluetooth_aios.c **** * 
ARM GAS  C:\Windows\TEMP\ccyNncCN.s 			page 10


 441:Generated_Source\PSoC4/Bluetooth_aios.c **** *  \param charIndex:    The index of the service characteristic. Starts with 
 442:Generated_Source\PSoC4/Bluetooth_aios.c **** *                       zero.
 443:Generated_Source\PSoC4/Bluetooth_aios.c **** *  \param charInstance: The instance number of the characteristic specified by
 444:Generated_Source\PSoC4/Bluetooth_aios.c **** *                       "charIndex".
 445:Generated_Source\PSoC4/Bluetooth_aios.c **** *  \param attrSize:     The size (in bytes) of the characteristic value 
 446:Generated_Source\PSoC4/Bluetooth_aios.c **** *                       attribute.
 447:Generated_Source\PSoC4/Bluetooth_aios.c **** *  \param attrValue:    The pointer to the characteristic value data that 
 448:Generated_Source\PSoC4/Bluetooth_aios.c **** *                       should be stored in the GATT database.
 449:Generated_Source\PSoC4/Bluetooth_aios.c **** * 
 450:Generated_Source\PSoC4/Bluetooth_aios.c **** * \return
 451:Generated_Source\PSoC4/Bluetooth_aios.c **** *  A return value is of type CYBLE_API_RESULT_T.
 452:Generated_Source\PSoC4/Bluetooth_aios.c **** *  * CYBLE_ERROR_OK - The request handled successfully.
 453:Generated_Source\PSoC4/Bluetooth_aios.c **** *  * CYBLE_ERROR_INVALID_PARAMETER - Validation of the input parameter failed.
 454:Generated_Source\PSoC4/Bluetooth_aios.c **** *  * CYBLE_ERROR_GATT_DB_INVALID_ATTR_HANDLE - An optional characteristic is
 455:Generated_Source\PSoC4/Bluetooth_aios.c **** *                                              absent.
 456:Generated_Source\PSoC4/Bluetooth_aios.c **** ******************************************************************************/
 457:Generated_Source\PSoC4/Bluetooth_aios.c **** CYBLE_API_RESULT_T CyBle_AiossSetCharacteristicValue(CYBLE_AIOS_CHAR_INDEX_T charIndex,
 458:Generated_Source\PSoC4/Bluetooth_aios.c ****     uint8 charInstance, uint8 attrSize, uint8 *attrValue)
 459:Generated_Source\PSoC4/Bluetooth_aios.c **** {
 460:Generated_Source\PSoC4/Bluetooth_aios.c ****     CYBLE_API_RESULT_T apiResult = CYBLE_ERROR_INVALID_PARAMETER;
 461:Generated_Source\PSoC4/Bluetooth_aios.c **** 
 462:Generated_Source\PSoC4/Bluetooth_aios.c ****     /* Validate range of AIOS characteristics */
 463:Generated_Source\PSoC4/Bluetooth_aios.c ****     if((charIndex < CYBLE_AIOS_CHAR_COUNT) && (charInstance < cyBle_aiossCharInstances[charIndex]))
 464:Generated_Source\PSoC4/Bluetooth_aios.c ****     {
 465:Generated_Source\PSoC4/Bluetooth_aios.c ****         /* Check if requested characteristic is present in Service.
 466:Generated_Source\PSoC4/Bluetooth_aios.c ****         * There are three conditions which should be checked: 1) The pointer to
 467:Generated_Source\PSoC4/Bluetooth_aios.c ****         * "CYBLE_AIOS_CHAR_T" is not NULL, 2) The handle of the characteristic is
 468:Generated_Source\PSoC4/Bluetooth_aios.c ****         * a valid handle, 3) The requested instance is a valid characteristic
 469:Generated_Source\PSoC4/Bluetooth_aios.c ****         * instance.
 470:Generated_Source\PSoC4/Bluetooth_aios.c ****         */
 471:Generated_Source\PSoC4/Bluetooth_aios.c ****         if((cyBle_aioss.charInfoAddr[charIndex].charInfoPtr != NULL) &&
 472:Generated_Source\PSoC4/Bluetooth_aios.c ****             (CYBLE_GATT_INVALID_ATTR_HANDLE_VALUE !=
 473:Generated_Source\PSoC4/Bluetooth_aios.c ****                 cyBle_aioss.charInfoAddr[charIndex].charInfoPtr[charInstance].charHandle))
 474:Generated_Source\PSoC4/Bluetooth_aios.c ****         {
 475:Generated_Source\PSoC4/Bluetooth_aios.c ****             CYBLE_GATT_HANDLE_VALUE_PAIR_T locHandleValuePair;
 476:Generated_Source\PSoC4/Bluetooth_aios.c **** 
 477:Generated_Source\PSoC4/Bluetooth_aios.c ****             locHandleValuePair.attrHandle =
 478:Generated_Source\PSoC4/Bluetooth_aios.c ****                 cyBle_aioss.charInfoAddr[charIndex].charInfoPtr[charInstance].charHandle;
 479:Generated_Source\PSoC4/Bluetooth_aios.c ****             locHandleValuePair.value.len = attrSize;
 480:Generated_Source\PSoC4/Bluetooth_aios.c ****             locHandleValuePair.value.val = attrValue;
 481:Generated_Source\PSoC4/Bluetooth_aios.c **** 
 482:Generated_Source\PSoC4/Bluetooth_aios.c ****             /* Store data in database */
 483:Generated_Source\PSoC4/Bluetooth_aios.c ****             if(CyBle_GattsWriteAttributeValue(&locHandleValuePair, 0u, NULL, CYBLE_GATT_DB_LOCALLY_
 484:Generated_Source\PSoC4/Bluetooth_aios.c ****                 CYBLE_GATT_ERR_NONE)
 485:Generated_Source\PSoC4/Bluetooth_aios.c ****             {
 486:Generated_Source\PSoC4/Bluetooth_aios.c ****                 apiResult = CYBLE_ERROR_OK;
 487:Generated_Source\PSoC4/Bluetooth_aios.c ****             }
 488:Generated_Source\PSoC4/Bluetooth_aios.c ****         }
 489:Generated_Source\PSoC4/Bluetooth_aios.c ****         else
 490:Generated_Source\PSoC4/Bluetooth_aios.c ****         {
 491:Generated_Source\PSoC4/Bluetooth_aios.c ****             apiResult = CYBLE_ERROR_GATT_DB_INVALID_ATTR_HANDLE;
 492:Generated_Source\PSoC4/Bluetooth_aios.c ****         }
 493:Generated_Source\PSoC4/Bluetooth_aios.c ****     }
 494:Generated_Source\PSoC4/Bluetooth_aios.c ****     
 495:Generated_Source\PSoC4/Bluetooth_aios.c ****     if ( apiResult == CYBLE_ERROR_OK )
 496:Generated_Source\PSoC4/Bluetooth_aios.c ****     {   
 497:Generated_Source\PSoC4/Bluetooth_aios.c ****         if(CyBle_AiosSetAggregateChar() != CYBLE_GATT_ERR_NONE)
ARM GAS  C:\Windows\TEMP\ccyNncCN.s 			page 11


 498:Generated_Source\PSoC4/Bluetooth_aios.c ****         {   
 499:Generated_Source\PSoC4/Bluetooth_aios.c ****             apiResult = CYBLE_ERROR_GATT_DB_INVALID_ATTR_HANDLE;
 500:Generated_Source\PSoC4/Bluetooth_aios.c ****         }
 501:Generated_Source\PSoC4/Bluetooth_aios.c ****     }
 502:Generated_Source\PSoC4/Bluetooth_aios.c ****     
 503:Generated_Source\PSoC4/Bluetooth_aios.c ****     return (apiResult);
 504:Generated_Source\PSoC4/Bluetooth_aios.c **** }
 505:Generated_Source\PSoC4/Bluetooth_aios.c **** 
 506:Generated_Source\PSoC4/Bluetooth_aios.c **** /******************************************************************************
 507:Generated_Source\PSoC4/Bluetooth_aios.c **** * Function Name: CyBle_AiossGetCharacteristicValue
 508:Generated_Source\PSoC4/Bluetooth_aios.c **** ***************************************************************************//**
 509:Generated_Source\PSoC4/Bluetooth_aios.c **** * 
 510:Generated_Source\PSoC4/Bluetooth_aios.c **** *  Gets the characteristic value of the service, which is a value identified by
 511:Generated_Source\PSoC4/Bluetooth_aios.c **** *  charIndex.
 512:Generated_Source\PSoC4/Bluetooth_aios.c **** * 
 513:Generated_Source\PSoC4/Bluetooth_aios.c **** *  \param charIndex:    The index of the service characteristic. Starts with 
 514:Generated_Source\PSoC4/Bluetooth_aios.c **** *                       zero.
 515:Generated_Source\PSoC4/Bluetooth_aios.c **** *  \param charInstance: The instance number of the characteristic specified by
 516:Generated_Source\PSoC4/Bluetooth_aios.c **** *                       "charIndex".
 517:Generated_Source\PSoC4/Bluetooth_aios.c **** *  \param attrSize:     The size of the characteristic value attribute.
 518:Generated_Source\PSoC4/Bluetooth_aios.c **** *  \param attrValue:    The pointer to the location where characteristic value
 519:Generated_Source\PSoC4/Bluetooth_aios.c **** *                       data should be stored.
 520:Generated_Source\PSoC4/Bluetooth_aios.c **** * 
 521:Generated_Source\PSoC4/Bluetooth_aios.c **** * \return
 522:Generated_Source\PSoC4/Bluetooth_aios.c **** *  A return value is of type CYBLE_API_RESULT_T.
 523:Generated_Source\PSoC4/Bluetooth_aios.c **** *  * CYBLE_ERROR_OK - The request handled successfully
 524:Generated_Source\PSoC4/Bluetooth_aios.c **** *  * CYBLE_ERROR_INVALID_PARAMETER - Validation of the input parameter failed
 525:Generated_Source\PSoC4/Bluetooth_aios.c **** *  * CYBLE_ERROR_GATT_DB_INVALID_ATTR_HANDLE - An optional characteristic is
 526:Generated_Source\PSoC4/Bluetooth_aios.c **** *                                              absent.
 527:Generated_Source\PSoC4/Bluetooth_aios.c **** *
 528:Generated_Source\PSoC4/Bluetooth_aios.c **** ******************************************************************************/
 529:Generated_Source\PSoC4/Bluetooth_aios.c **** CYBLE_API_RESULT_T CyBle_AiossGetCharacteristicValue(CYBLE_AIOS_CHAR_INDEX_T charIndex, 
 530:Generated_Source\PSoC4/Bluetooth_aios.c ****     uint8 charInstance, uint8 attrSize, uint8 *attrValue)
 531:Generated_Source\PSoC4/Bluetooth_aios.c **** {
  74              		.loc 1 531 0
  75              		.cfi_startproc
  76              		@ args = 0, pretend = 0, frame = 16
  77              		@ frame_needed = 0, uses_anonymous_args = 0
  78              	.LVL1:
  79 0000 30B5     		push	{r4, r5, lr}
  80              		.cfi_def_cfa_offset 12
  81              		.cfi_offset 4, -12
  82              		.cfi_offset 5, -8
  83              		.cfi_offset 14, -4
  84 0002 85B0     		sub	sp, sp, #20
  85              		.cfi_def_cfa_offset 32
  86              	.LVL2:
 532:Generated_Source\PSoC4/Bluetooth_aios.c ****      CYBLE_API_RESULT_T apiResult = CYBLE_ERROR_INVALID_PARAMETER;
 533:Generated_Source\PSoC4/Bluetooth_aios.c **** 
 534:Generated_Source\PSoC4/Bluetooth_aios.c ****     if((charIndex < CYBLE_AIOS_CHAR_COUNT) && (charInstance < cyBle_aiossCharInstances[charIndex]))
  87              		.loc 1 534 0
  88 0004 0228     		cmp	r0, #2
  89 0006 25D8     		bhi	.L8
  90              		.loc 1 534 0 is_stmt 0 discriminator 1
  91 0008 174C     		ldr	r4, .L13
  92 000a 245C     		ldrb	r4, [r4, r0]
  93 000c 8C42     		cmp	r4, r1
ARM GAS  C:\Windows\TEMP\ccyNncCN.s 			page 12


  94 000e 23D9     		bls	.L9
 535:Generated_Source\PSoC4/Bluetooth_aios.c ****     {
 536:Generated_Source\PSoC4/Bluetooth_aios.c ****         /* Check if requested characteristic is present in Service. There are three
 537:Generated_Source\PSoC4/Bluetooth_aios.c ****         * conditions to be checked: 1) The pointer to "CYBLE_AIOSS_CHAR_T" record in
 538:Generated_Source\PSoC4/Bluetooth_aios.c ****         * the cyBle_aioss struct is not NULL, 2) The handle of the characteristic is a 
 539:Generated_Source\PSoC4/Bluetooth_aios.c ****         * valid handle, 3) The requested instance is a valid characteristic instance.
 540:Generated_Source\PSoC4/Bluetooth_aios.c ****         */
 541:Generated_Source\PSoC4/Bluetooth_aios.c ****         if((cyBle_aioss.charInfoAddr[charIndex].charInfoPtr != NULL) &&
  95              		.loc 1 541 0 is_stmt 1
  96 0010 8000     		lsls	r0, r0, #2
  97              	.LVL3:
  98 0012 164C     		ldr	r4, .L13+4
  99 0014 2018     		adds	r0, r4, r0
 100 0016 4468     		ldr	r4, [r0, #4]
 101 0018 002C     		cmp	r4, #0
 102 001a 1FD0     		beq	.L10
 542:Generated_Source\PSoC4/Bluetooth_aios.c ****             (cyBle_aioss.charInfoAddr[charIndex].charInfoPtr[charInstance].charHandle != CYBLE_GATT
 103              		.loc 1 542 0 discriminator 1
 104 001c 0901     		lsls	r1, r1, #4
 105              	.LVL4:
 106 001e 6418     		adds	r4, r4, r1
 107 0020 2188     		ldrh	r1, [r4]
 541:Generated_Source\PSoC4/Bluetooth_aios.c ****             (cyBle_aioss.charInfoAddr[charIndex].charInfoPtr[charInstance].charHandle != CYBLE_GATT
 108              		.loc 1 541 0 discriminator 1
 109 0022 0029     		cmp	r1, #0
 110 0024 1CD0     		beq	.L11
 111              	.LBB2:
 543:Generated_Source\PSoC4/Bluetooth_aios.c ****         {
 544:Generated_Source\PSoC4/Bluetooth_aios.c ****             CYBLE_GATT_HANDLE_VALUE_PAIR_T locHandleValuePair;
 545:Generated_Source\PSoC4/Bluetooth_aios.c **** 
 546:Generated_Source\PSoC4/Bluetooth_aios.c ****             locHandleValuePair.attrHandle = cyBle_aioss.charInfoAddr[charIndex].charInfoPtr[charIns
 112              		.loc 1 546 0
 113 0026 01A8     		add	r0, sp, #4
 114 0028 0181     		strh	r1, [r0, #8]
 547:Generated_Source\PSoC4/Bluetooth_aios.c ****             locHandleValuePair.value.len = attrSize;
 115              		.loc 1 547 0
 116 002a 95B2     		uxth	r5, r2
 117 002c 8580     		strh	r5, [r0, #4]
 548:Generated_Source\PSoC4/Bluetooth_aios.c ****             locHandleValuePair.value.val = attrValue;
 118              		.loc 1 548 0
 119 002e 0193     		str	r3, [sp, #4]
 549:Generated_Source\PSoC4/Bluetooth_aios.c **** 
 550:Generated_Source\PSoC4/Bluetooth_aios.c ****             /* Read characteristic value from database */
 551:Generated_Source\PSoC4/Bluetooth_aios.c ****             if(CyBle_GattsReadAttributeValue(&locHandleValuePair, NULL, CYBLE_GATT_DB_LOCALLY_INITI
 120              		.loc 1 551 0
 121 0030 0022     		movs	r2, #0
 122              	.LVL5:
 123 0032 0021     		movs	r1, #0
 124 0034 FFF7FEFF 		bl	CyBle_GattsReadAttributeValue
 125              	.LVL6:
 126 0038 0028     		cmp	r0, #0
 127 003a 09D1     		bne	.L12
 128              	.LVL7:
 552:Generated_Source\PSoC4/Bluetooth_aios.c ****                 CYBLE_GATT_ERR_NONE)
 553:Generated_Source\PSoC4/Bluetooth_aios.c ****             {
 554:Generated_Source\PSoC4/Bluetooth_aios.c ****                 apiResult = CYBLE_ERROR_OK;
 555:Generated_Source\PSoC4/Bluetooth_aios.c ****                 
ARM GAS  C:\Windows\TEMP\ccyNncCN.s 			page 13


 556:Generated_Source\PSoC4/Bluetooth_aios.c ****             /* Set new length of the descriptor value */
 557:Generated_Source\PSoC4/Bluetooth_aios.c ****             CYBLE_GATT_DB_ATTR_SET_ATTR_GEN_LEN(cyBle_aioss.charInfoAddr[charIndex].charInfoPtr[cha
 129              		.loc 1 557 0
 130 003c 2388     		ldrh	r3, [r4]
 131 003e 013B     		subs	r3, r3, #1
 132 0040 9A00     		lsls	r2, r3, #2
 133 0042 D318     		adds	r3, r2, r3
 134 0044 9A00     		lsls	r2, r3, #2
 135 0046 0A4B     		ldr	r3, .L13+8
 136 0048 9A18     		adds	r2, r3, r2
 137 004a 1369     		ldr	r3, [r2, #16]
 138 004c 1D80     		strh	r5, [r3]
 139 004e 08E0     		b	.L6
 140              	.LVL8:
 141              	.L12:
 142              	.LBE2:
 532:Generated_Source\PSoC4/Bluetooth_aios.c **** 
 143              		.loc 1 532 0
 144 0050 0120     		movs	r0, #1
 543:Generated_Source\PSoC4/Bluetooth_aios.c ****             CYBLE_GATT_HANDLE_VALUE_PAIR_T locHandleValuePair;
 145              		.loc 1 543 0
 146 0052 06E0     		b	.L6
 147              	.LVL9:
 148              	.L8:
 532:Generated_Source\PSoC4/Bluetooth_aios.c **** 
 149              		.loc 1 532 0
 150 0054 0120     		movs	r0, #1
 151              	.LVL10:
 152 0056 04E0     		b	.L6
 153              	.LVL11:
 154              	.L9:
 155 0058 0120     		movs	r0, #1
 156              	.LVL12:
 157 005a 02E0     		b	.L6
 158              	.L10:
 558:Generated_Source\PSoC4/Bluetooth_aios.c ****                                                 attrSize);
 559:Generated_Source\PSoC4/Bluetooth_aios.c ****             }
 560:Generated_Source\PSoC4/Bluetooth_aios.c ****         }
 561:Generated_Source\PSoC4/Bluetooth_aios.c ****         else
 562:Generated_Source\PSoC4/Bluetooth_aios.c ****         {
 563:Generated_Source\PSoC4/Bluetooth_aios.c ****             apiResult = CYBLE_ERROR_GATT_DB_INVALID_ATTR_HANDLE;
 159              		.loc 1 563 0
 160 005c 1320     		movs	r0, #19
 161 005e 00E0     		b	.L6
 162              	.LVL13:
 163              	.L11:
 164 0060 1320     		movs	r0, #19
 165              	.LVL14:
 166              	.L6:
 564:Generated_Source\PSoC4/Bluetooth_aios.c ****         }
 565:Generated_Source\PSoC4/Bluetooth_aios.c ****     }
 566:Generated_Source\PSoC4/Bluetooth_aios.c **** 
 567:Generated_Source\PSoC4/Bluetooth_aios.c ****     return (apiResult);
 568:Generated_Source\PSoC4/Bluetooth_aios.c ****     
 569:Generated_Source\PSoC4/Bluetooth_aios.c **** }
 167              		.loc 1 569 0
 168 0062 05B0     		add	sp, sp, #20
ARM GAS  C:\Windows\TEMP\ccyNncCN.s 			page 14


 169              		@ sp needed
 170 0064 30BD     		pop	{r4, r5, pc}
 171              	.L14:
 172 0066 C046     		.align	2
 173              	.L13:
 174 0068 00000000 		.word	.LANCHOR1
 175 006c 00000000 		.word	.LANCHOR2
 176 0070 00000000 		.word	cyBle_gattDB
 177              		.cfi_endproc
 178              	.LFE6:
 179              		.size	CyBle_AiossGetCharacteristicValue, .-CyBle_AiossGetCharacteristicValue
 180              		.section	.text.CyBle_AiossGetCharacteristicDescriptor,"ax",%progbits
 181              		.align	2
 182              		.global	CyBle_AiossGetCharacteristicDescriptor
 183              		.code	16
 184              		.thumb_func
 185              		.type	CyBle_AiossGetCharacteristicDescriptor, %function
 186              	CyBle_AiossGetCharacteristicDescriptor:
 187              	.LFB7:
 570:Generated_Source\PSoC4/Bluetooth_aios.c **** 
 571:Generated_Source\PSoC4/Bluetooth_aios.c **** /******************************************************************************
 572:Generated_Source\PSoC4/Bluetooth_aios.c **** * Function Name: CyBle_AiossGetCharacteristicDescriptor
 573:Generated_Source\PSoC4/Bluetooth_aios.c **** ***************************************************************************//**
 574:Generated_Source\PSoC4/Bluetooth_aios.c **** * 
 575:Generated_Source\PSoC4/Bluetooth_aios.c **** *  Gets a characteristic descriptor of a specified characteristic of the
 576:Generated_Source\PSoC4/Bluetooth_aios.c **** *  Automation Input Output Service from the local GATT database.
 577:Generated_Source\PSoC4/Bluetooth_aios.c **** * 
 578:Generated_Source\PSoC4/Bluetooth_aios.c **** *  \param charIndex:    The index of the characteristic.
 579:Generated_Source\PSoC4/Bluetooth_aios.c **** *  \param charInstance: The instance number of the characteristic specified by
 580:Generated_Source\PSoC4/Bluetooth_aios.c **** *                       "charIndex".
 581:Generated_Source\PSoC4/Bluetooth_aios.c **** *  \param descrIndex:   The index of the characteristic descriptor.
 582:Generated_Source\PSoC4/Bluetooth_aios.c **** *  \param attrSize:     The size of the characteristic descriptor attribute.
 583:Generated_Source\PSoC4/Bluetooth_aios.c **** *  \param attrValue:    The pointer to the location where characteristic  
 584:Generated_Source\PSoC4/Bluetooth_aios.c **** *                       descriptor value data should be stored.
 585:Generated_Source\PSoC4/Bluetooth_aios.c **** * 
 586:Generated_Source\PSoC4/Bluetooth_aios.c **** * \return
 587:Generated_Source\PSoC4/Bluetooth_aios.c **** *  Return value is of type CYBLE_API_RESULT_T.
 588:Generated_Source\PSoC4/Bluetooth_aios.c **** *  * CYBLE_ERROR_OK - The request handled successfully.
 589:Generated_Source\PSoC4/Bluetooth_aios.c **** *  * CYBLE_ERROR_INVALID_PARAMETER - Validation of the input parameter failed.
 590:Generated_Source\PSoC4/Bluetooth_aios.c **** *  * CYBLE_ERROR_GATT_DB_INVALID_ATTR_HANDLE - Optional descriptor is absent.
 591:Generated_Source\PSoC4/Bluetooth_aios.c **** *
 592:Generated_Source\PSoC4/Bluetooth_aios.c **** ******************************************************************************/
 593:Generated_Source\PSoC4/Bluetooth_aios.c **** CYBLE_API_RESULT_T CyBle_AiossGetCharacteristicDescriptor(CYBLE_AIOS_CHAR_INDEX_T charIndex, 
 594:Generated_Source\PSoC4/Bluetooth_aios.c ****      uint8 charInstance, CYBLE_AIOS_DESCR_INDEX_T descrIndex, uint8 attrSize, uint8 *attrValue)
 595:Generated_Source\PSoC4/Bluetooth_aios.c **** {
 188              		.loc 1 595 0
 189              		.cfi_startproc
 190              		@ args = 4, pretend = 0, frame = 16
 191              		@ frame_needed = 0, uses_anonymous_args = 0
 192              	.LVL15:
 193 0000 70B5     		push	{r4, r5, r6, lr}
 194              		.cfi_def_cfa_offset 16
 195              		.cfi_offset 4, -16
 196              		.cfi_offset 5, -12
 197              		.cfi_offset 6, -8
 198              		.cfi_offset 14, -4
 199 0002 84B0     		sub	sp, sp, #16
ARM GAS  C:\Windows\TEMP\ccyNncCN.s 			page 15


 200              		.cfi_def_cfa_offset 32
 201 0004 1400     		movs	r4, r2
 202              	.LVL16:
 596:Generated_Source\PSoC4/Bluetooth_aios.c ****     
 597:Generated_Source\PSoC4/Bluetooth_aios.c ****      CYBLE_API_RESULT_T apiResult = CYBLE_ERROR_INVALID_PARAMETER;
 598:Generated_Source\PSoC4/Bluetooth_aios.c **** 
 599:Generated_Source\PSoC4/Bluetooth_aios.c ****     if((charIndex < CYBLE_AIOS_CHAR_COUNT) && (charInstance < cyBle_aiossCharInstances[charIndex]) 
 203              		.loc 1 599 0
 204 0006 0228     		cmp	r0, #2
 205 0008 2FD8     		bhi	.L18
 206              		.loc 1 599 0 is_stmt 0 discriminator 1
 207 000a 1E4A     		ldr	r2, .L25
 208              	.LVL17:
 209 000c 125C     		ldrb	r2, [r2, r0]
 210 000e 8A42     		cmp	r2, r1
 211 0010 2DD9     		bls	.L19
 212              		.loc 1 599 0 discriminator 2
 213 0012 062C     		cmp	r4, #6
 214 0014 2DD8     		bhi	.L20
 600:Generated_Source\PSoC4/Bluetooth_aios.c ****         (descrIndex < CYBLE_AIOS_DESCR_COUNT ))
 601:Generated_Source\PSoC4/Bluetooth_aios.c ****     {
 602:Generated_Source\PSoC4/Bluetooth_aios.c ****         /* Check if requested descriptor is present in Service.
 603:Generated_Source\PSoC4/Bluetooth_aios.c ****         * There are three conditions to be checked: 1) The pointer to
 604:Generated_Source\PSoC4/Bluetooth_aios.c ****         * "CYBLE_AiosS_CHAR_T" is not NULL, 2) The handle of the characteristic is
 605:Generated_Source\PSoC4/Bluetooth_aios.c ****         * a valid handle, 3) The handle of the descriptor is a valid handle.
 606:Generated_Source\PSoC4/Bluetooth_aios.c ****         */
 607:Generated_Source\PSoC4/Bluetooth_aios.c ****         if((cyBle_aioss.charInfoAddr[charIndex].charInfoPtr != NULL) &&
 215              		.loc 1 607 0 is_stmt 1
 216 0016 8000     		lsls	r0, r0, #2
 217              	.LVL18:
 218 0018 1B4A     		ldr	r2, .L25+4
 219 001a 1018     		adds	r0, r2, r0
 220 001c 4568     		ldr	r5, [r0, #4]
 221 001e 002D     		cmp	r5, #0
 222 0020 29D0     		beq	.L21
 608:Generated_Source\PSoC4/Bluetooth_aios.c ****             (cyBle_aioss.charInfoAddr[charIndex].charInfoPtr[charInstance].charHandle != CYBLE_GATT
 223              		.loc 1 608 0 discriminator 1
 224 0022 0901     		lsls	r1, r1, #4
 225              	.LVL19:
 226 0024 6D18     		adds	r5, r5, r1
 227 0026 2A88     		ldrh	r2, [r5]
 607:Generated_Source\PSoC4/Bluetooth_aios.c ****             (cyBle_aioss.charInfoAddr[charIndex].charInfoPtr[charInstance].charHandle != CYBLE_GATT
 228              		.loc 1 607 0 discriminator 1
 229 0028 002A     		cmp	r2, #0
 230 002a 26D0     		beq	.L22
 609:Generated_Source\PSoC4/Bluetooth_aios.c ****                     (cyBle_aioss.charInfoAddr[charIndex].charInfoPtr[charInstance].descrHandle[desc
 231              		.loc 1 609 0
 232 002c 6200     		lsls	r2, r4, #1
 233 002e AA18     		adds	r2, r5, r2
 234 0030 5288     		ldrh	r2, [r2, #2]
 608:Generated_Source\PSoC4/Bluetooth_aios.c ****             (cyBle_aioss.charInfoAddr[charIndex].charInfoPtr[charInstance].charHandle != CYBLE_GATT
 235              		.loc 1 608 0
 236 0032 002A     		cmp	r2, #0
 237 0034 23D0     		beq	.L23
 238              	.LBB3:
 610:Generated_Source\PSoC4/Bluetooth_aios.c ****         {
 611:Generated_Source\PSoC4/Bluetooth_aios.c ****             CYBLE_GATT_HANDLE_VALUE_PAIR_T locHandleValuePair;
ARM GAS  C:\Windows\TEMP\ccyNncCN.s 			page 16


 612:Generated_Source\PSoC4/Bluetooth_aios.c **** 
 613:Generated_Source\PSoC4/Bluetooth_aios.c ****             locHandleValuePair.attrHandle =
 239              		.loc 1 613 0
 240 0036 01A8     		add	r0, sp, #4
 241 0038 0281     		strh	r2, [r0, #8]
 614:Generated_Source\PSoC4/Bluetooth_aios.c ****                 cyBle_aioss.charInfoAddr[charIndex].charInfoPtr[charInstance].descrHandle[descrInde
 615:Generated_Source\PSoC4/Bluetooth_aios.c ****             locHandleValuePair.value.len = attrSize;
 242              		.loc 1 615 0
 243 003a 9EB2     		uxth	r6, r3
 244 003c 8680     		strh	r6, [r0, #4]
 616:Generated_Source\PSoC4/Bluetooth_aios.c ****             locHandleValuePair.value.val = attrValue;
 245              		.loc 1 616 0
 246 003e 089B     		ldr	r3, [sp, #32]
 247              	.LVL20:
 248 0040 0193     		str	r3, [sp, #4]
 617:Generated_Source\PSoC4/Bluetooth_aios.c ****                         
 618:Generated_Source\PSoC4/Bluetooth_aios.c ****             /* Read characteristic value from database */
 619:Generated_Source\PSoC4/Bluetooth_aios.c ****             if(CyBle_GattsReadAttributeValue(&locHandleValuePair, NULL, CYBLE_GATT_DB_LOCALLY_INITI
 249              		.loc 1 619 0
 250 0042 0022     		movs	r2, #0
 251 0044 0021     		movs	r1, #0
 252 0046 FFF7FEFF 		bl	CyBle_GattsReadAttributeValue
 253              	.LVL21:
 254 004a 0028     		cmp	r0, #0
 255 004c 0BD1     		bne	.L24
 256              	.LVL22:
 620:Generated_Source\PSoC4/Bluetooth_aios.c ****                 CYBLE_GATT_ERR_NONE)
 621:Generated_Source\PSoC4/Bluetooth_aios.c ****             {
 622:Generated_Source\PSoC4/Bluetooth_aios.c ****                 apiResult = CYBLE_ERROR_OK;
 623:Generated_Source\PSoC4/Bluetooth_aios.c ****                 
 624:Generated_Source\PSoC4/Bluetooth_aios.c ****                 /* Set new length of the descriptor value */
 625:Generated_Source\PSoC4/Bluetooth_aios.c ****                 CYBLE_GATT_DB_ATTR_SET_ATTR_GEN_LEN(cyBle_aioss.charInfoAddr[charIndex].charInfoPtr
 257              		.loc 1 625 0
 258 004e 6400     		lsls	r4, r4, #1
 259 0050 2D19     		adds	r5, r5, r4
 260 0052 6B88     		ldrh	r3, [r5, #2]
 261 0054 013B     		subs	r3, r3, #1
 262 0056 9A00     		lsls	r2, r3, #2
 263 0058 D318     		adds	r3, r2, r3
 264 005a 9A00     		lsls	r2, r3, #2
 265 005c 0B4B     		ldr	r3, .L25+8
 266 005e 9A18     		adds	r2, r3, r2
 267 0060 1369     		ldr	r3, [r2, #16]
 268 0062 1E80     		strh	r6, [r3]
 269 0064 0CE0     		b	.L16
 270              	.LVL23:
 271              	.L24:
 272              	.LBE3:
 597:Generated_Source\PSoC4/Bluetooth_aios.c **** 
 273              		.loc 1 597 0
 274 0066 0120     		movs	r0, #1
 610:Generated_Source\PSoC4/Bluetooth_aios.c ****             CYBLE_GATT_HANDLE_VALUE_PAIR_T locHandleValuePair;
 275              		.loc 1 610 0
 276 0068 0AE0     		b	.L16
 277              	.LVL24:
 278              	.L18:
 597:Generated_Source\PSoC4/Bluetooth_aios.c **** 
ARM GAS  C:\Windows\TEMP\ccyNncCN.s 			page 17


 279              		.loc 1 597 0
 280 006a 0120     		movs	r0, #1
 281              	.LVL25:
 282 006c 08E0     		b	.L16
 283              	.LVL26:
 284              	.L19:
 285 006e 0120     		movs	r0, #1
 286              	.LVL27:
 287 0070 06E0     		b	.L16
 288              	.LVL28:
 289              	.L20:
 290 0072 0120     		movs	r0, #1
 291              	.LVL29:
 292 0074 04E0     		b	.L16
 293              	.L21:
 626:Generated_Source\PSoC4/Bluetooth_aios.c ****                                                     descrHandle[descrIndex],
 627:Generated_Source\PSoC4/Bluetooth_aios.c ****                                                     attrSize);
 628:Generated_Source\PSoC4/Bluetooth_aios.c ****             }
 629:Generated_Source\PSoC4/Bluetooth_aios.c ****         }
 630:Generated_Source\PSoC4/Bluetooth_aios.c ****         else
 631:Generated_Source\PSoC4/Bluetooth_aios.c ****         {
 632:Generated_Source\PSoC4/Bluetooth_aios.c ****             apiResult = CYBLE_ERROR_GATT_DB_INVALID_ATTR_HANDLE;
 294              		.loc 1 632 0
 295 0076 1320     		movs	r0, #19
 296 0078 02E0     		b	.L16
 297              	.LVL30:
 298              	.L22:
 299 007a 1320     		movs	r0, #19
 300 007c 00E0     		b	.L16
 301              	.L23:
 302 007e 1320     		movs	r0, #19
 303              	.LVL31:
 304              	.L16:
 633:Generated_Source\PSoC4/Bluetooth_aios.c ****         }
 634:Generated_Source\PSoC4/Bluetooth_aios.c ****     }
 635:Generated_Source\PSoC4/Bluetooth_aios.c ****     return (apiResult);
 636:Generated_Source\PSoC4/Bluetooth_aios.c **** }
 305              		.loc 1 636 0
 306 0080 04B0     		add	sp, sp, #16
 307              		@ sp needed
 308 0082 70BD     		pop	{r4, r5, r6, pc}
 309              	.L26:
 310              		.align	2
 311              	.L25:
 312 0084 00000000 		.word	.LANCHOR1
 313 0088 00000000 		.word	.LANCHOR2
 314 008c 00000000 		.word	cyBle_gattDB
 315              		.cfi_endproc
 316              	.LFE7:
 317              		.size	CyBle_AiossGetCharacteristicDescriptor, .-CyBle_AiossGetCharacteristicDescriptor
 318              		.section	.text.CyBle_AiossSetCharacteristicDescriptor,"ax",%progbits
 319              		.align	2
 320              		.global	CyBle_AiossSetCharacteristicDescriptor
 321              		.code	16
 322              		.thumb_func
 323              		.type	CyBle_AiossSetCharacteristicDescriptor, %function
 324              	CyBle_AiossSetCharacteristicDescriptor:
ARM GAS  C:\Windows\TEMP\ccyNncCN.s 			page 18


 325              	.LFB8:
 637:Generated_Source\PSoC4/Bluetooth_aios.c **** 
 638:Generated_Source\PSoC4/Bluetooth_aios.c **** /******************************************************************************
 639:Generated_Source\PSoC4/Bluetooth_aios.c **** * Function Name: CyBle_AiossSetCharacteristicDescriptor
 640:Generated_Source\PSoC4/Bluetooth_aios.c **** ***************************************************************************//**
 641:Generated_Source\PSoC4/Bluetooth_aios.c **** * 
 642:Generated_Source\PSoC4/Bluetooth_aios.c **** *  Set a characteristic descriptor of a specified characteristic of the Indoor 
 643:Generated_Source\PSoC4/Bluetooth_aios.c **** *  Positioning Service from the local GATT database.
 644:Generated_Source\PSoC4/Bluetooth_aios.c **** * 
 645:Generated_Source\PSoC4/Bluetooth_aios.c **** *  \param charIndex:    The index of the characteristic.
 646:Generated_Source\PSoC4/Bluetooth_aios.c **** *  \param charInstance: The instance number of the characteristic specified by
 647:Generated_Source\PSoC4/Bluetooth_aios.c **** *                       "charIndex".
 648:Generated_Source\PSoC4/Bluetooth_aios.c **** *  \param descrIndex:   The index of the characteristic descriptor.
 649:Generated_Source\PSoC4/Bluetooth_aios.c **** *  \param attrSize:     The size of the characteristic descriptor attribute.
 650:Generated_Source\PSoC4/Bluetooth_aios.c **** *  \param attrValue:    The pointer to the descriptor value data to 
 651:Generated_Source\PSoC4/Bluetooth_aios.c **** *                       be stored in the GATT database.
 652:Generated_Source\PSoC4/Bluetooth_aios.c **** * 
 653:Generated_Source\PSoC4/Bluetooth_aios.c **** * \return
 654:Generated_Source\PSoC4/Bluetooth_aios.c **** *  Return value is of type CYBLE_API_RESULT_T.
 655:Generated_Source\PSoC4/Bluetooth_aios.c **** *  * CYBLE_ERROR_OK - The request handled successfully.
 656:Generated_Source\PSoC4/Bluetooth_aios.c **** *  * CYBLE_ERROR_INVALID_PARAMETER - Validation of the input parameter failed.
 657:Generated_Source\PSoC4/Bluetooth_aios.c **** *  * CYBLE_ERROR_GATT_DB_INVALID_ATTR_HANDLE - Optional descriptor is absent.
 658:Generated_Source\PSoC4/Bluetooth_aios.c **** *
 659:Generated_Source\PSoC4/Bluetooth_aios.c **** ******************************************************************************/
 660:Generated_Source\PSoC4/Bluetooth_aios.c **** CYBLE_API_RESULT_T CyBle_AiossSetCharacteristicDescriptor(CYBLE_AIOS_CHAR_INDEX_T charIndex, 
 661:Generated_Source\PSoC4/Bluetooth_aios.c ****      uint8 charInstance, CYBLE_AIOS_DESCR_INDEX_T descrIndex, uint8 attrSize, uint8 *attrValue)
 662:Generated_Source\PSoC4/Bluetooth_aios.c **** {
 326              		.loc 1 662 0
 327              		.cfi_startproc
 328              		@ args = 4, pretend = 0, frame = 16
 329              		@ frame_needed = 0, uses_anonymous_args = 0
 330              	.LVL32:
 331 0000 10B5     		push	{r4, lr}
 332              		.cfi_def_cfa_offset 8
 333              		.cfi_offset 4, -8
 334              		.cfi_offset 14, -4
 335 0002 84B0     		sub	sp, sp, #16
 336              		.cfi_def_cfa_offset 24
 337              	.LVL33:
 663:Generated_Source\PSoC4/Bluetooth_aios.c ****       CYBLE_API_RESULT_T apiResult = CYBLE_ERROR_INVALID_PARAMETER;
 664:Generated_Source\PSoC4/Bluetooth_aios.c **** 
 665:Generated_Source\PSoC4/Bluetooth_aios.c ****     if((charIndex < CYBLE_AIOS_CHAR_COUNT) && (charInstance < cyBle_aiossCharInstances[charIndex]) 
 338              		.loc 1 665 0
 339 0004 0228     		cmp	r0, #2
 340 0006 25D8     		bhi	.L30
 341              		.loc 1 665 0 is_stmt 0 discriminator 1
 342 0008 194C     		ldr	r4, .L37
 343 000a 245C     		ldrb	r4, [r4, r0]
 344 000c 8C42     		cmp	r4, r1
 345 000e 23D9     		bls	.L31
 346              		.loc 1 665 0 discriminator 2
 347 0010 062A     		cmp	r2, #6
 348 0012 23D8     		bhi	.L32
 666:Generated_Source\PSoC4/Bluetooth_aios.c ****         (descrIndex < CYBLE_AIOS_DESCR_COUNT))
 667:Generated_Source\PSoC4/Bluetooth_aios.c ****     {
 668:Generated_Source\PSoC4/Bluetooth_aios.c ****         /* Check if requested descriptor is present in Service.
 669:Generated_Source\PSoC4/Bluetooth_aios.c ****         * There are three conditions to be checked: 1) The pointer to
ARM GAS  C:\Windows\TEMP\ccyNncCN.s 			page 19


 670:Generated_Source\PSoC4/Bluetooth_aios.c ****         * "CYBLE_AiosS_CHAR_T" is not NULL, 2) The handle of the characteristic is
 671:Generated_Source\PSoC4/Bluetooth_aios.c ****         * a valid handle, 3) The handle of the descriptor is a valid handle.
 672:Generated_Source\PSoC4/Bluetooth_aios.c ****         */
 673:Generated_Source\PSoC4/Bluetooth_aios.c ****         if((cyBle_aioss.charInfoAddr[charIndex].charInfoPtr != NULL) &&
 349              		.loc 1 673 0 is_stmt 1
 350 0014 8000     		lsls	r0, r0, #2
 351              	.LVL34:
 352 0016 174C     		ldr	r4, .L37+4
 353 0018 2018     		adds	r0, r4, r0
 354 001a 4068     		ldr	r0, [r0, #4]
 355 001c 0028     		cmp	r0, #0
 356 001e 1FD0     		beq	.L33
 674:Generated_Source\PSoC4/Bluetooth_aios.c ****             (cyBle_aioss.charInfoAddr[charIndex].charInfoPtr[charInstance].charHandle != CYBLE_GATT
 357              		.loc 1 674 0 discriminator 1
 358 0020 0901     		lsls	r1, r1, #4
 359              	.LVL35:
 360 0022 4118     		adds	r1, r0, r1
 361 0024 0888     		ldrh	r0, [r1]
 673:Generated_Source\PSoC4/Bluetooth_aios.c ****             (cyBle_aioss.charInfoAddr[charIndex].charInfoPtr[charInstance].charHandle != CYBLE_GATT
 362              		.loc 1 673 0 discriminator 1
 363 0026 0028     		cmp	r0, #0
 364 0028 1CD0     		beq	.L34
 675:Generated_Source\PSoC4/Bluetooth_aios.c ****                         (cyBle_aioss.charInfoAddr[charIndex].charInfoPtr[charInstance].descrHandle[
 365              		.loc 1 675 0
 366 002a 5200     		lsls	r2, r2, #1
 367              	.LVL36:
 368 002c 8918     		adds	r1, r1, r2
 369 002e 4A88     		ldrh	r2, [r1, #2]
 674:Generated_Source\PSoC4/Bluetooth_aios.c ****             (cyBle_aioss.charInfoAddr[charIndex].charInfoPtr[charInstance].charHandle != CYBLE_GATT
 370              		.loc 1 674 0
 371 0030 002A     		cmp	r2, #0
 372 0032 19D0     		beq	.L35
 373              	.LBB4:
 676:Generated_Source\PSoC4/Bluetooth_aios.c ****         {
 677:Generated_Source\PSoC4/Bluetooth_aios.c ****             CYBLE_GATT_HANDLE_VALUE_PAIR_T locHandleValuePair;
 678:Generated_Source\PSoC4/Bluetooth_aios.c **** 
 679:Generated_Source\PSoC4/Bluetooth_aios.c ****             locHandleValuePair.attrHandle =
 374              		.loc 1 679 0
 375 0034 01A8     		add	r0, sp, #4
 376 0036 0281     		strh	r2, [r0, #8]
 680:Generated_Source\PSoC4/Bluetooth_aios.c ****                 cyBle_aioss.charInfoAddr[charIndex].charInfoPtr[charInstance].descrHandle[descrInde
 681:Generated_Source\PSoC4/Bluetooth_aios.c ****             locHandleValuePair.value.len = attrSize;
 377              		.loc 1 681 0
 378 0038 8380     		strh	r3, [r0, #4]
 682:Generated_Source\PSoC4/Bluetooth_aios.c ****             locHandleValuePair.value.val = attrValue;
 379              		.loc 1 682 0
 380 003a 069B     		ldr	r3, [sp, #24]
 381              	.LVL37:
 382 003c 0193     		str	r3, [sp, #4]
 683:Generated_Source\PSoC4/Bluetooth_aios.c **** 
 684:Generated_Source\PSoC4/Bluetooth_aios.c ****             if(CyBle_GattsWriteAttributeValue(&locHandleValuePair, 0u, NULL, CYBLE_GATT_DB_LOCALLY_
 383              		.loc 1 684 0
 384 003e 0023     		movs	r3, #0
 385 0040 0022     		movs	r2, #0
 386 0042 0021     		movs	r1, #0
 387 0044 FFF7FEFF 		bl	CyBle_GattsWriteAttributeValue
 388              	.LVL38:
ARM GAS  C:\Windows\TEMP\ccyNncCN.s 			page 20


 389 0048 0028     		cmp	r0, #0
 390 004a 01D0     		beq	.L36
 391              	.LBE4:
 663:Generated_Source\PSoC4/Bluetooth_aios.c **** 
 392              		.loc 1 663 0
 393 004c 0120     		movs	r0, #1
 394 004e 0CE0     		b	.L28
 395              	.L36:
 396              	.LBB5:
 685:Generated_Source\PSoC4/Bluetooth_aios.c ****                 CYBLE_GATT_ERR_NONE)
 686:Generated_Source\PSoC4/Bluetooth_aios.c ****             {
 687:Generated_Source\PSoC4/Bluetooth_aios.c ****                 apiResult = CYBLE_ERROR_OK;
 397              		.loc 1 687 0
 398 0050 0020     		movs	r0, #0
 399              	.LVL39:
 400              	.LBE5:
 676:Generated_Source\PSoC4/Bluetooth_aios.c ****             CYBLE_GATT_HANDLE_VALUE_PAIR_T locHandleValuePair;
 401              		.loc 1 676 0
 402 0052 0AE0     		b	.L28
 403              	.LVL40:
 404              	.L30:
 663:Generated_Source\PSoC4/Bluetooth_aios.c **** 
 405              		.loc 1 663 0
 406 0054 0120     		movs	r0, #1
 407              	.LVL41:
 408 0056 08E0     		b	.L28
 409              	.LVL42:
 410              	.L31:
 411 0058 0120     		movs	r0, #1
 412              	.LVL43:
 413 005a 06E0     		b	.L28
 414              	.LVL44:
 415              	.L32:
 416 005c 0120     		movs	r0, #1
 417              	.LVL45:
 418 005e 04E0     		b	.L28
 419              	.L33:
 688:Generated_Source\PSoC4/Bluetooth_aios.c ****             }
 689:Generated_Source\PSoC4/Bluetooth_aios.c ****         }
 690:Generated_Source\PSoC4/Bluetooth_aios.c ****         else
 691:Generated_Source\PSoC4/Bluetooth_aios.c ****         {
 692:Generated_Source\PSoC4/Bluetooth_aios.c ****             apiResult = CYBLE_ERROR_GATT_DB_INVALID_ATTR_HANDLE;
 420              		.loc 1 692 0
 421 0060 1320     		movs	r0, #19
 422 0062 02E0     		b	.L28
 423              	.LVL46:
 424              	.L34:
 425 0064 1320     		movs	r0, #19
 426 0066 00E0     		b	.L28
 427              	.LVL47:
 428              	.L35:
 429 0068 1320     		movs	r0, #19
 430              	.LVL48:
 431              	.L28:
 693:Generated_Source\PSoC4/Bluetooth_aios.c ****         }
 694:Generated_Source\PSoC4/Bluetooth_aios.c ****     }
 695:Generated_Source\PSoC4/Bluetooth_aios.c ****     return (apiResult);
ARM GAS  C:\Windows\TEMP\ccyNncCN.s 			page 21


 696:Generated_Source\PSoC4/Bluetooth_aios.c **** }
 432              		.loc 1 696 0
 433 006a 04B0     		add	sp, sp, #16
 434              		@ sp needed
 435 006c 10BD     		pop	{r4, pc}
 436              	.L38:
 437 006e C046     		.align	2
 438              	.L37:
 439 0070 00000000 		.word	.LANCHOR1
 440 0074 00000000 		.word	.LANCHOR2
 441              		.cfi_endproc
 442              	.LFE8:
 443              		.size	CyBle_AiossSetCharacteristicDescriptor, .-CyBle_AiossSetCharacteristicDescriptor
 444              		.section	.text.CyBle_AiossSendNotification,"ax",%progbits
 445              		.align	2
 446              		.global	CyBle_AiossSendNotification
 447              		.code	16
 448              		.thumb_func
 449              		.type	CyBle_AiossSendNotification, %function
 450              	CyBle_AiossSendNotification:
 451              	.LFB9:
 697:Generated_Source\PSoC4/Bluetooth_aios.c **** 
 698:Generated_Source\PSoC4/Bluetooth_aios.c **** /******************************************************************************
 699:Generated_Source\PSoC4/Bluetooth_aios.c **** * Function Name: CyBle_AiossSendNotification
 700:Generated_Source\PSoC4/Bluetooth_aios.c **** ***************************************************************************//**
 701:Generated_Source\PSoC4/Bluetooth_aios.c **** * 
 702:Generated_Source\PSoC4/Bluetooth_aios.c **** *  Sends a notification with a characteristic value of the Automation Input Output
 703:Generated_Source\PSoC4/Bluetooth_aios.c **** *  Service, which is a value specified by charIndex, to the client's device.
 704:Generated_Source\PSoC4/Bluetooth_aios.c **** *
 705:Generated_Source\PSoC4/Bluetooth_aios.c **** *  On enabling notification successfully for a service characteristic it sends 
 706:Generated_Source\PSoC4/Bluetooth_aios.c **** *  out a 'Handle Value Notification' which results in 
 707:Generated_Source\PSoC4/Bluetooth_aios.c **** *  CYBLE_EVT_AIOSC_NOTIFICATION event at the GATT Client's end.
 708:Generated_Source\PSoC4/Bluetooth_aios.c **** * 
 709:Generated_Source\PSoC4/Bluetooth_aios.c **** *  \param connHandle:   The connection handle.
 710:Generated_Source\PSoC4/Bluetooth_aios.c **** *  \param charIndex:    The index of the service characteristic. Starts with 
 711:Generated_Source\PSoC4/Bluetooth_aios.c **** *                       zero.
 712:Generated_Source\PSoC4/Bluetooth_aios.c **** *  \param charInstance: The instance number of the characteristic specified by 
 713:Generated_Source\PSoC4/Bluetooth_aios.c **** *                       "charIndex".
 714:Generated_Source\PSoC4/Bluetooth_aios.c **** *  \param attrSize:     The size of the characteristic value attribute.
 715:Generated_Source\PSoC4/Bluetooth_aios.c **** *  \param attrValue:    The pointer to the characteristic value data that 
 716:Generated_Source\PSoC4/Bluetooth_aios.c **** *                       should be sent to the client's device.
 717:Generated_Source\PSoC4/Bluetooth_aios.c **** * 
 718:Generated_Source\PSoC4/Bluetooth_aios.c **** * \return
 719:Generated_Source\PSoC4/Bluetooth_aios.c **** *  A return value is of type CYBLE_API_RESULT_T.
 720:Generated_Source\PSoC4/Bluetooth_aios.c **** *   * CYBLE_ERROR_OK - The request handled successfully.
 721:Generated_Source\PSoC4/Bluetooth_aios.c **** *   * CYBLE_ERROR_INVALID_PARAMETER - Validation of the input parameter failed.
 722:Generated_Source\PSoC4/Bluetooth_aios.c **** *   * CYBLE_ERROR_INVALID_OPERATION - This operation is not permitted.
 723:Generated_Source\PSoC4/Bluetooth_aios.c **** *   * CYBLE_ERROR_INVALID_STATE - Connection with the client is not established.
 724:Generated_Source\PSoC4/Bluetooth_aios.c **** *   * CYBLE_ERROR_MEMORY_ALLOCATION_FAILED - Memory allocation failed.
 725:Generated_Source\PSoC4/Bluetooth_aios.c **** *   * CYBLE_ERROR_NTF_DISABLED - A notification is not enabled by the client.
 726:Generated_Source\PSoC4/Bluetooth_aios.c **** *   * CYBLE_ERROR_GATT_DB_INVALID_ATTR_HANDLE - An optional characteristic is
 727:Generated_Source\PSoC4/Bluetooth_aios.c **** *                                               absent.
 728:Generated_Source\PSoC4/Bluetooth_aios.c **** *
 729:Generated_Source\PSoC4/Bluetooth_aios.c **** ******************************************************************************/
 730:Generated_Source\PSoC4/Bluetooth_aios.c **** CYBLE_API_RESULT_T CyBle_AiossSendNotification(CYBLE_CONN_HANDLE_T connHandle,
 731:Generated_Source\PSoC4/Bluetooth_aios.c ****     CYBLE_AIOS_CHAR_INDEX_T charIndex, uint8 charInstance, uint8 attrSize, uint8 *attrValue)
 732:Generated_Source\PSoC4/Bluetooth_aios.c **** {
ARM GAS  C:\Windows\TEMP\ccyNncCN.s 			page 22


 452              		.loc 1 732 0
 453              		.cfi_startproc
 454              		@ args = 4, pretend = 0, frame = 24
 455              		@ frame_needed = 0, uses_anonymous_args = 0
 456              	.LVL49:
 457 0000 30B5     		push	{r4, r5, lr}
 458              		.cfi_def_cfa_offset 12
 459              		.cfi_offset 4, -12
 460              		.cfi_offset 5, -8
 461              		.cfi_offset 14, -4
 462 0002 87B0     		sub	sp, sp, #28
 463              		.cfi_def_cfa_offset 40
 464 0004 01AC     		add	r4, sp, #4
 465 0006 2080     		strh	r0, [r4]
 466 0008 1C00     		movs	r4, r3
 467              	.LVL50:
 733:Generated_Source\PSoC4/Bluetooth_aios.c ****     CYBLE_API_RESULT_T apiResult = CYBLE_ERROR_INVALID_PARAMETER;
 734:Generated_Source\PSoC4/Bluetooth_aios.c **** 
 735:Generated_Source\PSoC4/Bluetooth_aios.c ****     if((charIndex < CYBLE_AIOS_CHAR_COUNT) && (charInstance < cyBle_aiossCharInstances[charIndex]))
 468              		.loc 1 735 0
 469 000a 0229     		cmp	r1, #2
 470 000c 28D8     		bhi	.L41
 471              		.loc 1 735 0 is_stmt 0 discriminator 1
 472 000e 1C4B     		ldr	r3, .L47
 473              	.LVL51:
 474 0010 5B5C     		ldrb	r3, [r3, r1]
 475 0012 9342     		cmp	r3, r2
 476 0014 26D9     		bls	.L42
 736:Generated_Source\PSoC4/Bluetooth_aios.c ****     {
 737:Generated_Source\PSoC4/Bluetooth_aios.c ****         if((cyBle_aioss.charInfoAddr[charIndex].charInfoPtr != NULL) && 
 477              		.loc 1 737 0 is_stmt 1
 478 0016 8900     		lsls	r1, r1, #2
 479              	.LVL52:
 480 0018 1A4B     		ldr	r3, .L47+4
 481 001a 5918     		adds	r1, r3, r1
 482 001c 4D68     		ldr	r5, [r1, #4]
 483 001e 002D     		cmp	r5, #0
 484 0020 22D0     		beq	.L43
 738:Generated_Source\PSoC4/Bluetooth_aios.c ****             (cyBle_aioss.charInfoAddr[charIndex].charInfoPtr[charInstance].descrHandle[CYBLE_AIOS_C
 485              		.loc 1 738 0 discriminator 1
 486 0022 1201     		lsls	r2, r2, #4
 487              	.LVL53:
 488 0024 AD18     		adds	r5, r5, r2
 489 0026 6B88     		ldrh	r3, [r5, #2]
 737:Generated_Source\PSoC4/Bluetooth_aios.c ****             (cyBle_aioss.charInfoAddr[charIndex].charInfoPtr[charInstance].descrHandle[CYBLE_AIOS_C
 490              		.loc 1 737 0 discriminator 1
 491 0028 002B     		cmp	r3, #0
 492 002a 1FD0     		beq	.L44
 739:Generated_Source\PSoC4/Bluetooth_aios.c ****         {
 740:Generated_Source\PSoC4/Bluetooth_aios.c ****             /* Send notification if it is enabled and connected */
 741:Generated_Source\PSoC4/Bluetooth_aios.c ****             if(CyBle_GetState() != CYBLE_STATE_CONNECTED)
 493              		.loc 1 741 0
 494 002c 164A     		ldr	r2, .L47+8
 495 002e 1278     		ldrb	r2, [r2]
 496 0030 022A     		cmp	r2, #2
 497 0032 1DD1     		bne	.L45
 742:Generated_Source\PSoC4/Bluetooth_aios.c ****             {
ARM GAS  C:\Windows\TEMP\ccyNncCN.s 			page 23


 743:Generated_Source\PSoC4/Bluetooth_aios.c ****                 apiResult = CYBLE_ERROR_INVALID_STATE;
 744:Generated_Source\PSoC4/Bluetooth_aios.c ****             }
 745:Generated_Source\PSoC4/Bluetooth_aios.c ****             
 746:Generated_Source\PSoC4/Bluetooth_aios.c ****             else if(!CYBLE_IS_NOTIFICATION_ENABLED(
 498              		.loc 1 746 0
 499 0034 013B     		subs	r3, r3, #1
 500 0036 9A00     		lsls	r2, r3, #2
 501 0038 D318     		adds	r3, r2, r3
 502 003a 9A00     		lsls	r2, r3, #2
 503 003c 134B     		ldr	r3, .L47+12
 504 003e 9A18     		adds	r2, r3, r2
 505 0040 1369     		ldr	r3, [r2, #16]
 506 0042 5868     		ldr	r0, [r3, #4]
 507 0044 FFF7FEFF 		bl	CyBle_Get16ByPtr
 508              	.LVL54:
 509 0048 C307     		lsls	r3, r0, #31
 510 004a 14D5     		bpl	.L46
 511              	.LBB6:
 747:Generated_Source\PSoC4/Bluetooth_aios.c ****                 cyBle_aioss.charInfoAddr[charIndex].charInfoPtr[charInstance].descrHandle[CYBLE_AIO
 748:Generated_Source\PSoC4/Bluetooth_aios.c ****             {
 749:Generated_Source\PSoC4/Bluetooth_aios.c ****                 apiResult = CYBLE_ERROR_NTF_DISABLED;
 750:Generated_Source\PSoC4/Bluetooth_aios.c ****             }
 751:Generated_Source\PSoC4/Bluetooth_aios.c ****             else
 752:Generated_Source\PSoC4/Bluetooth_aios.c ****             {
 753:Generated_Source\PSoC4/Bluetooth_aios.c ****                 CYBLE_GATTS_HANDLE_VALUE_NTF_T ntfReqParam;
 754:Generated_Source\PSoC4/Bluetooth_aios.c **** 
 755:Generated_Source\PSoC4/Bluetooth_aios.c ****                 /* Fill all fields of write request structure ... */
 756:Generated_Source\PSoC4/Bluetooth_aios.c ****                 ntfReqParam.attrHandle = cyBle_aioss.charInfoAddr[charIndex].charInfoPtr[charInstan
 512              		.loc 1 756 0
 513 004c 2B88     		ldrh	r3, [r5]
 514 004e 03A9     		add	r1, sp, #12
 515 0050 0B81     		strh	r3, [r1, #8]
 757:Generated_Source\PSoC4/Bluetooth_aios.c ****                 ntfReqParam.value.val = attrValue;
 516              		.loc 1 757 0
 517 0052 0A9B     		ldr	r3, [sp, #40]
 518 0054 0393     		str	r3, [sp, #12]
 758:Generated_Source\PSoC4/Bluetooth_aios.c ****                 ntfReqParam.value.len = attrSize;
 519              		.loc 1 758 0
 520 0056 8C80     		strh	r4, [r1, #4]
 759:Generated_Source\PSoC4/Bluetooth_aios.c **** 
 760:Generated_Source\PSoC4/Bluetooth_aios.c ****                 /* Send notification to client using previously filled structure */
 761:Generated_Source\PSoC4/Bluetooth_aios.c ****                 apiResult = CyBle_GattsNotification(connHandle, &ntfReqParam);
 521              		.loc 1 761 0
 522 0058 0198     		ldr	r0, [sp, #4]
 523 005a FFF7FEFF 		bl	CyBle_GattsNotification
 524              	.LVL55:
 525 005e 0CE0     		b	.L40
 526              	.LVL56:
 527              	.L41:
 528              	.LBE6:
 733:Generated_Source\PSoC4/Bluetooth_aios.c **** 
 529              		.loc 1 733 0
 530 0060 0120     		movs	r0, #1
 531 0062 0AE0     		b	.L40
 532              	.LVL57:
 533              	.L42:
 534 0064 0120     		movs	r0, #1
ARM GAS  C:\Windows\TEMP\ccyNncCN.s 			page 24


 535 0066 08E0     		b	.L40
 536              	.LVL58:
 537              	.L43:
 762:Generated_Source\PSoC4/Bluetooth_aios.c ****             }
 763:Generated_Source\PSoC4/Bluetooth_aios.c ****         }
 764:Generated_Source\PSoC4/Bluetooth_aios.c ****         else
 765:Generated_Source\PSoC4/Bluetooth_aios.c ****         {
 766:Generated_Source\PSoC4/Bluetooth_aios.c ****             apiResult = CYBLE_ERROR_GATT_DB_INVALID_ATTR_HANDLE;
 538              		.loc 1 766 0
 539 0068 1320     		movs	r0, #19
 540 006a 06E0     		b	.L40
 541              	.LVL59:
 542              	.L44:
 543 006c 1320     		movs	r0, #19
 544 006e 04E0     		b	.L40
 545              	.L45:
 743:Generated_Source\PSoC4/Bluetooth_aios.c ****             }
 546              		.loc 1 743 0
 547 0070 0420     		movs	r0, #4
 548 0072 FF30     		adds	r0, r0, #255
 549 0074 01E0     		b	.L40
 550              	.L46:
 749:Generated_Source\PSoC4/Bluetooth_aios.c ****             }
 551              		.loc 1 749 0
 552 0076 8020     		movs	r0, #128
 553 0078 4000     		lsls	r0, r0, #1
 554              	.LVL60:
 555              	.L40:
 767:Generated_Source\PSoC4/Bluetooth_aios.c ****         }
 768:Generated_Source\PSoC4/Bluetooth_aios.c ****     }
 769:Generated_Source\PSoC4/Bluetooth_aios.c **** 
 770:Generated_Source\PSoC4/Bluetooth_aios.c ****     return (apiResult);
 771:Generated_Source\PSoC4/Bluetooth_aios.c **** }
 556              		.loc 1 771 0
 557 007a 07B0     		add	sp, sp, #28
 558              		@ sp needed
 559 007c 30BD     		pop	{r4, r5, pc}
 560              	.L48:
 561 007e C046     		.align	2
 562              	.L47:
 563 0080 00000000 		.word	.LANCHOR1
 564 0084 00000000 		.word	.LANCHOR2
 565 0088 00000000 		.word	cyBle_state
 566 008c 00000000 		.word	cyBle_gattDB
 567              		.cfi_endproc
 568              	.LFE9:
 569              		.size	CyBle_AiossSendNotification, .-CyBle_AiossSendNotification
 570              		.section	.text.CyBle_AiossSendIndication,"ax",%progbits
 571              		.align	2
 572              		.global	CyBle_AiossSendIndication
 573              		.code	16
 574              		.thumb_func
 575              		.type	CyBle_AiossSendIndication, %function
 576              	CyBle_AiossSendIndication:
 577              	.LFB10:
 772:Generated_Source\PSoC4/Bluetooth_aios.c **** 
 773:Generated_Source\PSoC4/Bluetooth_aios.c **** /******************************************************************************
ARM GAS  C:\Windows\TEMP\ccyNncCN.s 			page 25


 774:Generated_Source\PSoC4/Bluetooth_aios.c **** * Function Name: CyBle_AiossSendIndication
 775:Generated_Source\PSoC4/Bluetooth_aios.c **** ***************************************************************************//**
 776:Generated_Source\PSoC4/Bluetooth_aios.c **** * 
 777:Generated_Source\PSoC4/Bluetooth_aios.c **** *  Sends an indication with a characteristic value of the Automation Input Output
 778:Generated_Source\PSoC4/Bluetooth_aios.c **** *  Service, which is a value specified by charIndex, to the client's device.
 779:Generated_Source\PSoC4/Bluetooth_aios.c **** *  
 780:Generated_Source\PSoC4/Bluetooth_aios.c **** *  On enabling indication successfully it sends out a 'Handle Value Indication' 
 781:Generated_Source\PSoC4/Bluetooth_aios.c **** *  which results in CYBLE_EVT_AIOSC_INDICATION or 
 782:Generated_Source\PSoC4/Bluetooth_aios.c **** *  CYBLE_EVT_GATTC_HANDLE_VALUE_IND (if service specific callback function is
 783:Generated_Source\PSoC4/Bluetooth_aios.c **** *  not registered) event at the GATT Client's end.
 784:Generated_Source\PSoC4/Bluetooth_aios.c **** *
 785:Generated_Source\PSoC4/Bluetooth_aios.c **** *  \param connHandle:   The connection handle.
 786:Generated_Source\PSoC4/Bluetooth_aios.c **** *  \param charIndex:    The index of the service characteristic.
 787:Generated_Source\PSoC4/Bluetooth_aios.c **** *  \param charInstance: The instance number of the characteristic specified by 
 788:Generated_Source\PSoC4/Bluetooth_aios.c **** *                       "charIndex".
 789:Generated_Source\PSoC4/Bluetooth_aios.c **** *  \param attrSize:     The size of the characteristic value attribute.
 790:Generated_Source\PSoC4/Bluetooth_aios.c **** *  \param attrValue:    The pointer to the characteristic value data that 
 791:Generated_Source\PSoC4/Bluetooth_aios.c **** *                       should be sent to the client's device.
 792:Generated_Source\PSoC4/Bluetooth_aios.c **** * 
 793:Generated_Source\PSoC4/Bluetooth_aios.c **** * \return
 794:Generated_Source\PSoC4/Bluetooth_aios.c **** *  A return value is of type CYBLE_API_RESULT_T.
 795:Generated_Source\PSoC4/Bluetooth_aios.c **** *   * CYBLE_ERROR_OK - The request handled successfully.
 796:Generated_Source\PSoC4/Bluetooth_aios.c **** *   * CYBLE_ERROR_INVALID_PARAMETER - Validation of the input parameter failed.
 797:Generated_Source\PSoC4/Bluetooth_aios.c **** *   * CYBLE_ERROR_INVALID_OPERATION - This operation is not permitted.
 798:Generated_Source\PSoC4/Bluetooth_aios.c **** *   * CYBLE_ERROR_INVALID_STATE - Connection with the client is not established.
 799:Generated_Source\PSoC4/Bluetooth_aios.c **** *   * CYBLE_ERROR_MEMORY_ALLOCATION_FAILED - Memory allocation failed.
 800:Generated_Source\PSoC4/Bluetooth_aios.c **** *   * CYBLE_ERROR_IND_DISABLED - Indication is not enabled by the client.
 801:Generated_Source\PSoC4/Bluetooth_aios.c **** *   * CYBLE_ERROR_GATT_DB_INVALID_ATTR_HANDLE - An optional characteristic is
 802:Generated_Source\PSoC4/Bluetooth_aios.c **** *                                               absent.
 803:Generated_Source\PSoC4/Bluetooth_aios.c **** *
 804:Generated_Source\PSoC4/Bluetooth_aios.c **** * \events
 805:Generated_Source\PSoC4/Bluetooth_aios.c **** *  In case of successful execution (return value = CYBLE_ERROR_OK)
 806:Generated_Source\PSoC4/Bluetooth_aios.c **** *  the next events can appear: \n
 807:Generated_Source\PSoC4/Bluetooth_aios.c **** *   If the Aios service-specific callback is registered 
 808:Generated_Source\PSoC4/Bluetooth_aios.c **** *      (with CyBle_AiosRegisterAttrCallback):
 809:Generated_Source\PSoC4/Bluetooth_aios.c **** *  * CYBLE_EVT_AiosS_INDICATION_CONFIRMED -In case if the indication is
 810:Generated_Source\PSoC4/Bluetooth_aios.c **** *                                successfully delivered to the peer device.
 811:Generated_Source\PSoC4/Bluetooth_aios.c **** *  .
 812:Generated_Source\PSoC4/Bluetooth_aios.c **** *   Otherwise (if the Aios service-specific callback is not registered):
 813:Generated_Source\PSoC4/Bluetooth_aios.c **** *  * CYBLE_EVT_GATTS_HANDLE_VALUE_CNF - In case if the indication is
 814:Generated_Source\PSoC4/Bluetooth_aios.c **** *                                successfully delivered to the peer device.
 815:Generated_Source\PSoC4/Bluetooth_aios.c **** *
 816:Generated_Source\PSoC4/Bluetooth_aios.c **** ******************************************************************************/
 817:Generated_Source\PSoC4/Bluetooth_aios.c **** CYBLE_API_RESULT_T CyBle_AiossSendIndication(CYBLE_CONN_HANDLE_T connHandle,
 818:Generated_Source\PSoC4/Bluetooth_aios.c ****     CYBLE_AIOS_CHAR_INDEX_T charIndex, uint8 charInstance, uint8 attrSize, uint8 *attrValue)
 819:Generated_Source\PSoC4/Bluetooth_aios.c **** {
 578              		.loc 1 819 0
 579              		.cfi_startproc
 580              		@ args = 4, pretend = 0, frame = 24
 581              		@ frame_needed = 0, uses_anonymous_args = 0
 582              	.LVL61:
 583 0000 30B5     		push	{r4, r5, lr}
 584              		.cfi_def_cfa_offset 12
 585              		.cfi_offset 4, -12
 586              		.cfi_offset 5, -8
 587              		.cfi_offset 14, -4
 588 0002 87B0     		sub	sp, sp, #28
ARM GAS  C:\Windows\TEMP\ccyNncCN.s 			page 26


 589              		.cfi_def_cfa_offset 40
 590 0004 01AC     		add	r4, sp, #4
 591 0006 2080     		strh	r0, [r4]
 592 0008 1C00     		movs	r4, r3
 593              	.LVL62:
 820:Generated_Source\PSoC4/Bluetooth_aios.c ****     /* Store new data in database */
 821:Generated_Source\PSoC4/Bluetooth_aios.c ****     CYBLE_API_RESULT_T apiResult = CYBLE_ERROR_OK;
 822:Generated_Source\PSoC4/Bluetooth_aios.c ****     
 823:Generated_Source\PSoC4/Bluetooth_aios.c ****     /* Send indication if it is enabled and connected */
 824:Generated_Source\PSoC4/Bluetooth_aios.c ****     if(charIndex >= CYBLE_AIOS_CHAR_COUNT)
 594              		.loc 1 824 0
 595 000a 0229     		cmp	r1, #2
 596 000c 2CD8     		bhi	.L52
 825:Generated_Source\PSoC4/Bluetooth_aios.c ****     {
 826:Generated_Source\PSoC4/Bluetooth_aios.c ****         apiResult = CYBLE_ERROR_INVALID_PARAMETER;
 827:Generated_Source\PSoC4/Bluetooth_aios.c ****     }
 828:Generated_Source\PSoC4/Bluetooth_aios.c ****     else if(charInstance >= cyBle_aiossCharInstances[charIndex])
 597              		.loc 1 828 0
 598 000e 1D4B     		ldr	r3, .L57
 599              	.LVL63:
 600 0010 5B5C     		ldrb	r3, [r3, r1]
 601 0012 9342     		cmp	r3, r2
 602 0014 2AD9     		bls	.L53
 829:Generated_Source\PSoC4/Bluetooth_aios.c ****     {
 830:Generated_Source\PSoC4/Bluetooth_aios.c ****         apiResult = CYBLE_ERROR_INVALID_PARAMETER;
 831:Generated_Source\PSoC4/Bluetooth_aios.c ****     }
 832:Generated_Source\PSoC4/Bluetooth_aios.c ****     else if(CYBLE_STATE_CONNECTED != CyBle_GetState())
 603              		.loc 1 832 0
 604 0016 1C4B     		ldr	r3, .L57+4
 605 0018 1B78     		ldrb	r3, [r3]
 606 001a 022B     		cmp	r3, #2
 607 001c 28D1     		bne	.L54
 833:Generated_Source\PSoC4/Bluetooth_aios.c ****     {
 834:Generated_Source\PSoC4/Bluetooth_aios.c ****         apiResult = CYBLE_ERROR_INVALID_STATE;
 835:Generated_Source\PSoC4/Bluetooth_aios.c ****     }
 836:Generated_Source\PSoC4/Bluetooth_aios.c ****     else if(!CYBLE_IS_INDICATION_ENABLED(
 608              		.loc 1 836 0
 609 001e 8900     		lsls	r1, r1, #2
 610              	.LVL64:
 611 0020 1A4B     		ldr	r3, .L57+8
 612 0022 5918     		adds	r1, r3, r1
 613 0024 4D68     		ldr	r5, [r1, #4]
 614 0026 1201     		lsls	r2, r2, #4
 615              	.LVL65:
 616 0028 AD18     		adds	r5, r5, r2
 617 002a 6B88     		ldrh	r3, [r5, #2]
 618 002c 013B     		subs	r3, r3, #1
 619 002e 9A00     		lsls	r2, r3, #2
 620 0030 D318     		adds	r3, r2, r3
 621 0032 9A00     		lsls	r2, r3, #2
 622 0034 164B     		ldr	r3, .L57+12
 623 0036 9A18     		adds	r2, r3, r2
 624 0038 1369     		ldr	r3, [r2, #16]
 625 003a 5868     		ldr	r0, [r3, #4]
 626 003c FFF7FEFF 		bl	CyBle_Get16ByPtr
 627              	.LVL66:
 628 0040 8307     		lsls	r3, r0, #30
ARM GAS  C:\Windows\TEMP\ccyNncCN.s 			page 27


 629 0042 18D5     		bpl	.L55
 837:Generated_Source\PSoC4/Bluetooth_aios.c ****         cyBle_aioss.charInfoAddr[charIndex].charInfoPtr[charInstance].descrHandle[CYBLE_AIOS_CCCD])
 838:Generated_Source\PSoC4/Bluetooth_aios.c ****     {
 839:Generated_Source\PSoC4/Bluetooth_aios.c ****         apiResult = CYBLE_ERROR_IND_DISABLED;
 840:Generated_Source\PSoC4/Bluetooth_aios.c ****     }
 841:Generated_Source\PSoC4/Bluetooth_aios.c ****     else
 842:Generated_Source\PSoC4/Bluetooth_aios.c ****     {
 843:Generated_Source\PSoC4/Bluetooth_aios.c ****         if(cyBle_aioss.charInfoAddr[charIndex].charInfoPtr[charInstance].charHandle != CYBLE_GATT_I
 630              		.loc 1 843 0
 631 0044 2B88     		ldrh	r3, [r5]
 632 0046 002B     		cmp	r3, #0
 633 0048 18D0     		beq	.L56
 634              	.LBB7:
 844:Generated_Source\PSoC4/Bluetooth_aios.c ****         {
 845:Generated_Source\PSoC4/Bluetooth_aios.c ****             CYBLE_GATTS_HANDLE_VALUE_IND_T indReqParam;
 846:Generated_Source\PSoC4/Bluetooth_aios.c **** 
 847:Generated_Source\PSoC4/Bluetooth_aios.c ****             /* Fill all fields of write request structure ... */
 848:Generated_Source\PSoC4/Bluetooth_aios.c ****             indReqParam.attrHandle = cyBle_aioss.charInfoAddr[charIndex].charInfoPtr[charInstance].
 635              		.loc 1 848 0
 636 004a 03A9     		add	r1, sp, #12
 637 004c 0B81     		strh	r3, [r1, #8]
 849:Generated_Source\PSoC4/Bluetooth_aios.c ****             indReqParam.value.val = attrValue;
 638              		.loc 1 849 0
 639 004e 0A9B     		ldr	r3, [sp, #40]
 640 0050 0393     		str	r3, [sp, #12]
 850:Generated_Source\PSoC4/Bluetooth_aios.c ****             indReqParam.value.len = attrSize;
 641              		.loc 1 850 0
 642 0052 8C80     		strh	r4, [r1, #4]
 851:Generated_Source\PSoC4/Bluetooth_aios.c **** 
 852:Generated_Source\PSoC4/Bluetooth_aios.c ****             /* Send indication to client using previously filled structure */
 853:Generated_Source\PSoC4/Bluetooth_aios.c ****             apiResult = CyBle_GattsIndication(connHandle, &indReqParam);
 643              		.loc 1 853 0
 644 0054 0198     		ldr	r0, [sp, #4]
 645 0056 FFF7FEFF 		bl	CyBle_GattsIndication
 646              	.LVL67:
 854:Generated_Source\PSoC4/Bluetooth_aios.c ****             /* Save handle to support service specific value confirmation response from client */
 855:Generated_Source\PSoC4/Bluetooth_aios.c ****             if(apiResult == CYBLE_ERROR_OK)
 647              		.loc 1 855 0
 648 005a 0028     		cmp	r0, #0
 649 005c 0FD1     		bne	.L50
 856:Generated_Source\PSoC4/Bluetooth_aios.c ****             {
 857:Generated_Source\PSoC4/Bluetooth_aios.c ****                 cyBle_aiossReqHandle = indReqParam.attrHandle;
 650              		.loc 1 857 0
 651 005e 03AB     		add	r3, sp, #12
 652 0060 1A89     		ldrh	r2, [r3, #8]
 653 0062 0C4B     		ldr	r3, .L57+16
 654 0064 9A80     		strh	r2, [r3, #4]
 655 0066 0AE0     		b	.L50
 656              	.LVL68:
 657              	.L52:
 658              	.LBE7:
 826:Generated_Source\PSoC4/Bluetooth_aios.c ****     }
 659              		.loc 1 826 0
 660 0068 0120     		movs	r0, #1
 661 006a 08E0     		b	.L50
 662              	.LVL69:
 663              	.L53:
ARM GAS  C:\Windows\TEMP\ccyNncCN.s 			page 28


 830:Generated_Source\PSoC4/Bluetooth_aios.c ****     }
 664              		.loc 1 830 0
 665 006c 0120     		movs	r0, #1
 666 006e 06E0     		b	.L50
 667              	.L54:
 834:Generated_Source\PSoC4/Bluetooth_aios.c ****     }
 668              		.loc 1 834 0
 669 0070 0420     		movs	r0, #4
 670 0072 FF30     		adds	r0, r0, #255
 671 0074 03E0     		b	.L50
 672              	.LVL70:
 673              	.L55:
 839:Generated_Source\PSoC4/Bluetooth_aios.c ****     }
 674              		.loc 1 839 0
 675 0076 0220     		movs	r0, #2
 676 0078 FF30     		adds	r0, r0, #255
 677 007a 00E0     		b	.L50
 678              	.L56:
 858:Generated_Source\PSoC4/Bluetooth_aios.c ****             }
 859:Generated_Source\PSoC4/Bluetooth_aios.c ****         }
 860:Generated_Source\PSoC4/Bluetooth_aios.c ****         else
 861:Generated_Source\PSoC4/Bluetooth_aios.c ****         {
 862:Generated_Source\PSoC4/Bluetooth_aios.c ****             apiResult = CYBLE_ERROR_GATT_DB_INVALID_ATTR_HANDLE;
 679              		.loc 1 862 0
 680 007c 1320     		movs	r0, #19
 681              	.LVL71:
 682              	.L50:
 863:Generated_Source\PSoC4/Bluetooth_aios.c ****         }
 864:Generated_Source\PSoC4/Bluetooth_aios.c ****     }
 865:Generated_Source\PSoC4/Bluetooth_aios.c ****     return (apiResult);
 866:Generated_Source\PSoC4/Bluetooth_aios.c **** }
 683              		.loc 1 866 0
 684 007e 07B0     		add	sp, sp, #28
 685              		@ sp needed
 686 0080 30BD     		pop	{r4, r5, pc}
 687              	.L58:
 688 0082 C046     		.align	2
 689              	.L57:
 690 0084 00000000 		.word	.LANCHOR1
 691 0088 00000000 		.word	cyBle_state
 692 008c 00000000 		.word	.LANCHOR2
 693 0090 00000000 		.word	cyBle_gattDB
 694 0094 00000000 		.word	.LANCHOR0
 695              		.cfi_endproc
 696              	.LFE10:
 697              		.size	CyBle_AiossSendIndication, .-CyBle_AiossSendIndication
 698              		.section	.text.CyBle_AiossConfirmationEventHandler,"ax",%progbits
 699              		.align	2
 700              		.global	CyBle_AiossConfirmationEventHandler
 701              		.code	16
 702              		.thumb_func
 703              		.type	CyBle_AiossConfirmationEventHandler, %function
 704              	CyBle_AiossConfirmationEventHandler:
 705              	.LFB11:
 867:Generated_Source\PSoC4/Bluetooth_aios.c **** 
 868:Generated_Source\PSoC4/Bluetooth_aios.c **** /******************************************************************************
 869:Generated_Source\PSoC4/Bluetooth_aios.c **** * Function Name: CyBle_AiossConfirmationEventHandler
ARM GAS  C:\Windows\TEMP\ccyNncCN.s 			page 29


 870:Generated_Source\PSoC4/Bluetooth_aios.c **** ***************************************************************************//**
 871:Generated_Source\PSoC4/Bluetooth_aios.c **** * 
 872:Generated_Source\PSoC4/Bluetooth_aios.c **** *  Handles a Value Confirmation request event from the BLE stack.
 873:Generated_Source\PSoC4/Bluetooth_aios.c **** * 
 874:Generated_Source\PSoC4/Bluetooth_aios.c **** *  eventParam - The pointer to a structure of type CYBLE_CONN_HANDLE_T.
 875:Generated_Source\PSoC4/Bluetooth_aios.c **** *  
 876:Generated_Source\PSoC4/Bluetooth_aios.c **** ******************************************************************************/
 877:Generated_Source\PSoC4/Bluetooth_aios.c **** void CyBle_AiossConfirmationEventHandler(const CYBLE_CONN_HANDLE_T *eventParam)
 878:Generated_Source\PSoC4/Bluetooth_aios.c **** {
 706              		.loc 1 878 0
 707              		.cfi_startproc
 708              		@ args = 0, pretend = 0, frame = 16
 709              		@ frame_needed = 0, uses_anonymous_args = 0
 710              	.LVL72:
 711 0000 F0B5     		push	{r4, r5, r6, r7, lr}
 712              		.cfi_def_cfa_offset 20
 713              		.cfi_offset 4, -20
 714              		.cfi_offset 5, -16
 715              		.cfi_offset 6, -12
 716              		.cfi_offset 7, -8
 717              		.cfi_offset 14, -4
 718 0002 85B0     		sub	sp, sp, #20
 719              		.cfi_def_cfa_offset 40
 720 0004 0500     		movs	r5, r0
 721              	.LVL73:
 879:Generated_Source\PSoC4/Bluetooth_aios.c ****     CYBLE_AIOS_CHAR_INDEX_T locCharIndex;
 880:Generated_Source\PSoC4/Bluetooth_aios.c ****     CYBLE_AIOS_CHAR_VALUE_T locCharValue;
 881:Generated_Source\PSoC4/Bluetooth_aios.c ****     uint8 locCharInstance;
 882:Generated_Source\PSoC4/Bluetooth_aios.c ****     uint8 locReqHandle = 0u;
 883:Generated_Source\PSoC4/Bluetooth_aios.c **** 
 884:Generated_Source\PSoC4/Bluetooth_aios.c ****     if((CyBle_AiosApplCallback != NULL) && (cyBle_aiossReqHandle != CYBLE_GATT_INVALID_ATTR_HANDLE_
 722              		.loc 1 884 0
 723 0006 204B     		ldr	r3, .L68
 724 0008 1B68     		ldr	r3, [r3]
 725 000a 002B     		cmp	r3, #0
 726 000c 39D0     		beq	.L59
 727              		.loc 1 884 0 is_stmt 0 discriminator 1
 728 000e 1E4B     		ldr	r3, .L68
 729 0010 9B88     		ldrh	r3, [r3, #4]
 730 0012 002B     		cmp	r3, #0
 731 0014 2FD1     		bne	.L66
 732 0016 34E0     		b	.L59
 733              	.LVL74:
 734              	.L64:
 885:Generated_Source\PSoC4/Bluetooth_aios.c ****     {
 886:Generated_Source\PSoC4/Bluetooth_aios.c ****         for(locCharIndex = CYBLE_AIOS_DIGITAL; (locCharIndex < CYBLE_AIOS_CHAR_COUNT) && (locReqHan
 887:Generated_Source\PSoC4/Bluetooth_aios.c ****             locCharIndex++)
 888:Generated_Source\PSoC4/Bluetooth_aios.c ****         {
 889:Generated_Source\PSoC4/Bluetooth_aios.c ****             for(locCharInstance = 0u; (locCharInstance < cyBle_aiossCharInstances[locCharIndex]) &&
 890:Generated_Source\PSoC4/Bluetooth_aios.c ****                 locCharInstance++)
 891:Generated_Source\PSoC4/Bluetooth_aios.c ****             {
 892:Generated_Source\PSoC4/Bluetooth_aios.c ****                 if(cyBle_aiossReqHandle == cyBle_aioss.charInfoAddr[locCharIndex].charInfoPtr[locCh
 735              		.loc 1 892 0 is_stmt 1
 736 0018 9B00     		lsls	r3, r3, #2
 737 001a 1C4A     		ldr	r2, .L68+4
 738 001c D318     		adds	r3, r2, r3
 739 001e 5A68     		ldr	r2, [r3, #4]
ARM GAS  C:\Windows\TEMP\ccyNncCN.s 			page 30


 740 0020 2301     		lsls	r3, r4, #4
 741 0022 D25A     		ldrh	r2, [r2, r3]
 742 0024 184B     		ldr	r3, .L68
 743 0026 9B88     		ldrh	r3, [r3, #4]
 744 0028 9A42     		cmp	r2, r3
 745 002a 16D1     		bne	.L62
 893:Generated_Source\PSoC4/Bluetooth_aios.c ****                 {
 894:Generated_Source\PSoC4/Bluetooth_aios.c ****                     locCharValue.connHandle = *eventParam;
 746              		.loc 1 894 0
 747 002c 01AF     		add	r7, sp, #4
 748 002e 0222     		movs	r2, #2
 749 0030 2900     		movs	r1, r5
 750              	.LVL75:
 751 0032 3800     		movs	r0, r7
 752 0034 FFF7FEFF 		bl	memcpy
 753              	.LVL76:
 895:Generated_Source\PSoC4/Bluetooth_aios.c ****                     locCharValue.charIndex = locCharIndex;
 754              		.loc 1 895 0
 755 0038 BE70     		strb	r6, [r7, #2]
 896:Generated_Source\PSoC4/Bluetooth_aios.c ****                     locCharValue.charInstance = locCharInstance;
 756              		.loc 1 896 0
 757 003a FC70     		strb	r4, [r7, #3]
 897:Generated_Source\PSoC4/Bluetooth_aios.c ****                     locCharValue.value = NULL;
 758              		.loc 1 897 0
 759 003c 0022     		movs	r2, #0
 760 003e 7A60     		str	r2, [r7, #4]
 898:Generated_Source\PSoC4/Bluetooth_aios.c ****                     cyBle_eventHandlerFlag &= (uint8)~CYBLE_CALLBACK;
 761              		.loc 1 898 0
 762 0040 1349     		ldr	r1, .L68+8
 763 0042 0B78     		ldrb	r3, [r1]
 764 0044 0120     		movs	r0, #1
 765 0046 8343     		bics	r3, r0
 766 0048 0B70     		strb	r3, [r1]
 899:Generated_Source\PSoC4/Bluetooth_aios.c ****                     cyBle_aiossReqHandle = CYBLE_GATT_INVALID_ATTR_HANDLE_VALUE;
 767              		.loc 1 899 0
 768 004a 0F4B     		ldr	r3, .L68
 769 004c 9A80     		strh	r2, [r3, #4]
 900:Generated_Source\PSoC4/Bluetooth_aios.c ****                     CyBle_AiosApplCallback((uint32)CYBLE_EVT_AIOSS_INDICATION_CONFIRMED, &locCharVa
 770              		.loc 1 900 0
 771 004e 1B68     		ldr	r3, [r3]
 772 0050 3900     		movs	r1, r7
 773 0052 1820     		movs	r0, #24
 774 0054 FF30     		adds	r0, r0, #255
 775 0056 9847     		blx	r3
 776              	.LVL77:
 901:Generated_Source\PSoC4/Bluetooth_aios.c ****                     locReqHandle = 1u;
 777              		.loc 1 901 0
 778 0058 0121     		movs	r1, #1
 779              	.LVL78:
 780              	.L62:
 890:Generated_Source\PSoC4/Bluetooth_aios.c ****             {
 781              		.loc 1 890 0
 782 005a 0134     		adds	r4, r4, #1
 783              	.LVL79:
 784 005c E4B2     		uxtb	r4, r4
 785              	.LVL80:
 786 005e 00E0     		b	.L65
ARM GAS  C:\Windows\TEMP\ccyNncCN.s 			page 31


 787              	.LVL81:
 788              	.L67:
 789 0060 0024     		movs	r4, #0
 790              	.L65:
 791              	.LVL82:
 889:Generated_Source\PSoC4/Bluetooth_aios.c ****                 locCharInstance++)
 792              		.loc 1 889 0 discriminator 1
 793 0062 3300     		movs	r3, r6
 794 0064 0B4A     		ldr	r2, .L68+12
 795 0066 925D     		ldrb	r2, [r2, r6]
 796 0068 9442     		cmp	r4, r2
 797 006a 01D2     		bcs	.L63
 889:Generated_Source\PSoC4/Bluetooth_aios.c ****                 locCharInstance++)
 798              		.loc 1 889 0 is_stmt 0 discriminator 2
 799 006c 0029     		cmp	r1, #0
 800 006e D3D0     		beq	.L64
 801              	.L63:
 887:Generated_Source\PSoC4/Bluetooth_aios.c ****         {
 802              		.loc 1 887 0 is_stmt 1
 803 0070 0136     		adds	r6, r6, #1
 804              	.LVL83:
 805 0072 F6B2     		uxtb	r6, r6
 806              	.LVL84:
 807 0074 01E0     		b	.L61
 808              	.LVL85:
 809              	.L66:
 810 0076 0021     		movs	r1, #0
 811 0078 0026     		movs	r6, #0
 812              	.LVL86:
 813              	.L61:
 886:Generated_Source\PSoC4/Bluetooth_aios.c ****             locCharIndex++)
 814              		.loc 1 886 0 discriminator 1
 815 007a 022E     		cmp	r6, #2
 816 007c 01D8     		bhi	.L59
 886:Generated_Source\PSoC4/Bluetooth_aios.c ****             locCharIndex++)
 817              		.loc 1 886 0 is_stmt 0 discriminator 2
 818 007e 0029     		cmp	r1, #0
 819 0080 EED0     		beq	.L67
 820              	.LVL87:
 821              	.L59:
 902:Generated_Source\PSoC4/Bluetooth_aios.c ****                 }
 903:Generated_Source\PSoC4/Bluetooth_aios.c ****             }
 904:Generated_Source\PSoC4/Bluetooth_aios.c ****         }
 905:Generated_Source\PSoC4/Bluetooth_aios.c ****     }
 906:Generated_Source\PSoC4/Bluetooth_aios.c **** }
 822              		.loc 1 906 0 is_stmt 1
 823 0082 05B0     		add	sp, sp, #20
 824              		@ sp needed
 825              	.LVL88:
 826 0084 F0BD     		pop	{r4, r5, r6, r7, pc}
 827              	.L69:
 828 0086 C046     		.align	2
 829              	.L68:
 830 0088 00000000 		.word	.LANCHOR0
 831 008c 00000000 		.word	.LANCHOR2
 832 0090 00000000 		.word	cyBle_eventHandlerFlag
 833 0094 00000000 		.word	.LANCHOR1
ARM GAS  C:\Windows\TEMP\ccyNncCN.s 			page 32


 834              		.cfi_endproc
 835              	.LFE11:
 836              		.size	CyBle_AiossConfirmationEventHandler, .-CyBle_AiossConfirmationEventHandler
 837              		.section	.text.CyBle_AiosSetAggregateChar,"ax",%progbits
 838              		.align	2
 839              		.global	CyBle_AiosSetAggregateChar
 840              		.code	16
 841              		.thumb_func
 842              		.type	CyBle_AiosSetAggregateChar, %function
 843              	CyBle_AiosSetAggregateChar:
 844              	.LFB12:
 907:Generated_Source\PSoC4/Bluetooth_aios.c **** 
 908:Generated_Source\PSoC4/Bluetooth_aios.c **** /******************************************************************************
 909:Generated_Source\PSoC4/Bluetooth_aios.c **** * Function Name: CyBle_AiosSetAggregateChar
 910:Generated_Source\PSoC4/Bluetooth_aios.c **** ***************************************************************************//**
 911:Generated_Source\PSoC4/Bluetooth_aios.c **** *
 912:Generated_Source\PSoC4/Bluetooth_aios.c **** *  Sets the value for Aggregate characteristic. 
 913:Generated_Source\PSoC4/Bluetooth_aios.c **** *  All of the defined Digital characteristics with the Read property set be
 914:Generated_Source\PSoC4/Bluetooth_aios.c **** *  part of Aggregate (if available). The length of each of the Digital characteristics 
 915:Generated_Source\PSoC4/Bluetooth_aios.c **** *  that is part of the Aggregate is determined from the number of signals defined in the 
 916:Generated_Source\PSoC4/Bluetooth_aios.c **** *  Number of Digitals descriptor of the Digital characteristic. The Digital part byte 
 917:Generated_Source\PSoC4/Bluetooth_aios.c **** *  aligned and trailing bits (if any) set to 0. The order of the Digital characteristics 
 918:Generated_Source\PSoC4/Bluetooth_aios.c **** *  is determined by the value in the Description field of the Characteristic Presentation 
 919:Generated_Source\PSoC4/Bluetooth_aios.c **** *  Format descriptor with the lowest value first. 
 920:Generated_Source\PSoC4/Bluetooth_aios.c **** *  All of the defined Analog characteristics with Read property set part of the Aggregate
 921:Generated_Source\PSoC4/Bluetooth_aios.c **** *  (if available). The order of the Analog characteristics is determined by the value in 
 922:Generated_Source\PSoC4/Bluetooth_aios.c **** *  the Description field of the Characteristic Presentation Format descriptor with the 
 923:Generated_Source\PSoC4/Bluetooth_aios.c **** *  lowest value first. 
 924:Generated_Source\PSoC4/Bluetooth_aios.c **** *  The first analog input follows directly after the last Digital characteristic.
 925:Generated_Source\PSoC4/Bluetooth_aios.c **** * 
 926:Generated_Source\PSoC4/Bluetooth_aios.c **** * \return
 927:Generated_Source\PSoC4/Bluetooth_aios.c **** *  A return value is of type CYBLE_GATT_ERR_CODE_T.
 928:Generated_Source\PSoC4/Bluetooth_aios.c **** *  * CYBLE_GATT_ERR_NONE - The advertisement packet collected successfully.
 929:Generated_Source\PSoC4/Bluetooth_aios.c **** *  * CYBLE_GATT_ERR_INVALID_HANDLE - 'handleValuePair.attrHandle' is not valid.
 930:Generated_Source\PSoC4/Bluetooth_aios.c **** *
 931:Generated_Source\PSoC4/Bluetooth_aios.c **** ******************************************************************************/
 932:Generated_Source\PSoC4/Bluetooth_aios.c **** CYBLE_GATT_ERR_CODE_T CyBle_AiosSetAggregateChar(void)
 933:Generated_Source\PSoC4/Bluetooth_aios.c **** {
 845              		.loc 1 933 0
 846              		.cfi_startproc
 847              		@ args = 0, pretend = 0, frame = 0
 848              		@ frame_needed = 0, uses_anonymous_args = 0
 849              		@ link register save eliminated.
 850              	.LVL89:
 934:Generated_Source\PSoC4/Bluetooth_aios.c ****     CYBLE_GATT_ERR_CODE_T gattErr = CYBLE_GATT_ERR_NONE;
 935:Generated_Source\PSoC4/Bluetooth_aios.c ****     CYBLE_GATT_HANDLE_VALUE_PAIR_T locHandleValuePair;
 936:Generated_Source\PSoC4/Bluetooth_aios.c ****     CYBLE_AIOS_CHAR_INDEX_T locCharIndex;
 937:Generated_Source\PSoC4/Bluetooth_aios.c ****     uint8 locCharInstance;
 938:Generated_Source\PSoC4/Bluetooth_aios.c ****     uint8 locAttrValue[CYBLE_AIOS_CHAR_PRESENTATION_FORMAT_LEN];
 939:Generated_Source\PSoC4/Bluetooth_aios.c ****     uint8 aggregateChar[CYBLE_GATT_MTU-3];
 940:Generated_Source\PSoC4/Bluetooth_aios.c ****     uint16 currentDescriptionValue;
 941:Generated_Source\PSoC4/Bluetooth_aios.c ****     uint16 minDescriptionValue;
 942:Generated_Source\PSoC4/Bluetooth_aios.c ****     uint16 minDescriptionValueTmp = 0xFFFFu;
 943:Generated_Source\PSoC4/Bluetooth_aios.c ****     uint16 maxDescriptionValue;
 944:Generated_Source\PSoC4/Bluetooth_aios.c ****     uint16 minDescriptionNumber;
 945:Generated_Source\PSoC4/Bluetooth_aios.c ****     uint8 locCharInstanceNumber;
 946:Generated_Source\PSoC4/Bluetooth_aios.c ****     uint8 aggregateCharIndex = 0u;
ARM GAS  C:\Windows\TEMP\ccyNncCN.s 			page 33


 947:Generated_Source\PSoC4/Bluetooth_aios.c ****     uint8 aggregateDigitalBits = 0u;
 948:Generated_Source\PSoC4/Bluetooth_aios.c ****     uint8 numOfDigital;
 949:Generated_Source\PSoC4/Bluetooth_aios.c ****     uint8 i;
 950:Generated_Source\PSoC4/Bluetooth_aios.c ****     
 951:Generated_Source\PSoC4/Bluetooth_aios.c ****     for(i = 0; i < (CYBLE_GATT_MTU-3u); i++)
 851              		.loc 1 951 0
 852 0000 0023     		movs	r3, #0
 853 0002 01E0     		b	.L71
 854              	.LVL90:
 855              	.L72:
 856              		.loc 1 951 0 is_stmt 0 discriminator 3
 857 0004 0133     		adds	r3, r3, #1
 858              	.LVL91:
 859 0006 DBB2     		uxtb	r3, r3
 860              	.LVL92:
 861              	.L71:
 862              		.loc 1 951 0 discriminator 1
 863 0008 132B     		cmp	r3, #19
 864 000a FBD9     		bls	.L72
 865 000c 0023     		movs	r3, #0
 866              	.LVL93:
 867 000e 01E0     		b	.L73
 868              	.LVL94:
 869              	.L74:
 952:Generated_Source\PSoC4/Bluetooth_aios.c ****     {   
 953:Generated_Source\PSoC4/Bluetooth_aios.c ****         aggregateChar[i] = 0u;
 954:Generated_Source\PSoC4/Bluetooth_aios.c ****     }
 955:Generated_Source\PSoC4/Bluetooth_aios.c ****     
 956:Generated_Source\PSoC4/Bluetooth_aios.c ****     for(i = 0; i < CYBLE_AIOS_CHAR_PRESENTATION_FORMAT_LEN; i++)
 870              		.loc 1 956 0 is_stmt 1 discriminator 3
 871 0010 0133     		adds	r3, r3, #1
 872              	.LVL95:
 873 0012 DBB2     		uxtb	r3, r3
 874              	.LVL96:
 875              	.L73:
 876              		.loc 1 956 0 is_stmt 0 discriminator 1
 877 0014 062B     		cmp	r3, #6
 878 0016 FBD9     		bls	.L74
 879              	.LVL97:
 957:Generated_Source\PSoC4/Bluetooth_aios.c ****     {   
 958:Generated_Source\PSoC4/Bluetooth_aios.c ****         locAttrValue[i] = 0u;
 959:Generated_Source\PSoC4/Bluetooth_aios.c ****     }
 960:Generated_Source\PSoC4/Bluetooth_aios.c ****    
 961:Generated_Source\PSoC4/Bluetooth_aios.c ****     if((cyBle_aioss.charInfoAddr[CYBLE_AIOS_AGGREGATE].charInfoPtr != NULL) &&
 962:Generated_Source\PSoC4/Bluetooth_aios.c ****         (CYBLE_GATT_INVALID_ATTR_HANDLE_VALUE != cyBle_aioss.charInfoAddr[CYBLE_AIOS_AGGREGATE].cha
 963:Generated_Source\PSoC4/Bluetooth_aios.c ****     {
 964:Generated_Source\PSoC4/Bluetooth_aios.c ****         for(locCharIndex = CYBLE_AIOS_DIGITAL; (locCharIndex <= CYBLE_AIOS_ANALOG) && (gattErr == C
 965:Generated_Source\PSoC4/Bluetooth_aios.c ****                         locCharIndex++)
 966:Generated_Source\PSoC4/Bluetooth_aios.c ****         {
 967:Generated_Source\PSoC4/Bluetooth_aios.c ****             minDescriptionValue = 0u;
 968:Generated_Source\PSoC4/Bluetooth_aios.c ****             minDescriptionNumber = 0u;
 969:Generated_Source\PSoC4/Bluetooth_aios.c ****             
 970:Generated_Source\PSoC4/Bluetooth_aios.c ****             for(locCharInstanceNumber = 0u; 
 971:Generated_Source\PSoC4/Bluetooth_aios.c ****                     (locCharInstanceNumber < cyBle_aiossCharInstances[locCharIndex]) && (gattErr ==
 972:Generated_Source\PSoC4/Bluetooth_aios.c ****                             locCharInstanceNumber++)
 973:Generated_Source\PSoC4/Bluetooth_aios.c ****             {   
 974:Generated_Source\PSoC4/Bluetooth_aios.c ****                 maxDescriptionValue = CYBLE_AIOS_MAX_CHAR_DESCRIPTION_VALUE;
ARM GAS  C:\Windows\TEMP\ccyNncCN.s 			page 34


 975:Generated_Source\PSoC4/Bluetooth_aios.c ****                 
 976:Generated_Source\PSoC4/Bluetooth_aios.c ****                 for(locCharInstance = 0u; 
 977:Generated_Source\PSoC4/Bluetooth_aios.c ****                         (locCharInstance < cyBle_aiossCharInstances[locCharIndex]) && (gattErr == C
 978:Generated_Source\PSoC4/Bluetooth_aios.c ****                                 locCharInstance++)
 979:Generated_Source\PSoC4/Bluetooth_aios.c ****                 {
 980:Generated_Source\PSoC4/Bluetooth_aios.c ****                     if((cyBle_aioss.charInfoAddr[locCharIndex].charInfoPtr != NULL) &&
 981:Generated_Source\PSoC4/Bluetooth_aios.c ****                         (cyBle_aioss.charInfoAddr[locCharIndex].charInfoPtr[locCharInstance].charHa
 982:Generated_Source\PSoC4/Bluetooth_aios.c ****                                 != CYBLE_GATT_INVALID_ATTR_HANDLE_VALUE) &&
 983:Generated_Source\PSoC4/Bluetooth_aios.c ****                         (cyBle_aioss.charInfoAddr[locCharIndex].charInfoPtr[locCharInstance].descrH
 984:Generated_Source\PSoC4/Bluetooth_aios.c ****                                 != CYBLE_GATT_INVALID_ATTR_HANDLE_VALUE))
 985:Generated_Source\PSoC4/Bluetooth_aios.c ****                     {
 986:Generated_Source\PSoC4/Bluetooth_aios.c ****                         locHandleValuePair.attrHandle =
 987:Generated_Source\PSoC4/Bluetooth_aios.c ****                             cyBle_aioss.charInfoAddr[locCharIndex].charInfoPtr[locCharInstance].des
 988:Generated_Source\PSoC4/Bluetooth_aios.c ****                         locHandleValuePair.value.len = CYBLE_AIOS_CHAR_PRESENTATION_FORMAT_LEN;
 989:Generated_Source\PSoC4/Bluetooth_aios.c ****                         locHandleValuePair.value.val = locAttrValue;
 990:Generated_Source\PSoC4/Bluetooth_aios.c ****                            
 991:Generated_Source\PSoC4/Bluetooth_aios.c ****                         gattErr = CyBle_GattsReadAttributeValue(&locHandleValuePair, NULL, CYBLE_GA
 992:Generated_Source\PSoC4/Bluetooth_aios.c ****                     }
 993:Generated_Source\PSoC4/Bluetooth_aios.c ****                     else
 994:Generated_Source\PSoC4/Bluetooth_aios.c ****                     {
 995:Generated_Source\PSoC4/Bluetooth_aios.c ****                         gattErr = CYBLE_GATT_ERR_INVALID_HANDLE;
 996:Generated_Source\PSoC4/Bluetooth_aios.c ****                     }
 997:Generated_Source\PSoC4/Bluetooth_aios.c ****                    
 998:Generated_Source\PSoC4/Bluetooth_aios.c ****                     if (gattErr == CYBLE_GATT_ERR_NONE)
 999:Generated_Source\PSoC4/Bluetooth_aios.c ****                     {   
1000:Generated_Source\PSoC4/Bluetooth_aios.c ****                         currentDescriptionValue = ((uint16)(((uint16)locAttrValue[CYBLE_AIOS_CHAR_P
1001:Generated_Source\PSoC4/Bluetooth_aios.c ****                         
1002:Generated_Source\PSoC4/Bluetooth_aios.c ****                         if ((currentDescriptionValue < maxDescriptionValue) &&
1003:Generated_Source\PSoC4/Bluetooth_aios.c ****                             (currentDescriptionValue > minDescriptionValue) )
1004:Generated_Source\PSoC4/Bluetooth_aios.c ****                         {
1005:Generated_Source\PSoC4/Bluetooth_aios.c ****                             maxDescriptionValue = currentDescriptionValue;
1006:Generated_Source\PSoC4/Bluetooth_aios.c ****                             minDescriptionNumber = locCharInstance;
1007:Generated_Source\PSoC4/Bluetooth_aios.c ****                             minDescriptionValueTmp = currentDescriptionValue;
1008:Generated_Source\PSoC4/Bluetooth_aios.c ****                         }
1009:Generated_Source\PSoC4/Bluetooth_aios.c ****                     }
1010:Generated_Source\PSoC4/Bluetooth_aios.c ****                 }
1011:Generated_Source\PSoC4/Bluetooth_aios.c ****             
1012:Generated_Source\PSoC4/Bluetooth_aios.c ****                 minDescriptionValue = minDescriptionValueTmp;
1013:Generated_Source\PSoC4/Bluetooth_aios.c ****                 
1014:Generated_Source\PSoC4/Bluetooth_aios.c ****                 if (locCharIndex == CYBLE_AIOS_DIGITAL)
1015:Generated_Source\PSoC4/Bluetooth_aios.c ****                 {   
1016:Generated_Source\PSoC4/Bluetooth_aios.c ****                     /* Read descriptor CYBLE_AIOS_NUM_OF_DIGITAL_DESCR value from database */
1017:Generated_Source\PSoC4/Bluetooth_aios.c ****                     locHandleValuePair.attrHandle =
1018:Generated_Source\PSoC4/Bluetooth_aios.c ****                         cyBle_aioss.charInfoAddr[CYBLE_AIOS_DIGITAL].charInfoPtr[minDescriptionNumb
1019:Generated_Source\PSoC4/Bluetooth_aios.c ****                     locHandleValuePair.value.len = CYBLE_AIOS_NUM_OF_DIGITAL_DESCR_LEN;
1020:Generated_Source\PSoC4/Bluetooth_aios.c ****                     locHandleValuePair.value.val = &numOfDigital;
1021:Generated_Source\PSoC4/Bluetooth_aios.c ****                     
1022:Generated_Source\PSoC4/Bluetooth_aios.c ****                     gattErr = CyBle_GattsReadAttributeValue(&locHandleValuePair, NULL, CYBLE_GATT_D
1023:Generated_Source\PSoC4/Bluetooth_aios.c ****                         
1024:Generated_Source\PSoC4/Bluetooth_aios.c ****                     if (gattErr == CYBLE_GATT_ERR_NONE)    
1025:Generated_Source\PSoC4/Bluetooth_aios.c ****                     {
1026:Generated_Source\PSoC4/Bluetooth_aios.c ****                         locHandleValuePair.attrHandle =
1027:Generated_Source\PSoC4/Bluetooth_aios.c ****                             cyBle_aioss.charInfoAddr[CYBLE_AIOS_DIGITAL].charInfoPtr[minDescription
1028:Generated_Source\PSoC4/Bluetooth_aios.c ****                         locHandleValuePair.value.len = (numOfDigital / 4) + 1;
1029:Generated_Source\PSoC4/Bluetooth_aios.c ****                         locHandleValuePair.value.val = &aggregateChar[aggregateCharIndex + 1];
1030:Generated_Source\PSoC4/Bluetooth_aios.c ****                                             
1031:Generated_Source\PSoC4/Bluetooth_aios.c ****                         gattErr = CyBle_GattsReadAttributeValue(&locHandleValuePair, NULL, CYBLE_GA
ARM GAS  C:\Windows\TEMP\ccyNncCN.s 			page 35


1032:Generated_Source\PSoC4/Bluetooth_aios.c ****                         
1033:Generated_Source\PSoC4/Bluetooth_aios.c ****                         if (gattErr == CYBLE_GATT_ERR_NONE)    
1034:Generated_Source\PSoC4/Bluetooth_aios.c ****                         {    
1035:Generated_Source\PSoC4/Bluetooth_aios.c ****                             for (i = 0; i < ((numOfDigital / 4u) + 1u); i++)
1036:Generated_Source\PSoC4/Bluetooth_aios.c ****                             {
1037:Generated_Source\PSoC4/Bluetooth_aios.c ****                                 aggregateChar[aggregateCharIndex+i] |= (uint8)(aggregateChar[aggreg
1038:Generated_Source\PSoC4/Bluetooth_aios.c ****                                 aggregateChar[aggregateCharIndex + i + 1] >>= (8 - aggregateDigital
1039:Generated_Source\PSoC4/Bluetooth_aios.c ****                             }
1040:Generated_Source\PSoC4/Bluetooth_aios.c **** 
1041:Generated_Source\PSoC4/Bluetooth_aios.c ****                             aggregateCharIndex += (((aggregateDigitalBits / 2u) + numOfDigital) / 4
1042:Generated_Source\PSoC4/Bluetooth_aios.c ****                             aggregateDigitalBits = (((aggregateDigitalBits / 2u) + numOfDigital) % 
1043:Generated_Source\PSoC4/Bluetooth_aios.c ****                         }
1044:Generated_Source\PSoC4/Bluetooth_aios.c ****                     }
1045:Generated_Source\PSoC4/Bluetooth_aios.c ****                 }
1046:Generated_Source\PSoC4/Bluetooth_aios.c ****                 else if(locCharIndex == CYBLE_AIOS_ANALOG)
1047:Generated_Source\PSoC4/Bluetooth_aios.c ****                 {
1048:Generated_Source\PSoC4/Bluetooth_aios.c ****                     /* Read characteristic CYBLE_AIOS_ANALOG value from database */ 
1049:Generated_Source\PSoC4/Bluetooth_aios.c ****                     locHandleValuePair.attrHandle =
1050:Generated_Source\PSoC4/Bluetooth_aios.c ****                         cyBle_aioss.charInfoAddr[locCharIndex].charInfoPtr[minDescriptionNumber].ch
1051:Generated_Source\PSoC4/Bluetooth_aios.c ****                     locHandleValuePair.value.len = CYBLE_AIOS_ANALOG_LEN;
1052:Generated_Source\PSoC4/Bluetooth_aios.c ****                     locHandleValuePair.value.val = &aggregateChar[aggregateCharIndex];
1053:Generated_Source\PSoC4/Bluetooth_aios.c ****                                         
1054:Generated_Source\PSoC4/Bluetooth_aios.c ****                     gattErr = CyBle_GattsReadAttributeValue(&locHandleValuePair, NULL, CYBLE_GATT_D
1055:Generated_Source\PSoC4/Bluetooth_aios.c ****                     if (gattErr == CYBLE_GATT_ERR_NONE)    
1056:Generated_Source\PSoC4/Bluetooth_aios.c ****                     {
1057:Generated_Source\PSoC4/Bluetooth_aios.c ****                         aggregateCharIndex += 2u;
1058:Generated_Source\PSoC4/Bluetooth_aios.c ****                     }
1059:Generated_Source\PSoC4/Bluetooth_aios.c ****                 }
1060:Generated_Source\PSoC4/Bluetooth_aios.c ****                 else
1061:Generated_Source\PSoC4/Bluetooth_aios.c ****                 {
1062:Generated_Source\PSoC4/Bluetooth_aios.c ****                    /* Do nothing */
1063:Generated_Source\PSoC4/Bluetooth_aios.c ****                 }
1064:Generated_Source\PSoC4/Bluetooth_aios.c ****             }  
1065:Generated_Source\PSoC4/Bluetooth_aios.c ****             aggregateCharIndex++;
1066:Generated_Source\PSoC4/Bluetooth_aios.c ****         }
1067:Generated_Source\PSoC4/Bluetooth_aios.c ****         
1068:Generated_Source\PSoC4/Bluetooth_aios.c ****         if (gattErr == CYBLE_GATT_ERR_NONE)
1069:Generated_Source\PSoC4/Bluetooth_aios.c ****         {
1070:Generated_Source\PSoC4/Bluetooth_aios.c ****             locHandleValuePair.attrHandle = cyBle_aioss.charInfoAddr[CYBLE_AIOS_AGGREGATE].charInfo
1071:Generated_Source\PSoC4/Bluetooth_aios.c ****             locHandleValuePair.value.len = aggregateCharIndex-1u;
1072:Generated_Source\PSoC4/Bluetooth_aios.c ****             locHandleValuePair.value.val = aggregateChar;
1073:Generated_Source\PSoC4/Bluetooth_aios.c **** 
1074:Generated_Source\PSoC4/Bluetooth_aios.c ****             /* Store data in database */
1075:Generated_Source\PSoC4/Bluetooth_aios.c ****             gattErr = CyBle_GattsWriteAttributeValue(&locHandleValuePair, 0u, NULL, CYBLE_GATT_DB_L
1076:Generated_Source\PSoC4/Bluetooth_aios.c ****         }
1077:Generated_Source\PSoC4/Bluetooth_aios.c ****     }    
1078:Generated_Source\PSoC4/Bluetooth_aios.c ****     return gattErr;
1079:Generated_Source\PSoC4/Bluetooth_aios.c **** }
 880              		.loc 1 1079 0 is_stmt 1
 881 0018 0020     		movs	r0, #0
 882              		@ sp needed
 883 001a 7047     		bx	lr
 884              		.cfi_endproc
 885              	.LFE12:
 886              		.size	CyBle_AiosSetAggregateChar, .-CyBle_AiosSetAggregateChar
 887              		.section	.text.CyBle_AiossWriteEventHandler,"ax",%progbits
 888              		.align	2
ARM GAS  C:\Windows\TEMP\ccyNncCN.s 			page 36


 889              		.global	CyBle_AiossWriteEventHandler
 890              		.code	16
 891              		.thumb_func
 892              		.type	CyBle_AiossWriteEventHandler, %function
 893              	CyBle_AiossWriteEventHandler:
 894              	.LFB4:
 212:Generated_Source\PSoC4/Bluetooth_aios.c ****     uint8 i;
 895              		.loc 1 212 0
 896              		.cfi_startproc
 897              		@ args = 0, pretend = 0, frame = 24
 898              		@ frame_needed = 0, uses_anonymous_args = 0
 899              	.LVL98:
 900 0000 F0B5     		push	{r4, r5, r6, r7, lr}
 901              		.cfi_def_cfa_offset 20
 902              		.cfi_offset 4, -20
 903              		.cfi_offset 5, -16
 904              		.cfi_offset 6, -12
 905              		.cfi_offset 7, -8
 906              		.cfi_offset 14, -4
 907 0002 5F46     		mov	r7, fp
 908 0004 5646     		mov	r6, r10
 909 0006 4D46     		mov	r5, r9
 910 0008 4446     		mov	r4, r8
 911 000a F0B4     		push	{r4, r5, r6, r7}
 912              		.cfi_def_cfa_offset 36
 913              		.cfi_offset 8, -36
 914              		.cfi_offset 9, -32
 915              		.cfi_offset 10, -28
 916              		.cfi_offset 11, -24
 917 000c 87B0     		sub	sp, sp, #28
 918              		.cfi_def_cfa_offset 64
 919 000e 8246     		mov	r10, r0
 920              	.LVL99:
 224:Generated_Source\PSoC4/Bluetooth_aios.c ****     
 921              		.loc 1 224 0
 922 0010 8689     		ldrh	r6, [r0, #12]
 923              	.LVL100:
 226:Generated_Source\PSoC4/Bluetooth_aios.c ****     {
 924              		.loc 1 226 0
 925 0012 924B     		ldr	r3, .L110
 926 0014 1B68     		ldr	r3, [r3]
 927 0016 002B     		cmp	r3, #0
 928 0018 00D0     		beq	.LCB936
 929 001a FDE0     		b	.L102	@long jump
 930              	.LCB936:
 217:Generated_Source\PSoC4/Bluetooth_aios.c ****     CYBLE_AIOSS_CHAR_T *aiosCharInfoPtr;
 931              		.loc 1 217 0
 932 001c 0024     		movs	r4, #0
 215:Generated_Source\PSoC4/Bluetooth_aios.c ****     CYBLE_GATT_DB_ATTR_HANDLE_T tmpHandle;
 933              		.loc 1 215 0
 934 001e 0027     		movs	r7, #0
 935 0020 07E1     		b	.L77
 936              	.LVL101:
 937              	.L99:
 242:Generated_Source\PSoC4/Bluetooth_aios.c ****             {   
 938              		.loc 1 242 0
 939 0022 C846     		mov	r8, r9
ARM GAS  C:\Windows\TEMP\ccyNncCN.s 			page 37


 940 0024 4B46     		mov	r3, r9
 941 0026 9B00     		lsls	r3, r3, #2
 942 0028 8D4A     		ldr	r2, .L110+4
 943 002a D318     		adds	r3, r2, r3
 944 002c 5B68     		ldr	r3, [r3, #4]
 945 002e 002B     		cmp	r3, #0
 946 0030 00D0     		beq	.LCB955
 947 0032 E5E0     		b	.L103	@long jump
 948              	.LCB955:
 949 0034 EBE0     		b	.L79
 950              	.LVL102:
 951              	.L98:
 246:Generated_Source\PSoC4/Bluetooth_aios.c ****                     
 952              		.loc 1 246 0
 953 0036 4346     		mov	r3, r8
 954 0038 9B00     		lsls	r3, r3, #2
 955 003a 894A     		ldr	r2, .L110+4
 956 003c D318     		adds	r3, r2, r3
 957 003e 5968     		ldr	r1, [r3, #4]
 958 0040 2B01     		lsls	r3, r5, #4
 959 0042 C918     		adds	r1, r1, r3
 960              	.LVL103:
 249:Generated_Source\PSoC4/Bluetooth_aios.c ****                     {
 961              		.loc 1 249 0
 962 0044 0B88     		ldrh	r3, [r1]
 963 0046 9E42     		cmp	r6, r3
 964 0048 04D1     		bne	.L80
 251:Generated_Source\PSoC4/Bluetooth_aios.c ****                         foundItem = CYBLE_AIOS_CHARACTERISTIC_ITEM;
 965              		.loc 1 251 0
 966 004a 0722     		movs	r2, #7
 967 004c 03AB     		add	r3, sp, #12
 968 004e 1A71     		strb	r2, [r3, #4]
 969              	.LVL104:
 252:Generated_Source\PSoC4/Bluetooth_aios.c ****                     }                
 970              		.loc 1 252 0
 971 0050 0124     		movs	r4, #1
 972 0052 12E0     		b	.L81
 973              	.LVL105:
 974              	.L80:
 259:Generated_Source\PSoC4/Bluetooth_aios.c ****                         
 975              		.loc 1 259 0
 976 0054 0722     		movs	r2, #7
 977 0056 03AB     		add	r3, sp, #12
 978 0058 1A71     		strb	r2, [r3, #4]
 979              	.LVL106:
 261:Generated_Source\PSoC4/Bluetooth_aios.c ****                         {
 980              		.loc 1 261 0
 981 005a 0023     		movs	r3, #0
 982 005c 09E0     		b	.L82
 983              	.LVL107:
 984              	.L84:
 263:Generated_Source\PSoC4/Bluetooth_aios.c **** 	                        {
 985              		.loc 1 263 0
 986 005e 5A00     		lsls	r2, r3, #1
 987 0060 8A18     		adds	r2, r1, r2
 988 0062 5288     		ldrh	r2, [r2, #2]
 989 0064 9642     		cmp	r6, r2
ARM GAS  C:\Windows\TEMP\ccyNncCN.s 			page 38


 990 0066 02D1     		bne	.L83
 265:Generated_Source\PSoC4/Bluetooth_aios.c **** 		                        foundItem = CYBLE_AIOS_DESCRIPTOR_ITEM;
 991              		.loc 1 265 0
 992 0068 03AA     		add	r2, sp, #12
 993 006a 1371     		strb	r3, [r2, #4]
 994              	.LVL108:
 266:Generated_Source\PSoC4/Bluetooth_aios.c **** 	                        }
 995              		.loc 1 266 0
 996 006c 0224     		movs	r4, #2
 997              	.LVL109:
 998              	.L83:
 261:Generated_Source\PSoC4/Bluetooth_aios.c ****                         {
 999              		.loc 1 261 0 discriminator 2
 1000 006e 0133     		adds	r3, r3, #1
 1001              	.LVL110:
 1002 0070 DBB2     		uxtb	r3, r3
 1003              	.LVL111:
 1004              	.L82:
 261:Generated_Source\PSoC4/Bluetooth_aios.c ****                         {
 1005              		.loc 1 261 0 is_stmt 0 discriminator 1
 1006 0072 062B     		cmp	r3, #6
 1007 0074 01D8     		bhi	.L81
 261:Generated_Source\PSoC4/Bluetooth_aios.c ****                         {
 1008              		.loc 1 261 0 discriminator 3
 1009 0076 022C     		cmp	r4, #2
 1010 0078 F1D1     		bne	.L84
 1011              	.LVL112:
 1012              	.L81:
 272:Generated_Source\PSoC4/Bluetooth_aios.c ****                     {
 1013              		.loc 1 272 0 is_stmt 1
 1014 007a 002F     		cmp	r7, #0
 1015 007c 6FD1     		bne	.L85
 272:Generated_Source\PSoC4/Bluetooth_aios.c ****                     {
 1016              		.loc 1 272 0 is_stmt 0 discriminator 1
 1017 007e 022C     		cmp	r4, #2
 1018 0080 6DD1     		bne	.L85
 274:Generated_Source\PSoC4/Bluetooth_aios.c ****                         {
 1019              		.loc 1 274 0 is_stmt 1
 1020 0082 03AB     		add	r3, sp, #12
 1021 0084 1B79     		ldrb	r3, [r3, #4]
 1022 0086 022B     		cmp	r3, #2
 1023 0088 42D0     		beq	.L86
 1024 008a 02D8     		bhi	.L87
 1025 008c 002B     		cmp	r3, #0
 1026 008e 05D0     		beq	.L88
 1027 0090 65E0     		b	.L85
 1028              	.L87:
 1029 0092 042B     		cmp	r3, #4
 1030 0094 50D0     		beq	.L89
 1031 0096 052B     		cmp	r3, #5
 1032 0098 54D0     		beq	.L90
 1033 009a 60E0     		b	.L85
 1034              	.L88:
 278:Generated_Source\PSoC4/Bluetooth_aios.c ****                             {
 1035              		.loc 1 278 0
 1036 009c 0B88     		ldrh	r3, [r1]
 1037 009e 013B     		subs	r3, r3, #1
ARM GAS  C:\Windows\TEMP\ccyNncCN.s 			page 39


 1038 00a0 9A00     		lsls	r2, r3, #2
 1039 00a2 D318     		adds	r3, r2, r3
 1040 00a4 9A00     		lsls	r2, r3, #2
 1041 00a6 6F4B     		ldr	r3, .L110+8
 1042 00a8 9A18     		adds	r2, r3, r2
 1043 00aa 5368     		ldr	r3, [r2, #4]
 1044 00ac DA02     		lsls	r2, r3, #11
 1045 00ae 16D5     		bpl	.L91
 280:Generated_Source\PSoC4/Bluetooth_aios.c ****                                 {
 1046              		.loc 1 280 0
 1047 00b0 5346     		mov	r3, r10
 1048 00b2 5868     		ldr	r0, [r3, #4]
 1049 00b4 FFF7FEFF 		bl	CyBle_Get16ByPtr
 1050              	.LVL113:
 1051 00b8 C307     		lsls	r3, r0, #31
 1052 00ba 03D5     		bpl	.L104
 282:Generated_Source\PSoC4/Bluetooth_aios.c ****                                 }
 1053              		.loc 1 282 0
 1054 00bc 1423     		movs	r3, #20
 1055 00be FF33     		adds	r3, r3, #255
 1056 00c0 9B46     		mov	fp, r3
 1057              	.LVL114:
 1058 00c2 02E0     		b	.L92
 1059              	.LVL115:
 1060              	.L104:
 286:Generated_Source\PSoC4/Bluetooth_aios.c ****                                 }
 1061              		.loc 1 286 0
 1062 00c4 8A23     		movs	r3, #138
 1063 00c6 5B00     		lsls	r3, r3, #1
 1064 00c8 9B46     		mov	fp, r3
 1065              	.LVL116:
 1066              	.L92:
 292:Generated_Source\PSoC4/Bluetooth_aios.c ****                                 {
 1067              		.loc 1 292 0
 1068 00ca 674B     		ldr	r3, .L110+12
 1069 00cc 1B78     		ldrb	r3, [r3]
 1070 00ce 012B     		cmp	r3, #1
 1071 00d0 45D1     		bne	.L85
 294:Generated_Source\PSoC4/Bluetooth_aios.c ****                                 }
 1072              		.loc 1 294 0
 1073 00d2 664A     		ldr	r2, .L110+16
 1074 00d4 1178     		ldrb	r1, [r2]
 1075 00d6 0223     		movs	r3, #2
 1076 00d8 0B43     		orrs	r3, r1
 1077 00da 1370     		strb	r3, [r2]
 1078 00dc 3FE0     		b	.L85
 1079              	.LVL117:
 1080              	.L91:
 298:Generated_Source\PSoC4/Bluetooth_aios.c ****                             {
 1081              		.loc 1 298 0
 1082 00de 9B02     		lsls	r3, r3, #10
 1083 00e0 36D5     		bpl	.L105
 300:Generated_Source\PSoC4/Bluetooth_aios.c ****                                 {
 1084              		.loc 1 300 0
 1085 00e2 5346     		mov	r3, r10
 1086 00e4 5868     		ldr	r0, [r3, #4]
 1087 00e6 FFF7FEFF 		bl	CyBle_Get16ByPtr
ARM GAS  C:\Windows\TEMP\ccyNncCN.s 			page 40


 1088              	.LVL118:
 1089 00ea 8307     		lsls	r3, r0, #30
 1090 00ec 03D5     		bpl	.L106
 302:Generated_Source\PSoC4/Bluetooth_aios.c ****                                 }
 1091              		.loc 1 302 0
 1092 00ee 1623     		movs	r3, #22
 1093 00f0 FF33     		adds	r3, r3, #255
 1094 00f2 9B46     		mov	fp, r3
 1095              	.LVL119:
 1096 00f4 02E0     		b	.L93
 1097              	.LVL120:
 1098              	.L106:
 306:Generated_Source\PSoC4/Bluetooth_aios.c ****                                 }
 1099              		.loc 1 306 0
 1100 00f6 8B23     		movs	r3, #139
 1101 00f8 5B00     		lsls	r3, r3, #1
 1102 00fa 9B46     		mov	fp, r3
 1103              	.LVL121:
 1104              	.L93:
 312:Generated_Source\PSoC4/Bluetooth_aios.c ****                                 {
 1105              		.loc 1 312 0
 1106 00fc 5A4B     		ldr	r3, .L110+12
 1107 00fe 1B78     		ldrb	r3, [r3]
 1108 0100 012B     		cmp	r3, #1
 1109 0102 2CD1     		bne	.L85
 314:Generated_Source\PSoC4/Bluetooth_aios.c ****                                 }
 1110              		.loc 1 314 0
 1111 0104 594A     		ldr	r2, .L110+16
 1112 0106 1178     		ldrb	r1, [r2]
 1113 0108 0223     		movs	r3, #2
 1114 010a 0B43     		orrs	r3, r1
 1115 010c 1370     		strb	r3, [r2]
 1116 010e 26E0     		b	.L85
 1117              	.LVL122:
 1118              	.L86:
 325:Generated_Source\PSoC4/Bluetooth_aios.c ****                                 aiosCharInfoPtr->descrHandle[CYBLE_AIOS_CHAR_USER_DESCRIPTION_DESCR
 1119              		.loc 1 325 0
 1120 0110 CB88     		ldrh	r3, [r1, #6]
 1121 0112 013B     		subs	r3, r3, #1
 1122 0114 9900     		lsls	r1, r3, #2
 1123              	.LVL123:
 1124 0116 C918     		adds	r1, r1, r3
 1125 0118 8A00     		lsls	r2, r1, #2
 1126 011a 5249     		ldr	r1, .L110+8
 1127 011c 8A18     		adds	r2, r1, r2
 1128 011e 9189     		ldrh	r1, [r2, #12]
 327:Generated_Source\PSoC4/Bluetooth_aios.c ****                             {
 1129              		.loc 1 327 0
 1130 0120 5246     		mov	r2, r10
 1131 0122 1289     		ldrh	r2, [r2, #8]
 325:Generated_Source\PSoC4/Bluetooth_aios.c ****                                 aiosCharInfoPtr->descrHandle[CYBLE_AIOS_CHAR_USER_DESCRIPTION_DESCR
 1132              		.loc 1 325 0
 1133 0124 9142     		cmp	r1, r2
 1134 0126 15D3     		bcc	.L107
 330:Generated_Source\PSoC4/Bluetooth_aios.c ****                                     aiosCharInfoPtr->descrHandle[CYBLE_AIOS_CHAR_USER_DESCRIPTION_D
 1135              		.loc 1 330 0
 1136 0128 9900     		lsls	r1, r3, #2
ARM GAS  C:\Windows\TEMP\ccyNncCN.s 			page 41


 1137 012a CB18     		adds	r3, r1, r3
 1138 012c 9900     		lsls	r1, r3, #2
 1139 012e 4D4B     		ldr	r3, .L110+8
 1140 0130 5918     		adds	r1, r3, r1
 1141 0132 0B69     		ldr	r3, [r1, #16]
 1142 0134 1A80     		strh	r2, [r3]
 1143 0136 12E0     		b	.L85
 1144              	.LVL124:
 1145              	.L89:
 342:Generated_Source\PSoC4/Bluetooth_aios.c ****                             {
 1146              		.loc 1 342 0
 1147 0138 5346     		mov	r3, r10
 1148 013a 5B68     		ldr	r3, [r3, #4]
 1149 013c 1B78     		ldrb	r3, [r3]
 1150 013e 062B     		cmp	r3, #6
 1151 0140 0AD8     		bhi	.L108
 1152 0142 0CE0     		b	.L85
 1153              	.L90:
 350:Generated_Source\PSoC4/Bluetooth_aios.c ****                             {
 1154              		.loc 1 350 0
 1155 0144 5346     		mov	r3, r10
 1156 0146 5B68     		ldr	r3, [r3, #4]
 1157 0148 1B78     		ldrb	r3, [r3]
 1158 014a 022B     		cmp	r3, #2
 1159 014c 06D8     		bhi	.L109
 1160 014e 06E0     		b	.L85
 1161              	.L105:
 320:Generated_Source\PSoC4/Bluetooth_aios.c ****                             }
 1162              		.loc 1 320 0
 1163 0150 0627     		movs	r7, #6
 1164              	.LVL125:
 1165 0152 04E0     		b	.L85
 1166              	.LVL126:
 1167              	.L107:
 336:Generated_Source\PSoC4/Bluetooth_aios.c ****                             }
 1168              		.loc 1 336 0
 1169 0154 0D27     		movs	r7, #13
 1170              	.LVL127:
 1171 0156 02E0     		b	.L85
 1172              	.LVL128:
 1173              	.L108:
 344:Generated_Source\PSoC4/Bluetooth_aios.c ****                             }
 1174              		.loc 1 344 0
 1175 0158 8027     		movs	r7, #128
 1176              	.LVL129:
 1177 015a 00E0     		b	.L85
 1178              	.LVL130:
 1179              	.L109:
 352:Generated_Source\PSoC4/Bluetooth_aios.c ****                             }
 1180              		.loc 1 352 0
 1181 015c 8027     		movs	r7, #128
 1182              	.LVL131:
 1183              	.L85:
 362:Generated_Source\PSoC4/Bluetooth_aios.c ****                     && ( (foundItem == CYBLE_AIOS_CHARACTERISTIC_ITEM) || (foundItem == CYBLE_AIOS_
 1184              		.loc 1 362 0
 1185 015e 002F     		cmp	r7, #0
 1186 0160 4BD1     		bne	.L94
ARM GAS  C:\Windows\TEMP\ccyNncCN.s 			page 42


 363:Generated_Source\PSoC4/Bluetooth_aios.c ****                     {
 1187              		.loc 1 363 0
 1188 0162 631E     		subs	r3, r4, #1
 1189 0164 DBB2     		uxtb	r3, r3
 1190 0166 012B     		cmp	r3, #1
 1191 0168 47D8     		bhi	.L94
 365:Generated_Source\PSoC4/Bluetooth_aios.c ****                                                               &eventParam->connHandle,
 1192              		.loc 1 365 0
 1193 016a 5346     		mov	r3, r10
 1194 016c 9889     		ldrh	r0, [r3, #12]
 1195 016e 4222     		movs	r2, #66
 1196 0170 5146     		mov	r1, r10
 1197 0172 FFF7FEFF 		bl	CyBle_GattDbCheckPermission
 1198              	.LVL132:
 1199 0176 071E     		subs	r7, r0, #0
 1200              	.LVL133:
 369:Generated_Source\PSoC4/Bluetooth_aios.c ****                         {
 1201              		.loc 1 369 0
 1202 0178 39D1     		bne	.L95
 373:Generated_Source\PSoC4/Bluetooth_aios.c ****                             {
 1203              		.loc 1 373 0
 1204 017a 012C     		cmp	r4, #1
 1205 017c 14D1     		bne	.L96
 375:Generated_Source\PSoC4/Bluetooth_aios.c ****                                 wrCharReqParam.charIndex = (CYBLE_AIOS_CHAR_INDEX_T) i;
 1206              		.loc 1 375 0
 1207 017e 5346     		mov	r3, r10
 1208 0180 1B88     		ldrh	r3, [r3]
 1209 0182 6A46     		mov	r2, sp
 1210 0184 1380     		strh	r3, [r2]
 376:Generated_Source\PSoC4/Bluetooth_aios.c ****                                 wrCharReqParam.charInstance = j;
 1211              		.loc 1 376 0
 1212 0186 6B46     		mov	r3, sp
 1213 0188 4A46     		mov	r2, r9
 1214 018a 9A70     		strb	r2, [r3, #2]
 377:Generated_Source\PSoC4/Bluetooth_aios.c ****                                 wrCharReqParam.gattErrorCode = CYBLE_GATT_ERR_NONE;
 1215              		.loc 1 377 0
 1216 018c DD70     		strb	r5, [r3, #3]
 378:Generated_Source\PSoC4/Bluetooth_aios.c ****                                 wrCharReqParam.value = &eventParam->handleValPair.value;
 1217              		.loc 1 378 0
 1218 018e 0023     		movs	r3, #0
 1219 0190 6A46     		mov	r2, sp
 1220 0192 1372     		strb	r3, [r2, #8]
 379:Generated_Source\PSoC4/Bluetooth_aios.c ****                             
 1221              		.loc 1 379 0
 1222 0194 5346     		mov	r3, r10
 1223 0196 0433     		adds	r3, r3, #4
 1224 0198 0193     		str	r3, [sp, #4]
 381:Generated_Source\PSoC4/Bluetooth_aios.c ****                             }
 1225              		.loc 1 381 0
 1226 019a 304B     		ldr	r3, .L110
 1227 019c 1B68     		ldr	r3, [r3]
 1228 019e 6946     		mov	r1, sp
 1229 01a0 8C20     		movs	r0, #140
 1230              	.LVL134:
 1231 01a2 4000     		lsls	r0, r0, #1
 1232 01a4 9847     		blx	r3
 1233              	.LVL135:
ARM GAS  C:\Windows\TEMP\ccyNncCN.s 			page 43


 1234 01a6 12E0     		b	.L97
 1235              	.LVL136:
 1236              	.L96:
 383:Generated_Source\PSoC4/Bluetooth_aios.c ****                             {
 1237              		.loc 1 383 0
 1238 01a8 022C     		cmp	r4, #2
 1239 01aa 10D1     		bne	.L97
 385:Generated_Source\PSoC4/Bluetooth_aios.c ****                                 wrDescrReqParam.charIndex = (CYBLE_AIOS_CHAR_INDEX_T) i;
 1240              		.loc 1 385 0
 1241 01ac 03A9     		add	r1, sp, #12
 1242 01ae 5346     		mov	r3, r10
 1243 01b0 1B88     		ldrh	r3, [r3]
 1244 01b2 0B80     		strh	r3, [r1]
 386:Generated_Source\PSoC4/Bluetooth_aios.c ****                                 wrDescrReqParam.charInstance = j;
 1245              		.loc 1 386 0
 1246 01b4 4B46     		mov	r3, r9
 1247 01b6 8B70     		strb	r3, [r1, #2]
 387:Generated_Source\PSoC4/Bluetooth_aios.c ****                                 wrDescrReqParam.gattErrorCode = CYBLE_GATT_ERR_NONE;
 1248              		.loc 1 387 0
 1249 01b8 CD70     		strb	r5, [r1, #3]
 388:Generated_Source\PSoC4/Bluetooth_aios.c ****                                 wrDescrReqParam.value = &eventParam->handleValPair.value;
 1250              		.loc 1 388 0
 1251 01ba 0023     		movs	r3, #0
 1252 01bc 4B71     		strb	r3, [r1, #5]
 389:Generated_Source\PSoC4/Bluetooth_aios.c ****                             
 1253              		.loc 1 389 0
 1254 01be 5346     		mov	r3, r10
 1255 01c0 0433     		adds	r3, r3, #4
 1256 01c2 8B60     		str	r3, [r1, #8]
 391:Generated_Source\PSoC4/Bluetooth_aios.c ****                             }
 1257              		.loc 1 391 0
 1258 01c4 254B     		ldr	r3, .L110
 1259 01c6 1B68     		ldr	r3, [r3]
 1260 01c8 1A20     		movs	r0, #26
 1261              	.LVL137:
 1262 01ca FF30     		adds	r0, r0, #255
 1263 01cc 9847     		blx	r3
 1264              	.LVL138:
 1265              	.L97:
 399:Generated_Source\PSoC4/Bluetooth_aios.c ****                                 &eventParam->connHandle, CYBLE_GATT_DB_PEER_INITIATED);
 1266              		.loc 1 399 0
 1267 01ce 5346     		mov	r3, r10
 1268 01d0 181D     		adds	r0, r3, #4
 1269 01d2 4023     		movs	r3, #64
 1270 01d4 5246     		mov	r2, r10
 1271 01d6 0021     		movs	r1, #0
 1272 01d8 FFF7FEFF 		bl	CyBle_GattsWriteAttributeValue
 1273              	.LVL139:
 1274 01dc 0700     		movs	r7, r0
 1275              	.LVL140:
 402:Generated_Source\PSoC4/Bluetooth_aios.c ****                             {   
 1276              		.loc 1 402 0
 1277 01de 5B46     		mov	r3, fp
 1278 01e0 002B     		cmp	r3, #0
 1279 01e2 04D0     		beq	.L95
 1280              	.LVL141:
 404:Generated_Source\PSoC4/Bluetooth_aios.c ****                             }
ARM GAS  C:\Windows\TEMP\ccyNncCN.s 			page 44


 1281              		.loc 1 404 0
 1282 01e4 1D4B     		ldr	r3, .L110
 1283              	.LVL142:
 1284 01e6 1B68     		ldr	r3, [r3]
 1285 01e8 03A9     		add	r1, sp, #12
 1286 01ea 5846     		mov	r0, fp
 1287              	.LVL143:
 1288 01ec 9847     		blx	r3
 1289              	.LVL144:
 1290              	.L95:
 411:Generated_Source\PSoC4/Bluetooth_aios.c ****                         break;
 1291              		.loc 1 411 0
 1292 01ee 204A     		ldr	r2, .L110+20
 1293 01f0 1378     		ldrb	r3, [r2]
 1294 01f2 0121     		movs	r1, #1
 1295 01f4 8B43     		bics	r3, r1
 1296 01f6 1370     		strb	r3, [r2]
 412:Generated_Source\PSoC4/Bluetooth_aios.c ****                     }
 1297              		.loc 1 412 0
 1298 01f8 09E0     		b	.L79
 1299              	.L94:
 244:Generated_Source\PSoC4/Bluetooth_aios.c ****                 {
 1300              		.loc 1 244 0 discriminator 2
 1301 01fa 0135     		adds	r5, r5, #1
 1302              	.LVL145:
 1303 01fc EDB2     		uxtb	r5, r5
 1304              	.LVL146:
 1305 01fe 00E0     		b	.L78
 1306              	.LVL147:
 1307              	.L103:
 1308 0200 0025     		movs	r5, #0
 1309              	.L78:
 1310              	.LVL148:
 244:Generated_Source\PSoC4/Bluetooth_aios.c ****                 {
 1311              		.loc 1 244 0 is_stmt 0 discriminator 1
 1312 0202 1C4B     		ldr	r3, .L110+24
 1313 0204 4246     		mov	r2, r8
 1314 0206 9B5C     		ldrb	r3, [r3, r2]
 1315 0208 9D42     		cmp	r5, r3
 1316 020a 00D2     		bcs	.LCB1388
 1317 020c 13E7     		b	.L98	@long jump
 1318              	.LCB1388:
 1319              	.LVL149:
 1320              	.L79:
 235:Generated_Source\PSoC4/Bluetooth_aios.c ****         {
 1321              		.loc 1 235 0 is_stmt 1
 1322 020e 4B46     		mov	r3, r9
 1323 0210 0133     		adds	r3, r3, #1
 1324 0212 DBB2     		uxtb	r3, r3
 1325 0214 9946     		mov	r9, r3
 1326              	.LVL150:
 1327 0216 04E0     		b	.L76
 1328              	.LVL151:
 1329              	.L102:
 1330 0218 0023     		movs	r3, #0
 1331 021a 9B46     		mov	fp, r3
 1332 021c 0024     		movs	r4, #0
ARM GAS  C:\Windows\TEMP\ccyNncCN.s 			page 45


 1333 021e 0027     		movs	r7, #0
 1334 0220 9946     		mov	r9, r3
 1335              	.LVL152:
 1336              	.L76:
 234:Generated_Source\PSoC4/Bluetooth_aios.c ****             i++)
 1337              		.loc 1 234 0 discriminator 1
 1338 0222 4B46     		mov	r3, r9
 1339 0224 022B     		cmp	r3, #2
 1340 0226 04D8     		bhi	.L77
 234:Generated_Source\PSoC4/Bluetooth_aios.c ****             i++)
 1341              		.loc 1 234 0 is_stmt 0 discriminator 2
 1342 0228 002C     		cmp	r4, #0
 1343 022a 02D1     		bne	.L77
 234:Generated_Source\PSoC4/Bluetooth_aios.c ****             i++)
 1344              		.loc 1 234 0 discriminator 3
 1345 022c 002F     		cmp	r7, #0
 1346 022e 00D1     		bne	.LCB1433
 1347 0230 F7E6     		b	.L99	@long jump
 1348              	.LCB1433:
 1349              	.LVL153:
 1350              	.L77:
 419:Generated_Source\PSoC4/Bluetooth_aios.c ****     {
 1351              		.loc 1 419 0 is_stmt 1
 1352 0232 002F     		cmp	r7, #0
 1353 0234 05D0     		beq	.L100
 422:Generated_Source\PSoC4/Bluetooth_aios.c ****     }
 1354              		.loc 1 422 0
 1355 0236 0E4A     		ldr	r2, .L110+20
 1356 0238 1378     		ldrb	r3, [r2]
 1357 023a 0121     		movs	r1, #1
 1358 023c 8B43     		bics	r3, r1
 1359 023e 1370     		strb	r3, [r2]
 1360 0240 04E0     		b	.L101
 1361              	.L100:
 426:Generated_Source\PSoC4/Bluetooth_aios.c ****         {
 1362              		.loc 1 426 0
 1363 0242 012C     		cmp	r4, #1
 1364 0244 02D1     		bne	.L101
 428:Generated_Source\PSoC4/Bluetooth_aios.c ****         }
 1365              		.loc 1 428 0
 1366 0246 FFF7FEFF 		bl	CyBle_AiosSetAggregateChar
 1367              	.LVL154:
 1368 024a 0700     		movs	r7, r0
 1369              	.LVL155:
 1370              	.L101:
 433:Generated_Source\PSoC4/Bluetooth_aios.c **** 
 1371              		.loc 1 433 0
 1372 024c 3800     		movs	r0, r7
 1373 024e 07B0     		add	sp, sp, #28
 1374              		@ sp needed
 1375              	.LVL156:
 1376              	.LVL157:
 1377              	.LVL158:
 1378              	.LVL159:
 1379 0250 3CBC     		pop	{r2, r3, r4, r5}
 1380 0252 9046     		mov	r8, r2
 1381 0254 9946     		mov	r9, r3
ARM GAS  C:\Windows\TEMP\ccyNncCN.s 			page 46


 1382 0256 A246     		mov	r10, r4
 1383 0258 AB46     		mov	fp, r5
 1384 025a F0BD     		pop	{r4, r5, r6, r7, pc}
 1385              	.L111:
 1386              		.align	2
 1387              	.L110:
 1388 025c 00000000 		.word	.LANCHOR0
 1389 0260 00000000 		.word	.LANCHOR2
 1390 0264 00000000 		.word	cyBle_gattDB
 1391 0268 00000000 		.word	cyBle_peerBonding
 1392 026c 00000000 		.word	cyBle_pendingFlashWrite
 1393 0270 00000000 		.word	cyBle_eventHandlerFlag
 1394 0274 00000000 		.word	.LANCHOR1
 1395              		.cfi_endproc
 1396              	.LFE4:
 1397              		.size	CyBle_AiossWriteEventHandler, .-CyBle_AiossWriteEventHandler
 1398              		.section	.text.CyBle_AiossSetCharacteristicValue,"ax",%progbits
 1399              		.align	2
 1400              		.global	CyBle_AiossSetCharacteristicValue
 1401              		.code	16
 1402              		.thumb_func
 1403              		.type	CyBle_AiossSetCharacteristicValue, %function
 1404              	CyBle_AiossSetCharacteristicValue:
 1405              	.LFB5:
 459:Generated_Source\PSoC4/Bluetooth_aios.c ****     CYBLE_API_RESULT_T apiResult = CYBLE_ERROR_INVALID_PARAMETER;
 1406              		.loc 1 459 0
 1407              		.cfi_startproc
 1408              		@ args = 0, pretend = 0, frame = 16
 1409              		@ frame_needed = 0, uses_anonymous_args = 0
 1410              	.LVL160:
 1411 0000 10B5     		push	{r4, lr}
 1412              		.cfi_def_cfa_offset 8
 1413              		.cfi_offset 4, -8
 1414              		.cfi_offset 14, -4
 1415 0002 84B0     		sub	sp, sp, #16
 1416              		.cfi_def_cfa_offset 24
 1417              	.LVL161:
 463:Generated_Source\PSoC4/Bluetooth_aios.c ****     {
 1418              		.loc 1 463 0
 1419 0004 0228     		cmp	r0, #2
 1420 0006 1CD8     		bhi	.L116
 463:Generated_Source\PSoC4/Bluetooth_aios.c ****     {
 1421              		.loc 1 463 0 is_stmt 0 discriminator 1
 1422 0008 164C     		ldr	r4, .L122
 1423 000a 245C     		ldrb	r4, [r4, r0]
 1424 000c 8C42     		cmp	r4, r1
 1425 000e 1AD9     		bls	.L117
 471:Generated_Source\PSoC4/Bluetooth_aios.c ****             (CYBLE_GATT_INVALID_ATTR_HANDLE_VALUE !=
 1426              		.loc 1 471 0 is_stmt 1
 1427 0010 8000     		lsls	r0, r0, #2
 1428              	.LVL162:
 1429 0012 154C     		ldr	r4, .L122+4
 1430 0014 2018     		adds	r0, r4, r0
 1431 0016 4068     		ldr	r0, [r0, #4]
 1432 0018 0028     		cmp	r0, #0
 1433 001a 16D0     		beq	.L118
 473:Generated_Source\PSoC4/Bluetooth_aios.c ****         {
ARM GAS  C:\Windows\TEMP\ccyNncCN.s 			page 47


 1434              		.loc 1 473 0 discriminator 1
 1435 001c 0901     		lsls	r1, r1, #4
 1436              	.LVL163:
 1437 001e 415A     		ldrh	r1, [r0, r1]
 471:Generated_Source\PSoC4/Bluetooth_aios.c ****             (CYBLE_GATT_INVALID_ATTR_HANDLE_VALUE !=
 1438              		.loc 1 471 0 discriminator 1
 1439 0020 0029     		cmp	r1, #0
 1440 0022 14D0     		beq	.L119
 1441              	.LBB8:
 477:Generated_Source\PSoC4/Bluetooth_aios.c ****                 cyBle_aioss.charInfoAddr[charIndex].charInfoPtr[charInstance].charHandle;
 1442              		.loc 1 477 0
 1443 0024 01A8     		add	r0, sp, #4
 1444 0026 0181     		strh	r1, [r0, #8]
 479:Generated_Source\PSoC4/Bluetooth_aios.c ****             locHandleValuePair.value.val = attrValue;
 1445              		.loc 1 479 0
 1446 0028 8280     		strh	r2, [r0, #4]
 480:Generated_Source\PSoC4/Bluetooth_aios.c **** 
 1447              		.loc 1 480 0
 1448 002a 0193     		str	r3, [sp, #4]
 483:Generated_Source\PSoC4/Bluetooth_aios.c ****                 CYBLE_GATT_ERR_NONE)
 1449              		.loc 1 483 0
 1450 002c 0023     		movs	r3, #0
 1451              	.LVL164:
 1452 002e 0022     		movs	r2, #0
 1453              	.LVL165:
 1454 0030 0021     		movs	r1, #0
 1455 0032 FFF7FEFF 		bl	CyBle_GattsWriteAttributeValue
 1456              	.LVL166:
 1457 0036 0028     		cmp	r0, #0
 1458 0038 01D0     		beq	.L120
 1459              	.LBE8:
 460:Generated_Source\PSoC4/Bluetooth_aios.c **** 
 1460              		.loc 1 460 0
 1461 003a 0124     		movs	r4, #1
 1462 003c 08E0     		b	.L113
 1463              	.L120:
 1464              	.LBB9:
 486:Generated_Source\PSoC4/Bluetooth_aios.c ****             }
 1465              		.loc 1 486 0
 1466 003e 0024     		movs	r4, #0
 1467              	.LVL167:
 1468              	.LBE9:
 474:Generated_Source\PSoC4/Bluetooth_aios.c ****             CYBLE_GATT_HANDLE_VALUE_PAIR_T locHandleValuePair;
 1469              		.loc 1 474 0
 1470 0040 06E0     		b	.L113
 1471              	.LVL168:
 1472              	.L116:
 460:Generated_Source\PSoC4/Bluetooth_aios.c **** 
 1473              		.loc 1 460 0
 1474 0042 0124     		movs	r4, #1
 1475 0044 04E0     		b	.L113
 1476              	.L117:
 1477 0046 0124     		movs	r4, #1
 1478 0048 02E0     		b	.L113
 1479              	.LVL169:
 1480              	.L118:
 491:Generated_Source\PSoC4/Bluetooth_aios.c ****         }
ARM GAS  C:\Windows\TEMP\ccyNncCN.s 			page 48


 1481              		.loc 1 491 0
 1482 004a 1324     		movs	r4, #19
 1483 004c 00E0     		b	.L113
 1484              	.LVL170:
 1485              	.L119:
 1486 004e 1324     		movs	r4, #19
 1487              	.LVL171:
 1488              	.L113:
 495:Generated_Source\PSoC4/Bluetooth_aios.c ****     {   
 1489              		.loc 1 495 0
 1490 0050 002C     		cmp	r4, #0
 1491 0052 04D1     		bne	.L115
 497:Generated_Source\PSoC4/Bluetooth_aios.c ****         {   
 1492              		.loc 1 497 0
 1493 0054 FFF7FEFF 		bl	CyBle_AiosSetAggregateChar
 1494              	.LVL172:
 1495 0058 0028     		cmp	r0, #0
 1496 005a 00D0     		beq	.L115
 499:Generated_Source\PSoC4/Bluetooth_aios.c ****         }
 1497              		.loc 1 499 0
 1498 005c 1334     		adds	r4, r4, #19
 1499              	.LVL173:
 1500              	.L115:
 504:Generated_Source\PSoC4/Bluetooth_aios.c **** 
 1501              		.loc 1 504 0
 1502 005e 2000     		movs	r0, r4
 1503 0060 04B0     		add	sp, sp, #16
 1504              		@ sp needed
 1505              	.LVL174:
 1506 0062 10BD     		pop	{r4, pc}
 1507              	.L123:
 1508              		.align	2
 1509              	.L122:
 1510 0064 00000000 		.word	.LANCHOR1
 1511 0068 00000000 		.word	.LANCHOR2
 1512              		.cfi_endproc
 1513              	.LFE5:
 1514              		.size	CyBle_AiossSetCharacteristicValue, .-CyBle_AiossSetCharacteristicValue
 1515              		.global	cyBle_aioss
 1516              		.global	cyBle_aiossCharInstances
 1517              		.section	.rodata
 1518              		.align	2
 1519              		.set	.LANCHOR2,. + 0
 1520              		.type	cyBle_aioss, %object
 1521              		.size	cyBle_aioss, 16
 1522              	cyBle_aioss:
 1523 0000 1000     		.short	16
 1524 0002 0000     		.space	2
 1525 0004 00000000 		.word	0
 1526 0008 04000000 		.word	aiossCharIdx1
 1527 000c 00000000 		.word	0
 1528              		.data
 1529              		.align	2
 1530              		.set	.LANCHOR1,. + 0
 1531              		.type	cyBle_aiossCharInstances, %object
 1532              		.size	cyBle_aiossCharInstances, 3
 1533              	cyBle_aiossCharInstances:
ARM GAS  C:\Windows\TEMP\ccyNncCN.s 			page 49


 1534 0000 00       		.byte	0
 1535 0001 04       		.byte	4
 1536 0002 00       		.byte	0
 1537 0003 00       		.space	1
 1538              		.type	aiossCharIdx1, %object
 1539              		.size	aiossCharIdx1, 64
 1540              	aiossCharIdx1:
 1541 0004 1200     		.short	18
 1542 0006 1300     		.short	19
 1543 0008 1400     		.short	20
 1544 000a 1500     		.short	21
 1545 000c 1600     		.short	22
 1546 000e 1700     		.short	23
 1547 0010 1800     		.short	24
 1548 0012 1900     		.short	25
 1549 0014 1B00     		.short	27
 1550 0016 1C00     		.short	28
 1551 0018 1D00     		.short	29
 1552 001a 1E00     		.short	30
 1553 001c 1F00     		.short	31
 1554 001e 2000     		.short	32
 1555 0020 2100     		.short	33
 1556 0022 2200     		.short	34
 1557 0024 2400     		.short	36
 1558 0026 2500     		.short	37
 1559 0028 2600     		.short	38
 1560 002a 2700     		.short	39
 1561 002c 2800     		.short	40
 1562 002e 2900     		.short	41
 1563 0030 2A00     		.short	42
 1564 0032 2B00     		.short	43
 1565 0034 2D00     		.short	45
 1566 0036 2E00     		.short	46
 1567 0038 2F00     		.short	47
 1568 003a 3000     		.short	48
 1569 003c 3100     		.short	49
 1570 003e 3200     		.short	50
 1571 0040 3300     		.short	51
 1572 0042 0000     		.short	0
 1573              		.bss
 1574              		.align	2
 1575              		.set	.LANCHOR0,. + 0
 1576              		.type	CyBle_AiosApplCallback, %object
 1577              		.size	CyBle_AiosApplCallback, 4
 1578              	CyBle_AiosApplCallback:
 1579 0000 00000000 		.space	4
 1580              		.type	cyBle_aiossReqHandle, %object
 1581              		.size	cyBle_aiossReqHandle, 2
 1582              	cyBle_aiossReqHandle:
 1583 0004 0000     		.space	2
 1584              		.text
 1585              	.Letext0:
 1586              		.file 2 "Generated_Source\\PSoC4\\cytypes.h"
 1587              		.file 3 "Generated_Source\\PSoC4\\Bluetooth_Stack.h"
 1588              		.file 4 "Generated_Source\\PSoC4\\Bluetooth_StackGatt.h"
 1589              		.file 5 "Generated_Source\\PSoC4\\Bluetooth_StackGattServer.h"
 1590              		.file 6 "Generated_Source\\PSoC4\\Bluetooth_StackGattDb.h"
ARM GAS  C:\Windows\TEMP\ccyNncCN.s 			page 50


 1591              		.file 7 "Generated_Source\\PSoC4\\Bluetooth.h"
 1592              		.file 8 "Generated_Source\\PSoC4\\Bluetooth_aios.h"
 1593              		.file 9 "Generated_Source\\PSoC4\\Bluetooth_eventHandler.h"
 1594              		.file 10 "Generated_Source\\PSoC4\\Bluetooth_gatt.h"