ARM GAS  C:\Windows\TEMP\ccsjdpha.s 			page 1


   1              		.syntax unified
   2              		.cpu cortex-m0
   3              		.fpu softvfp
   4              		.eabi_attribute 20, 1
   5              		.eabi_attribute 21, 1
   6              		.eabi_attribute 23, 3
   7              		.eabi_attribute 24, 1
   8              		.eabi_attribute 25, 1
   9              		.eabi_attribute 26, 1
  10              		.eabi_attribute 30, 1
  11              		.eabi_attribute 34, 0
  12              		.eabi_attribute 18, 4
  13              		.thumb
  14              		.syntax unified
  15              		.file	"Bluetooth.c"
  16              		.text
  17              	.Ltext0:
  18              		.cfi_sections	.debug_frame
  19              		.section	.text.CyBle_ChangeAdLocalName,"ax",%progbits
  20              		.align	2
  21              		.code	16
  22              		.thumb_func
  23              		.type	CyBle_ChangeAdLocalName, %function
  24              	CyBle_ChangeAdLocalName:
  25              	.LFB11:
  26              		.file 1 "Generated_Source\\PSoC4\\Bluetooth.c"
   1:Generated_Source\PSoC4/Bluetooth.c **** /***************************************************************************//**
   2:Generated_Source\PSoC4/Bluetooth.c **** * \file CYBLE.c
   3:Generated_Source\PSoC4/Bluetooth.c **** * \version 3.66
   4:Generated_Source\PSoC4/Bluetooth.c **** * 
   5:Generated_Source\PSoC4/Bluetooth.c **** * \brief
   6:Generated_Source\PSoC4/Bluetooth.c **** *  This file contains the source code for the Common APIs of the BLE Component.
   7:Generated_Source\PSoC4/Bluetooth.c **** * 
   8:Generated_Source\PSoC4/Bluetooth.c **** ********************************************************************************
   9:Generated_Source\PSoC4/Bluetooth.c **** * \copyright
  10:Generated_Source\PSoC4/Bluetooth.c **** * Copyright 2014-2020, Cypress Semiconductor Corporation.  All rights reserved.
  11:Generated_Source\PSoC4/Bluetooth.c **** * You may use this file only in accordance with the license, terms, conditions,
  12:Generated_Source\PSoC4/Bluetooth.c **** * disclaimers, and limitations in the end user license agreement accompanying
  13:Generated_Source\PSoC4/Bluetooth.c **** * the software package with which this file was provided.
  14:Generated_Source\PSoC4/Bluetooth.c **** *******************************************************************************/
  15:Generated_Source\PSoC4/Bluetooth.c **** 
  16:Generated_Source\PSoC4/Bluetooth.c **** #include "Bluetooth_eventHandler.h"
  17:Generated_Source\PSoC4/Bluetooth.c **** #include "Bluetooth_HAL_PVT.h"
  18:Generated_Source\PSoC4/Bluetooth.c **** #include <stdlib.h>
  19:Generated_Source\PSoC4/Bluetooth.c **** 
  20:Generated_Source\PSoC4/Bluetooth.c **** 
  21:Generated_Source\PSoC4/Bluetooth.c **** /***************************************
  22:Generated_Source\PSoC4/Bluetooth.c **** * Function Prototypes
  23:Generated_Source\PSoC4/Bluetooth.c **** ***************************************/
  24:Generated_Source\PSoC4/Bluetooth.c **** 
  25:Generated_Source\PSoC4/Bluetooth.c **** #if(CYBLE_GATT_ROLE_SERVER)
  26:Generated_Source\PSoC4/Bluetooth.c ****     #if(CYBLE_GAP_ROLE_PERIPHERAL)
  27:Generated_Source\PSoC4/Bluetooth.c ****         static void CyBle_ChangeAdLocalName(const char8 name[], uint8 dest);
  28:Generated_Source\PSoC4/Bluetooth.c ****     #endif /* (CYBLE_GAP_ROLE_PERIPHERAL) */
  29:Generated_Source\PSoC4/Bluetooth.c **** #endif /* (CYBLE_GATT_ROLE_SERVER) */
  30:Generated_Source\PSoC4/Bluetooth.c ****     
  31:Generated_Source\PSoC4/Bluetooth.c **** 
ARM GAS  C:\Windows\TEMP\ccsjdpha.s 			page 2


  32:Generated_Source\PSoC4/Bluetooth.c **** /***************************************
  33:Generated_Source\PSoC4/Bluetooth.c **** * Global Variables
  34:Generated_Source\PSoC4/Bluetooth.c **** ***************************************/
  35:Generated_Source\PSoC4/Bluetooth.c **** 
  36:Generated_Source\PSoC4/Bluetooth.c **** /* Indicates whether the BLE has been initialized. The variable is initialized to
  37:Generated_Source\PSoC4/Bluetooth.c ****    0 and set to 1 the first time CyBle_Start() is called. This allows the component
  38:Generated_Source\PSoC4/Bluetooth.c ****    to restart without reinitialization after the first call to the CyBle_Start() 
  39:Generated_Source\PSoC4/Bluetooth.c ****    routine. If reinitialization of the component is required, the variable should 
  40:Generated_Source\PSoC4/Bluetooth.c ****    be set to 0 before the CyBle_Start() routine is called. Alternatively, the BLE
  41:Generated_Source\PSoC4/Bluetooth.c ****    can be reinitialized by calling the CyBle_Init() function.
  42:Generated_Source\PSoC4/Bluetooth.c **** */
  43:Generated_Source\PSoC4/Bluetooth.c **** uint8  cyBle_initVar = 0u;
  44:Generated_Source\PSoC4/Bluetooth.c **** 
  45:Generated_Source\PSoC4/Bluetooth.c **** /* Allocate RAM memory for stack. This buffer could be reused by application when 
  46:Generated_Source\PSoC4/Bluetooth.c ****    BLE component is stopped. For export mode buffer is allocated in heap.
  47:Generated_Source\PSoC4/Bluetooth.c **** */
  48:Generated_Source\PSoC4/Bluetooth.c **** #if(CYBLE_SHARING_MODE_EXPORT)
  49:Generated_Source\PSoC4/Bluetooth.c ****     
  50:Generated_Source\PSoC4/Bluetooth.c **** uint8 *cyBle_stackMemoryRam = NULL;
  51:Generated_Source\PSoC4/Bluetooth.c **** 
  52:Generated_Source\PSoC4/Bluetooth.c **** #else
  53:Generated_Source\PSoC4/Bluetooth.c **** 
  54:Generated_Source\PSoC4/Bluetooth.c **** CYBLE_CYALIGNED_BEGIN CY_NOINIT uint8 cyBle_stackMemoryRam[CYBLE_STACK_RAM_SIZE] CYBLE_CYALIGNED_EN
  55:Generated_Source\PSoC4/Bluetooth.c **** 
  56:Generated_Source\PSoC4/Bluetooth.c **** #endif  /* CYBLE_SHARING_MODE_EXPORT */
  57:Generated_Source\PSoC4/Bluetooth.c **** 
  58:Generated_Source\PSoC4/Bluetooth.c **** #if(CYBLE_GAP_ROLE_PERIPHERAL || CYBLE_GAP_ROLE_BROADCASTER)
  59:Generated_Source\PSoC4/Bluetooth.c **** 
  60:Generated_Source\PSoC4/Bluetooth.c **** CYBLE_GAPP_DISC_PARAM_T cyBle_discoveryParam =
  61:Generated_Source\PSoC4/Bluetooth.c **** {
  62:Generated_Source\PSoC4/Bluetooth.c ****     0x0020u,    /* uint16 advertising_interval_min */
  63:Generated_Source\PSoC4/Bluetooth.c ****     0x0030u,    /* uint16 advertising_interval_max */
  64:Generated_Source\PSoC4/Bluetooth.c ****     CYBLE_GAPP_CONNECTABLE_UNDIRECTED_ADV, /* uint8 advertising_type */
  65:Generated_Source\PSoC4/Bluetooth.c ****     0x00u,      /* uint8 own_addr_type */
  66:Generated_Source\PSoC4/Bluetooth.c ****     0x00u,      /* uint8 direct_addr_type */
  67:Generated_Source\PSoC4/Bluetooth.c ****     {0x00u, 0x00u, 0x00u, 0x50u, 0xA0u, 0x00u}, /* uint8* direct_addr */
  68:Generated_Source\PSoC4/Bluetooth.c ****     0x07u,      /* uint8 advertising_channel_map */
  69:Generated_Source\PSoC4/Bluetooth.c ****     0x00u,      /* uint8 advertising_filter_policy */
  70:Generated_Source\PSoC4/Bluetooth.c **** };
  71:Generated_Source\PSoC4/Bluetooth.c **** 
  72:Generated_Source\PSoC4/Bluetooth.c **** CYBLE_GAPP_DISC_DATA_T cyBle_discoveryData =
  73:Generated_Source\PSoC4/Bluetooth.c **** {
  74:Generated_Source\PSoC4/Bluetooth.c ****     { 0x02u, 0x01u, 0x06u, 0x0Au, 0x09u, 0x43u, 0x79u,
  75:Generated_Source\PSoC4/Bluetooth.c ****     0x62u, 0x65u, 0x72u, 0x50u, 0x6Fu, 0x6Eu, 0x67u, 0x03u,
  76:Generated_Source\PSoC4/Bluetooth.c ****     0x03u, 0x15u, 0x18u, 0x00u, 0x00u, 0x00u, 0x00u, 0x00u,
  77:Generated_Source\PSoC4/Bluetooth.c ****     0x00u, 0x00u, 0x00u, 0x00u, 0x00u, 0x00u, 0x00u, 0x00u }, /* uint8 advertising_data[CYBLE_MAX_A
  78:Generated_Source\PSoC4/Bluetooth.c ****     0x12u,      /* uint8 adv_data_length */
  79:Generated_Source\PSoC4/Bluetooth.c **** };
  80:Generated_Source\PSoC4/Bluetooth.c **** 
  81:Generated_Source\PSoC4/Bluetooth.c **** CYBLE_GAPP_SCAN_RSP_DATA_T cyBle_scanRspData =
  82:Generated_Source\PSoC4/Bluetooth.c **** {
  83:Generated_Source\PSoC4/Bluetooth.c ****     { 0x0Au, 0x09u, 0x43u, 0x79u, 0x62u, 0x65u, 0x72u,
  84:Generated_Source\PSoC4/Bluetooth.c ****     0x50u, 0x6Fu, 0x6Eu, 0x67u, 0x03u, 0x03u, 0x15u, 0x18u,
  85:Generated_Source\PSoC4/Bluetooth.c ****     0x00u, 0x00u, 0x00u, 0x00u, 0x00u, 0x00u, 0x00u, 0x00u,
  86:Generated_Source\PSoC4/Bluetooth.c ****     0x00u, 0x00u, 0x00u, 0x00u, 0x00u, 0x00u, 0x00u, 0x00u }, /* uint8 scan_rsp_data[CYBLE_MAX_SCAN
  87:Generated_Source\PSoC4/Bluetooth.c ****     0x0Fu,      /* uint8 scan_rsp_data_length */
  88:Generated_Source\PSoC4/Bluetooth.c **** };
ARM GAS  C:\Windows\TEMP\ccsjdpha.s 			page 3


  89:Generated_Source\PSoC4/Bluetooth.c **** 
  90:Generated_Source\PSoC4/Bluetooth.c **** /* This variable of type CYBLE_GAPP_DISC_MODE_INFO_T is present only when 
  91:Generated_Source\PSoC4/Bluetooth.c ****    the BLE component is configured for Peripheral GAP role or Central and 
  92:Generated_Source\PSoC4/Bluetooth.c ****    Peripheral GAP role. It contains the Advertisement settings and also the 
  93:Generated_Source\PSoC4/Bluetooth.c ****    Advertisement and Scan response data parameters entered in the customizer.
  94:Generated_Source\PSoC4/Bluetooth.c ****    This variable can be used by advanced users to change Advertisement settings,
  95:Generated_Source\PSoC4/Bluetooth.c ****    Advertisement or Scan response data in runtime. 
  96:Generated_Source\PSoC4/Bluetooth.c **** */
  97:Generated_Source\PSoC4/Bluetooth.c **** CYBLE_GAPP_DISC_MODE_INFO_T cyBle_discoveryModeInfo =
  98:Generated_Source\PSoC4/Bluetooth.c **** {
  99:Generated_Source\PSoC4/Bluetooth.c ****     0x02u,      /* uint8 discMode */
 100:Generated_Source\PSoC4/Bluetooth.c ****     &cyBle_discoveryParam,
 101:Generated_Source\PSoC4/Bluetooth.c ****     &cyBle_discoveryData,
 102:Generated_Source\PSoC4/Bluetooth.c ****     &cyBle_scanRspData,
 103:Generated_Source\PSoC4/Bluetooth.c ****     0x0000u,    /* uint16 advTo */
 104:Generated_Source\PSoC4/Bluetooth.c **** };
 105:Generated_Source\PSoC4/Bluetooth.c **** 
 106:Generated_Source\PSoC4/Bluetooth.c **** 
 107:Generated_Source\PSoC4/Bluetooth.c **** #endif /* CYBLE_GAP_ROLE_PERIPHERAL || CYBLE_GAP_ROLE_BROADCASTER */
 108:Generated_Source\PSoC4/Bluetooth.c **** 
 109:Generated_Source\PSoC4/Bluetooth.c **** #if(CYBLE_GAP_ROLE_CENTRAL)
 110:Generated_Source\PSoC4/Bluetooth.c ****     
 111:Generated_Source\PSoC4/Bluetooth.c **** CYBLE_GAPC_CONN_PARAM_T cyBle_connectionParameters;
 112:Generated_Source\PSoC4/Bluetooth.c **** 
 113:Generated_Source\PSoC4/Bluetooth.c **** /* Connecting timeout is set to 30 seconds in CyBle_Init function. 
 114:Generated_Source\PSoC4/Bluetooth.c ****    Not zero value starts timer in CyBle_GapcConnectDevice() API fucntion.
 115:Generated_Source\PSoC4/Bluetooth.c **** */
 116:Generated_Source\PSoC4/Bluetooth.c **** uint16 cyBle_connectingTimeout;
 117:Generated_Source\PSoC4/Bluetooth.c ****     
 118:Generated_Source\PSoC4/Bluetooth.c **** #endif /* CYBLE_GAP_ROLE_CENTRAL */
 119:Generated_Source\PSoC4/Bluetooth.c **** 
 120:Generated_Source\PSoC4/Bluetooth.c **** #if(CYBLE_GAP_ROLE_CENTRAL || CYBLE_GAP_ROLE_OBSERVER)
 121:Generated_Source\PSoC4/Bluetooth.c ****     
 122:Generated_Source\PSoC4/Bluetooth.c **** 
 123:Generated_Source\PSoC4/Bluetooth.c ****     
 124:Generated_Source\PSoC4/Bluetooth.c **** #endif /* CYBLE_GAP_ROLE_CENTRAL || CYBLE_GAP_ROLE_OBSERVER */
 125:Generated_Source\PSoC4/Bluetooth.c **** 
 126:Generated_Source\PSoC4/Bluetooth.c **** #if((CYBLE_GAP_ROLE_PERIPHERAL || CYBLE_GAP_ROLE_CENTRAL) && (CYBLE_BONDING_REQUIREMENT == CYBLE_BO
 127:Generated_Source\PSoC4/Bluetooth.c **** 
 128:Generated_Source\PSoC4/Bluetooth.c **** uint8 cyBle_peerBonding;
 129:Generated_Source\PSoC4/Bluetooth.c **** uint8 cyBle_pendingFlashWrite;
 130:Generated_Source\PSoC4/Bluetooth.c ****     
 131:Generated_Source\PSoC4/Bluetooth.c **** #if(CYBLE_GATT_DB_CCCD_COUNT != 0u)
 132:Generated_Source\PSoC4/Bluetooth.c ****     static uint8 cyBle_pendingFlashClearCccdHandle;
 133:Generated_Source\PSoC4/Bluetooth.c **** #endif /* CYBLE_GATT_DB_CCCD_COUNT != 0u */
 134:Generated_Source\PSoC4/Bluetooth.c ****     
 135:Generated_Source\PSoC4/Bluetooth.c **** #endif  /* (CYBLE_BONDING_REQUIREMENT == CYBLE_BONDING_YES) */
 136:Generated_Source\PSoC4/Bluetooth.c **** 
 137:Generated_Source\PSoC4/Bluetooth.c **** CYBLE_CALLBACK_T CyBle_ApplCallback;
 138:Generated_Source\PSoC4/Bluetooth.c **** CYBLE_GAP_BD_ADDR_T cyBle_deviceAddress = {{0x00u, 0x00u, 0x00u, 0x50u, 0xA0u, 0x00u}, 0x00u };
 139:Generated_Source\PSoC4/Bluetooth.c **** CYBLE_GAP_BD_ADDR_T * cyBle_sflashDeviceAddress = CYBLE_SFLASH_DEVICE_ADDRESS_PTR;
 140:Generated_Source\PSoC4/Bluetooth.c **** 
 141:Generated_Source\PSoC4/Bluetooth.c **** 
 142:Generated_Source\PSoC4/Bluetooth.c **** /******************************************************************************
 143:Generated_Source\PSoC4/Bluetooth.c **** * Function Name: CyBle_Init
 144:Generated_Source\PSoC4/Bluetooth.c **** ***************************************************************************//**
 145:Generated_Source\PSoC4/Bluetooth.c **** *
ARM GAS  C:\Windows\TEMP\ccsjdpha.s 			page 4


 146:Generated_Source\PSoC4/Bluetooth.c **** *   Initializes the component with the parameters set in the customizer.
 147:Generated_Source\PSoC4/Bluetooth.c **** * 
 148:Generated_Source\PSoC4/Bluetooth.c **** *  \return
 149:Generated_Source\PSoC4/Bluetooth.c **** *   None
 150:Generated_Source\PSoC4/Bluetooth.c **** * 
 151:Generated_Source\PSoC4/Bluetooth.c **** ******************************************************************************/
 152:Generated_Source\PSoC4/Bluetooth.c **** void CyBle_Init(void)
 153:Generated_Source\PSoC4/Bluetooth.c **** {
 154:Generated_Source\PSoC4/Bluetooth.c ****     cyBle_eventHandlerFlag = 0u;
 155:Generated_Source\PSoC4/Bluetooth.c ****     cyBle_busyStatus = CYBLE_STACK_STATE_FREE;
 156:Generated_Source\PSoC4/Bluetooth.c **** 
 157:Generated_Source\PSoC4/Bluetooth.c ****     #if(CYBLE_GAP_ROLE_PERIPHERAL || CYBLE_GAP_ROLE_BROADCASTER) 
 158:Generated_Source\PSoC4/Bluetooth.c ****         cyBle_advertisingIntervalType = CYBLE_ADVERTISING_FAST; 
 159:Generated_Source\PSoC4/Bluetooth.c ****     #endif /* (CYBLE_GAP_ROLE_PERIPHERAL || CYBLE_GAP_ROLE_BROADCASTER)  */
 160:Generated_Source\PSoC4/Bluetooth.c ****     #if(CYBLE_GAP_ROLE_CENTRAL || CYBLE_GAP_ROLE_OBSERVER)
 161:Generated_Source\PSoC4/Bluetooth.c ****         cyBle_scanningIntervalType = CYBLE_SCANNING_FAST; 
 162:Generated_Source\PSoC4/Bluetooth.c ****     #endif /* (CYBLE_GAP_ROLE_CENTRAL || CYBLE_GAP_ROLE_OBSERVER) */
 163:Generated_Source\PSoC4/Bluetooth.c ****         
 164:Generated_Source\PSoC4/Bluetooth.c ****     /* Init default connection parameters. 
 165:Generated_Source\PSoC4/Bluetooth.c ****        Application may change it before initiating a connection */
 166:Generated_Source\PSoC4/Bluetooth.c ****     #if(CYBLE_GAP_ROLE_CENTRAL)
 167:Generated_Source\PSoC4/Bluetooth.c ****         cyBle_connectionParameters.scanIntv = cyBle_discoveryInfo.scanIntv;
 168:Generated_Source\PSoC4/Bluetooth.c ****         cyBle_connectionParameters.scanWindow = cyBle_discoveryInfo.scanWindow;
 169:Generated_Source\PSoC4/Bluetooth.c ****         cyBle_connectionParameters.ownAddrType = cyBle_discoveryInfo.ownAddrType;
 170:Generated_Source\PSoC4/Bluetooth.c ****         cyBle_connectionParameters.initiatorFilterPolicy = cyBle_discoveryInfo.scanFilterPolicy;
 171:Generated_Source\PSoC4/Bluetooth.c ****         cyBle_connectionParameters.connIntvMin = CYBLE_GAPC_CONNECTION_INTERVAL_MIN;
 172:Generated_Source\PSoC4/Bluetooth.c ****         cyBle_connectionParameters.connIntvMax = CYBLE_GAPC_CONNECTION_INTERVAL_MAX;
 173:Generated_Source\PSoC4/Bluetooth.c ****         cyBle_connectionParameters.connLatency = CYBLE_GAPC_CONNECTION_SLAVE_LATENCY;
 174:Generated_Source\PSoC4/Bluetooth.c ****         cyBle_connectionParameters.supervisionTO = CYBLE_GAPC_CONNECTION_TIME_OUT;
 175:Generated_Source\PSoC4/Bluetooth.c ****         cyBle_connectionParameters.minCeLength = 0x0000u;
 176:Generated_Source\PSoC4/Bluetooth.c ****         cyBle_connectionParameters.maxCeLength = 0xFFFFu;
 177:Generated_Source\PSoC4/Bluetooth.c ****         
 178:Generated_Source\PSoC4/Bluetooth.c ****         cyBle_connectingTimeout = CYBLE_GAPC_CONNECTING_TIMEOUT;
 179:Generated_Source\PSoC4/Bluetooth.c ****     #endif /* CYBLE_GAP_ROLE_CENTRAL */
 180:Generated_Source\PSoC4/Bluetooth.c **** 
 181:Generated_Source\PSoC4/Bluetooth.c ****     CyBle_ServiceInit();
 182:Generated_Source\PSoC4/Bluetooth.c **** 
 183:Generated_Source\PSoC4/Bluetooth.c ****     #if((CYBLE_GAP_ROLE_PERIPHERAL || CYBLE_GAP_ROLE_CENTRAL) && (CYBLE_BONDING_REQUIREMENT == CYBL
 184:Generated_Source\PSoC4/Bluetooth.c ****         cyBle_pendingFlashWrite = 0u;
 185:Generated_Source\PSoC4/Bluetooth.c ****         cyBle_peerBonding = CYBLE_GAP_BONDING_NONE;
 186:Generated_Source\PSoC4/Bluetooth.c ****     #endif  /* (CYBLE_BONDING_REQUIREMENT == CYBLE_BONDING_YES) */
 187:Generated_Source\PSoC4/Bluetooth.c **** 
 188:Generated_Source\PSoC4/Bluetooth.c **** }
 189:Generated_Source\PSoC4/Bluetooth.c **** 
 190:Generated_Source\PSoC4/Bluetooth.c **** 
 191:Generated_Source\PSoC4/Bluetooth.c **** /******************************************************************************
 192:Generated_Source\PSoC4/Bluetooth.c **** * Function Name: CyBle_ServiceInit
 193:Generated_Source\PSoC4/Bluetooth.c **** ***************************************************************************//**
 194:Generated_Source\PSoC4/Bluetooth.c **** * 
 195:Generated_Source\PSoC4/Bluetooth.c **** *  Initializes all included services.
 196:Generated_Source\PSoC4/Bluetooth.c **** * 
 197:Generated_Source\PSoC4/Bluetooth.c **** * \return
 198:Generated_Source\PSoC4/Bluetooth.c **** *  None
 199:Generated_Source\PSoC4/Bluetooth.c **** * 
 200:Generated_Source\PSoC4/Bluetooth.c **** ******************************************************************************/
 201:Generated_Source\PSoC4/Bluetooth.c **** void CyBle_ServiceInit(void)
 202:Generated_Source\PSoC4/Bluetooth.c **** {
ARM GAS  C:\Windows\TEMP\ccsjdpha.s 			page 5


 203:Generated_Source\PSoC4/Bluetooth.c ****     #if(CYBLE_GATT_ROLE_CLIENT)
 204:Generated_Source\PSoC4/Bluetooth.c ****         /* Check service range before clearing to support partial discovery */
 205:Generated_Source\PSoC4/Bluetooth.c ****         if(cyBle_serverInfo[CYBLE_SRVI_GAP].range.startHandle == CYBLE_GATT_INVALID_ATTR_HANDLE_VAL
 206:Generated_Source\PSoC4/Bluetooth.c ****         {
 207:Generated_Source\PSoC4/Bluetooth.c ****             (void)memset(&cyBle_gapc, 0, sizeof(cyBle_gapc));
 208:Generated_Source\PSoC4/Bluetooth.c ****         }
 209:Generated_Source\PSoC4/Bluetooth.c ****         if(cyBle_serverInfo[CYBLE_SRVI_GATT].range.startHandle == CYBLE_GATT_INVALID_ATTR_HANDLE_VA
 210:Generated_Source\PSoC4/Bluetooth.c ****         {
 211:Generated_Source\PSoC4/Bluetooth.c ****             (void)memset(&cyBle_gattc, 0, sizeof(cyBle_gattc));
 212:Generated_Source\PSoC4/Bluetooth.c ****         }
 213:Generated_Source\PSoC4/Bluetooth.c ****     #endif /* CYBLE_GATT_ROLE_CLIENT */
 214:Generated_Source\PSoC4/Bluetooth.c **** 
 215:Generated_Source\PSoC4/Bluetooth.c ****    	#ifdef CYBLE_AIOS
 216:Generated_Source\PSoC4/Bluetooth.c ****         CyBle_AiosInit();
 217:Generated_Source\PSoC4/Bluetooth.c ****     #endif /* CYBLE_AIOS */
 218:Generated_Source\PSoC4/Bluetooth.c **** 
 219:Generated_Source\PSoC4/Bluetooth.c **** 	#ifdef CYBLE_ANCS
 220:Generated_Source\PSoC4/Bluetooth.c ****         CyBle_AncsInit();
 221:Generated_Source\PSoC4/Bluetooth.c ****     #endif /* CYBLE_ANCS */
 222:Generated_Source\PSoC4/Bluetooth.c **** 	
 223:Generated_Source\PSoC4/Bluetooth.c ****     #ifdef CYBLE_ANS
 224:Generated_Source\PSoC4/Bluetooth.c ****         CyBle_AnsInit();
 225:Generated_Source\PSoC4/Bluetooth.c ****     #endif /* CYBLE_ANS */
 226:Generated_Source\PSoC4/Bluetooth.c ****     
 227:Generated_Source\PSoC4/Bluetooth.c ****     #ifdef CYBLE_BAS
 228:Generated_Source\PSoC4/Bluetooth.c ****         CyBle_BasInit();
 229:Generated_Source\PSoC4/Bluetooth.c ****     #endif /* CYBLE_BAS */
 230:Generated_Source\PSoC4/Bluetooth.c ****     
 231:Generated_Source\PSoC4/Bluetooth.c ****     #ifdef CYBLE_BCS
 232:Generated_Source\PSoC4/Bluetooth.c ****         CyBle_BcsInit();
 233:Generated_Source\PSoC4/Bluetooth.c ****     #endif /* CYBLE_BCS */
 234:Generated_Source\PSoC4/Bluetooth.c **** 
 235:Generated_Source\PSoC4/Bluetooth.c ****     #ifdef CYBLE_BLS
 236:Generated_Source\PSoC4/Bluetooth.c ****         CyBle_BlsInit();
 237:Generated_Source\PSoC4/Bluetooth.c ****     #endif /* CYBLE_BLS */
 238:Generated_Source\PSoC4/Bluetooth.c ****     
 239:Generated_Source\PSoC4/Bluetooth.c ****     #ifdef CYBLE_BMS
 240:Generated_Source\PSoC4/Bluetooth.c ****         CyBle_BmsInit();
 241:Generated_Source\PSoC4/Bluetooth.c ****     #endif /* CYBLE_BMS */
 242:Generated_Source\PSoC4/Bluetooth.c ****     
 243:Generated_Source\PSoC4/Bluetooth.c ****     #ifdef CYBLE_CGMS
 244:Generated_Source\PSoC4/Bluetooth.c ****         CyBle_CgmsInit();
 245:Generated_Source\PSoC4/Bluetooth.c ****     #endif /* CYBLE_CGMS */
 246:Generated_Source\PSoC4/Bluetooth.c **** 
 247:Generated_Source\PSoC4/Bluetooth.c ****     #ifdef CYBLE_CPS
 248:Generated_Source\PSoC4/Bluetooth.c ****         CyBle_CpsInit();
 249:Generated_Source\PSoC4/Bluetooth.c ****     #endif /* CYBLE_CPS */
 250:Generated_Source\PSoC4/Bluetooth.c **** 
 251:Generated_Source\PSoC4/Bluetooth.c ****     #ifdef CYBLE_CSCS
 252:Generated_Source\PSoC4/Bluetooth.c ****         CyBle_CscsInit();
 253:Generated_Source\PSoC4/Bluetooth.c ****     #endif /* CYBLE_CSCS */
 254:Generated_Source\PSoC4/Bluetooth.c ****     
 255:Generated_Source\PSoC4/Bluetooth.c ****     #ifdef CYBLE_CTS
 256:Generated_Source\PSoC4/Bluetooth.c ****         CyBle_CtsInit();
 257:Generated_Source\PSoC4/Bluetooth.c ****     #endif /* CYBLE_CTS */
 258:Generated_Source\PSoC4/Bluetooth.c **** 
 259:Generated_Source\PSoC4/Bluetooth.c ****     #ifdef CYBLE_CUSTOM
ARM GAS  C:\Windows\TEMP\ccsjdpha.s 			page 6


 260:Generated_Source\PSoC4/Bluetooth.c ****         CyBle_CustomInit();
 261:Generated_Source\PSoC4/Bluetooth.c ****     #endif /* CYBLE_CUSTOM */
 262:Generated_Source\PSoC4/Bluetooth.c **** 
 263:Generated_Source\PSoC4/Bluetooth.c ****     #ifdef CYBLE_DIS
 264:Generated_Source\PSoC4/Bluetooth.c ****         CyBle_DisInit();
 265:Generated_Source\PSoC4/Bluetooth.c ****     #endif /* CYBLE_DIS */
 266:Generated_Source\PSoC4/Bluetooth.c **** 
 267:Generated_Source\PSoC4/Bluetooth.c ****     #ifdef CYBLE_ESS
 268:Generated_Source\PSoC4/Bluetooth.c ****         CyBle_EssInit();
 269:Generated_Source\PSoC4/Bluetooth.c ****     #endif /* CYBLE_ESS */
 270:Generated_Source\PSoC4/Bluetooth.c ****     
 271:Generated_Source\PSoC4/Bluetooth.c ****     #ifdef CYBLE_GLS
 272:Generated_Source\PSoC4/Bluetooth.c ****         CyBle_GlsInit();
 273:Generated_Source\PSoC4/Bluetooth.c ****     #endif /* CYBLE_GLS */
 274:Generated_Source\PSoC4/Bluetooth.c ****     
 275:Generated_Source\PSoC4/Bluetooth.c ****     #ifdef CYBLE_HIDS
 276:Generated_Source\PSoC4/Bluetooth.c ****         CyBle_HidsInit();
 277:Generated_Source\PSoC4/Bluetooth.c ****     #endif /* CYBLE_HIDS */
 278:Generated_Source\PSoC4/Bluetooth.c **** 
 279:Generated_Source\PSoC4/Bluetooth.c ****     #ifdef CYBLE_HPS
 280:Generated_Source\PSoC4/Bluetooth.c ****         CyBle_HpsInit();
 281:Generated_Source\PSoC4/Bluetooth.c ****     #endif /* CYBLE_HPS */
 282:Generated_Source\PSoC4/Bluetooth.c **** 
 283:Generated_Source\PSoC4/Bluetooth.c ****     #ifdef CYBLE_HRS
 284:Generated_Source\PSoC4/Bluetooth.c ****         CyBle_HrsInit();
 285:Generated_Source\PSoC4/Bluetooth.c ****     #endif /* CYBLE_HRS */
 286:Generated_Source\PSoC4/Bluetooth.c ****     
 287:Generated_Source\PSoC4/Bluetooth.c ****     #ifdef CYBLE_HTS
 288:Generated_Source\PSoC4/Bluetooth.c ****         CyBle_HtsInit();
 289:Generated_Source\PSoC4/Bluetooth.c ****     #endif /* CYBLE_RSCS */
 290:Generated_Source\PSoC4/Bluetooth.c **** 
 291:Generated_Source\PSoC4/Bluetooth.c ****     #ifdef CYBLE_IAS
 292:Generated_Source\PSoC4/Bluetooth.c ****         CyBle_IasInit();
 293:Generated_Source\PSoC4/Bluetooth.c ****     #endif /* CYBLE_IAS */
 294:Generated_Source\PSoC4/Bluetooth.c **** 
 295:Generated_Source\PSoC4/Bluetooth.c ****     #ifdef CYBLE_IPS
 296:Generated_Source\PSoC4/Bluetooth.c ****         CyBle_IpsInit();
 297:Generated_Source\PSoC4/Bluetooth.c ****     #endif /* CYBLE_IPS */
 298:Generated_Source\PSoC4/Bluetooth.c ****     
 299:Generated_Source\PSoC4/Bluetooth.c ****     #ifdef CYBLE_LLS
 300:Generated_Source\PSoC4/Bluetooth.c ****         CyBle_LlsInit();
 301:Generated_Source\PSoC4/Bluetooth.c ****     #endif /* CYBLE_LLS */
 302:Generated_Source\PSoC4/Bluetooth.c **** 
 303:Generated_Source\PSoC4/Bluetooth.c ****     #ifdef CYBLE_LNS
 304:Generated_Source\PSoC4/Bluetooth.c ****         CyBle_LnsInit();
 305:Generated_Source\PSoC4/Bluetooth.c ****     #endif /* CYBLE_LNS */
 306:Generated_Source\PSoC4/Bluetooth.c ****     
 307:Generated_Source\PSoC4/Bluetooth.c ****     #ifdef CYBLE_NDCS
 308:Generated_Source\PSoC4/Bluetooth.c ****         CyBle_NdcsInit();
 309:Generated_Source\PSoC4/Bluetooth.c ****     #endif /* CYBLE_NDCS */
 310:Generated_Source\PSoC4/Bluetooth.c ****     
 311:Generated_Source\PSoC4/Bluetooth.c ****     #ifdef CYBLE_OTS
 312:Generated_Source\PSoC4/Bluetooth.c ****         CyBle_OtsInit();
 313:Generated_Source\PSoC4/Bluetooth.c ****     #endif /* CYBLE_OTS */
 314:Generated_Source\PSoC4/Bluetooth.c ****         
 315:Generated_Source\PSoC4/Bluetooth.c ****     #ifdef CYBLE_PASS
 316:Generated_Source\PSoC4/Bluetooth.c ****         CyBle_PassInit();
ARM GAS  C:\Windows\TEMP\ccsjdpha.s 			page 7


 317:Generated_Source\PSoC4/Bluetooth.c ****     #endif /* CYBLE_PASS */
 318:Generated_Source\PSoC4/Bluetooth.c ****     
 319:Generated_Source\PSoC4/Bluetooth.c ****     #ifdef CYBLE_PLXS
 320:Generated_Source\PSoC4/Bluetooth.c ****         CyBle_PlxsInit();
 321:Generated_Source\PSoC4/Bluetooth.c ****     #endif /* CYBLE_PLXS */
 322:Generated_Source\PSoC4/Bluetooth.c ****     
 323:Generated_Source\PSoC4/Bluetooth.c ****     #ifdef CYBLE_RSCS
 324:Generated_Source\PSoC4/Bluetooth.c ****         CyBle_RscsInit();
 325:Generated_Source\PSoC4/Bluetooth.c ****     #endif /* CYBLE_RSCS */
 326:Generated_Source\PSoC4/Bluetooth.c **** 
 327:Generated_Source\PSoC4/Bluetooth.c ****     #ifdef CYBLE_RTUS
 328:Generated_Source\PSoC4/Bluetooth.c ****         CyBle_RtusInit();
 329:Generated_Source\PSoC4/Bluetooth.c ****     #endif /* CYBLE_RTUS */
 330:Generated_Source\PSoC4/Bluetooth.c **** 
 331:Generated_Source\PSoC4/Bluetooth.c ****     #ifdef CYBLE_SCPS
 332:Generated_Source\PSoC4/Bluetooth.c ****         CyBle_ScpsInit();
 333:Generated_Source\PSoC4/Bluetooth.c ****     #endif /* CYBLE_SCPS */
 334:Generated_Source\PSoC4/Bluetooth.c ****     
 335:Generated_Source\PSoC4/Bluetooth.c ****     #ifdef CYBLE_TPS
 336:Generated_Source\PSoC4/Bluetooth.c ****         CyBle_TpsInit();
 337:Generated_Source\PSoC4/Bluetooth.c ****     #endif /* CYBLE_TPS */
 338:Generated_Source\PSoC4/Bluetooth.c ****     
 339:Generated_Source\PSoC4/Bluetooth.c ****     #ifdef CYBLE_UDS
 340:Generated_Source\PSoC4/Bluetooth.c ****         CyBle_UdsInit();
 341:Generated_Source\PSoC4/Bluetooth.c ****     #endif /* CYBLE_UDS */
 342:Generated_Source\PSoC4/Bluetooth.c **** 
 343:Generated_Source\PSoC4/Bluetooth.c ****     #ifdef CYBLE_WPTS
 344:Generated_Source\PSoC4/Bluetooth.c ****         CyBle_WptsInit();
 345:Generated_Source\PSoC4/Bluetooth.c ****     #endif /* CYBLE_WPTS */
 346:Generated_Source\PSoC4/Bluetooth.c **** 
 347:Generated_Source\PSoC4/Bluetooth.c ****     #ifdef CYBLE_WSS
 348:Generated_Source\PSoC4/Bluetooth.c ****         CyBle_WssInit();
 349:Generated_Source\PSoC4/Bluetooth.c ****     #endif /* CYBLE_WSS */
 350:Generated_Source\PSoC4/Bluetooth.c **** }
 351:Generated_Source\PSoC4/Bluetooth.c **** 
 352:Generated_Source\PSoC4/Bluetooth.c **** 
 353:Generated_Source\PSoC4/Bluetooth.c **** /******************************************************************************
 354:Generated_Source\PSoC4/Bluetooth.c **** * Function Name: CyBle_Start
 355:Generated_Source\PSoC4/Bluetooth.c **** ***************************************************************************//**
 356:Generated_Source\PSoC4/Bluetooth.c **** * 
 357:Generated_Source\PSoC4/Bluetooth.c **** *  This function initializes the BLE Stack, which consists of the BLE Stack 
 358:Generated_Source\PSoC4/Bluetooth.c **** *  Manager, BLE Controller, and BLE Host modules. It takes care of initializing
 359:Generated_Source\PSoC4/Bluetooth.c **** *  the Profile layer, schedulers, Timer and other platform related
 360:Generated_Source\PSoC4/Bluetooth.c **** *  resources required for the BLE component. It also registers the callback 
 361:Generated_Source\PSoC4/Bluetooth.c **** *  function for BLE events that will be registered in the BLE stack.
 362:Generated_Source\PSoC4/Bluetooth.c **** * 
 363:Generated_Source\PSoC4/Bluetooth.c **** *  Note that this function does not reset the BLE Stack.
 364:Generated_Source\PSoC4/Bluetooth.c **** * 
 365:Generated_Source\PSoC4/Bluetooth.c **** *  For HCI-Mode of operation, this function will not initialize the BLE Host 
 366:Generated_Source\PSoC4/Bluetooth.c **** *  module.
 367:Generated_Source\PSoC4/Bluetooth.c **** * 
 368:Generated_Source\PSoC4/Bluetooth.c **** *  Calling this function results in the generation of CYBLE_EVT_STACK_ON event
 369:Generated_Source\PSoC4/Bluetooth.c **** *  on successful initialization of the BLE Stack.
 370:Generated_Source\PSoC4/Bluetooth.c **** * 
 371:Generated_Source\PSoC4/Bluetooth.c **** *  \param callbackFunc: Event callback function to receive events from BLE stack.
 372:Generated_Source\PSoC4/Bluetooth.c **** *   CYBLE_CALLBACK_T is a function pointer type.
 373:Generated_Source\PSoC4/Bluetooth.c **** * 
ARM GAS  C:\Windows\TEMP\ccsjdpha.s 			page 8


 374:Generated_Source\PSoC4/Bluetooth.c **** * \return
 375:Generated_Source\PSoC4/Bluetooth.c **** *  CYBLE_API_RESULT_T : Return value indicates if the function succeeded or 
 376:Generated_Source\PSoC4/Bluetooth.c **** *  failed. Following are the possible error codes.
 377:Generated_Source\PSoC4/Bluetooth.c **** * 
 378:Generated_Source\PSoC4/Bluetooth.c **** *   <table>
 379:Generated_Source\PSoC4/Bluetooth.c **** *  	  <tr>
 380:Generated_Source\PSoC4/Bluetooth.c **** *       <th>Error codes</th>
 381:Generated_Source\PSoC4/Bluetooth.c **** *       <th>Description</th>
 382:Generated_Source\PSoC4/Bluetooth.c **** *     </tr>
 383:Generated_Source\PSoC4/Bluetooth.c **** *     <tr>
 384:Generated_Source\PSoC4/Bluetooth.c **** *       <td>CYBLE_ERROR_OK</td>
 385:Generated_Source\PSoC4/Bluetooth.c **** *       <td>On successful operation.</td>
 386:Generated_Source\PSoC4/Bluetooth.c **** *     </tr>
 387:Generated_Source\PSoC4/Bluetooth.c **** *     <tr>
 388:Generated_Source\PSoC4/Bluetooth.c **** *       <td>CYBLE_ERROR_INVALID_PARAMETER</td>
 389:Generated_Source\PSoC4/Bluetooth.c **** *       <td>On passing a NULL pointer to the function. 
 390:Generated_Source\PSoC4/Bluetooth.c **** *		</td>
 391:Generated_Source\PSoC4/Bluetooth.c **** *     </tr>
 392:Generated_Source\PSoC4/Bluetooth.c **** *     <tr>
 393:Generated_Source\PSoC4/Bluetooth.c **** *       <td>CYBLE_ERROR_REPEATED_ATTEMPTS</td>
 394:Generated_Source\PSoC4/Bluetooth.c **** *       <td>On invoking this function more than once without calling CyBle_Shutdown() 
 395:Generated_Source\PSoC4/Bluetooth.c **** *           function between calls to this function.</td>
 396:Generated_Source\PSoC4/Bluetooth.c **** *     </tr>
 397:Generated_Source\PSoC4/Bluetooth.c **** *     <tr>
 398:Generated_Source\PSoC4/Bluetooth.c **** *       <td>CYBLE_ERROR_MEMORY_ALLOCATION_FAILED</td>
 399:Generated_Source\PSoC4/Bluetooth.c **** *       <td>There is insufficient memory available.</td>
 400:Generated_Source\PSoC4/Bluetooth.c **** *     </tr>
 401:Generated_Source\PSoC4/Bluetooth.c **** *   </table>
 402:Generated_Source\PSoC4/Bluetooth.c **** * 
 403:Generated_Source\PSoC4/Bluetooth.c **** *  \globalvars
 404:Generated_Source\PSoC4/Bluetooth.c **** *   The CyBle_initVar variable is used to indicate initial
 405:Generated_Source\PSoC4/Bluetooth.c **** *   configuration of this component. The variable is initialized to zero (0u)
 406:Generated_Source\PSoC4/Bluetooth.c **** *   and set to one (1u) the first time CyBle_Start() is called. This
 407:Generated_Source\PSoC4/Bluetooth.c **** *   allows for component initialization without re-initialization in all
 408:Generated_Source\PSoC4/Bluetooth.c **** *   subsequent calls to the CyBle_Start() routine.
 409:Generated_Source\PSoC4/Bluetooth.c **** * 
 410:Generated_Source\PSoC4/Bluetooth.c **** ******************************************************************************/
 411:Generated_Source\PSoC4/Bluetooth.c **** CYBLE_API_RESULT_T CyBle_Start(CYBLE_CALLBACK_T callbackFunc)
 412:Generated_Source\PSoC4/Bluetooth.c **** {
 413:Generated_Source\PSoC4/Bluetooth.c ****     CYBLE_API_RESULT_T apiResult = CYBLE_ERROR_OK;
 414:Generated_Source\PSoC4/Bluetooth.c ****     
 415:Generated_Source\PSoC4/Bluetooth.c ****     #if(CYBLE_MODE_PROFILE)
 416:Generated_Source\PSoC4/Bluetooth.c ****     
 417:Generated_Source\PSoC4/Bluetooth.c ****     CYBLE_STK_APP_DATA_BUFF_T cyBle_stackDataBuff[CYBLE_STACK_APP_MIN_POOL] = 
 418:Generated_Source\PSoC4/Bluetooth.c ****     {
 419:Generated_Source\PSoC4/Bluetooth.c ****         {CYBLE_GATT_MTU_PLUS_L2CAP_MEM_EXT, CYBLE_GATT_MTU_BUFF_COUNT + CYBLE_GATT_MAX_ATTR_BUFF_CO
 420:Generated_Source\PSoC4/Bluetooth.c ****         {CYBLE_L2CAP_PSM_PLUS_L2CAP_MEM_EXT, CYBLE_L2CAP_PSM_COUNT},
 421:Generated_Source\PSoC4/Bluetooth.c ****         {CYBLE_L2CAP_CBFC_PLUS_L2CAP_MEM_EXT, 2u * CYBLE_L2CAP_LOGICAL_CHANNEL_COUNT},
 422:Generated_Source\PSoC4/Bluetooth.c ****         {CYBLE_L2CAP_MTU_PLUS_L2CAP_MEM_EXT, CYBLE_L2CAP_LOGICAL_CHANNEL_COUNT},
 423:Generated_Source\PSoC4/Bluetooth.c ****         {CYBLE_L2CAP_MPS_PLUS_L2CAP_MEM_EXT, CYBLE_L2CAP_LOGICAL_CHANNEL_COUNT * (CYBLE_L2CAP_MTU_M
 424:Generated_Source\PSoC4/Bluetooth.c ****     }; 
 425:Generated_Source\PSoC4/Bluetooth.c **** 
 426:Generated_Source\PSoC4/Bluetooth.c ****     #endif /* CYBLE_MODE_PROFILE */
 427:Generated_Source\PSoC4/Bluetooth.c ****     
 428:Generated_Source\PSoC4/Bluetooth.c ****     /* If not initialized then initialize all the required hardware and software */
 429:Generated_Source\PSoC4/Bluetooth.c ****     if(cyBle_initVar == 0u)
 430:Generated_Source\PSoC4/Bluetooth.c ****     {
ARM GAS  C:\Windows\TEMP\ccsjdpha.s 			page 9


 431:Generated_Source\PSoC4/Bluetooth.c ****         CyBle_Init();
 432:Generated_Source\PSoC4/Bluetooth.c ****         cyBle_initVar = 1u;
 433:Generated_Source\PSoC4/Bluetooth.c ****     }
 434:Generated_Source\PSoC4/Bluetooth.c ****     
 435:Generated_Source\PSoC4/Bluetooth.c ****     if(callbackFunc != NULL)
 436:Generated_Source\PSoC4/Bluetooth.c ****     {
 437:Generated_Source\PSoC4/Bluetooth.c ****         CyBle_ApplCallback = callbackFunc;
 438:Generated_Source\PSoC4/Bluetooth.c ****         
 439:Generated_Source\PSoC4/Bluetooth.c ****     #if(CYBLE_SHARING_MODE_EXPORT)
 440:Generated_Source\PSoC4/Bluetooth.c ****         if(cyBle_stackMemoryRam == NULL)
 441:Generated_Source\PSoC4/Bluetooth.c ****         {
 442:Generated_Source\PSoC4/Bluetooth.c ****             cyBle_stackMemoryRam = (uint8 *)malloc(CYBLE_STACK_RAM_SIZE);
 443:Generated_Source\PSoC4/Bluetooth.c ****             if(cyBle_stackMemoryRam == NULL)
 444:Generated_Source\PSoC4/Bluetooth.c ****             {
 445:Generated_Source\PSoC4/Bluetooth.c ****                 apiResult = CYBLE_ERROR_MEMORY_ALLOCATION_FAILED;
 446:Generated_Source\PSoC4/Bluetooth.c ****             }
 447:Generated_Source\PSoC4/Bluetooth.c ****         }
 448:Generated_Source\PSoC4/Bluetooth.c ****     #endif /* CYBLE_SHARING_MODE_EXPORT */
 449:Generated_Source\PSoC4/Bluetooth.c ****         if(apiResult == CYBLE_ERROR_OK)
 450:Generated_Source\PSoC4/Bluetooth.c ****         {
 451:Generated_Source\PSoC4/Bluetooth.c ****             CYBLE_DLE_CONFIG_PARAM_T dleConfigParams;
 452:Generated_Source\PSoC4/Bluetooth.c ****             CYBLE_PRIVACY_1_2_CONFIG_PARAM_T privacyConfigParams;
 453:Generated_Source\PSoC4/Bluetooth.c ****             CYBLE_STACK_CONFIG_PARAM_T stackConfig;
 454:Generated_Source\PSoC4/Bluetooth.c ****             uint16 featureHeapReq;
 455:Generated_Source\PSoC4/Bluetooth.c ****             
 456:Generated_Source\PSoC4/Bluetooth.c ****             stackConfig.privacyConfig = &privacyConfigParams;
 457:Generated_Source\PSoC4/Bluetooth.c ****             stackConfig.dleConfig = &dleConfigParams;
 458:Generated_Source\PSoC4/Bluetooth.c ****             
 459:Generated_Source\PSoC4/Bluetooth.c ****             /* Configure default BLE 4.1 features and enabled 4.2 features */
 460:Generated_Source\PSoC4/Bluetooth.c ****             stackConfig.feature_mask = CYBLE_DLE_FEATURE | CYBLE_LL_PRIVACY_FEATURE | 
 461:Generated_Source\PSoC4/Bluetooth.c ****                                        CYBLE_SECURE_CONN_FEATURE;
 462:Generated_Source\PSoC4/Bluetooth.c **** 
 463:Generated_Source\PSoC4/Bluetooth.c ****             /* Configure DLE */
 464:Generated_Source\PSoC4/Bluetooth.c ****             dleConfigParams.dleMaxTxCapability = CYBLE_LL_MAX_TX_PAYLOAD_SIZE;
 465:Generated_Source\PSoC4/Bluetooth.c ****             dleConfigParams.dleMaxRxCapability = CYBLE_LL_MAX_RX_PAYLOAD_SIZE;
 466:Generated_Source\PSoC4/Bluetooth.c ****             dleConfigParams.dleNumTxBuffer = CYBLE_LL_DEFAULT_NUM_ACL_TX_PACKETS;
 467:Generated_Source\PSoC4/Bluetooth.c ****         #if(CYBLE_DLE_FEATURE_ENABLED)
 468:Generated_Source\PSoC4/Bluetooth.c ****             CyBle_EnableDleFeature();              /* Enable DLE code in stack */
 469:Generated_Source\PSoC4/Bluetooth.c ****         #endif /* CYBLE_DLE_FEATURE_ENABLED */
 470:Generated_Source\PSoC4/Bluetooth.c ****         
 471:Generated_Source\PSoC4/Bluetooth.c ****             /* Configure LL Privacy */
 472:Generated_Source\PSoC4/Bluetooth.c ****             privacyConfigParams.resolvingListSize = CYBLE_MAX_RESOLVABLE_DEVICES;
 473:Generated_Source\PSoC4/Bluetooth.c ****         #if(CYBLE_LL_PRIVACY_FEATURE_ENABLED)
 474:Generated_Source\PSoC4/Bluetooth.c ****             CyBle_EnablePrivacyFeature();          /* Enable LL Privacy code in stack */
 475:Generated_Source\PSoC4/Bluetooth.c ****         #endif /* CYBLE_LL_PRIVACY_FEATURE_ENABLED */
 476:Generated_Source\PSoC4/Bluetooth.c **** 
 477:Generated_Source\PSoC4/Bluetooth.c ****             apiResult = CyBle_StackSetFeatureConfig(&stackConfig, &featureHeapReq);
 478:Generated_Source\PSoC4/Bluetooth.c ****             }
 479:Generated_Source\PSoC4/Bluetooth.c ****     
 480:Generated_Source\PSoC4/Bluetooth.c ****         if(apiResult == CYBLE_ERROR_OK)
 481:Generated_Source\PSoC4/Bluetooth.c ****         {
 482:Generated_Source\PSoC4/Bluetooth.c ****         
 483:Generated_Source\PSoC4/Bluetooth.c ****         #if(CYBLE_MODE_PROFILE)
 484:Generated_Source\PSoC4/Bluetooth.c ****             #if(CYBLE_BONDING_REQUIREMENT == CYBLE_BONDING_YES)
 485:Generated_Source\PSoC4/Bluetooth.c ****                 apiResult = CyBle_StackInit(&CyBle_EventHandler, cyBle_stackMemoryRam, 
 486:Generated_Source\PSoC4/Bluetooth.c ****                     CYBLE_STACK_RAM_SIZE - CYBLE_GATT_PREPARE_WRITE_BUFF_LEN, cyBle_stackDataBuff, 
 487:Generated_Source\PSoC4/Bluetooth.c ****                     CYBLE_STACK_APP_MIN_POOL, cyBle_flashStorage.stackFlashptr, CYBLE_STACK_FLASH_S
ARM GAS  C:\Windows\TEMP\ccsjdpha.s 			page 10


 488:Generated_Source\PSoC4/Bluetooth.c ****             #else
 489:Generated_Source\PSoC4/Bluetooth.c ****                 apiResult = CyBle_StackInit(&CyBle_EventHandler, cyBle_stackMemoryRam, 
 490:Generated_Source\PSoC4/Bluetooth.c ****                     CYBLE_STACK_RAM_SIZE - CYBLE_GATT_PREPARE_WRITE_BUFF_LEN, cyBle_stackDataBuff, 
 491:Generated_Source\PSoC4/Bluetooth.c ****                     CYBLE_STACK_APP_MIN_POOL, NULL, 0u);
 492:Generated_Source\PSoC4/Bluetooth.c ****             #endif  /* CYBLE_BONDING_REQUIREMENT == CYBLE_BONDING_YES */
 493:Generated_Source\PSoC4/Bluetooth.c ****         #else /* HCI mode */
 494:Generated_Source\PSoC4/Bluetooth.c ****             /* The following will perform preparation to use HCI over UART or over
 495:Generated_Source\PSoC4/Bluetooth.c ****                software. But the following fucntions will not initialize the HCI
 496:Generated_Source\PSoC4/Bluetooth.c ****                Transport. This will be done as part of Stack initialization, so
 497:Generated_Source\PSoC4/Bluetooth.c ****                the functions should be called prior CyBle_StackInit().
 498:Generated_Source\PSoC4/Bluetooth.c ****             */
 499:Generated_Source\PSoC4/Bluetooth.c ****             #if (CYBLE_HCI_TYPE == CYBLE_HCI_OVER_UART)
 500:Generated_Source\PSoC4/Bluetooth.c ****                 CyBle_HciUartTransportEnable();
 501:Generated_Source\PSoC4/Bluetooth.c ****             #else
 502:Generated_Source\PSoC4/Bluetooth.c ****                 CyBle_HciSoftTransportEnable();
 503:Generated_Source\PSoC4/Bluetooth.c ****             #endif /* (CYBLE_HCI_TYPE == CYBLE_HCI_OVER_UART) */
 504:Generated_Source\PSoC4/Bluetooth.c ****             /* This will initialize BLE stack for HCI mode operation */
 505:Generated_Source\PSoC4/Bluetooth.c ****             apiResult = CyBle_StackInit(&CyBle_EventHandler, cyBle_stackMemoryRam, CYBLE_STACK_RAM_
 506:Generated_Source\PSoC4/Bluetooth.c ****                 NULL, 0u, NULL, 0u);
 507:Generated_Source\PSoC4/Bluetooth.c ****         #endif /* CYBLE_MODE_PROFILE */
 508:Generated_Source\PSoC4/Bluetooth.c **** 
 509:Generated_Source\PSoC4/Bluetooth.c ****             if(apiResult == CYBLE_ERROR_OK)
 510:Generated_Source\PSoC4/Bluetooth.c ****             {
 511:Generated_Source\PSoC4/Bluetooth.c ****                 CyBle_SetState(CYBLE_STATE_INITIALIZING);
 512:Generated_Source\PSoC4/Bluetooth.c ****                 
 513:Generated_Source\PSoC4/Bluetooth.c ****             #if (CYBLE_GATT_ROLE_CLIENT)
 514:Generated_Source\PSoC4/Bluetooth.c ****                 CyBle_SetClientState(CYBLE_CLIENT_STATE_DISCONNECTED);
 515:Generated_Source\PSoC4/Bluetooth.c ****             #endif /* CYBLE_GATT_ROLE_CLIENT */
 516:Generated_Source\PSoC4/Bluetooth.c ****                 
 517:Generated_Source\PSoC4/Bluetooth.c ****             #if(CYBLE_GATT_ROLE_SERVER)
 518:Generated_Source\PSoC4/Bluetooth.c ****                 apiResult = CyBle_GattsDbRegister(cyBle_gattDB, CYBLE_GATT_DB_INDEX_COUNT, CYBLE_GA
 519:Generated_Source\PSoC4/Bluetooth.c ****             #endif /* CYBLE_GATT_ROLE_SERVER */
 520:Generated_Source\PSoC4/Bluetooth.c ****             }
 521:Generated_Source\PSoC4/Bluetooth.c ****         }
 522:Generated_Source\PSoC4/Bluetooth.c ****     }
 523:Generated_Source\PSoC4/Bluetooth.c ****     else
 524:Generated_Source\PSoC4/Bluetooth.c ****     {
 525:Generated_Source\PSoC4/Bluetooth.c ****         apiResult = CYBLE_ERROR_INVALID_PARAMETER;
 526:Generated_Source\PSoC4/Bluetooth.c ****     }
 527:Generated_Source\PSoC4/Bluetooth.c **** 
 528:Generated_Source\PSoC4/Bluetooth.c ****     return (apiResult);
 529:Generated_Source\PSoC4/Bluetooth.c **** }
 530:Generated_Source\PSoC4/Bluetooth.c **** 
 531:Generated_Source\PSoC4/Bluetooth.c **** 
 532:Generated_Source\PSoC4/Bluetooth.c **** /******************************************************************************
 533:Generated_Source\PSoC4/Bluetooth.c **** * Function Name: CyBle_Stop
 534:Generated_Source\PSoC4/Bluetooth.c **** ***************************************************************************//**
 535:Generated_Source\PSoC4/Bluetooth.c **** * 
 536:Generated_Source\PSoC4/Bluetooth.c **** *  This function stops any ongoing operation in the BLE Stack and forces the 
 537:Generated_Source\PSoC4/Bluetooth.c **** *  BLE Stack to shut down. The only function that can be called after calling
 538:Generated_Source\PSoC4/Bluetooth.c **** *  this function is CyBle_Start(). 
 539:Generated_Source\PSoC4/Bluetooth.c **** * 
 540:Generated_Source\PSoC4/Bluetooth.c **** * \return
 541:Generated_Source\PSoC4/Bluetooth.c **** *  None
 542:Generated_Source\PSoC4/Bluetooth.c **** * 
 543:Generated_Source\PSoC4/Bluetooth.c **** ******************************************************************************/
 544:Generated_Source\PSoC4/Bluetooth.c **** void CyBle_Stop(void)
ARM GAS  C:\Windows\TEMP\ccsjdpha.s 			page 11


 545:Generated_Source\PSoC4/Bluetooth.c **** {
 546:Generated_Source\PSoC4/Bluetooth.c ****     CyBle_Shutdown();                         /* Stop all ongoing activities */
 547:Generated_Source\PSoC4/Bluetooth.c ****     CyBle_SetState(CYBLE_STATE_STOPPED);
 548:Generated_Source\PSoC4/Bluetooth.c ****     #if(CYBLE_SHARING_MODE_EXPORT)
 549:Generated_Source\PSoC4/Bluetooth.c ****         if(cyBle_stackMemoryRam != NULL)
 550:Generated_Source\PSoC4/Bluetooth.c ****         {
 551:Generated_Source\PSoC4/Bluetooth.c ****             free(cyBle_stackMemoryRam);
 552:Generated_Source\PSoC4/Bluetooth.c ****         }
 553:Generated_Source\PSoC4/Bluetooth.c ****     #endif /* CYBLE_SHARING_MODE_EXPORT */
 554:Generated_Source\PSoC4/Bluetooth.c **** }
 555:Generated_Source\PSoC4/Bluetooth.c **** 
 556:Generated_Source\PSoC4/Bluetooth.c **** 
 557:Generated_Source\PSoC4/Bluetooth.c **** #if((CYBLE_GAP_ROLE_PERIPHERAL || CYBLE_GAP_ROLE_CENTRAL) && (CYBLE_BONDING_REQUIREMENT == CYBLE_BO
 558:Generated_Source\PSoC4/Bluetooth.c **** 
 559:Generated_Source\PSoC4/Bluetooth.c ****     
 560:Generated_Source\PSoC4/Bluetooth.c **** /******************************************************************************
 561:Generated_Source\PSoC4/Bluetooth.c **** * Function Name: CyBle_StoreBondingData
 562:Generated_Source\PSoC4/Bluetooth.c **** ***************************************************************************//**
 563:Generated_Source\PSoC4/Bluetooth.c **** * 
 564:Generated_Source\PSoC4/Bluetooth.c **** *  This function writes the new bonding data from RAM to the dedicated Flash 
 565:Generated_Source\PSoC4/Bluetooth.c **** *  location as defined by the component. It performs data comparing between RAM
 566:Generated_Source\PSoC4/Bluetooth.c **** *  and Flash before writing to Flash. If there is no change between RAM and Flash
 567:Generated_Source\PSoC4/Bluetooth.c **** *  data, then no write is performed. It writes only one flash row in one call.
 568:Generated_Source\PSoC4/Bluetooth.c **** *  Application should keep calling this function till it return CYBLE_ERROR_OK. 
 569:Generated_Source\PSoC4/Bluetooth.c **** *  This function is available only when Bonding requirement is selected in
 570:Generated_Source\PSoC4/Bluetooth.c **** *  Security settings.    
 571:Generated_Source\PSoC4/Bluetooth.c **** * 
 572:Generated_Source\PSoC4/Bluetooth.c **** *  \param isForceWrite:  If value is set to 0, then stack will check if flash write 
 573:Generated_Source\PSoC4/Bluetooth.c **** *                 is permissible. 
 574:Generated_Source\PSoC4/Bluetooth.c **** *  
 575:Generated_Source\PSoC4/Bluetooth.c **** * \return
 576:Generated_Source\PSoC4/Bluetooth.c **** *  Return value is of type CYBLE_API_RESULT_T.
 577:Generated_Source\PSoC4/Bluetooth.c **** *
 578:Generated_Source\PSoC4/Bluetooth.c **** *   Errors codes                         | Description
 579:Generated_Source\PSoC4/Bluetooth.c **** *   ----------------------------------   | ------------------------------------
 580:Generated_Source\PSoC4/Bluetooth.c **** *   CYBLE_ERROR_OK                       | On successful operation
 581:Generated_Source\PSoC4/Bluetooth.c **** *   CYBLE_ERROR_FLASH_WRITE_NOT_PERMITED | Flash Write is not complete
 582:Generated_Source\PSoC4/Bluetooth.c **** *   CYBLE_ERROR_INVALID_PARAMETER        | Invalid input parameter  
 583:Generated_Source\PSoC4/Bluetooth.c **** *   CYBLE_ERROR_FLASH_WRITE              | Error in flash Write	
 584:Generated_Source\PSoC4/Bluetooth.c ****     
 585:Generated_Source\PSoC4/Bluetooth.c **** *  \sideeffect
 586:Generated_Source\PSoC4/Bluetooth.c **** *   For BLE devices with 128K of Flash memory this function will automatically 
 587:Generated_Source\PSoC4/Bluetooth.c **** *   modify the clock settings for the device.
 588:Generated_Source\PSoC4/Bluetooth.c **** *   Writing to flash requires changes to be done to the IMO (set to 48 MHz)
 589:Generated_Source\PSoC4/Bluetooth.c **** *   and HFCLK (source set to IMO) settings. The configuration is restored before
 590:Generated_Source\PSoC4/Bluetooth.c **** *   returning. This will impact the operation of most of the hardware in the
 591:Generated_Source\PSoC4/Bluetooth.c **** *   device.
 592:Generated_Source\PSoC4/Bluetooth.c **** * 
 593:Generated_Source\PSoC4/Bluetooth.c **** *  \globalvars
 594:Generated_Source\PSoC4/Bluetooth.c **** *   The cyBle_pendingFlashWrite variable is used to detect status
 595:Generated_Source\PSoC4/Bluetooth.c **** *   of pending write to flash operation for stack data and CCCD.
 596:Generated_Source\PSoC4/Bluetooth.c **** *   This function automatically clears pending bits after write operation 
 597:Generated_Source\PSoC4/Bluetooth.c **** *   complete.
 598:Generated_Source\PSoC4/Bluetooth.c **** *     
 599:Generated_Source\PSoC4/Bluetooth.c **** ******************************************************************************/
 600:Generated_Source\PSoC4/Bluetooth.c **** CYBLE_API_RESULT_T CyBle_StoreBondingData(uint8 isForceWrite)
 601:Generated_Source\PSoC4/Bluetooth.c **** {
ARM GAS  C:\Windows\TEMP\ccsjdpha.s 			page 12


 602:Generated_Source\PSoC4/Bluetooth.c ****     CYBLE_API_RESULT_T apiResult = CYBLE_ERROR_OK;
 603:Generated_Source\PSoC4/Bluetooth.c ****     
 604:Generated_Source\PSoC4/Bluetooth.c ****     /* Store Stack data */
 605:Generated_Source\PSoC4/Bluetooth.c ****     if((cyBle_pendingFlashWrite & CYBLE_PENDING_STACK_FLASH_WRITE_BIT) != 0u)
 606:Generated_Source\PSoC4/Bluetooth.c ****     {
 607:Generated_Source\PSoC4/Bluetooth.c ****         apiResult = CyBle_StoreStackData(isForceWrite);
 608:Generated_Source\PSoC4/Bluetooth.c ****         if(apiResult == CYBLE_ERROR_OK)
 609:Generated_Source\PSoC4/Bluetooth.c ****         {
 610:Generated_Source\PSoC4/Bluetooth.c ****             cyBle_pendingFlashWrite &= (uint8)~CYBLE_PENDING_STACK_FLASH_WRITE_BIT;
 611:Generated_Source\PSoC4/Bluetooth.c ****             /* Change apiResult if there are more pending data to store */
 612:Generated_Source\PSoC4/Bluetooth.c ****             if((cyBle_pendingFlashWrite & CYBLE_PENDING_CCCD_FLASH_WRITE_BIT) != 0u)
 613:Generated_Source\PSoC4/Bluetooth.c ****             {
 614:Generated_Source\PSoC4/Bluetooth.c ****                 apiResult = CYBLE_ERROR_FLASH_WRITE_NOT_PERMITED;
 615:Generated_Source\PSoC4/Bluetooth.c ****             }
 616:Generated_Source\PSoC4/Bluetooth.c ****         }
 617:Generated_Source\PSoC4/Bluetooth.c ****     }
 618:Generated_Source\PSoC4/Bluetooth.c **** #if(CYBLE_GATT_DB_CCCD_COUNT != 0u)
 619:Generated_Source\PSoC4/Bluetooth.c ****     /* Store CCCD values */
 620:Generated_Source\PSoC4/Bluetooth.c ****     if( ((apiResult == CYBLE_ERROR_OK) || (isForceWrite != 0u)) && 
 621:Generated_Source\PSoC4/Bluetooth.c ****         ((cyBle_pendingFlashWrite & CYBLE_PENDING_CCCD_FLASH_WRITE_BIT) != 0u) &&
 622:Generated_Source\PSoC4/Bluetooth.c ****         (cyBle_connHandle.bdHandle <= CYBLE_GAP_MAX_BONDED_DEVICE))
 623:Generated_Source\PSoC4/Bluetooth.c ****     {
 624:Generated_Source\PSoC4/Bluetooth.c ****         apiResult = CyBle_StoreAppData(cyBle_attValuesCCCD, cyBle_flashStorage.attValuesCCCDFlashMe
 625:Generated_Source\PSoC4/Bluetooth.c ****                         cyBle_connHandle.bdHandle], CYBLE_GATT_DB_CCCD_COUNT, isForceWrite);
 626:Generated_Source\PSoC4/Bluetooth.c ****         if(apiResult == CYBLE_ERROR_OK)
 627:Generated_Source\PSoC4/Bluetooth.c ****         {
 628:Generated_Source\PSoC4/Bluetooth.c ****             cyBle_pendingFlashWrite &= (uint8)~CYBLE_PENDING_CCCD_FLASH_WRITE_BIT;
 629:Generated_Source\PSoC4/Bluetooth.c ****         }
 630:Generated_Source\PSoC4/Bluetooth.c ****     }
 631:Generated_Source\PSoC4/Bluetooth.c ****     /* Clear requested CCCD values */
 632:Generated_Source\PSoC4/Bluetooth.c ****     if( ((apiResult == CYBLE_ERROR_OK) || (isForceWrite != 0u)) && 
 633:Generated_Source\PSoC4/Bluetooth.c ****         ((cyBle_pendingFlashWrite & CYBLE_PENDING_CCCD_FLASH_CLEAR_MASK) != 0u) )
 634:Generated_Source\PSoC4/Bluetooth.c ****     {
 635:Generated_Source\PSoC4/Bluetooth.c ****         if((cyBle_pendingFlashWrite & CYBLE_PENDING_CCCD_FLASH_CLEAR_ALL_BIT) != 0u)
 636:Generated_Source\PSoC4/Bluetooth.c ****         {
 637:Generated_Source\PSoC4/Bluetooth.c ****             /* Remove cccd values for all bonded devices */
 638:Generated_Source\PSoC4/Bluetooth.c ****             uint8 defaultValuesCCCD[CYBLE_GAP_MAX_BONDED_DEVICE + 1u][CYBLE_GATT_DB_CCCD_COUNT];
 639:Generated_Source\PSoC4/Bluetooth.c ****             
 640:Generated_Source\PSoC4/Bluetooth.c ****             (void)memset(defaultValuesCCCD, 0, sizeof(defaultValuesCCCD));
 641:Generated_Source\PSoC4/Bluetooth.c **** 
 642:Generated_Source\PSoC4/Bluetooth.c ****             apiResult = CyBle_StoreAppData((uint8 *)defaultValuesCCCD, 
 643:Generated_Source\PSoC4/Bluetooth.c ****                 (const uint8 *)cyBle_flashStorage.attValuesCCCDFlashMemory, sizeof(defaultValuesCCC
 644:Generated_Source\PSoC4/Bluetooth.c ****             if(apiResult == CYBLE_ERROR_OK)
 645:Generated_Source\PSoC4/Bluetooth.c ****             {
 646:Generated_Source\PSoC4/Bluetooth.c ****                 cyBle_pendingFlashWrite &= (uint8)~CYBLE_PENDING_CCCD_FLASH_CLEAR_ALL_BIT;
 647:Generated_Source\PSoC4/Bluetooth.c ****             }
 648:Generated_Source\PSoC4/Bluetooth.c ****         }
 649:Generated_Source\PSoC4/Bluetooth.c ****         else /* Remove cccd values for particular device */
 650:Generated_Source\PSoC4/Bluetooth.c ****         {
 651:Generated_Source\PSoC4/Bluetooth.c ****             uint8 defaultValuesCCCD[CYBLE_GATT_DB_CCCD_COUNT] = {0u};
 652:Generated_Source\PSoC4/Bluetooth.c ****             
 653:Generated_Source\PSoC4/Bluetooth.c ****             apiResult = CyBle_StoreAppData(defaultValuesCCCD, cyBle_flashStorage.attValuesCCCDFlash
 654:Generated_Source\PSoC4/Bluetooth.c ****                                     cyBle_pendingFlashClearCccdHandle], CYBLE_GATT_DB_CCCD_COUNT, i
 655:Generated_Source\PSoC4/Bluetooth.c ****             if(apiResult == CYBLE_ERROR_OK)
 656:Generated_Source\PSoC4/Bluetooth.c ****             {
 657:Generated_Source\PSoC4/Bluetooth.c ****                 cyBle_pendingFlashWrite &= (uint8)~CYBLE_PENDING_CCCD_FLASH_CLEAR_BIT;
 658:Generated_Source\PSoC4/Bluetooth.c ****             }
ARM GAS  C:\Windows\TEMP\ccsjdpha.s 			page 13


 659:Generated_Source\PSoC4/Bluetooth.c ****         }
 660:Generated_Source\PSoC4/Bluetooth.c ****     }
 661:Generated_Source\PSoC4/Bluetooth.c **** #endif /* CYBLE_GATT_DB_CCCD_COUNT != 0u */
 662:Generated_Source\PSoC4/Bluetooth.c ****     return(apiResult);
 663:Generated_Source\PSoC4/Bluetooth.c **** }
 664:Generated_Source\PSoC4/Bluetooth.c **** 
 665:Generated_Source\PSoC4/Bluetooth.c **** 
 666:Generated_Source\PSoC4/Bluetooth.c **** /******************************************************************************
 667:Generated_Source\PSoC4/Bluetooth.c **** * Function Name: CyBle_GapRemoveBondedDevice
 668:Generated_Source\PSoC4/Bluetooth.c **** ***************************************************************************//**
 669:Generated_Source\PSoC4/Bluetooth.c **** * 
 670:Generated_Source\PSoC4/Bluetooth.c **** *  This function marks the device untrusted. It removes the bonding information
 671:Generated_Source\PSoC4/Bluetooth.c **** *  of the device including CCCD values. This function removes device from the
 672:Generated_Source\PSoC4/Bluetooth.c **** *  white list also when autopopulate white list with bonded devices option is
 673:Generated_Source\PSoC4/Bluetooth.c **** *  enabled.
 674:Generated_Source\PSoC4/Bluetooth.c **** * 
 675:Generated_Source\PSoC4/Bluetooth.c **** *  This function is available only when Bonding requirement is selected in
 676:Generated_Source\PSoC4/Bluetooth.c **** *  Security settings.    
 677:Generated_Source\PSoC4/Bluetooth.c **** *
 678:Generated_Source\PSoC4/Bluetooth.c **** *  \param bdAddr: Pointer to peer device address, of type CYBLE_GAP_BD_ADDR_T.
 679:Generated_Source\PSoC4/Bluetooth.c **** *                 If device address is set to 0, then all devices shall be
 680:Generated_Source\PSoC4/Bluetooth.c **** *                 removed from trusted list and white list.
 681:Generated_Source\PSoC4/Bluetooth.c **** *
 682:Generated_Source\PSoC4/Bluetooth.c **** * \return
 683:Generated_Source\PSoC4/Bluetooth.c **** *  CYBLE_API_RESULT_T : Return value indicates if the function succeeded or
 684:Generated_Source\PSoC4/Bluetooth.c **** *  failed. Following are the possible error codes.
 685:Generated_Source\PSoC4/Bluetooth.c **** *
 686:Generated_Source\PSoC4/Bluetooth.c **** *   Errors codes                     | Description
 687:Generated_Source\PSoC4/Bluetooth.c **** *   ---------------------------------| ------------------------------------
 688:Generated_Source\PSoC4/Bluetooth.c **** *   CYBLE_ERROR_OK                   | On successful operation.
 689:Generated_Source\PSoC4/Bluetooth.c **** *   CYBLE_ERROR_INVALID_PARAMETER    | On specifying NULL as input parameter for 'bdAddr'.
 690:Generated_Source\PSoC4/Bluetooth.c **** *   CYBLE_ERROR_INVALID_OPERATION    | Whitelist is already in use or there is pending write to fla
 691:Generated_Source\PSoC4/Bluetooth.c **** *   CYBLE_ERROR_NO_DEVICE_ENTITY     | Device does not exist in the bond list.
 692:Generated_Source\PSoC4/Bluetooth.c **** *
 693:Generated_Source\PSoC4/Bluetooth.c **** *  \globalvars
 694:Generated_Source\PSoC4/Bluetooth.c **** *   The bdHandle is set in cyBle_pendingFlashWrite variable to indicate that
 695:Generated_Source\PSoC4/Bluetooth.c **** *   data should be stored to flash by CyBle_StoreBondingData() afterwards. 
 696:Generated_Source\PSoC4/Bluetooth.c **** *     
 697:Generated_Source\PSoC4/Bluetooth.c **** ******************************************************************************/
 698:Generated_Source\PSoC4/Bluetooth.c **** CYBLE_API_RESULT_T CyBle_GapRemoveBondedDevice(CYBLE_GAP_BD_ADDR_T* bdAddr)
 699:Generated_Source\PSoC4/Bluetooth.c **** {
 700:Generated_Source\PSoC4/Bluetooth.c ****     CYBLE_API_RESULT_T apiResult = CYBLE_ERROR_OK;
 701:Generated_Source\PSoC4/Bluetooth.c ****     
 702:Generated_Source\PSoC4/Bluetooth.c ****     if(cyBle_pendingFlashWrite == 0u)
 703:Generated_Source\PSoC4/Bluetooth.c ****     {
 704:Generated_Source\PSoC4/Bluetooth.c ****         
 705:Generated_Source\PSoC4/Bluetooth.c ****     #if(CYBLE_GATT_DB_CCCD_COUNT != 0u)
 706:Generated_Source\PSoC4/Bluetooth.c ****         /* Request to clear CCCD values which will be done by CyBle_StoreBondingData() */
 707:Generated_Source\PSoC4/Bluetooth.c ****         uint8 bDevHandle;
 708:Generated_Source\PSoC4/Bluetooth.c ****         CYBLE_GAP_BD_ADDR_T invalidBdAddr = {{0u,0u,0u,0u,0u,0u}, 0u};
 709:Generated_Source\PSoC4/Bluetooth.c **** 
 710:Generated_Source\PSoC4/Bluetooth.c ****         if(memcmp(((uint8 *) &(bdAddr->bdAddr)), ((uint8 *) &(invalidBdAddr.bdAddr)), CYBLE_GAP_BD_
 711:Generated_Source\PSoC4/Bluetooth.c **** 	    {
 712:Generated_Source\PSoC4/Bluetooth.c ****             /* Request to remove all bonded devices by CyBle_StoreBondingData() */
 713:Generated_Source\PSoC4/Bluetooth.c ****             cyBle_pendingFlashWrite |= CYBLE_PENDING_CCCD_FLASH_CLEAR_ALL_BIT;
 714:Generated_Source\PSoC4/Bluetooth.c ****         }
 715:Generated_Source\PSoC4/Bluetooth.c ****         else
ARM GAS  C:\Windows\TEMP\ccsjdpha.s 			page 14


 716:Generated_Source\PSoC4/Bluetooth.c ****         {
 717:Generated_Source\PSoC4/Bluetooth.c ****             /* Get the BD handle from Address */
 718:Generated_Source\PSoC4/Bluetooth.c ****             apiResult = CyBle_GapGetPeerBdHandle(&bDevHandle, bdAddr);
 719:Generated_Source\PSoC4/Bluetooth.c ****             if(apiResult == CYBLE_ERROR_OK)
 720:Generated_Source\PSoC4/Bluetooth.c ****             {
 721:Generated_Source\PSoC4/Bluetooth.c ****                 /* Store BD handle to clear cccd values by CyBle_StoreBondingData() */
 722:Generated_Source\PSoC4/Bluetooth.c ****                 cyBle_pendingFlashWrite |= CYBLE_PENDING_CCCD_FLASH_CLEAR_BIT;
 723:Generated_Source\PSoC4/Bluetooth.c ****                 cyBle_pendingFlashClearCccdHandle = bDevHandle;
 724:Generated_Source\PSoC4/Bluetooth.c ****             }
 725:Generated_Source\PSoC4/Bluetooth.c ****         }
 726:Generated_Source\PSoC4/Bluetooth.c ****     #endif /* CYBLE_GATT_DB_CCCD_COUNT != 0u */
 727:Generated_Source\PSoC4/Bluetooth.c ****         if(apiResult == CYBLE_ERROR_OK)
 728:Generated_Source\PSoC4/Bluetooth.c ****         {
 729:Generated_Source\PSoC4/Bluetooth.c ****             apiResult = CyBle_GapRemoveDeviceFromWhiteList(bdAddr);
 730:Generated_Source\PSoC4/Bluetooth.c ****         }
 731:Generated_Source\PSoC4/Bluetooth.c ****     }
 732:Generated_Source\PSoC4/Bluetooth.c ****     else
 733:Generated_Source\PSoC4/Bluetooth.c ****     {
 734:Generated_Source\PSoC4/Bluetooth.c ****         apiResult = CYBLE_ERROR_INVALID_OPERATION;
 735:Generated_Source\PSoC4/Bluetooth.c ****     }
 736:Generated_Source\PSoC4/Bluetooth.c ****     
 737:Generated_Source\PSoC4/Bluetooth.c ****     return(apiResult);
 738:Generated_Source\PSoC4/Bluetooth.c **** }
 739:Generated_Source\PSoC4/Bluetooth.c **** 
 740:Generated_Source\PSoC4/Bluetooth.c **** 
 741:Generated_Source\PSoC4/Bluetooth.c **** #endif /* (CYBLE_GAP_ROLE_PERIPHERAL || CYBLE_GAP_ROLE_CENTRAL) && (CYBLE_BONDING_REQUIREMENT == CY
 742:Generated_Source\PSoC4/Bluetooth.c **** 
 743:Generated_Source\PSoC4/Bluetooth.c **** 
 744:Generated_Source\PSoC4/Bluetooth.c **** #if(CYBLE_GAP_ROLE_PERIPHERAL || CYBLE_GAP_ROLE_BROADCASTER)
 745:Generated_Source\PSoC4/Bluetooth.c **** 
 746:Generated_Source\PSoC4/Bluetooth.c ****     /******************************************************************************
 747:Generated_Source\PSoC4/Bluetooth.c ****     *  Function Name: CyBle_GappStartAdvertisement
 748:Generated_Source\PSoC4/Bluetooth.c ****     ***************************************************************************//**
 749:Generated_Source\PSoC4/Bluetooth.c ****     *     
 750:Generated_Source\PSoC4/Bluetooth.c ****     *  This function is used to start the advertisement using the advertisement data 
 751:Generated_Source\PSoC4/Bluetooth.c ****     *  set in the component customizer's GUI. After invoking this function, the 
 752:Generated_Source\PSoC4/Bluetooth.c ****     *  device will be available for connection by the devices configured for GAP 
 753:Generated_Source\PSoC4/Bluetooth.c ****     *  central role. It is only included if the device is configured for GAP 
 754:Generated_Source\PSoC4/Bluetooth.c ****     *  Peripheral or GAP Peripheral + Central role.
 755:Generated_Source\PSoC4/Bluetooth.c ****     *  
 756:Generated_Source\PSoC4/Bluetooth.c ****     *  On start of advertisement, GAP Peripheral receives the
 757:Generated_Source\PSoC4/Bluetooth.c ****     *  CYBLE_EVT_GAPP_ADVERTISEMENT_START_STOP event. The following events are 
 758:Generated_Source\PSoC4/Bluetooth.c ****     *  possible on invoking this function:
 759:Generated_Source\PSoC4/Bluetooth.c ****     *  
 760:Generated_Source\PSoC4/Bluetooth.c ****     *  * CYBLE_EVT_GAP_DEVICE_CONNECTED - If the device connects to a GAP Central and 
 761:Generated_Source\PSoC4/Bluetooth.c ****     *    Link Layer Privacy is disabled in component customizer.
 762:Generated_Source\PSoC4/Bluetooth.c ****     *  * CYBLE_EVT_GAP_ENHANCE_CONN_COMPLETE - If the device connects to a GAP Central and 
 763:Generated_Source\PSoC4/Bluetooth.c ****     *    Link Layer Privacy is enabled in component customizer.
 764:Generated_Source\PSoC4/Bluetooth.c ****     *  * CYBLE_EVT_TIMEOUT: If no device in GAP Central mode connects to this 
 765:Generated_Source\PSoC4/Bluetooth.c ****     *                       device within the specified timeout limit. Stack 
 766:Generated_Source\PSoC4/Bluetooth.c ****     *                       automatically initiate stop advertising when Slow 
 767:Generated_Source\PSoC4/Bluetooth.c ****     *                       advertising was initiated, or starts Slow advertising
 768:Generated_Source\PSoC4/Bluetooth.c ****     *                       after Fast advertising timeout occur.
 769:Generated_Source\PSoC4/Bluetooth.c ****     *  * CYBLE_EVT_GAPP_ADVERTISEMENT_START_STOP: If device started or stopped
 770:Generated_Source\PSoC4/Bluetooth.c ****     *                                               advertising. Use CyBle_GetState()
 771:Generated_Source\PSoC4/Bluetooth.c ****     *                                               to determine the state. Sequential 
 772:Generated_Source\PSoC4/Bluetooth.c ****     *                                               advertising could be started when
ARM GAS  C:\Windows\TEMP\ccsjdpha.s 			page 15


 773:Generated_Source\PSoC4/Bluetooth.c ****     *                                               CYBLE_STATE_DISCONNECTED state is
 774:Generated_Source\PSoC4/Bluetooth.c ****     *                                               returned.
 775:Generated_Source\PSoC4/Bluetooth.c ****     * 
 776:Generated_Source\PSoC4/Bluetooth.c ****     *  \param advertisingIntervalType: Fast or slow advertising interval with timings
 777:Generated_Source\PSoC4/Bluetooth.c ****     *                                 entered in Advertising settings section of the
 778:Generated_Source\PSoC4/Bluetooth.c ****     *                                 customizer.
 779:Generated_Source\PSoC4/Bluetooth.c ****     *  * CYBLE_ADVERTISING_FAST   0x00u
 780:Generated_Source\PSoC4/Bluetooth.c ****     *  * CYBLE_ADVERTISING_SLOW   0x01u
 781:Generated_Source\PSoC4/Bluetooth.c ****     *  * CYBLE_ADVERTISING_CUSTOM 0x02u
 782:Generated_Source\PSoC4/Bluetooth.c ****     * 
 783:Generated_Source\PSoC4/Bluetooth.c ****     * \return
 784:Generated_Source\PSoC4/Bluetooth.c ****     *  CYBLE_API_RESULT_T : Return value indicates if the function succeeded or
 785:Generated_Source\PSoC4/Bluetooth.c ****     *  failed. Following are the possible error codes.
 786:Generated_Source\PSoC4/Bluetooth.c ****     * 
 787:Generated_Source\PSoC4/Bluetooth.c ****     *   Errors codes                      |  Description
 788:Generated_Source\PSoC4/Bluetooth.c ****     *   --------------------------------- |  --------------------------------
 789:Generated_Source\PSoC4/Bluetooth.c ****     *   CYBLE_ERROR_OK                    |  On successful operation.
 790:Generated_Source\PSoC4/Bluetooth.c ****     *   CYBLE_ERROR_INVALID_PARAMETER     |  On passing an invalid parameter.
 791:Generated_Source\PSoC4/Bluetooth.c ****     *   CYBLE_ERROR_INVALID_STATE         |  On calling this function not in Disconnected state.
 792:Generated_Source\PSoC4/Bluetooth.c ****     *
 793:Generated_Source\PSoC4/Bluetooth.c ****     * 
 794:Generated_Source\PSoC4/Bluetooth.c ****     *******************************************************************************/
 795:Generated_Source\PSoC4/Bluetooth.c ****     CYBLE_API_RESULT_T CyBle_GappStartAdvertisement(uint8 advertisingIntervalType)
 796:Generated_Source\PSoC4/Bluetooth.c ****     {
 797:Generated_Source\PSoC4/Bluetooth.c ****         CYBLE_API_RESULT_T apiResult;
 798:Generated_Source\PSoC4/Bluetooth.c ****         
 799:Generated_Source\PSoC4/Bluetooth.c ****         if(advertisingIntervalType > CYBLE_ADVERTISING_CUSTOM)
 800:Generated_Source\PSoC4/Bluetooth.c ****         {
 801:Generated_Source\PSoC4/Bluetooth.c ****             apiResult = CYBLE_ERROR_INVALID_PARAMETER;
 802:Generated_Source\PSoC4/Bluetooth.c ****         }
 803:Generated_Source\PSoC4/Bluetooth.c ****         else if((CYBLE_STATE_DISCONNECTED == CyBle_GetState()) && ((cyBle_eventHandlerFlag & CYBLE_
 804:Generated_Source\PSoC4/Bluetooth.c ****         {   
 805:Generated_Source\PSoC4/Bluetooth.c ****             if(advertisingIntervalType == CYBLE_ADVERTISING_FAST)
 806:Generated_Source\PSoC4/Bluetooth.c ****             {
 807:Generated_Source\PSoC4/Bluetooth.c ****                 cyBle_discoveryModeInfo.advTo = CYBLE_FAST_ADV_TIMEOUT;
 808:Generated_Source\PSoC4/Bluetooth.c ****                 cyBle_discoveryModeInfo.advParam->advIntvMin = CYBLE_FAST_ADV_INT_MIN;
 809:Generated_Source\PSoC4/Bluetooth.c ****                 cyBle_discoveryModeInfo.advParam->advIntvMax = CYBLE_FAST_ADV_INT_MAX;
 810:Generated_Source\PSoC4/Bluetooth.c ****             }
 811:Generated_Source\PSoC4/Bluetooth.c ****             else if(advertisingIntervalType == CYBLE_ADVERTISING_SLOW)
 812:Generated_Source\PSoC4/Bluetooth.c ****             {
 813:Generated_Source\PSoC4/Bluetooth.c ****                 cyBle_discoveryModeInfo.advTo = CYBLE_SLOW_ADV_TIMEOUT;
 814:Generated_Source\PSoC4/Bluetooth.c ****                 cyBle_discoveryModeInfo.advParam->advIntvMin = CYBLE_SLOW_ADV_INT_MIN;
 815:Generated_Source\PSoC4/Bluetooth.c ****                 cyBle_discoveryModeInfo.advParam->advIntvMax = CYBLE_SLOW_ADV_INT_MAX;
 816:Generated_Source\PSoC4/Bluetooth.c ****             }       
 817:Generated_Source\PSoC4/Bluetooth.c ****             else /* Do not update advertising intervals */
 818:Generated_Source\PSoC4/Bluetooth.c ****             {
 819:Generated_Source\PSoC4/Bluetooth.c ****             }
 820:Generated_Source\PSoC4/Bluetooth.c ****             cyBle_advertisingIntervalType = advertisingIntervalType;
 821:Generated_Source\PSoC4/Bluetooth.c ****             apiResult = CyBle_GappEnterDiscoveryMode(&cyBle_discoveryModeInfo);
 822:Generated_Source\PSoC4/Bluetooth.c ****         
 823:Generated_Source\PSoC4/Bluetooth.c ****             if(apiResult == CYBLE_ERROR_OK)
 824:Generated_Source\PSoC4/Bluetooth.c ****             {
 825:Generated_Source\PSoC4/Bluetooth.c ****                 cyBle_eventHandlerFlag |= CYBLE_START_FLAG;
 826:Generated_Source\PSoC4/Bluetooth.c ****             }
 827:Generated_Source\PSoC4/Bluetooth.c ****         }
 828:Generated_Source\PSoC4/Bluetooth.c ****         else
 829:Generated_Source\PSoC4/Bluetooth.c ****         {
ARM GAS  C:\Windows\TEMP\ccsjdpha.s 			page 16


 830:Generated_Source\PSoC4/Bluetooth.c ****             apiResult = CYBLE_ERROR_INVALID_STATE;
 831:Generated_Source\PSoC4/Bluetooth.c ****         }
 832:Generated_Source\PSoC4/Bluetooth.c **** 
 833:Generated_Source\PSoC4/Bluetooth.c ****         return (apiResult);
 834:Generated_Source\PSoC4/Bluetooth.c ****     }
 835:Generated_Source\PSoC4/Bluetooth.c **** 
 836:Generated_Source\PSoC4/Bluetooth.c ****     
 837:Generated_Source\PSoC4/Bluetooth.c ****     /******************************************************************************
 838:Generated_Source\PSoC4/Bluetooth.c ****     * Function Name: CyBle_GappStopAdvertisement
 839:Generated_Source\PSoC4/Bluetooth.c ****     ***************************************************************************//**
 840:Generated_Source\PSoC4/Bluetooth.c ****     * 
 841:Generated_Source\PSoC4/Bluetooth.c ****     *   This function can be used to exit from discovery mode. After the execution 
 842:Generated_Source\PSoC4/Bluetooth.c ****     *   of this function, there will no longer be any advertisements. On stopping 
 843:Generated_Source\PSoC4/Bluetooth.c ****     *   advertising, GAP Peripheral receives CYBLE_EVT_GAPP_ADVERTISEMENT_START_STOP
 844:Generated_Source\PSoC4/Bluetooth.c ****     *   event. It is expected that the application layer tracks the function call 
 845:Generated_Source\PSoC4/Bluetooth.c ****     *   performed before occurrence of this event as this event can occur on making 
 846:Generated_Source\PSoC4/Bluetooth.c ****     *   a call to Cy_BleGappStartAdvertisement(), CyBle_GappEnterDiscoveryMode(), 
 847:Generated_Source\PSoC4/Bluetooth.c ****     *   or CyBle_GappStartAdvertisement() functions as well.
 848:Generated_Source\PSoC4/Bluetooth.c ****     *   
 849:Generated_Source\PSoC4/Bluetooth.c ****     *   The following event occurs on invoking this function:
 850:Generated_Source\PSoC4/Bluetooth.c ****     *   * CYBLE_EVT_GAPP_ADVERTISEMENT_START_STOP
 851:Generated_Source\PSoC4/Bluetooth.c ****     * 
 852:Generated_Source\PSoC4/Bluetooth.c ****     *  \return
 853:Generated_Source\PSoC4/Bluetooth.c ****     *   None
 854:Generated_Source\PSoC4/Bluetooth.c ****     * 
 855:Generated_Source\PSoC4/Bluetooth.c ****     *******************************************************************************/
 856:Generated_Source\PSoC4/Bluetooth.c ****     void CyBle_GappStopAdvertisement(void)
 857:Generated_Source\PSoC4/Bluetooth.c ****     {
 858:Generated_Source\PSoC4/Bluetooth.c ****         CyBle_GappExitDiscoveryMode();
 859:Generated_Source\PSoC4/Bluetooth.c ****         cyBle_eventHandlerFlag |= CYBLE_STOP_FLAG;
 860:Generated_Source\PSoC4/Bluetooth.c ****     }
 861:Generated_Source\PSoC4/Bluetooth.c ****     
 862:Generated_Source\PSoC4/Bluetooth.c ****     
 863:Generated_Source\PSoC4/Bluetooth.c ****     /******************************************************************************
 864:Generated_Source\PSoC4/Bluetooth.c ****     * Function Name: CyBle_ChangeAdDeviceAddress
 865:Generated_Source\PSoC4/Bluetooth.c ****     ***************************************************************************//**
 866:Generated_Source\PSoC4/Bluetooth.c ****     * 
 867:Generated_Source\PSoC4/Bluetooth.c ****     *  This function is used to set the Bluetooth device address into the 
 868:Generated_Source\PSoC4/Bluetooth.c ****     *  advertisement or scan response data structure.
 869:Generated_Source\PSoC4/Bluetooth.c ****     * 
 870:Generated_Source\PSoC4/Bluetooth.c ****     *  \param bdAddr: Bluetooth Device address. The variable is of type CYBLE_GAP_BD_ADDR_T
 871:Generated_Source\PSoC4/Bluetooth.c ****     *  \param dest: 0 - selects advertisement structure, not zero value selects scan 
 872:Generated_Source\PSoC4/Bluetooth.c ****     *               response structure.
 873:Generated_Source\PSoC4/Bluetooth.c ****     * 
 874:Generated_Source\PSoC4/Bluetooth.c ****     * \return
 875:Generated_Source\PSoC4/Bluetooth.c ****     *  None
 876:Generated_Source\PSoC4/Bluetooth.c ****     *  
 877:Generated_Source\PSoC4/Bluetooth.c ****     *******************************************************************************/
 878:Generated_Source\PSoC4/Bluetooth.c ****     void CyBle_ChangeAdDeviceAddress(const CYBLE_GAP_BD_ADDR_T* bdAddr, uint8 dest)
 879:Generated_Source\PSoC4/Bluetooth.c ****     {
 880:Generated_Source\PSoC4/Bluetooth.c ****         uint8 i;
 881:Generated_Source\PSoC4/Bluetooth.c ****         uint8 *destBuffer = NULL;
 882:Generated_Source\PSoC4/Bluetooth.c ****         
 883:Generated_Source\PSoC4/Bluetooth.c ****         if(dest == 0u)      /* Destination - advertising structure */
 884:Generated_Source\PSoC4/Bluetooth.c ****         {
 885:Generated_Source\PSoC4/Bluetooth.c ****             #ifdef CYBLE_ADV_PKT_INDEX_BLUETOOTH_DEVICE_ADDRESS
 886:Generated_Source\PSoC4/Bluetooth.c ****                 destBuffer = &cyBle_discoveryData.advData[CYBLE_ADV_PKT_INDEX_BLUETOOTH_DEVICE_ADDR
ARM GAS  C:\Windows\TEMP\ccsjdpha.s 			page 17


 887:Generated_Source\PSoC4/Bluetooth.c ****             #endif /* CYBLE_ADV_PKT_INDEX_BLUETOOTH_DEVICE_ADDRESS */
 888:Generated_Source\PSoC4/Bluetooth.c ****         }
 889:Generated_Source\PSoC4/Bluetooth.c ****         else                /* Destination - scan response structure */
 890:Generated_Source\PSoC4/Bluetooth.c ****         {
 891:Generated_Source\PSoC4/Bluetooth.c ****             #ifdef CYBLE_SCN_PKT_INDEX_BLUETOOTH_DEVICE_ADDRESS
 892:Generated_Source\PSoC4/Bluetooth.c ****                 destBuffer = &cyBle_scanRspData.scanRspData[CYBLE_SCN_PKT_INDEX_BLUETOOTH_DEVICE_AD
 893:Generated_Source\PSoC4/Bluetooth.c ****             #endif /* CYBLE_SCN_PKT_INDEX_BLUETOOTH_DEVICE_ADDRESS */    
 894:Generated_Source\PSoC4/Bluetooth.c ****         }
 895:Generated_Source\PSoC4/Bluetooth.c ****         
 896:Generated_Source\PSoC4/Bluetooth.c ****         if(destBuffer != NULL)
 897:Generated_Source\PSoC4/Bluetooth.c ****         {
 898:Generated_Source\PSoC4/Bluetooth.c ****             /* Update Device Address type */
 899:Generated_Source\PSoC4/Bluetooth.c ****             destBuffer[0u] = bdAddr->type;
 900:Generated_Source\PSoC4/Bluetooth.c ****             
 901:Generated_Source\PSoC4/Bluetooth.c ****             for(i = 0u; i < CYBLE_GAP_BD_ADDR_SIZE; i++)
 902:Generated_Source\PSoC4/Bluetooth.c ****             {
 903:Generated_Source\PSoC4/Bluetooth.c ****                 destBuffer[i + 1u] = bdAddr->bdAddr[i];
 904:Generated_Source\PSoC4/Bluetooth.c ****             }
 905:Generated_Source\PSoC4/Bluetooth.c ****         }
 906:Generated_Source\PSoC4/Bluetooth.c ****     }
 907:Generated_Source\PSoC4/Bluetooth.c ****   
 908:Generated_Source\PSoC4/Bluetooth.c **** #endif /* CYBLE_GAP_ROLE_PERIPHERAL || CYBLE_GAP_ROLE_BROADCASTER */
 909:Generated_Source\PSoC4/Bluetooth.c **** 
 910:Generated_Source\PSoC4/Bluetooth.c **** 
 911:Generated_Source\PSoC4/Bluetooth.c **** #if(CYBLE_GAP_ROLE_CENTRAL || CYBLE_GAP_ROLE_OBSERVER)
 912:Generated_Source\PSoC4/Bluetooth.c **** 
 913:Generated_Source\PSoC4/Bluetooth.c ****     /******************************************************************************
 914:Generated_Source\PSoC4/Bluetooth.c ****     * Function Name: CyBle_GapcStartScan
 915:Generated_Source\PSoC4/Bluetooth.c ****     ***************************************************************************//**
 916:Generated_Source\PSoC4/Bluetooth.c ****     * 
 917:Generated_Source\PSoC4/Bluetooth.c ****     *   This function is used for discovering GAP peripheral devices that are 
 918:Generated_Source\PSoC4/Bluetooth.c ****     *   available for connection. It performs the scanning routine using the 
 919:Generated_Source\PSoC4/Bluetooth.c ****     *   parameters entered in the component's customizer.
 920:Generated_Source\PSoC4/Bluetooth.c ****     *   
 921:Generated_Source\PSoC4/Bluetooth.c ****     *   As soon as the discovery operation starts, CYBLE_EVT_GAPC_SCAN_START_STOP 
 922:Generated_Source\PSoC4/Bluetooth.c ****     *   event is generated. The CYBLE_EVT_GAPC_SCAN_PROGRESS_RESULT event is 
 923:Generated_Source\PSoC4/Bluetooth.c ****     *   generated when a GAP peripheral device is located. There are three discovery
 924:Generated_Source\PSoC4/Bluetooth.c ****     *   procedures can be selected in the customizer's GUI:
 925:Generated_Source\PSoC4/Bluetooth.c ****     *   
 926:Generated_Source\PSoC4/Bluetooth.c ****     *   * Observation procedure: A device performing the observer role receives only
 927:Generated_Source\PSoC4/Bluetooth.c ****     *                            advertisement data from devices irrespective of 
 928:Generated_Source\PSoC4/Bluetooth.c ****     *                            their discoverable mode settings. Advertisement 
 929:Generated_Source\PSoC4/Bluetooth.c ****     *                            data received is provided by the event,      
 930:Generated_Source\PSoC4/Bluetooth.c ****     *                            CYBLE_EVT_GAPC_SCAN_PROGRESS_RESULT. This procedure
 931:Generated_Source\PSoC4/Bluetooth.c ****     *                            requires the scanType sub parameter to be passive
 932:Generated_Source\PSoC4/Bluetooth.c ****     *                            scanning. 
 933:Generated_Source\PSoC4/Bluetooth.c ****     *   
 934:Generated_Source\PSoC4/Bluetooth.c ****     *   * Limited Discovery procedure: A device performing the limited discovery
 935:Generated_Source\PSoC4/Bluetooth.c ****     *                                  procedure receives advertisement data and 
 936:Generated_Source\PSoC4/Bluetooth.c ****     *                                  scan# response data from devices in the 
 937:Generated_Source\PSoC4/Bluetooth.c ****     *                                  limited discoverable mode only. Received data
 938:Generated_Source\PSoC4/Bluetooth.c ****     *                                  is provided by the event, 
 939:Generated_Source\PSoC4/Bluetooth.c ****     *                                  CYBLE_EVT_GAPC_SCAN_PROGRESS_RESULT. This 
 940:Generated_Source\PSoC4/Bluetooth.c ****     *                                  procedure requires the scanType sub-parameter 
 941:Generated_Source\PSoC4/Bluetooth.c ****     *                                  to be active scanning.
 942:Generated_Source\PSoC4/Bluetooth.c ****     *   
 943:Generated_Source\PSoC4/Bluetooth.c ****     *   * General Discovery procedure: A device performing the general discovery 
ARM GAS  C:\Windows\TEMP\ccsjdpha.s 			page 18


 944:Generated_Source\PSoC4/Bluetooth.c ****     *                                  procedure receives the advertisement data and
 945:Generated_Source\PSoC4/Bluetooth.c ****     *                                  scan response data from devices in both 
 946:Generated_Source\PSoC4/Bluetooth.c ****     *                                  limited discoverable mode and the general 
 947:Generated_Source\PSoC4/Bluetooth.c ****     *                                  discoverable mode. Received data is provided
 948:Generated_Source\PSoC4/Bluetooth.c ****     *                                  by the event,
 949:Generated_Source\PSoC4/Bluetooth.c ****     *                                  CYBLE_EVT_GAPC_SCAN_PROGRESS_RESULT. This 
 950:Generated_Source\PSoC4/Bluetooth.c ****     *                                  procedure requires the scanType sub-parameter
 951:Generated_Source\PSoC4/Bluetooth.c ****     *                                  to be active scanning.
 952:Generated_Source\PSoC4/Bluetooth.c ****     *   
 953:Generated_Source\PSoC4/Bluetooth.c ****     *   Every Advertisement / Scan response packet received results in a new event, 
 954:Generated_Source\PSoC4/Bluetooth.c ****     *   CYBLE_EVT_GAPC_SCAN_PROGRESS_RESULT.
 955:Generated_Source\PSoC4/Bluetooth.c ****     *   If 'scanTo' sub-parameter is a non-zero value, then upon commencement of 
 956:Generated_Source\PSoC4/Bluetooth.c ****     *   discovery procedure and elapsed time = 'scanTo', CYBLE_EVT_TIMEOUT event
 957:Generated_Source\PSoC4/Bluetooth.c ****     *   is generated with the event parameter indicating CYBLE_GAP_SCAN_TO.
 958:Generated_Source\PSoC4/Bluetooth.c ****     *   Possible generated events are:
 959:Generated_Source\PSoC4/Bluetooth.c ****     *   * CYBLE_EVT_GAPC_SCAN_START_STOP: If a device started or stopped scanning. 
 960:Generated_Source\PSoC4/Bluetooth.c ****     *                                     Use CyBle_GetState() to determine the 
 961:Generated_Source\PSoC4/Bluetooth.c ****     *                                     state. Sequential scanning could be 
 962:Generated_Source\PSoC4/Bluetooth.c ****     *                                     started when CYBLE_STATE_DISCONNECTED 
 963:Generated_Source\PSoC4/Bluetooth.c ****     *                                     state is returned. 
 964:Generated_Source\PSoC4/Bluetooth.c ****     *   * CYBLE_EVT_GAPC_SCAN_PROGRESS_RESULT 
 965:Generated_Source\PSoC4/Bluetooth.c ****     *   * CYBLE_EVT_TIMEOUT (CYBLE_GAP_SCAN_TO)
 966:Generated_Source\PSoC4/Bluetooth.c ****     * 
 967:Generated_Source\PSoC4/Bluetooth.c ****     *   \param scanningIntervalType:  Fast or slow scanning interval with
 968:Generated_Source\PSoC4/Bluetooth.c ****     *       timings entered in Scan settings section of the customizer.
 969:Generated_Source\PSoC4/Bluetooth.c ****     * 	  * CYBLE_SCANNING_FAST   0x00u
 970:Generated_Source\PSoC4/Bluetooth.c ****     * 	  * CYBLE_SCANNING_SLOW   0x01u
 971:Generated_Source\PSoC4/Bluetooth.c ****     * 	  * CYBLE_SCANNING_CUSTOM 0x02u
 972:Generated_Source\PSoC4/Bluetooth.c ****     * 
 973:Generated_Source\PSoC4/Bluetooth.c ****     * \return
 974:Generated_Source\PSoC4/Bluetooth.c ****     *  CYBLE_API_RESULT_T : Return value indicates if the function succeeded or
 975:Generated_Source\PSoC4/Bluetooth.c ****     *  failed. Following are the possible error codes.
 976:Generated_Source\PSoC4/Bluetooth.c ****     *
 977:Generated_Source\PSoC4/Bluetooth.c ****     *   Errors codes                       | Description
 978:Generated_Source\PSoC4/Bluetooth.c ****     *   ---------------------------------- | -----------------------------------
 979:Generated_Source\PSoC4/Bluetooth.c ****     *   CYBLE_ERROR_OK                     | On successful operation.
 980:Generated_Source\PSoC4/Bluetooth.c ****     *   CYBLE_ERROR_STACK_INTERNAL         | An error occurred in the BLE stack.
 981:Generated_Source\PSoC4/Bluetooth.c ****     *   CYBLE_ERROR_INVALID_PARAMETER      | On passing an invalid parameter.
 982:Generated_Source\PSoC4/Bluetooth.c ****     *  
 983:Generated_Source\PSoC4/Bluetooth.c ****     *******************************************************************************/
 984:Generated_Source\PSoC4/Bluetooth.c ****     CYBLE_API_RESULT_T CyBle_GapcStartScan(uint8 scanningIntervalType)
 985:Generated_Source\PSoC4/Bluetooth.c ****     {
 986:Generated_Source\PSoC4/Bluetooth.c ****         CYBLE_API_RESULT_T apiResult;
 987:Generated_Source\PSoC4/Bluetooth.c **** 
 988:Generated_Source\PSoC4/Bluetooth.c ****         if(scanningIntervalType > CYBLE_SCANNING_CUSTOM)
 989:Generated_Source\PSoC4/Bluetooth.c ****         {
 990:Generated_Source\PSoC4/Bluetooth.c ****             apiResult = CYBLE_ERROR_INVALID_PARAMETER;
 991:Generated_Source\PSoC4/Bluetooth.c ****         }
 992:Generated_Source\PSoC4/Bluetooth.c ****         else
 993:Generated_Source\PSoC4/Bluetooth.c ****         {
 994:Generated_Source\PSoC4/Bluetooth.c ****             if(scanningIntervalType == CYBLE_SCANNING_FAST)
 995:Generated_Source\PSoC4/Bluetooth.c ****             {
 996:Generated_Source\PSoC4/Bluetooth.c ****                 cyBle_discoveryInfo.scanTo = CYBLE_FAST_SCAN_TIMEOUT;
 997:Generated_Source\PSoC4/Bluetooth.c ****                 cyBle_discoveryInfo.scanIntv = CYBLE_FAST_SCAN_INTERVAL;
 998:Generated_Source\PSoC4/Bluetooth.c ****                 cyBle_discoveryInfo.scanWindow = CYBLE_FAST_SCAN_WINDOW;
 999:Generated_Source\PSoC4/Bluetooth.c ****             }
1000:Generated_Source\PSoC4/Bluetooth.c ****             else if(scanningIntervalType == CYBLE_SCANNING_SLOW)
ARM GAS  C:\Windows\TEMP\ccsjdpha.s 			page 19


1001:Generated_Source\PSoC4/Bluetooth.c ****             {
1002:Generated_Source\PSoC4/Bluetooth.c ****                 cyBle_discoveryInfo.scanTo = CYBLE_SLOW_SCAN_TIMEOUT;
1003:Generated_Source\PSoC4/Bluetooth.c ****                 cyBle_discoveryInfo.scanIntv = CYBLE_SLOW_SCAN_INTERVAL;
1004:Generated_Source\PSoC4/Bluetooth.c ****                 cyBle_discoveryInfo.scanWindow = CYBLE_SLOW_SCAN_WINDOW;
1005:Generated_Source\PSoC4/Bluetooth.c ****             }       
1006:Generated_Source\PSoC4/Bluetooth.c ****             else /* Do not update scanning intervals */
1007:Generated_Source\PSoC4/Bluetooth.c ****             {
1008:Generated_Source\PSoC4/Bluetooth.c ****             }
1009:Generated_Source\PSoC4/Bluetooth.c ****             
1010:Generated_Source\PSoC4/Bluetooth.c ****             cyBle_scanningIntervalType = scanningIntervalType;
1011:Generated_Source\PSoC4/Bluetooth.c ****             apiResult = CyBle_GapcStartDiscovery(&cyBle_discoveryInfo);
1012:Generated_Source\PSoC4/Bluetooth.c ****         
1013:Generated_Source\PSoC4/Bluetooth.c ****             if(apiResult == CYBLE_ERROR_OK)
1014:Generated_Source\PSoC4/Bluetooth.c ****             {
1015:Generated_Source\PSoC4/Bluetooth.c ****                 cyBle_eventHandlerFlag |= CYBLE_START_FLAG;
1016:Generated_Source\PSoC4/Bluetooth.c ****             }
1017:Generated_Source\PSoC4/Bluetooth.c ****         }
1018:Generated_Source\PSoC4/Bluetooth.c ****        
1019:Generated_Source\PSoC4/Bluetooth.c ****         return (apiResult);
1020:Generated_Source\PSoC4/Bluetooth.c ****     }
1021:Generated_Source\PSoC4/Bluetooth.c ****     
1022:Generated_Source\PSoC4/Bluetooth.c ****     
1023:Generated_Source\PSoC4/Bluetooth.c ****     /******************************************************************************
1024:Generated_Source\PSoC4/Bluetooth.c ****     * Function Name: CyBle_GapcStopScan
1025:Generated_Source\PSoC4/Bluetooth.c ****     ***************************************************************************//**
1026:Generated_Source\PSoC4/Bluetooth.c ****     * 
1027:Generated_Source\PSoC4/Bluetooth.c ****     *   This function used to stop the discovery of devices. On stopping discovery
1028:Generated_Source\PSoC4/Bluetooth.c ****     *   operation, CYBLE_EVT_GAPC_SCAN_START_STOP event is generated. Application
1029:Generated_Source\PSoC4/Bluetooth.c ****     *   layer needs to keep track of the function call made before receiving this
1030:Generated_Source\PSoC4/Bluetooth.c ****     *   event to associate this event with either the start or stop discovery
1031:Generated_Source\PSoC4/Bluetooth.c ****     *   function.
1032:Generated_Source\PSoC4/Bluetooth.c ****     * 
1033:Generated_Source\PSoC4/Bluetooth.c ****     *   Possible events generated are:
1034:Generated_Source\PSoC4/Bluetooth.c ****     *    * CYBLE_EVT_GAPC_SCAN_START_STOP
1035:Generated_Source\PSoC4/Bluetooth.c ****     * 
1036:Generated_Source\PSoC4/Bluetooth.c ****     *  \return
1037:Generated_Source\PSoC4/Bluetooth.c ****     *   None
1038:Generated_Source\PSoC4/Bluetooth.c ****     * 
1039:Generated_Source\PSoC4/Bluetooth.c ****     *******************************************************************************/
1040:Generated_Source\PSoC4/Bluetooth.c ****     void CyBle_GapcStopScan(void)
1041:Generated_Source\PSoC4/Bluetooth.c ****     {
1042:Generated_Source\PSoC4/Bluetooth.c ****         CyBle_GapcStopDiscovery();
1043:Generated_Source\PSoC4/Bluetooth.c ****         
1044:Generated_Source\PSoC4/Bluetooth.c ****         cyBle_eventHandlerFlag |= CYBLE_STOP_FLAG;
1045:Generated_Source\PSoC4/Bluetooth.c ****     }
1046:Generated_Source\PSoC4/Bluetooth.c **** 
1047:Generated_Source\PSoC4/Bluetooth.c ****     
1048:Generated_Source\PSoC4/Bluetooth.c **** #endif /* CYBLE_GAP_ROLE_CENTRAL || CYBLE_GAP_ROLE_OBSERVER */
1049:Generated_Source\PSoC4/Bluetooth.c **** 
1050:Generated_Source\PSoC4/Bluetooth.c **** 
1051:Generated_Source\PSoC4/Bluetooth.c **** #if(CYBLE_GAP_ROLE_CENTRAL)
1052:Generated_Source\PSoC4/Bluetooth.c **** 
1053:Generated_Source\PSoC4/Bluetooth.c ****     /******************************************************************************
1054:Generated_Source\PSoC4/Bluetooth.c ****     * Function Name: CyBle_GapcConnectDevice
1055:Generated_Source\PSoC4/Bluetooth.c ****     ***************************************************************************//**
1056:Generated_Source\PSoC4/Bluetooth.c ****     * 
1057:Generated_Source\PSoC4/Bluetooth.c ****     *  This function is used to send a connection request to the remote device with
ARM GAS  C:\Windows\TEMP\ccsjdpha.s 			page 20


1058:Generated_Source\PSoC4/Bluetooth.c ****     *  the connection parameters set in the component customizer. This function needs
1059:Generated_Source\PSoC4/Bluetooth.c ****     *  to be called only once after the target device is discovered by 
1060:Generated_Source\PSoC4/Bluetooth.c ****     *  CyBle_GapcStartScan() and further scanning has stopped. Scanning is 
1061:Generated_Source\PSoC4/Bluetooth.c ****     *  successfully stopped on invoking CyBle_GapcStopScan() and then receiving the
1062:Generated_Source\PSoC4/Bluetooth.c ****     *  event CYBLE_EVT_GAPC_SCAN_START_STOP with sub-parameter 'success' = 0x01u.
1063:Generated_Source\PSoC4/Bluetooth.c ****     *  
1064:Generated_Source\PSoC4/Bluetooth.c ****     *  On successful connection, the following events are generated at the GAP 
1065:Generated_Source\PSoC4/Bluetooth.c ****     *  Central device (as well as the GAP Peripheral device), in the following order.
1066:Generated_Source\PSoC4/Bluetooth.c ****     *  * CYBLE_EVT_GATT_CONNECT_IND
1067:Generated_Source\PSoC4/Bluetooth.c ****     *  * CYBLE_EVT_GAP_DEVICE_CONNECTED - If the device connects to a GAP Central and 
1068:Generated_Source\PSoC4/Bluetooth.c ****     *    Link Layer Privacy is disabled in component customizer.
1069:Generated_Source\PSoC4/Bluetooth.c ****     *  * CYBLE_EVT_GAP_ENHANCE_CONN_COMPLETE - If the device connects to a GAP Central and 
1070:Generated_Source\PSoC4/Bluetooth.c ****     *    Link Layer Privacy is enabled in component customizer.
1071:Generated_Source\PSoC4/Bluetooth.c ****     *  * CYBLE_EVT_GAP_DEVICE_CONNECTED
1072:Generated_Source\PSoC4/Bluetooth.c ****     *  
1073:Generated_Source\PSoC4/Bluetooth.c ****     *  A procedure is considered to have timed out if a connection response packet is 
1074:Generated_Source\PSoC4/Bluetooth.c ****     *  not received within time set by cyBle_connectingTimeout global variable
1075:Generated_Source\PSoC4/Bluetooth.c ****     *  (30 seconds by default). CYBLE_EVT_TIMEOUT event with CYBLE_GENERIC_TO parameter
1076:Generated_Source\PSoC4/Bluetooth.c ****     *  will indicate about connection procedure timeout. Connection will automatically
1077:Generated_Source\PSoC4/Bluetooth.c ****     *  be canceled and state will be changed to CYBLE_STATE_DISCONNECTED.
1078:Generated_Source\PSoC4/Bluetooth.c ****     * 
1079:Generated_Source\PSoC4/Bluetooth.c ****     *  \param address: The device address of the remote device to connect to. 
1080:Generated_Source\PSoC4/Bluetooth.c ****     *  
1081:Generated_Source\PSoC4/Bluetooth.c ****     * \return
1082:Generated_Source\PSoC4/Bluetooth.c ****     *  CYBLE_API_RESULT_T : Return value indicates if the function succeeded or 
1083:Generated_Source\PSoC4/Bluetooth.c ****     *  failed. Following are the possible error codes.
1084:Generated_Source\PSoC4/Bluetooth.c ****     *
1085:Generated_Source\PSoC4/Bluetooth.c ****     *   Errors codes                       | Description
1086:Generated_Source\PSoC4/Bluetooth.c ****     *   ------------                       | -----------
1087:Generated_Source\PSoC4/Bluetooth.c ****     *   CYBLE_ERROR_OK                     | On successful operation.
1088:Generated_Source\PSoC4/Bluetooth.c ****     *   CYBLE_ERROR_STACK_INTERNAL         | On error occurred in the BLE stack.
1089:Generated_Source\PSoC4/Bluetooth.c ****     *   CYBLE_ERROR_INVALID_PARAMETER      | On passing an invalid parameter.
1090:Generated_Source\PSoC4/Bluetooth.c ****     *   CYBLE_ERROR_INVALID_STATE          | On calling this function not in Disconnected state.
1091:Generated_Source\PSoC4/Bluetooth.c ****     *  
1092:Generated_Source\PSoC4/Bluetooth.c ****     ******************************************************************************/
1093:Generated_Source\PSoC4/Bluetooth.c ****     CYBLE_API_RESULT_T CyBle_GapcConnectDevice(const CYBLE_GAP_BD_ADDR_T * address)
1094:Generated_Source\PSoC4/Bluetooth.c ****     {
1095:Generated_Source\PSoC4/Bluetooth.c ****         CYBLE_API_RESULT_T apiResult;
1096:Generated_Source\PSoC4/Bluetooth.c ****         uint8 i;
1097:Generated_Source\PSoC4/Bluetooth.c **** 
1098:Generated_Source\PSoC4/Bluetooth.c ****         if(CyBle_GetState() != CYBLE_STATE_DISCONNECTED)
1099:Generated_Source\PSoC4/Bluetooth.c ****         {
1100:Generated_Source\PSoC4/Bluetooth.c ****             apiResult = CYBLE_ERROR_INVALID_STATE;
1101:Generated_Source\PSoC4/Bluetooth.c ****         }
1102:Generated_Source\PSoC4/Bluetooth.c ****         else if(address == NULL)
1103:Generated_Source\PSoC4/Bluetooth.c ****         {
1104:Generated_Source\PSoC4/Bluetooth.c ****             apiResult = CYBLE_ERROR_INVALID_PARAMETER;
1105:Generated_Source\PSoC4/Bluetooth.c ****         }
1106:Generated_Source\PSoC4/Bluetooth.c ****         else
1107:Generated_Source\PSoC4/Bluetooth.c ****         {
1108:Generated_Source\PSoC4/Bluetooth.c ****             for(i = 0u; i < CYBLE_GAP_BD_ADDR_SIZE; i++)
1109:Generated_Source\PSoC4/Bluetooth.c ****             {
1110:Generated_Source\PSoC4/Bluetooth.c ****                 cyBle_connectionParameters.peerBdAddr[i] = address->bdAddr[i];
1111:Generated_Source\PSoC4/Bluetooth.c ****             }
1112:Generated_Source\PSoC4/Bluetooth.c ****             cyBle_connectionParameters.peerAddrType = address -> type;
1113:Generated_Source\PSoC4/Bluetooth.c ****             apiResult = CyBle_GapcInitConnection(&cyBle_connectionParameters);
1114:Generated_Source\PSoC4/Bluetooth.c ****             
ARM GAS  C:\Windows\TEMP\ccsjdpha.s 			page 21


1115:Generated_Source\PSoC4/Bluetooth.c ****             if(apiResult == CYBLE_ERROR_OK)
1116:Generated_Source\PSoC4/Bluetooth.c ****             {
1117:Generated_Source\PSoC4/Bluetooth.c ****                 CyBle_SetState(CYBLE_STATE_CONNECTING);
1118:Generated_Source\PSoC4/Bluetooth.c ****                 if(cyBle_connectingTimeout != 0u)
1119:Generated_Source\PSoC4/Bluetooth.c ****                 {
1120:Generated_Source\PSoC4/Bluetooth.c ****                     (void)CyBle_StartTimer(cyBle_connectingTimeout);
1121:Generated_Source\PSoC4/Bluetooth.c ****                 }
1122:Generated_Source\PSoC4/Bluetooth.c ****             }
1123:Generated_Source\PSoC4/Bluetooth.c ****         }
1124:Generated_Source\PSoC4/Bluetooth.c ****         return (apiResult);
1125:Generated_Source\PSoC4/Bluetooth.c ****     }
1126:Generated_Source\PSoC4/Bluetooth.c ****     
1127:Generated_Source\PSoC4/Bluetooth.c **** 
1128:Generated_Source\PSoC4/Bluetooth.c ****     /******************************************************************************
1129:Generated_Source\PSoC4/Bluetooth.c ****     * Function Name: CyBle_GapcCancelDeviceConnection
1130:Generated_Source\PSoC4/Bluetooth.c ****     ***************************************************************************//**
1131:Generated_Source\PSoC4/Bluetooth.c ****     * 
1132:Generated_Source\PSoC4/Bluetooth.c ****     *  This function cancels a previously initiated connection with the remote 
1133:Generated_Source\PSoC4/Bluetooth.c ****     *  device. It is a blocking function. No event is generated on calling this 
1134:Generated_Source\PSoC4/Bluetooth.c ****     *  function. If the devices are already connected then this function should not
1135:Generated_Source\PSoC4/Bluetooth.c ****     *  be used. If you intend to disconnect from an existing connection, the function
1136:Generated_Source\PSoC4/Bluetooth.c ****     *  CyBle_GapDisconnect() should be used.
1137:Generated_Source\PSoC4/Bluetooth.c ****     * 
1138:Generated_Source\PSoC4/Bluetooth.c ****     * \return
1139:Generated_Source\PSoC4/Bluetooth.c ****     *  CYBLE_API_RESULT_T : Return value indicates if the function succeeded or 
1140:Generated_Source\PSoC4/Bluetooth.c ****     *  failed. Following are the possible error codes.
1141:Generated_Source\PSoC4/Bluetooth.c ****     *
1142:Generated_Source\PSoC4/Bluetooth.c ****     *   Errors codes                       | Description
1143:Generated_Source\PSoC4/Bluetooth.c ****     *   ---------------------------------- | --------------------------------------
1144:Generated_Source\PSoC4/Bluetooth.c ****     *   CYBLE_ERROR_OK                     | On successful operation.
1145:Generated_Source\PSoC4/Bluetooth.c ****     *   CYBLE_ERROR_STACK_INTERNAL         | An error occurred in the BLE stack.
1146:Generated_Source\PSoC4/Bluetooth.c ****     *   CYBLE_ERROR_INVALID_STATE          | On calling this function not in Connecting state.
1147:Generated_Source\PSoC4/Bluetooth.c ****     *  
1148:Generated_Source\PSoC4/Bluetooth.c ****     *******************************************************************************/
1149:Generated_Source\PSoC4/Bluetooth.c ****     CYBLE_API_RESULT_T CyBle_GapcCancelDeviceConnection(void)
1150:Generated_Source\PSoC4/Bluetooth.c ****     {
1151:Generated_Source\PSoC4/Bluetooth.c ****         CYBLE_API_RESULT_T apiResult;
1152:Generated_Source\PSoC4/Bluetooth.c ****         
1153:Generated_Source\PSoC4/Bluetooth.c ****         if(CyBle_GetState() != CYBLE_STATE_CONNECTING)
1154:Generated_Source\PSoC4/Bluetooth.c ****         {
1155:Generated_Source\PSoC4/Bluetooth.c ****             apiResult = CYBLE_ERROR_INVALID_STATE;
1156:Generated_Source\PSoC4/Bluetooth.c ****         }
1157:Generated_Source\PSoC4/Bluetooth.c ****         else 
1158:Generated_Source\PSoC4/Bluetooth.c ****         {
1159:Generated_Source\PSoC4/Bluetooth.c ****             apiResult = CyBle_GapcCancelConnection();
1160:Generated_Source\PSoC4/Bluetooth.c ****             
1161:Generated_Source\PSoC4/Bluetooth.c ****             if(cyBle_connectingTimeout != 0u)
1162:Generated_Source\PSoC4/Bluetooth.c ****             {
1163:Generated_Source\PSoC4/Bluetooth.c ****                 (void)CyBle_StopTimer();
1164:Generated_Source\PSoC4/Bluetooth.c ****             }
1165:Generated_Source\PSoC4/Bluetooth.c **** 
1166:Generated_Source\PSoC4/Bluetooth.c ****             if(apiResult == CYBLE_ERROR_OK)
1167:Generated_Source\PSoC4/Bluetooth.c ****             {
1168:Generated_Source\PSoC4/Bluetooth.c ****                 CyBle_SetState(CYBLE_STATE_DISCONNECTED);
1169:Generated_Source\PSoC4/Bluetooth.c ****             }
1170:Generated_Source\PSoC4/Bluetooth.c ****         }
1171:Generated_Source\PSoC4/Bluetooth.c ****         return (apiResult);
ARM GAS  C:\Windows\TEMP\ccsjdpha.s 			page 22


1172:Generated_Source\PSoC4/Bluetooth.c ****     }    
1173:Generated_Source\PSoC4/Bluetooth.c **** 
1174:Generated_Source\PSoC4/Bluetooth.c ****     
1175:Generated_Source\PSoC4/Bluetooth.c **** #endif /* CYBLE_GAP_ROLE_CENTRAL */
1176:Generated_Source\PSoC4/Bluetooth.c **** 
1177:Generated_Source\PSoC4/Bluetooth.c **** 
1178:Generated_Source\PSoC4/Bluetooth.c **** #if(CYBLE_GATT_ROLE_SERVER)
1179:Generated_Source\PSoC4/Bluetooth.c **** 
1180:Generated_Source\PSoC4/Bluetooth.c **** #if(CYBLE_GAP_ROLE_PERIPHERAL)
1181:Generated_Source\PSoC4/Bluetooth.c **** 
1182:Generated_Source\PSoC4/Bluetooth.c ****         /******************************************************************************
1183:Generated_Source\PSoC4/Bluetooth.c ****         * Function Name: CyBle_ChangeAdLocalName
1184:Generated_Source\PSoC4/Bluetooth.c ****         ***************************************************************************//**
1185:Generated_Source\PSoC4/Bluetooth.c ****         *  This function is used to set the local device name in the advertisement or 
1186:Generated_Source\PSoC4/Bluetooth.c ****         *  scan response data structure.
1187:Generated_Source\PSoC4/Bluetooth.c ****         * 
1188:Generated_Source\PSoC4/Bluetooth.c ****         *  \param name: The local device name string to be set in advertisement data 
1189:Generated_Source\PSoC4/Bluetooth.c ****         *            structure.
1190:Generated_Source\PSoC4/Bluetooth.c ****         *  \param dest: 0 - advertisement structure, not zero value selects scan response
1191:Generated_Source\PSoC4/Bluetooth.c ****         *              structure.
1192:Generated_Source\PSoC4/Bluetooth.c ****         * 
1193:Generated_Source\PSoC4/Bluetooth.c ****         * \return
1194:Generated_Source\PSoC4/Bluetooth.c ****         *  None
1195:Generated_Source\PSoC4/Bluetooth.c ****         *  
1196:Generated_Source\PSoC4/Bluetooth.c ****         *******************************************************************************/
1197:Generated_Source\PSoC4/Bluetooth.c ****         static void CyBle_ChangeAdLocalName(const char8 name[], uint8 dest)
1198:Generated_Source\PSoC4/Bluetooth.c ****         {
  27              		.loc 1 1198 0
  28              		.cfi_startproc
  29              		@ args = 0, pretend = 0, frame = 0
  30              		@ frame_needed = 0, uses_anonymous_args = 0
  31              	.LVL0:
  32 0000 70B5     		push	{r4, r5, r6, lr}
  33              		.cfi_def_cfa_offset 16
  34              		.cfi_offset 4, -16
  35              		.cfi_offset 5, -12
  36              		.cfi_offset 6, -8
  37              		.cfi_offset 14, -4
  38              	.LVL1:
1199:Generated_Source\PSoC4/Bluetooth.c ****             uint8 i;
1200:Generated_Source\PSoC4/Bluetooth.c ****             uint8 flag = 0u;
1201:Generated_Source\PSoC4/Bluetooth.c ****             uint8 adLength = 0u;
1202:Generated_Source\PSoC4/Bluetooth.c ****             uint8 byteCounter = 0u;
1203:Generated_Source\PSoC4/Bluetooth.c ****             uint8 *destBuffer;
1204:Generated_Source\PSoC4/Bluetooth.c ****             uint8 maxLength;
1205:Generated_Source\PSoC4/Bluetooth.c ****             
1206:Generated_Source\PSoC4/Bluetooth.c ****             if(dest == 0u)      /* Destination - advertising structure */
  39              		.loc 1 1206 0
  40 0002 0029     		cmp	r1, #0
  41 0004 05D1     		bne	.L2
  42              	.LVL2:
1207:Generated_Source\PSoC4/Bluetooth.c ****             {
1208:Generated_Source\PSoC4/Bluetooth.c ****                 destBuffer = cyBle_discoveryData.advData;
1209:Generated_Source\PSoC4/Bluetooth.c ****                 maxLength = cyBle_discoveryData.advDataLen;
  43              		.loc 1 1209 0
  44 0006 1B49     		ldr	r1, .L14
  45              	.LVL3:
ARM GAS  C:\Windows\TEMP\ccsjdpha.s 			page 23


  46 0008 CE7F     		ldrb	r6, [r1, #31]
  47              	.LVL4:
  48              	.L4:
1210:Generated_Source\PSoC4/Bluetooth.c ****             }
1211:Generated_Source\PSoC4/Bluetooth.c ****             else                /* Destination - scan response structure */
1212:Generated_Source\PSoC4/Bluetooth.c ****             {
1213:Generated_Source\PSoC4/Bluetooth.c ****                 destBuffer = cyBle_scanRspData.scanRspData;
1214:Generated_Source\PSoC4/Bluetooth.c ****                 maxLength = cyBle_scanRspData.scanRspDataLen;
1215:Generated_Source\PSoC4/Bluetooth.c ****             }
1216:Generated_Source\PSoC4/Bluetooth.c ****             
1217:Generated_Source\PSoC4/Bluetooth.c ****             while((byteCounter < maxLength) && (flag == 0u))
1218:Generated_Source\PSoC4/Bluetooth.c ****             {
1219:Generated_Source\PSoC4/Bluetooth.c ****                 adLength = destBuffer[byteCounter];
1220:Generated_Source\PSoC4/Bluetooth.c ****                 
1221:Generated_Source\PSoC4/Bluetooth.c ****                 if(0u != adLength)
1222:Generated_Source\PSoC4/Bluetooth.c ****                 {
1223:Generated_Source\PSoC4/Bluetooth.c ****                     /* Increment byte counter so it can point to AD type */
1224:Generated_Source\PSoC4/Bluetooth.c ****                     byteCounter++;
1225:Generated_Source\PSoC4/Bluetooth.c ****                     
1226:Generated_Source\PSoC4/Bluetooth.c ****                     if((destBuffer[byteCounter] == CYBLE_SHORT_LOCAL_NAME) || 
1227:Generated_Source\PSoC4/Bluetooth.c ****                        (destBuffer[byteCounter] == CYBLE_COMPLETE_LOCAL_NAME))
1228:Generated_Source\PSoC4/Bluetooth.c ****                     {
1229:Generated_Source\PSoC4/Bluetooth.c ****                         /* Start of the Local Name AD type was fount. Set flag and exit the loop. *
1230:Generated_Source\PSoC4/Bluetooth.c ****                         flag = 1u;
  49              		.loc 1 1230 0
  50 000a 0023     		movs	r3, #0
  51 000c 0024     		movs	r4, #0
  52 000e 0025     		movs	r5, #0
  53 0010 11E0     		b	.L3
  54              	.LVL5:
  55              	.L2:
1214:Generated_Source\PSoC4/Bluetooth.c ****             }
  56              		.loc 1 1214 0
  57 0012 1849     		ldr	r1, .L14
  58              	.LVL6:
  59 0014 2031     		adds	r1, r1, #32
  60 0016 CE7F     		ldrb	r6, [r1, #31]
  61              	.LVL7:
  62 0018 F7E7     		b	.L4
  63              	.LVL8:
  64              	.L7:
1219:Generated_Source\PSoC4/Bluetooth.c ****                 
  65              		.loc 1 1219 0
  66 001a CC5C     		ldrb	r4, [r1, r3]
  67              	.LVL9:
1221:Generated_Source\PSoC4/Bluetooth.c ****                 {
  68              		.loc 1 1221 0
  69 001c 002C     		cmp	r4, #0
  70 001e 0ED0     		beq	.L5
1224:Generated_Source\PSoC4/Bluetooth.c ****                     
  71              		.loc 1 1224 0
  72 0020 0133     		adds	r3, r3, #1
  73              	.LVL10:
  74 0022 DBB2     		uxtb	r3, r3
  75              	.LVL11:
1226:Generated_Source\PSoC4/Bluetooth.c ****                        (destBuffer[byteCounter] == CYBLE_COMPLETE_LOCAL_NAME))
  76              		.loc 1 1226 0
ARM GAS  C:\Windows\TEMP\ccsjdpha.s 			page 24


  77 0024 CA5C     		ldrb	r2, [r1, r3]
  78 0026 083A     		subs	r2, r2, #8
  79 0028 D2B2     		uxtb	r2, r2
  80 002a 012A     		cmp	r2, #1
  81 002c 02D9     		bls	.L13
1231:Generated_Source\PSoC4/Bluetooth.c ****                     }
1232:Generated_Source\PSoC4/Bluetooth.c ****                     else
1233:Generated_Source\PSoC4/Bluetooth.c ****                     {
1234:Generated_Source\PSoC4/Bluetooth.c ****                         byteCounter += adLength;
  82              		.loc 1 1234 0
  83 002e E318     		adds	r3, r4, r3
  84              	.LVL12:
  85 0030 DBB2     		uxtb	r3, r3
  86              	.LVL13:
  87 0032 00E0     		b	.L3
  88              	.L13:
1230:Generated_Source\PSoC4/Bluetooth.c ****                     }
  89              		.loc 1 1230 0
  90 0034 0125     		movs	r5, #1
  91              	.LVL14:
  92              	.L3:
1217:Generated_Source\PSoC4/Bluetooth.c ****             {
  93              		.loc 1 1217 0
  94 0036 B342     		cmp	r3, r6
  95 0038 01D2     		bcs	.L5
1217:Generated_Source\PSoC4/Bluetooth.c ****             {
  96              		.loc 1 1217 0 is_stmt 0 discriminator 1
  97 003a 002D     		cmp	r5, #0
  98 003c EDD0     		beq	.L7
  99              	.L5:
1235:Generated_Source\PSoC4/Bluetooth.c ****                     }
1236:Generated_Source\PSoC4/Bluetooth.c ****                 }
1237:Generated_Source\PSoC4/Bluetooth.c ****                 else
1238:Generated_Source\PSoC4/Bluetooth.c ****                 {
1239:Generated_Source\PSoC4/Bluetooth.c ****                     /* The end of advertisement data structure was encountered though exit the loop
1240:Generated_Source\PSoC4/Bluetooth.c ****                     break;
1241:Generated_Source\PSoC4/Bluetooth.c ****                 }
1242:Generated_Source\PSoC4/Bluetooth.c ****             }
1243:Generated_Source\PSoC4/Bluetooth.c ****             
1244:Generated_Source\PSoC4/Bluetooth.c ****             if(0u != flag)
 100              		.loc 1 1244 0 is_stmt 1
 101 003e 002D     		cmp	r5, #0
 102 0040 16D0     		beq	.L1
1245:Generated_Source\PSoC4/Bluetooth.c ****             {
1246:Generated_Source\PSoC4/Bluetooth.c ****                 /* Reuse "adLength" to hold location of the last character of local name in 
1247:Generated_Source\PSoC4/Bluetooth.c ****                    AD structure. */
1248:Generated_Source\PSoC4/Bluetooth.c ****                 adLength += byteCounter;
 103              		.loc 1 1248 0
 104 0042 E418     		adds	r4, r4, r3
 105              	.LVL15:
 106 0044 E4B2     		uxtb	r4, r4
 107              	.LVL16:
1249:Generated_Source\PSoC4/Bluetooth.c ****                 
1250:Generated_Source\PSoC4/Bluetooth.c ****                 /* Increment byte counter to point to start of the local Name string */
1251:Generated_Source\PSoC4/Bluetooth.c ****                 byteCounter++;
 108              		.loc 1 1251 0
 109 0046 0133     		adds	r3, r3, #1
ARM GAS  C:\Windows\TEMP\ccsjdpha.s 			page 25


 110              	.LVL17:
 111 0048 DBB2     		uxtb	r3, r3
 112              	.LVL18:
1252:Generated_Source\PSoC4/Bluetooth.c ****                 
1253:Generated_Source\PSoC4/Bluetooth.c ****                 for(i = byteCounter; ((i < (adLength)) && (CYBLE_NULL_CHARCTER != name[i - byteCoun
 113              		.loc 1 1253 0
 114 004a 1A00     		movs	r2, r3
 115 004c 02E0     		b	.L9
 116              	.LVL19:
 117              	.L11:
1254:Generated_Source\PSoC4/Bluetooth.c ****                 {
1255:Generated_Source\PSoC4/Bluetooth.c ****                     destBuffer[i] = (uint8)name[i - byteCounter];
 118              		.loc 1 1255 0 discriminator 4
 119 004e 8D54     		strb	r5, [r1, r2]
1253:Generated_Source\PSoC4/Bluetooth.c ****                 {
 120              		.loc 1 1253 0 discriminator 4
 121 0050 0132     		adds	r2, r2, #1
 122              	.LVL20:
 123 0052 D2B2     		uxtb	r2, r2
 124              	.LVL21:
 125              	.L9:
1253:Generated_Source\PSoC4/Bluetooth.c ****                 {
 126              		.loc 1 1253 0 is_stmt 0 discriminator 1
 127 0054 A242     		cmp	r2, r4
 128 0056 09D2     		bcs	.L10
1253:Generated_Source\PSoC4/Bluetooth.c ****                 {
 129              		.loc 1 1253 0 discriminator 3
 130 0058 D51A     		subs	r5, r2, r3
 131 005a 455D     		ldrb	r5, [r0, r5]
 132 005c 002D     		cmp	r5, #0
 133 005e F6D1     		bne	.L11
 134 0060 04E0     		b	.L10
 135              	.LVL22:
 136              	.L12:
1256:Generated_Source\PSoC4/Bluetooth.c ****                 }
1257:Generated_Source\PSoC4/Bluetooth.c ****                 
1258:Generated_Source\PSoC4/Bluetooth.c ****                 /* This loop handles the case when new local name is shorted than old one.
1259:Generated_Source\PSoC4/Bluetooth.c ****                    In this case all remaining characters should be null characters. */
1260:Generated_Source\PSoC4/Bluetooth.c ****                 while(adLength > i)
1261:Generated_Source\PSoC4/Bluetooth.c ****                 {
1262:Generated_Source\PSoC4/Bluetooth.c ****                     /* Terminate string */
1263:Generated_Source\PSoC4/Bluetooth.c ****                     destBuffer[i] = (uint8)CYBLE_NULL_CHARCTER;
 137              		.loc 1 1263 0 is_stmt 1
 138 0062 8B18     		adds	r3, r1, r2
 139 0064 0020     		movs	r0, #0
 140 0066 1870     		strb	r0, [r3]
1264:Generated_Source\PSoC4/Bluetooth.c ****                     i++;
 141              		.loc 1 1264 0
 142 0068 0132     		adds	r2, r2, #1
 143              	.LVL23:
 144 006a D2B2     		uxtb	r2, r2
 145              	.LVL24:
 146              	.L10:
1260:Generated_Source\PSoC4/Bluetooth.c ****                 {
 147              		.loc 1 1260 0
 148 006c A242     		cmp	r2, r4
 149 006e F8D3     		bcc	.L12
ARM GAS  C:\Windows\TEMP\ccsjdpha.s 			page 26


 150              	.LVL25:
 151              	.L1:
1265:Generated_Source\PSoC4/Bluetooth.c ****                 }
1266:Generated_Source\PSoC4/Bluetooth.c ****             }
1267:Generated_Source\PSoC4/Bluetooth.c ****         }
 152              		.loc 1 1267 0
 153              		@ sp needed
 154              	.LVL26:
 155              	.LVL27:
 156 0070 70BD     		pop	{r4, r5, r6, pc}
 157              	.L15:
 158 0072 C046     		.align	2
 159              	.L14:
 160 0074 00000000 		.word	.LANCHOR0
 161              		.cfi_endproc
 162              	.LFE11:
 163              		.size	CyBle_ChangeAdLocalName, .-CyBle_ChangeAdLocalName
 164              		.section	.text.CyBle_ServiceInit,"ax",%progbits
 165              		.align	2
 166              		.global	CyBle_ServiceInit
 167              		.code	16
 168              		.thumb_func
 169              		.type	CyBle_ServiceInit, %function
 170              	CyBle_ServiceInit:
 171              	.LFB3:
 202:Generated_Source\PSoC4/Bluetooth.c ****     #if(CYBLE_GATT_ROLE_CLIENT)
 172              		.loc 1 202 0
 173              		.cfi_startproc
 174              		@ args = 0, pretend = 0, frame = 0
 175              		@ frame_needed = 0, uses_anonymous_args = 0
 176 0000 10B5     		push	{r4, lr}
 177              		.cfi_def_cfa_offset 8
 178              		.cfi_offset 4, -8
 179              		.cfi_offset 14, -4
 216:Generated_Source\PSoC4/Bluetooth.c ****     #endif /* CYBLE_AIOS */
 180              		.loc 1 216 0
 181 0002 FFF7FEFF 		bl	CyBle_AiosInit
 182              	.LVL28:
 350:Generated_Source\PSoC4/Bluetooth.c **** 
 183              		.loc 1 350 0
 184              		@ sp needed
 185 0006 10BD     		pop	{r4, pc}
 186              		.cfi_endproc
 187              	.LFE3:
 188              		.size	CyBle_ServiceInit, .-CyBle_ServiceInit
 189              		.section	.text.CyBle_Init,"ax",%progbits
 190              		.align	2
 191              		.global	CyBle_Init
 192              		.code	16
 193              		.thumb_func
 194              		.type	CyBle_Init, %function
 195              	CyBle_Init:
 196              	.LFB2:
 153:Generated_Source\PSoC4/Bluetooth.c ****     cyBle_eventHandlerFlag = 0u;
 197              		.loc 1 153 0
 198              		.cfi_startproc
 199              		@ args = 0, pretend = 0, frame = 0
ARM GAS  C:\Windows\TEMP\ccsjdpha.s 			page 27


 200              		@ frame_needed = 0, uses_anonymous_args = 0
 201 0000 10B5     		push	{r4, lr}
 202              		.cfi_def_cfa_offset 8
 203              		.cfi_offset 4, -8
 204              		.cfi_offset 14, -4
 154:Generated_Source\PSoC4/Bluetooth.c ****     cyBle_busyStatus = CYBLE_STACK_STATE_FREE;
 205              		.loc 1 154 0
 206 0002 0024     		movs	r4, #0
 207 0004 064B     		ldr	r3, .L18
 208 0006 1C70     		strb	r4, [r3]
 155:Generated_Source\PSoC4/Bluetooth.c **** 
 209              		.loc 1 155 0
 210 0008 064B     		ldr	r3, .L18+4
 211 000a 1C70     		strb	r4, [r3]
 158:Generated_Source\PSoC4/Bluetooth.c ****     #endif /* (CYBLE_GAP_ROLE_PERIPHERAL || CYBLE_GAP_ROLE_BROADCASTER)  */
 212              		.loc 1 158 0
 213 000c 064B     		ldr	r3, .L18+8
 214 000e 1C70     		strb	r4, [r3]
 181:Generated_Source\PSoC4/Bluetooth.c **** 
 215              		.loc 1 181 0
 216 0010 FFF7FEFF 		bl	CyBle_ServiceInit
 217              	.LVL29:
 184:Generated_Source\PSoC4/Bluetooth.c ****         cyBle_peerBonding = CYBLE_GAP_BONDING_NONE;
 218              		.loc 1 184 0
 219 0014 054B     		ldr	r3, .L18+12
 220 0016 1C70     		strb	r4, [r3]
 185:Generated_Source\PSoC4/Bluetooth.c ****     #endif  /* (CYBLE_BONDING_REQUIREMENT == CYBLE_BONDING_YES) */
 221              		.loc 1 185 0
 222 0018 054B     		ldr	r3, .L18+16
 223 001a 1C70     		strb	r4, [r3]
 188:Generated_Source\PSoC4/Bluetooth.c **** 
 224              		.loc 1 188 0
 225              		@ sp needed
 226 001c 10BD     		pop	{r4, pc}
 227              	.L19:
 228 001e C046     		.align	2
 229              	.L18:
 230 0020 00000000 		.word	cyBle_eventHandlerFlag
 231 0024 00000000 		.word	cyBle_busyStatus
 232 0028 00000000 		.word	cyBle_advertisingIntervalType
 233 002c 00000000 		.word	cyBle_pendingFlashWrite
 234 0030 00000000 		.word	cyBle_peerBonding
 235              		.cfi_endproc
 236              	.LFE2:
 237              		.size	CyBle_Init, .-CyBle_Init
 238              		.section	.text.CyBle_Start,"ax",%progbits
 239              		.align	2
 240              		.global	CyBle_Start
 241              		.code	16
 242              		.thumb_func
 243              		.type	CyBle_Start, %function
 244              	CyBle_Start:
 245              	.LFB4:
 412:Generated_Source\PSoC4/Bluetooth.c ****     CYBLE_API_RESULT_T apiResult = CYBLE_ERROR_OK;
 246              		.loc 1 412 0
 247              		.cfi_startproc
 248              		@ args = 0, pretend = 0, frame = 48
ARM GAS  C:\Windows\TEMP\ccsjdpha.s 			page 28


 249              		@ frame_needed = 0, uses_anonymous_args = 0
 250              	.LVL30:
 251 0000 10B5     		push	{r4, lr}
 252              		.cfi_def_cfa_offset 8
 253              		.cfi_offset 4, -8
 254              		.cfi_offset 14, -4
 255 0002 90B0     		sub	sp, sp, #64
 256              		.cfi_def_cfa_offset 72
 257 0004 0400     		movs	r4, r0
 258              	.LVL31:
 417:Generated_Source\PSoC4/Bluetooth.c ****     {
 259              		.loc 1 417 0
 260 0006 1422     		movs	r2, #20
 261 0008 2149     		ldr	r1, .L24
 262 000a 0BA8     		add	r0, sp, #44
 263              	.LVL32:
 264 000c FFF7FEFF 		bl	memcpy
 265              	.LVL33:
 429:Generated_Source\PSoC4/Bluetooth.c ****     {
 266              		.loc 1 429 0
 267 0010 204B     		ldr	r3, .L24+4
 268 0012 1B78     		ldrb	r3, [r3]
 269 0014 002B     		cmp	r3, #0
 270 0016 04D1     		bne	.L21
 431:Generated_Source\PSoC4/Bluetooth.c ****         cyBle_initVar = 1u;
 271              		.loc 1 431 0
 272 0018 FFF7FEFF 		bl	CyBle_Init
 273              	.LVL34:
 432:Generated_Source\PSoC4/Bluetooth.c ****     }
 274              		.loc 1 432 0
 275 001c 0122     		movs	r2, #1
 276 001e 1D4B     		ldr	r3, .L24+4
 277 0020 1A70     		strb	r2, [r3]
 278              	.L21:
 435:Generated_Source\PSoC4/Bluetooth.c ****     {
 279              		.loc 1 435 0
 280 0022 002C     		cmp	r4, #0
 281 0024 30D0     		beq	.L23
 437:Generated_Source\PSoC4/Bluetooth.c ****         
 282              		.loc 1 437 0
 283 0026 1C4B     		ldr	r3, .L24+8
 284 0028 1C60     		str	r4, [r3]
 285              	.LBB2:
 456:Generated_Source\PSoC4/Bluetooth.c ****             stackConfig.dleConfig = &dleConfigParams;
 286              		.loc 1 456 0
 287 002a 08AC     		add	r4, sp, #32
 288              	.LVL35:
 289 002c 05AA     		add	r2, sp, #20
 290 002e 0992     		str	r2, [sp, #36]
 457:Generated_Source\PSoC4/Bluetooth.c ****             
 291              		.loc 1 457 0
 292 0030 06AB     		add	r3, sp, #24
 293 0032 0893     		str	r3, [sp, #32]
 460:Generated_Source\PSoC4/Bluetooth.c ****                                        CYBLE_SECURE_CONN_FEATURE;
 294              		.loc 1 460 0
 295 0034 0221     		movs	r1, #2
 296 0036 2181     		strh	r1, [r4, #8]
ARM GAS  C:\Windows\TEMP\ccsjdpha.s 			page 29


 464:Generated_Source\PSoC4/Bluetooth.c ****             dleConfigParams.dleMaxRxCapability = CYBLE_LL_MAX_RX_PAYLOAD_SIZE;
 297              		.loc 1 464 0
 298 0038 1931     		adds	r1, r1, #25
 299 003a 1980     		strh	r1, [r3]
 465:Generated_Source\PSoC4/Bluetooth.c ****             dleConfigParams.dleNumTxBuffer = CYBLE_LL_DEFAULT_NUM_ACL_TX_PACKETS;
 300              		.loc 1 465 0
 301 003c 5980     		strh	r1, [r3, #2]
 466:Generated_Source\PSoC4/Bluetooth.c ****         #if(CYBLE_DLE_FEATURE_ENABLED)
 302              		.loc 1 466 0
 303 003e 1739     		subs	r1, r1, #23
 304 0040 1971     		strb	r1, [r3, #4]
 472:Generated_Source\PSoC4/Bluetooth.c ****         #if(CYBLE_LL_PRIVACY_FEATURE_ENABLED)
 305              		.loc 1 472 0
 306 0042 0823     		movs	r3, #8
 307 0044 1370     		strb	r3, [r2]
 474:Generated_Source\PSoC4/Bluetooth.c ****         #endif /* CYBLE_LL_PRIVACY_FEATURE_ENABLED */
 308              		.loc 1 474 0
 309 0046 FFF7FEFF 		bl	CyBle_EnablePrivacyFeature
 310              	.LVL36:
 477:Generated_Source\PSoC4/Bluetooth.c ****             }
 311              		.loc 1 477 0
 312 004a 1621     		movs	r1, #22
 313 004c 6944     		add	r1, r1, sp
 314 004e 2000     		movs	r0, r4
 315 0050 FFF7FEFF 		bl	CyBle_StackSetFeatureConfig
 316              	.LVL37:
 317              	.LBE2:
 480:Generated_Source\PSoC4/Bluetooth.c ****         {
 318              		.loc 1 480 0
 319 0054 0028     		cmp	r0, #0
 320 0056 18D1     		bne	.L22
 485:Generated_Source\PSoC4/Bluetooth.c ****                     CYBLE_STACK_RAM_SIZE - CYBLE_GATT_PREPARE_WRITE_BUFF_LEN, cyBle_stackDataBuff, 
 321              		.loc 1 485 0
 322 0058 104B     		ldr	r3, .L24+12
 323 005a 0293     		str	r3, [sp, #8]
 324 005c 104B     		ldr	r3, .L24+16
 325 005e 0193     		str	r3, [sp, #4]
 326 0060 0523     		movs	r3, #5
 327 0062 0093     		str	r3, [sp]
 328 0064 0BAB     		add	r3, sp, #44
 329 0066 D822     		movs	r2, #216
 330 0068 1201     		lsls	r2, r2, #4
 331 006a 0E49     		ldr	r1, .L24+20
 332 006c 0E48     		ldr	r0, .L24+24
 333              	.LVL38:
 334 006e FFF7FEFF 		bl	CyBle_StackInit
 335              	.LVL39:
 509:Generated_Source\PSoC4/Bluetooth.c ****             {
 336              		.loc 1 509 0
 337 0072 0028     		cmp	r0, #0
 338 0074 09D1     		bne	.L22
 511:Generated_Source\PSoC4/Bluetooth.c ****                 
 339              		.loc 1 511 0
 340 0076 0122     		movs	r2, #1
 341 0078 0C4B     		ldr	r3, .L24+28
 342 007a 1A70     		strb	r2, [r3]
 518:Generated_Source\PSoC4/Bluetooth.c ****             #endif /* CYBLE_GATT_ROLE_SERVER */
ARM GAS  C:\Windows\TEMP\ccsjdpha.s 			page 30


 343              		.loc 1 518 0
 344 007c 1432     		adds	r2, r2, #20
 345 007e 3421     		movs	r1, #52
 346 0080 0B48     		ldr	r0, .L24+32
 347              	.LVL40:
 348 0082 FFF7FEFF 		bl	CyBle_GattsDbRegister
 349              	.LVL41:
 350 0086 00E0     		b	.L22
 351              	.LVL42:
 352              	.L23:
 525:Generated_Source\PSoC4/Bluetooth.c ****     }
 353              		.loc 1 525 0
 354 0088 0120     		movs	r0, #1
 355              	.LVL43:
 356              	.L22:
 529:Generated_Source\PSoC4/Bluetooth.c **** 
 357              		.loc 1 529 0
 358 008a 10B0     		add	sp, sp, #64
 359              		@ sp needed
 360 008c 10BD     		pop	{r4, pc}
 361              	.L25:
 362 008e C046     		.align	2
 363              	.L24:
 364 0090 00000000 		.word	.LANCHOR1
 365 0094 00000000 		.word	.LANCHOR2
 366 0098 00000000 		.word	CyBle_ApplCallback
 367 009c 79020000 		.word	633
 368 00a0 00000000 		.word	cyBle_flashStorage
 369 00a4 00000000 		.word	.LANCHOR3
 370 00a8 00000000 		.word	CyBle_EventHandler
 371 00ac 00000000 		.word	cyBle_state
 372 00b0 00000000 		.word	cyBle_gattDB
 373              		.cfi_endproc
 374              	.LFE4:
 375              		.size	CyBle_Start, .-CyBle_Start
 376              		.section	.text.CyBle_Stop,"ax",%progbits
 377              		.align	2
 378              		.global	CyBle_Stop
 379              		.code	16
 380              		.thumb_func
 381              		.type	CyBle_Stop, %function
 382              	CyBle_Stop:
 383              	.LFB5:
 545:Generated_Source\PSoC4/Bluetooth.c ****     CyBle_Shutdown();                         /* Stop all ongoing activities */
 384              		.loc 1 545 0
 385              		.cfi_startproc
 386              		@ args = 0, pretend = 0, frame = 0
 387              		@ frame_needed = 0, uses_anonymous_args = 0
 388 0000 10B5     		push	{r4, lr}
 389              		.cfi_def_cfa_offset 8
 390              		.cfi_offset 4, -8
 391              		.cfi_offset 14, -4
 546:Generated_Source\PSoC4/Bluetooth.c ****     CyBle_SetState(CYBLE_STATE_STOPPED);
 392              		.loc 1 546 0
 393 0002 FFF7FEFF 		bl	CyBle_Shutdown
 394              	.LVL44:
 547:Generated_Source\PSoC4/Bluetooth.c ****     #if(CYBLE_SHARING_MODE_EXPORT)
ARM GAS  C:\Windows\TEMP\ccsjdpha.s 			page 31


 395              		.loc 1 547 0
 396 0006 0022     		movs	r2, #0
 397 0008 014B     		ldr	r3, .L27
 398 000a 1A70     		strb	r2, [r3]
 554:Generated_Source\PSoC4/Bluetooth.c **** 
 399              		.loc 1 554 0
 400              		@ sp needed
 401 000c 10BD     		pop	{r4, pc}
 402              	.L28:
 403 000e C046     		.align	2
 404              	.L27:
 405 0010 00000000 		.word	cyBle_state
 406              		.cfi_endproc
 407              	.LFE5:
 408              		.size	CyBle_Stop, .-CyBle_Stop
 409              		.section	.text.CyBle_StoreBondingData,"ax",%progbits
 410              		.align	2
 411              		.global	CyBle_StoreBondingData
 412              		.code	16
 413              		.thumb_func
 414              		.type	CyBle_StoreBondingData, %function
 415              	CyBle_StoreBondingData:
 416              	.LFB6:
 601:Generated_Source\PSoC4/Bluetooth.c ****     CYBLE_API_RESULT_T apiResult = CYBLE_ERROR_OK;
 417              		.loc 1 601 0
 418              		.cfi_startproc
 419              		@ args = 0, pretend = 0, frame = 56
 420              		@ frame_needed = 0, uses_anonymous_args = 0
 421              	.LVL45:
 422 0000 10B5     		push	{r4, lr}
 423              		.cfi_def_cfa_offset 8
 424              		.cfi_offset 4, -8
 425              		.cfi_offset 14, -4
 426 0002 8EB0     		sub	sp, sp, #56
 427              		.cfi_def_cfa_offset 64
 428 0004 0400     		movs	r4, r0
 429              	.LVL46:
 605:Generated_Source\PSoC4/Bluetooth.c ****     {
 430              		.loc 1 605 0
 431 0006 394B     		ldr	r3, .L40
 432 0008 1B78     		ldrb	r3, [r3]
 433 000a DB07     		lsls	r3, r3, #31
 434 000c 0BD5     		bpl	.L38
 607:Generated_Source\PSoC4/Bluetooth.c ****         if(apiResult == CYBLE_ERROR_OK)
 435              		.loc 1 607 0
 436 000e FFF7FEFF 		bl	CyBle_StoreStackData
 437              	.LVL47:
 608:Generated_Source\PSoC4/Bluetooth.c ****         {
 438              		.loc 1 608 0
 439 0012 0028     		cmp	r0, #0
 440 0014 0AD1     		bne	.L30
 610:Generated_Source\PSoC4/Bluetooth.c ****             /* Change apiResult if there are more pending data to store */
 441              		.loc 1 610 0
 442 0016 354A     		ldr	r2, .L40
 443 0018 1378     		ldrb	r3, [r2]
 444 001a 0121     		movs	r1, #1
 445 001c 8B43     		bics	r3, r1
ARM GAS  C:\Windows\TEMP\ccsjdpha.s 			page 32


 446 001e 1370     		strb	r3, [r2]
 612:Generated_Source\PSoC4/Bluetooth.c ****             {
 447              		.loc 1 612 0
 448 0020 9B07     		lsls	r3, r3, #30
 449 0022 02D4     		bmi	.L39
 450 0024 02E0     		b	.L30
 451              	.LVL48:
 452              	.L38:
 602:Generated_Source\PSoC4/Bluetooth.c ****     
 453              		.loc 1 602 0
 454 0026 0020     		movs	r0, #0
 455              	.LVL49:
 456 0028 00E0     		b	.L30
 457              	.LVL50:
 458              	.L39:
 614:Generated_Source\PSoC4/Bluetooth.c ****             }
 459              		.loc 1 614 0
 460 002a 2820     		movs	r0, #40
 461              	.LVL51:
 462              	.L30:
 620:Generated_Source\PSoC4/Bluetooth.c ****         ((cyBle_pendingFlashWrite & CYBLE_PENDING_CCCD_FLASH_WRITE_BIT) != 0u) &&
 463              		.loc 1 620 0
 464 002c 0028     		cmp	r0, #0
 465 002e 01D0     		beq	.L31
 620:Generated_Source\PSoC4/Bluetooth.c ****         ((cyBle_pendingFlashWrite & CYBLE_PENDING_CCCD_FLASH_WRITE_BIT) != 0u) &&
 466              		.loc 1 620 0 is_stmt 0 discriminator 2
 467 0030 002C     		cmp	r4, #0
 468 0032 1DD0     		beq	.L32
 469              	.L31:
 621:Generated_Source\PSoC4/Bluetooth.c ****         (cyBle_connHandle.bdHandle <= CYBLE_GAP_MAX_BONDED_DEVICE))
 470              		.loc 1 621 0 is_stmt 1 discriminator 3
 471 0034 2D4B     		ldr	r3, .L40
 472 0036 1B78     		ldrb	r3, [r3]
 620:Generated_Source\PSoC4/Bluetooth.c ****         ((cyBle_pendingFlashWrite & CYBLE_PENDING_CCCD_FLASH_WRITE_BIT) != 0u) &&
 473              		.loc 1 620 0 discriminator 3
 474 0038 9B07     		lsls	r3, r3, #30
 475 003a 19D5     		bpl	.L32
 622:Generated_Source\PSoC4/Bluetooth.c ****     {
 476              		.loc 1 622 0
 477 003c 2C4B     		ldr	r3, .L40+4
 478 003e 1B78     		ldrb	r3, [r3]
 621:Generated_Source\PSoC4/Bluetooth.c ****         (cyBle_connHandle.bdHandle <= CYBLE_GAP_MAX_BONDED_DEVICE))
 479              		.loc 1 621 0
 480 0040 042B     		cmp	r3, #4
 481 0042 15D8     		bhi	.L32
 624:Generated_Source\PSoC4/Bluetooth.c ****                         cyBle_connHandle.bdHandle], CYBLE_GATT_DB_CCCD_COUNT, isForceWrite);
 482              		.loc 1 624 0
 483 0044 9A00     		lsls	r2, r3, #2
 484 0046 D318     		adds	r3, r2, r3
 485 0048 5900     		lsls	r1, r3, #1
 486 004a 9E23     		movs	r3, #158
 487 004c 9B00     		lsls	r3, r3, #2
 488 004e 9C46     		mov	ip, r3
 489 0050 6144     		add	r1, r1, ip
 490 0052 284B     		ldr	r3, .L40+8
 491 0054 C918     		adds	r1, r1, r3
 492 0056 0131     		adds	r1, r1, #1
ARM GAS  C:\Windows\TEMP\ccsjdpha.s 			page 33


 493 0058 2300     		movs	r3, r4
 494 005a 0A22     		movs	r2, #10
 495 005c 2648     		ldr	r0, .L40+12
 496              	.LVL52:
 497 005e FFF7FEFF 		bl	CyBle_StoreAppData
 498              	.LVL53:
 626:Generated_Source\PSoC4/Bluetooth.c ****         {
 499              		.loc 1 626 0
 500 0062 0028     		cmp	r0, #0
 501 0064 04D1     		bne	.L32
 628:Generated_Source\PSoC4/Bluetooth.c ****         }
 502              		.loc 1 628 0
 503 0066 214A     		ldr	r2, .L40
 504 0068 1378     		ldrb	r3, [r2]
 505 006a 0221     		movs	r1, #2
 506 006c 8B43     		bics	r3, r1
 507 006e 1370     		strb	r3, [r2]
 508              	.LVL54:
 509              	.L32:
 632:Generated_Source\PSoC4/Bluetooth.c ****         ((cyBle_pendingFlashWrite & CYBLE_PENDING_CCCD_FLASH_CLEAR_MASK) != 0u) )
 510              		.loc 1 632 0
 511 0070 0028     		cmp	r0, #0
 512 0072 01D0     		beq	.L33
 632:Generated_Source\PSoC4/Bluetooth.c ****         ((cyBle_pendingFlashWrite & CYBLE_PENDING_CCCD_FLASH_CLEAR_MASK) != 0u) )
 513              		.loc 1 632 0 is_stmt 0 discriminator 2
 514 0074 002C     		cmp	r4, #0
 515 0076 36D0     		beq	.L34
 516              	.L33:
 633:Generated_Source\PSoC4/Bluetooth.c ****     {
 517              		.loc 1 633 0 is_stmt 1 discriminator 3
 518 0078 1C4B     		ldr	r3, .L40
 519 007a 1B78     		ldrb	r3, [r3]
 632:Generated_Source\PSoC4/Bluetooth.c ****         ((cyBle_pendingFlashWrite & CYBLE_PENDING_CCCD_FLASH_CLEAR_MASK) != 0u) )
 520              		.loc 1 632 0 discriminator 3
 521 007c 0C22     		movs	r2, #12
 522 007e 1A42     		tst	r2, r3
 523 0080 31D0     		beq	.L34
 635:Generated_Source\PSoC4/Bluetooth.c ****         {
 524              		.loc 1 635 0
 525 0082 1B07     		lsls	r3, r3, #28
 526 0084 12D5     		bpl	.L35
 527              	.LBB3:
 640:Generated_Source\PSoC4/Bluetooth.c **** 
 528              		.loc 1 640 0
 529 0086 2632     		adds	r2, r2, #38
 530 0088 0021     		movs	r1, #0
 531 008a 01A8     		add	r0, sp, #4
 532              	.LVL55:
 533 008c FFF7FEFF 		bl	memset
 534              	.LVL56:
 642:Generated_Source\PSoC4/Bluetooth.c ****                 (const uint8 *)cyBle_flashStorage.attValuesCCCDFlashMemory, sizeof(defaultValuesCCC
 535              		.loc 1 642 0
 536 0090 2300     		movs	r3, r4
 537 0092 3222     		movs	r2, #50
 538 0094 1949     		ldr	r1, .L40+16
 539 0096 01A8     		add	r0, sp, #4
 540 0098 FFF7FEFF 		bl	CyBle_StoreAppData
ARM GAS  C:\Windows\TEMP\ccsjdpha.s 			page 34


 541              	.LVL57:
 644:Generated_Source\PSoC4/Bluetooth.c ****             {
 542              		.loc 1 644 0
 543 009c 0028     		cmp	r0, #0
 544 009e 22D1     		bne	.L34
 646:Generated_Source\PSoC4/Bluetooth.c ****             }
 545              		.loc 1 646 0
 546 00a0 124A     		ldr	r2, .L40
 547 00a2 1378     		ldrb	r3, [r2]
 548 00a4 0821     		movs	r1, #8
 549 00a6 8B43     		bics	r3, r1
 550 00a8 1370     		strb	r3, [r2]
 551 00aa 1CE0     		b	.L34
 552              	.L35:
 553              	.LBE3:
 554              	.LBB4:
 651:Generated_Source\PSoC4/Bluetooth.c ****             
 555              		.loc 1 651 0
 556 00ac 0A22     		movs	r2, #10
 557 00ae 0021     		movs	r1, #0
 558 00b0 01A8     		add	r0, sp, #4
 559              	.LVL58:
 560 00b2 FFF7FEFF 		bl	memset
 561              	.LVL59:
 653:Generated_Source\PSoC4/Bluetooth.c ****                                     cyBle_pendingFlashClearCccdHandle], CYBLE_GATT_DB_CCCD_COUNT, i
 562              		.loc 1 653 0
 563 00b6 124B     		ldr	r3, .L40+20
 564 00b8 5B78     		ldrb	r3, [r3, #1]
 565 00ba 9A00     		lsls	r2, r3, #2
 566 00bc D318     		adds	r3, r2, r3
 567 00be 5900     		lsls	r1, r3, #1
 568 00c0 9E23     		movs	r3, #158
 569 00c2 9B00     		lsls	r3, r3, #2
 570 00c4 9C46     		mov	ip, r3
 571 00c6 6144     		add	r1, r1, ip
 572 00c8 0A4B     		ldr	r3, .L40+8
 573 00ca C918     		adds	r1, r1, r3
 574 00cc 0131     		adds	r1, r1, #1
 575 00ce 2300     		movs	r3, r4
 576 00d0 0A22     		movs	r2, #10
 577 00d2 01A8     		add	r0, sp, #4
 578 00d4 FFF7FEFF 		bl	CyBle_StoreAppData
 579              	.LVL60:
 655:Generated_Source\PSoC4/Bluetooth.c ****             {
 580              		.loc 1 655 0
 581 00d8 0028     		cmp	r0, #0
 582 00da 04D1     		bne	.L34
 657:Generated_Source\PSoC4/Bluetooth.c ****             }
 583              		.loc 1 657 0
 584 00dc 034A     		ldr	r2, .L40
 585 00de 1378     		ldrb	r3, [r2]
 586 00e0 0421     		movs	r1, #4
 587 00e2 8B43     		bics	r3, r1
 588 00e4 1370     		strb	r3, [r2]
 589              	.LVL61:
 590              	.L34:
 591              	.LBE4:
ARM GAS  C:\Windows\TEMP\ccsjdpha.s 			page 35


 663:Generated_Source\PSoC4/Bluetooth.c **** 
 592              		.loc 1 663 0
 593 00e6 0EB0     		add	sp, sp, #56
 594              		@ sp needed
 595 00e8 10BD     		pop	{r4, pc}
 596              	.L41:
 597 00ea C046     		.align	2
 598              	.L40:
 599 00ec 00000000 		.word	cyBle_pendingFlashWrite
 600 00f0 00000000 		.word	cyBle_connHandle
 601 00f4 00000000 		.word	cyBle_flashStorage
 602 00f8 00000000 		.word	cyBle_attValuesCCCD
 603 00fc 79020000 		.word	cyBle_flashStorage+633
 604 0100 00000000 		.word	.LANCHOR2
 605              		.cfi_endproc
 606              	.LFE6:
 607              		.size	CyBle_StoreBondingData, .-CyBle_StoreBondingData
 608              		.section	.text.CyBle_GapRemoveBondedDevice,"ax",%progbits
 609              		.align	2
 610              		.global	CyBle_GapRemoveBondedDevice
 611              		.code	16
 612              		.thumb_func
 613              		.type	CyBle_GapRemoveBondedDevice, %function
 614              	CyBle_GapRemoveBondedDevice:
 615              	.LFB7:
 699:Generated_Source\PSoC4/Bluetooth.c ****     CYBLE_API_RESULT_T apiResult = CYBLE_ERROR_OK;
 616              		.loc 1 699 0
 617              		.cfi_startproc
 618              		@ args = 0, pretend = 0, frame = 16
 619              		@ frame_needed = 0, uses_anonymous_args = 0
 620              	.LVL62:
 621 0000 30B5     		push	{r4, r5, lr}
 622              		.cfi_def_cfa_offset 12
 623              		.cfi_offset 4, -12
 624              		.cfi_offset 5, -8
 625              		.cfi_offset 14, -4
 626 0002 85B0     		sub	sp, sp, #20
 627              		.cfi_def_cfa_offset 32
 628 0004 0500     		movs	r5, r0
 629              	.LVL63:
 702:Generated_Source\PSoC4/Bluetooth.c ****     {
 630              		.loc 1 702 0
 631 0006 174B     		ldr	r3, .L48
 632 0008 1C78     		ldrb	r4, [r3]
 633 000a 002C     		cmp	r4, #0
 634 000c 26D1     		bne	.L47
 635              	.LBB5:
 708:Generated_Source\PSoC4/Bluetooth.c **** 
 636              		.loc 1 708 0
 637 000e 0722     		movs	r2, #7
 638 0010 0021     		movs	r1, #0
 639 0012 02A8     		add	r0, sp, #8
 640              	.LVL64:
 641 0014 FFF7FEFF 		bl	memset
 642              	.LVL65:
 710:Generated_Source\PSoC4/Bluetooth.c **** 	    {
 643              		.loc 1 710 0
ARM GAS  C:\Windows\TEMP\ccsjdpha.s 			page 36


 644 0018 0622     		movs	r2, #6
 645 001a 02A9     		add	r1, sp, #8
 646 001c 2800     		movs	r0, r5
 647 001e FFF7FEFF 		bl	memcmp
 648              	.LVL66:
 649 0022 0028     		cmp	r0, #0
 650 0024 04D1     		bne	.L44
 713:Generated_Source\PSoC4/Bluetooth.c ****         }
 651              		.loc 1 713 0
 652 0026 0823     		movs	r3, #8
 653 0028 1C43     		orrs	r4, r3
 654 002a 0E4B     		ldr	r3, .L48
 655 002c 1C70     		strb	r4, [r3]
 656 002e 0FE0     		b	.L45
 657              	.L44:
 718:Generated_Source\PSoC4/Bluetooth.c ****             if(apiResult == CYBLE_ERROR_OK)
 658              		.loc 1 718 0
 659 0030 2900     		movs	r1, r5
 660 0032 6B46     		mov	r3, sp
 661 0034 D81D     		adds	r0, r3, #7
 662 0036 FFF7FEFF 		bl	CyBle_GapGetPeerBdHandle
 663              	.LVL67:
 719:Generated_Source\PSoC4/Bluetooth.c ****             {
 664              		.loc 1 719 0
 665 003a 0028     		cmp	r0, #0
 666 003c 08D1     		bne	.L45
 722:Generated_Source\PSoC4/Bluetooth.c ****                 cyBle_pendingFlashClearCccdHandle = bDevHandle;
 667              		.loc 1 722 0
 668 003e 094A     		ldr	r2, .L48
 669 0040 1178     		ldrb	r1, [r2]
 670 0042 0423     		movs	r3, #4
 671 0044 0B43     		orrs	r3, r1
 672 0046 1370     		strb	r3, [r2]
 723:Generated_Source\PSoC4/Bluetooth.c ****             }
 673              		.loc 1 723 0
 674 0048 6B46     		mov	r3, sp
 675 004a DA79     		ldrb	r2, [r3, #7]
 676 004c 064B     		ldr	r3, .L48+4
 677 004e 5A70     		strb	r2, [r3, #1]
 678              	.LVL68:
 679              	.L45:
 727:Generated_Source\PSoC4/Bluetooth.c ****         {
 680              		.loc 1 727 0
 681 0050 0028     		cmp	r0, #0
 682 0052 04D1     		bne	.L43
 729:Generated_Source\PSoC4/Bluetooth.c ****         }
 683              		.loc 1 729 0
 684 0054 2800     		movs	r0, r5
 685              	.LVL69:
 686 0056 FFF7FEFF 		bl	CyBle_GapRemoveDeviceFromWhiteList
 687              	.LVL70:
 688 005a 00E0     		b	.L43
 689              	.LVL71:
 690              	.L47:
 691              	.LBE5:
 734:Generated_Source\PSoC4/Bluetooth.c ****     }
 692              		.loc 1 734 0
ARM GAS  C:\Windows\TEMP\ccsjdpha.s 			page 37


 693 005c 0220     		movs	r0, #2
 694              	.LVL72:
 695              	.L43:
 738:Generated_Source\PSoC4/Bluetooth.c **** 
 696              		.loc 1 738 0
 697 005e 05B0     		add	sp, sp, #20
 698              		@ sp needed
 699              	.LVL73:
 700 0060 30BD     		pop	{r4, r5, pc}
 701              	.L49:
 702 0062 C046     		.align	2
 703              	.L48:
 704 0064 00000000 		.word	cyBle_pendingFlashWrite
 705 0068 00000000 		.word	.LANCHOR2
 706              		.cfi_endproc
 707              	.LFE7:
 708              		.size	CyBle_GapRemoveBondedDevice, .-CyBle_GapRemoveBondedDevice
 709              		.section	.text.CyBle_GappStartAdvertisement,"ax",%progbits
 710              		.align	2
 711              		.global	CyBle_GappStartAdvertisement
 712              		.code	16
 713              		.thumb_func
 714              		.type	CyBle_GappStartAdvertisement, %function
 715              	CyBle_GappStartAdvertisement:
 716              	.LFB8:
 796:Generated_Source\PSoC4/Bluetooth.c ****         CYBLE_API_RESULT_T apiResult;
 717              		.loc 1 796 0
 718              		.cfi_startproc
 719              		@ args = 0, pretend = 0, frame = 0
 720              		@ frame_needed = 0, uses_anonymous_args = 0
 721              	.LVL74:
 722 0000 10B5     		push	{r4, lr}
 723              		.cfi_def_cfa_offset 8
 724              		.cfi_offset 4, -8
 725              		.cfi_offset 14, -4
 799:Generated_Source\PSoC4/Bluetooth.c ****         {
 726              		.loc 1 799 0
 727 0002 0228     		cmp	r0, #2
 728 0004 33D8     		bhi	.L54
 803:Generated_Source\PSoC4/Bluetooth.c ****         {   
 729              		.loc 1 803 0
 730 0006 1E4B     		ldr	r3, .L57
 731 0008 1B78     		ldrb	r3, [r3]
 732 000a 042B     		cmp	r3, #4
 733 000c 31D1     		bne	.L55
 803:Generated_Source\PSoC4/Bluetooth.c ****         {   
 734              		.loc 1 803 0 is_stmt 0 discriminator 1
 735 000e 1D4B     		ldr	r3, .L57+4
 736 0010 1B78     		ldrb	r3, [r3]
 737 0012 5B07     		lsls	r3, r3, #29
 738 0014 30D4     		bmi	.L56
 805:Generated_Source\PSoC4/Bluetooth.c ****             {
 739              		.loc 1 805 0 is_stmt 1
 740 0016 0028     		cmp	r0, #0
 741 0018 0BD1     		bne	.L52
 807:Generated_Source\PSoC4/Bluetooth.c ****                 cyBle_discoveryModeInfo.advParam->advIntvMin = CYBLE_FAST_ADV_INT_MIN;
 742              		.loc 1 807 0
ARM GAS  C:\Windows\TEMP\ccsjdpha.s 			page 38


 743 001a 1B4B     		ldr	r3, .L57+8
 744 001c 1A00     		movs	r2, r3
 745 001e 4032     		adds	r2, r2, #64
 746 0020 0021     		movs	r1, #0
 747 0022 1182     		strh	r1, [r2, #16]
 808:Generated_Source\PSoC4/Bluetooth.c ****                 cyBle_discoveryModeInfo.advParam->advIntvMax = CYBLE_FAST_ADV_INT_MAX;
 748              		.loc 1 808 0
 749 0024 2022     		movs	r2, #32
 750 0026 596C     		ldr	r1, [r3, #68]
 751 0028 0A80     		strh	r2, [r1]
 809:Generated_Source\PSoC4/Bluetooth.c ****             }
 752              		.loc 1 809 0
 753 002a 5B6C     		ldr	r3, [r3, #68]
 754 002c 1032     		adds	r2, r2, #16
 755 002e 5A80     		strh	r2, [r3, #2]
 756 0030 0EE0     		b	.L53
 757              	.L52:
 811:Generated_Source\PSoC4/Bluetooth.c ****             {
 758              		.loc 1 811 0
 759 0032 0128     		cmp	r0, #1
 760 0034 0CD1     		bne	.L53
 813:Generated_Source\PSoC4/Bluetooth.c ****                 cyBle_discoveryModeInfo.advParam->advIntvMin = CYBLE_SLOW_ADV_INT_MIN;
 761              		.loc 1 813 0
 762 0036 144B     		ldr	r3, .L57+8
 763 0038 1A00     		movs	r2, r3
 764 003a 4032     		adds	r2, r2, #64
 765 003c 9621     		movs	r1, #150
 766 003e 1182     		strh	r1, [r2, #16]
 814:Generated_Source\PSoC4/Bluetooth.c ****                 cyBle_discoveryModeInfo.advParam->advIntvMax = CYBLE_SLOW_ADV_INT_MAX;
 767              		.loc 1 814 0
 768 0040 C822     		movs	r2, #200
 769 0042 D200     		lsls	r2, r2, #3
 770 0044 596C     		ldr	r1, [r3, #68]
 771 0046 0A80     		strh	r2, [r1]
 815:Generated_Source\PSoC4/Bluetooth.c ****             }       
 772              		.loc 1 815 0
 773 0048 5B6C     		ldr	r3, [r3, #68]
 774 004a 8022     		movs	r2, #128
 775 004c D201     		lsls	r2, r2, #7
 776 004e 5A80     		strh	r2, [r3, #2]
 777              	.L53:
 820:Generated_Source\PSoC4/Bluetooth.c ****             apiResult = CyBle_GappEnterDiscoveryMode(&cyBle_discoveryModeInfo);
 778              		.loc 1 820 0
 779 0050 0E4B     		ldr	r3, .L57+12
 780 0052 1870     		strb	r0, [r3]
 821:Generated_Source\PSoC4/Bluetooth.c ****         
 781              		.loc 1 821 0
 782 0054 0C48     		ldr	r0, .L57+8
 783              	.LVL75:
 784 0056 4030     		adds	r0, r0, #64
 785 0058 FFF7FEFF 		bl	CyBle_GappEnterDiscoveryMode
 786              	.LVL76:
 823:Generated_Source\PSoC4/Bluetooth.c ****             {
 787              		.loc 1 823 0
 788 005c 0028     		cmp	r0, #0
 789 005e 0DD1     		bne	.L51
 825:Generated_Source\PSoC4/Bluetooth.c ****             }
ARM GAS  C:\Windows\TEMP\ccsjdpha.s 			page 39


 790              		.loc 1 825 0
 791 0060 084A     		ldr	r2, .L57+4
 792 0062 1178     		ldrb	r1, [r2]
 793 0064 0423     		movs	r3, #4
 794 0066 0B43     		orrs	r3, r1
 795 0068 DBB2     		uxtb	r3, r3
 796 006a 1370     		strb	r3, [r2]
 797 006c 06E0     		b	.L51
 798              	.LVL77:
 799              	.L54:
 801:Generated_Source\PSoC4/Bluetooth.c ****         }
 800              		.loc 1 801 0
 801 006e 0120     		movs	r0, #1
 802              	.LVL78:
 803 0070 04E0     		b	.L51
 804              	.LVL79:
 805              	.L55:
 830:Generated_Source\PSoC4/Bluetooth.c ****         }
 806              		.loc 1 830 0
 807 0072 0420     		movs	r0, #4
 808              	.LVL80:
 809 0074 FF30     		adds	r0, r0, #255
 810 0076 01E0     		b	.L51
 811              	.LVL81:
 812              	.L56:
 813 0078 0420     		movs	r0, #4
 814              	.LVL82:
 815 007a FF30     		adds	r0, r0, #255
 816              	.L51:
 817              	.LVL83:
 834:Generated_Source\PSoC4/Bluetooth.c **** 
 818              		.loc 1 834 0
 819              		@ sp needed
 820 007c 10BD     		pop	{r4, pc}
 821              	.L58:
 822 007e C046     		.align	2
 823              	.L57:
 824 0080 00000000 		.word	cyBle_state
 825 0084 00000000 		.word	cyBle_eventHandlerFlag
 826 0088 00000000 		.word	.LANCHOR0
 827 008c 00000000 		.word	cyBle_advertisingIntervalType
 828              		.cfi_endproc
 829              	.LFE8:
 830              		.size	CyBle_GappStartAdvertisement, .-CyBle_GappStartAdvertisement
 831              		.section	.text.CyBle_GappStopAdvertisement,"ax",%progbits
 832              		.align	2
 833              		.global	CyBle_GappStopAdvertisement
 834              		.code	16
 835              		.thumb_func
 836              		.type	CyBle_GappStopAdvertisement, %function
 837              	CyBle_GappStopAdvertisement:
 838              	.LFB9:
 857:Generated_Source\PSoC4/Bluetooth.c ****         CyBle_GappExitDiscoveryMode();
 839              		.loc 1 857 0
 840              		.cfi_startproc
 841              		@ args = 0, pretend = 0, frame = 0
 842              		@ frame_needed = 0, uses_anonymous_args = 0
ARM GAS  C:\Windows\TEMP\ccsjdpha.s 			page 40


 843 0000 10B5     		push	{r4, lr}
 844              		.cfi_def_cfa_offset 8
 845              		.cfi_offset 4, -8
 846              		.cfi_offset 14, -4
 858:Generated_Source\PSoC4/Bluetooth.c ****         cyBle_eventHandlerFlag |= CYBLE_STOP_FLAG;
 847              		.loc 1 858 0
 848 0002 FFF7FEFF 		bl	CyBle_GappExitDiscoveryMode
 849              	.LVL84:
 859:Generated_Source\PSoC4/Bluetooth.c ****     }
 850              		.loc 1 859 0
 851 0006 034A     		ldr	r2, .L60
 852 0008 1178     		ldrb	r1, [r2]
 853 000a 0823     		movs	r3, #8
 854 000c 0B43     		orrs	r3, r1
 855 000e DBB2     		uxtb	r3, r3
 856 0010 1370     		strb	r3, [r2]
 860:Generated_Source\PSoC4/Bluetooth.c ****     
 857              		.loc 1 860 0
 858              		@ sp needed
 859 0012 10BD     		pop	{r4, pc}
 860              	.L61:
 861              		.align	2
 862              	.L60:
 863 0014 00000000 		.word	cyBle_eventHandlerFlag
 864              		.cfi_endproc
 865              	.LFE9:
 866              		.size	CyBle_GappStopAdvertisement, .-CyBle_GappStopAdvertisement
 867              		.section	.text.CyBle_ChangeAdDeviceAddress,"ax",%progbits
 868              		.align	2
 869              		.global	CyBle_ChangeAdDeviceAddress
 870              		.code	16
 871              		.thumb_func
 872              		.type	CyBle_ChangeAdDeviceAddress, %function
 873              	CyBle_ChangeAdDeviceAddress:
 874              	.LFB10:
 879:Generated_Source\PSoC4/Bluetooth.c ****         uint8 i;
 875              		.loc 1 879 0
 876              		.cfi_startproc
 877              		@ args = 0, pretend = 0, frame = 0
 878              		@ frame_needed = 0, uses_anonymous_args = 0
 879              		@ link register save eliminated.
 880              	.LVL85:
 906:Generated_Source\PSoC4/Bluetooth.c ****   
 881              		.loc 1 906 0
 882              		@ sp needed
 883 0000 7047     		bx	lr
 884              		.cfi_endproc
 885              	.LFE10:
 886              		.size	CyBle_ChangeAdDeviceAddress, .-CyBle_ChangeAdDeviceAddress
 887 0002 C046     		.section	.text.CyBle_GapSetLocalName,"ax",%progbits
 888              		.align	2
 889              		.global	CyBle_GapSetLocalName
 890              		.code	16
 891              		.thumb_func
 892              		.type	CyBle_GapSetLocalName, %function
 893              	CyBle_GapSetLocalName:
 894              	.LFB12:
ARM GAS  C:\Windows\TEMP\ccsjdpha.s 			page 41


1268:Generated_Source\PSoC4/Bluetooth.c ****         
1269:Generated_Source\PSoC4/Bluetooth.c **** #endif /* (CYBLE_GAP_ROLE_PERIPHERAL) */  
1270:Generated_Source\PSoC4/Bluetooth.c ****     
1271:Generated_Source\PSoC4/Bluetooth.c ****     
1272:Generated_Source\PSoC4/Bluetooth.c ****     /******************************************************************************
1273:Generated_Source\PSoC4/Bluetooth.c ****     * Function Name: CyBle_GapSetLocalName
1274:Generated_Source\PSoC4/Bluetooth.c ****     ***************************************************************************//**
1275:Generated_Source\PSoC4/Bluetooth.c ****     *  This function is used to set the local device name - a Characteristic of the 
1276:Generated_Source\PSoC4/Bluetooth.c ****     *  GAP Service. If the characteristic length entered in the component customizer
1277:Generated_Source\PSoC4/Bluetooth.c ****     *  is shorter than the string specified by the "name" parameter, the local device
1278:Generated_Source\PSoC4/Bluetooth.c ****     *  name will be cut to the length specified in the customizer.
1279:Generated_Source\PSoC4/Bluetooth.c ****     * 
1280:Generated_Source\PSoC4/Bluetooth.c ****     *  \param name: The local device name string. The name string to be written as
1281:Generated_Source\PSoC4/Bluetooth.c ****     *              the local device name. It represents a UTF-8 encoded User
1282:Generated_Source\PSoC4/Bluetooth.c ****     *              Friendly Descriptive Name for the device. The length of the local
1283:Generated_Source\PSoC4/Bluetooth.c ****     *              device string is entered into the component customizer and it can
1284:Generated_Source\PSoC4/Bluetooth.c ****     *              be set to a value from 0 to 248 bytes. If the name contained in
1285:Generated_Source\PSoC4/Bluetooth.c ****     *              the parameter is shorter than the length from the customizer, the
1286:Generated_Source\PSoC4/Bluetooth.c ****     *              end of the name is indicated by a NULL octet (0x00).
1287:Generated_Source\PSoC4/Bluetooth.c ****     * 
1288:Generated_Source\PSoC4/Bluetooth.c ****     * \return
1289:Generated_Source\PSoC4/Bluetooth.c ****     *  CYBLE_API_RESULT_T : Return value indicates if the function succeeded or 
1290:Generated_Source\PSoC4/Bluetooth.c ****     *  failed. Following are the possible error codes.
1291:Generated_Source\PSoC4/Bluetooth.c ****     *
1292:Generated_Source\PSoC4/Bluetooth.c ****     *   Errors codes                       | Description
1293:Generated_Source\PSoC4/Bluetooth.c ****     *   ------------                       | -----------
1294:Generated_Source\PSoC4/Bluetooth.c ****     *   CYBLE_ERROR_OK                     | Function completed successfully.
1295:Generated_Source\PSoC4/Bluetooth.c ****     *   CYBLE_ERROR_INVALID_PARAMETER      | On specifying NULL as input parameter
1296:Generated_Source\PSoC4/Bluetooth.c ****     *  
1297:Generated_Source\PSoC4/Bluetooth.c ****     *******************************************************************************/
1298:Generated_Source\PSoC4/Bluetooth.c ****     CYBLE_API_RESULT_T CyBle_GapSetLocalName(const char8 name[])
1299:Generated_Source\PSoC4/Bluetooth.c ****     {
 895              		.loc 1 1299 0
 896              		.cfi_startproc
 897              		@ args = 0, pretend = 0, frame = 0
 898              		@ frame_needed = 0, uses_anonymous_args = 0
 899              	.LVL86:
 900 0000 70B5     		push	{r4, r5, r6, lr}
 901              		.cfi_def_cfa_offset 16
 902              		.cfi_offset 4, -16
 903              		.cfi_offset 5, -12
 904              		.cfi_offset 6, -8
 905              		.cfi_offset 14, -4
 906 0002 041E     		subs	r4, r0, #0
 907              	.LVL87:
1300:Generated_Source\PSoC4/Bluetooth.c ****         CYBLE_API_RESULT_T apiResult = CYBLE_ERROR_OK;
1301:Generated_Source\PSoC4/Bluetooth.c ****         uint8 i;
1302:Generated_Source\PSoC4/Bluetooth.c ****         char8 *ptr;
1303:Generated_Source\PSoC4/Bluetooth.c ****         uint8 charLen;
1304:Generated_Source\PSoC4/Bluetooth.c **** 
1305:Generated_Source\PSoC4/Bluetooth.c ****         if(NULL != name)
 908              		.loc 1 1305 0
 909 0004 26D0     		beq	.L69
1306:Generated_Source\PSoC4/Bluetooth.c ****         {
1307:Generated_Source\PSoC4/Bluetooth.c ****             /* Get the pointer to the Device Name characteristic  */
1308:Generated_Source\PSoC4/Bluetooth.c ****             ptr = (char8 *) CYBLE_GATT_DB_ATTR_GET_ATTR_GEN_PTR(cyBle_gaps.deviceNameCharHandle);
 910              		.loc 1 1308 0
ARM GAS  C:\Windows\TEMP\ccsjdpha.s 			page 42


 911 0006 144B     		ldr	r3, .L70
 912 0008 5B88     		ldrh	r3, [r3, #2]
 913 000a 013B     		subs	r3, r3, #1
 914 000c 134D     		ldr	r5, .L70+4
 915 000e 9A00     		lsls	r2, r3, #2
 916 0010 D018     		adds	r0, r2, r3
 917              	.LVL88:
 918 0012 8100     		lsls	r1, r0, #2
 919 0014 6918     		adds	r1, r5, r1
 920 0016 0969     		ldr	r1, [r1, #16]
 921 0018 4868     		ldr	r0, [r1, #4]
 922              	.LVL89:
1309:Generated_Source\PSoC4/Bluetooth.c **** 
1310:Generated_Source\PSoC4/Bluetooth.c ****             /* First need to get the maximum length of the characteristic data in the GATT
1311:Generated_Source\PSoC4/Bluetooth.c ****                 database to make sure there is enough place for the data. The length
1312:Generated_Source\PSoC4/Bluetooth.c ****                 can't be longer than 248, so only the LSB of 16 bit of length is to
1313:Generated_Source\PSoC4/Bluetooth.c ****                 be used. */
1314:Generated_Source\PSoC4/Bluetooth.c ****             charLen = (uint8)CYBLE_GATT_DB_ATTR_GET_ATTR_GEN_MAX_LEN(cyBle_gaps.deviceNameCharHandl
 923              		.loc 1 1314 0
 924 001a D318     		adds	r3, r2, r3
 925 001c 9A00     		lsls	r2, r3, #2
 926 001e AA18     		adds	r2, r5, r2
 927 0020 117B     		ldrb	r1, [r2, #12]
 928              	.LVL90:
1315:Generated_Source\PSoC4/Bluetooth.c **** 
1316:Generated_Source\PSoC4/Bluetooth.c ****             /* Copy name into characteristic */
1317:Generated_Source\PSoC4/Bluetooth.c ****             for(i = 0u; ((i < charLen) && (CYBLE_NULL_CHARCTER != name[i])); i++)
 929              		.loc 1 1317 0
 930 0022 0023     		movs	r3, #0
 931 0024 02E0     		b	.L65
 932              	.LVL91:
 933              	.L67:
1318:Generated_Source\PSoC4/Bluetooth.c ****             {
1319:Generated_Source\PSoC4/Bluetooth.c ****                 ptr[i] = name[i];
 934              		.loc 1 1319 0 discriminator 4
 935 0026 C254     		strb	r2, [r0, r3]
1317:Generated_Source\PSoC4/Bluetooth.c ****             {
 936              		.loc 1 1317 0 discriminator 4
 937 0028 0133     		adds	r3, r3, #1
 938              	.LVL92:
 939 002a DBB2     		uxtb	r3, r3
 940              	.LVL93:
 941              	.L65:
1317:Generated_Source\PSoC4/Bluetooth.c ****             {
 942              		.loc 1 1317 0 is_stmt 0 discriminator 1
 943 002c 8B42     		cmp	r3, r1
 944 002e 02D2     		bcs	.L66
1317:Generated_Source\PSoC4/Bluetooth.c ****             {
 945              		.loc 1 1317 0 discriminator 3
 946 0030 E25C     		ldrb	r2, [r4, r3]
 947 0032 002A     		cmp	r2, #0
 948 0034 F7D1     		bne	.L67
 949              	.L66:
1320:Generated_Source\PSoC4/Bluetooth.c ****             }
1321:Generated_Source\PSoC4/Bluetooth.c **** 
1322:Generated_Source\PSoC4/Bluetooth.c ****             if(i < charLen)
 950              		.loc 1 1322 0 is_stmt 1
ARM GAS  C:\Windows\TEMP\ccsjdpha.s 			page 43


 951 0036 8B42     		cmp	r3, r1
 952 0038 02D2     		bcs	.L68
1323:Generated_Source\PSoC4/Bluetooth.c ****             {
1324:Generated_Source\PSoC4/Bluetooth.c ****                 /* Terminate string */
1325:Generated_Source\PSoC4/Bluetooth.c ****                 ptr[i] = CYBLE_NULL_CHARCTER;
 953              		.loc 1 1325 0
 954 003a C318     		adds	r3, r0, r3
 955              	.LVL94:
 956 003c 0022     		movs	r2, #0
 957 003e 1A70     		strb	r2, [r3]
 958              	.L68:
1326:Generated_Source\PSoC4/Bluetooth.c ****             }
1327:Generated_Source\PSoC4/Bluetooth.c ****             
1328:Generated_Source\PSoC4/Bluetooth.c ****             /* Set new actual length */
1329:Generated_Source\PSoC4/Bluetooth.c ****             
1330:Generated_Source\PSoC4/Bluetooth.c ****             /* Update device name in advertising and scan response structure */
1331:Generated_Source\PSoC4/Bluetooth.c ****             #if(CYBLE_GAP_ROLE_PERIPHERAL)
1332:Generated_Source\PSoC4/Bluetooth.c ****                 CyBle_ChangeAdLocalName(name, 0u);
 959              		.loc 1 1332 0
 960 0040 0021     		movs	r1, #0
 961              	.LVL95:
 962 0042 2000     		movs	r0, r4
 963              	.LVL96:
 964 0044 FFF7FEFF 		bl	CyBle_ChangeAdLocalName
 965              	.LVL97:
1333:Generated_Source\PSoC4/Bluetooth.c ****                 CyBle_ChangeAdLocalName(name, 1u);
 966              		.loc 1 1333 0
 967 0048 0121     		movs	r1, #1
 968 004a 2000     		movs	r0, r4
 969 004c FFF7FEFF 		bl	CyBle_ChangeAdLocalName
 970              	.LVL98:
1300:Generated_Source\PSoC4/Bluetooth.c ****         uint8 i;
 971              		.loc 1 1300 0
 972 0050 0020     		movs	r0, #0
 973 0052 00E0     		b	.L64
 974              	.LVL99:
 975              	.L69:
1334:Generated_Source\PSoC4/Bluetooth.c ****             #endif /* (CYBLE_GAP_ROLE_PERIPHERAL) */
1335:Generated_Source\PSoC4/Bluetooth.c ****         }
1336:Generated_Source\PSoC4/Bluetooth.c ****         else
1337:Generated_Source\PSoC4/Bluetooth.c ****         {
1338:Generated_Source\PSoC4/Bluetooth.c ****             apiResult = CYBLE_ERROR_INVALID_PARAMETER;
 976              		.loc 1 1338 0
 977 0054 0120     		movs	r0, #1
 978              	.LVL100:
 979              	.L64:
1339:Generated_Source\PSoC4/Bluetooth.c ****         }
1340:Generated_Source\PSoC4/Bluetooth.c ****         
1341:Generated_Source\PSoC4/Bluetooth.c ****         return(apiResult);
1342:Generated_Source\PSoC4/Bluetooth.c ****     }
 980              		.loc 1 1342 0
 981              		@ sp needed
 982              	.LVL101:
 983 0056 70BD     		pop	{r4, r5, r6, pc}
 984              	.L71:
 985              		.align	2
 986              	.L70:
ARM GAS  C:\Windows\TEMP\ccsjdpha.s 			page 44


 987 0058 00000000 		.word	cyBle_gaps
 988 005c 00000000 		.word	cyBle_gattDB
 989              		.cfi_endproc
 990              	.LFE12:
 991              		.size	CyBle_GapSetLocalName, .-CyBle_GapSetLocalName
 992              		.section	.text.CyBle_GapGetLocalName,"ax",%progbits
 993              		.align	2
 994              		.global	CyBle_GapGetLocalName
 995              		.code	16
 996              		.thumb_func
 997              		.type	CyBle_GapGetLocalName, %function
 998              	CyBle_GapGetLocalName:
 999              	.LFB13:
1343:Generated_Source\PSoC4/Bluetooth.c **** 
1344:Generated_Source\PSoC4/Bluetooth.c **** 
1345:Generated_Source\PSoC4/Bluetooth.c ****     /******************************************************************************
1346:Generated_Source\PSoC4/Bluetooth.c ****     * Function Name: CyBle_GapGetLocalName
1347:Generated_Source\PSoC4/Bluetooth.c ****     ***************************************************************************//**
1348:Generated_Source\PSoC4/Bluetooth.c ****     *  
1349:Generated_Source\PSoC4/Bluetooth.c ****     *  This function is used to read the local device name - a Characteristic of the 
1350:Generated_Source\PSoC4/Bluetooth.c ****     *  GAP Service.
1351:Generated_Source\PSoC4/Bluetooth.c ****     * 
1352:Generated_Source\PSoC4/Bluetooth.c ****     * \param name: The local device name string. Used to read the local name to the
1353:Generated_Source\PSoC4/Bluetooth.c ****     *             given string array. It represents a UTF-8 encoded User Friendly 
1354:Generated_Source\PSoC4/Bluetooth.c ****     *             Descriptive Name for the device. The length of the local device
1355:Generated_Source\PSoC4/Bluetooth.c ****     *             string is entered into the component customizer and it can be set
1356:Generated_Source\PSoC4/Bluetooth.c ****     *             to a value from 0 to 248 bytes. If the name contained in the
1357:Generated_Source\PSoC4/Bluetooth.c ****     *             parameter is shorter than the length from the customizer, the end
1358:Generated_Source\PSoC4/Bluetooth.c ****     *             of the name is indicated by a NULL octet (0x00).
1359:Generated_Source\PSoC4/Bluetooth.c ****     * 
1360:Generated_Source\PSoC4/Bluetooth.c ****     * \return
1361:Generated_Source\PSoC4/Bluetooth.c ****     *  CYBLE_API_RESULT_T : Return value indicates if the function succeeded or 
1362:Generated_Source\PSoC4/Bluetooth.c ****     *  failed. Following are the possible error codes.
1363:Generated_Source\PSoC4/Bluetooth.c ****     *
1364:Generated_Source\PSoC4/Bluetooth.c ****     *   Errors codes                       | Description
1365:Generated_Source\PSoC4/Bluetooth.c ****     *   ------------                       | -----------
1366:Generated_Source\PSoC4/Bluetooth.c ****     *   CYBLE_ERROR_OK                     | Function completed successfully.
1367:Generated_Source\PSoC4/Bluetooth.c ****     *   CYBLE_ERROR_INVALID_PARAMETER      | On specifying NULL as input parameter
1368:Generated_Source\PSoC4/Bluetooth.c ****     *
1369:Generated_Source\PSoC4/Bluetooth.c ****     *******************************************************************************/
1370:Generated_Source\PSoC4/Bluetooth.c ****     CYBLE_API_RESULT_T CyBle_GapGetLocalName(char8 name[])
1371:Generated_Source\PSoC4/Bluetooth.c ****     {
 1000              		.loc 1 1371 0
 1001              		.cfi_startproc
 1002              		@ args = 0, pretend = 0, frame = 0
 1003              		@ frame_needed = 0, uses_anonymous_args = 0
 1004              	.LVL102:
 1005 0000 10B5     		push	{r4, lr}
 1006              		.cfi_def_cfa_offset 8
 1007              		.cfi_offset 4, -8
 1008              		.cfi_offset 14, -4
 1009              	.LVL103:
1372:Generated_Source\PSoC4/Bluetooth.c ****         CYBLE_API_RESULT_T apiResult = CYBLE_ERROR_OK;
1373:Generated_Source\PSoC4/Bluetooth.c ****         uint8 charLen;
1374:Generated_Source\PSoC4/Bluetooth.c ****         uint8 i;
1375:Generated_Source\PSoC4/Bluetooth.c ****         char8 *ptr;
1376:Generated_Source\PSoC4/Bluetooth.c **** 
ARM GAS  C:\Windows\TEMP\ccsjdpha.s 			page 45


1377:Generated_Source\PSoC4/Bluetooth.c ****         if(NULL != name)
 1010              		.loc 1 1377 0
 1011 0002 0028     		cmp	r0, #0
 1012 0004 19D0     		beq	.L77
1378:Generated_Source\PSoC4/Bluetooth.c ****         {
1379:Generated_Source\PSoC4/Bluetooth.c ****             /* Get the pointer to the Device Name characteristic  */
1380:Generated_Source\PSoC4/Bluetooth.c ****             ptr = (char8 *) CYBLE_GATT_DB_ATTR_GET_ATTR_GEN_PTR(cyBle_gaps.deviceNameCharHandle);
 1013              		.loc 1 1380 0
 1014 0006 0E4B     		ldr	r3, .L78
 1015 0008 5B88     		ldrh	r3, [r3, #2]
 1016 000a 013B     		subs	r3, r3, #1
 1017 000c 9A00     		lsls	r2, r3, #2
 1018 000e D318     		adds	r3, r2, r3
 1019 0010 9A00     		lsls	r2, r3, #2
 1020 0012 0C4B     		ldr	r3, .L78+4
 1021 0014 9A18     		adds	r2, r3, r2
 1022 0016 1369     		ldr	r3, [r2, #16]
 1023 0018 5C68     		ldr	r4, [r3, #4]
 1024              	.LVL104:
1381:Generated_Source\PSoC4/Bluetooth.c **** 
1382:Generated_Source\PSoC4/Bluetooth.c ****             /* First need to get the length of the characteristic data in the GATT
1383:Generated_Source\PSoC4/Bluetooth.c ****                 database to make sure there is enough place for the data. The length
1384:Generated_Source\PSoC4/Bluetooth.c ****                 can't be longer than 248, so only the LSB of 16 bit of length is to
1385:Generated_Source\PSoC4/Bluetooth.c ****                 be used. */
1386:Generated_Source\PSoC4/Bluetooth.c ****             charLen = (uint8)CYBLE_GATT_DB_ATTR_GET_ATTR_GEN_LEN(cyBle_gaps.deviceNameCharHandle);
 1025              		.loc 1 1386 0
 1026 001a 1978     		ldrb	r1, [r3]
 1027              	.LVL105:
1387:Generated_Source\PSoC4/Bluetooth.c **** 
1388:Generated_Source\PSoC4/Bluetooth.c ****             /* Copy name from characteristic */
1389:Generated_Source\PSoC4/Bluetooth.c ****             for(i = 0u; ((i < charLen) && (CYBLE_NULL_CHARCTER != ptr[i])); i++)
 1028              		.loc 1 1389 0
 1029 001c 0023     		movs	r3, #0
 1030 001e 02E0     		b	.L74
 1031              	.LVL106:
 1032              	.L76:
1390:Generated_Source\PSoC4/Bluetooth.c ****             {
1391:Generated_Source\PSoC4/Bluetooth.c ****                 name[i] = ptr[i];
 1033              		.loc 1 1391 0 discriminator 4
 1034 0020 C254     		strb	r2, [r0, r3]
1389:Generated_Source\PSoC4/Bluetooth.c ****             {
 1035              		.loc 1 1389 0 discriminator 4
 1036 0022 0133     		adds	r3, r3, #1
 1037              	.LVL107:
 1038 0024 DBB2     		uxtb	r3, r3
 1039              	.LVL108:
 1040              	.L74:
1389:Generated_Source\PSoC4/Bluetooth.c ****             {
 1041              		.loc 1 1389 0 is_stmt 0 discriminator 1
 1042 0026 8B42     		cmp	r3, r1
 1043 0028 02D2     		bcs	.L75
1389:Generated_Source\PSoC4/Bluetooth.c ****             {
 1044              		.loc 1 1389 0 discriminator 3
 1045 002a E25C     		ldrb	r2, [r4, r3]
 1046 002c 002A     		cmp	r2, #0
 1047 002e F7D1     		bne	.L76
 1048              	.L75:
ARM GAS  C:\Windows\TEMP\ccsjdpha.s 			page 46


1392:Generated_Source\PSoC4/Bluetooth.c ****             }
1393:Generated_Source\PSoC4/Bluetooth.c **** 
1394:Generated_Source\PSoC4/Bluetooth.c ****             /* Terminate string */
1395:Generated_Source\PSoC4/Bluetooth.c ****             name[i] = CYBLE_NULL_CHARCTER;
 1049              		.loc 1 1395 0 is_stmt 1
 1050 0030 C318     		adds	r3, r0, r3
 1051              	.LVL109:
 1052 0032 0022     		movs	r2, #0
 1053 0034 1A70     		strb	r2, [r3]
1372:Generated_Source\PSoC4/Bluetooth.c ****         uint8 charLen;
 1054              		.loc 1 1372 0
 1055 0036 0020     		movs	r0, #0
 1056              	.LVL110:
 1057 0038 00E0     		b	.L73
 1058              	.LVL111:
 1059              	.L77:
1396:Generated_Source\PSoC4/Bluetooth.c ****         }
1397:Generated_Source\PSoC4/Bluetooth.c ****         else
1398:Generated_Source\PSoC4/Bluetooth.c ****         {
1399:Generated_Source\PSoC4/Bluetooth.c ****             apiResult = CYBLE_ERROR_INVALID_PARAMETER;
 1060              		.loc 1 1399 0
 1061 003a 0120     		movs	r0, #1
 1062              	.LVL112:
 1063              	.L73:
1400:Generated_Source\PSoC4/Bluetooth.c ****         }
1401:Generated_Source\PSoC4/Bluetooth.c ****         
1402:Generated_Source\PSoC4/Bluetooth.c ****         return(apiResult);
1403:Generated_Source\PSoC4/Bluetooth.c ****     }
 1064              		.loc 1 1403 0
 1065              		@ sp needed
 1066 003c 10BD     		pop	{r4, pc}
 1067              	.L79:
 1068 003e C046     		.align	2
 1069              	.L78:
 1070 0040 00000000 		.word	cyBle_gaps
 1071 0044 00000000 		.word	cyBle_gattDB
 1072              		.cfi_endproc
 1073              	.LFE13:
 1074              		.size	CyBle_GapGetLocalName, .-CyBle_GapGetLocalName
 1075              		.section	.text.CyBle_Get16ByPtr,"ax",%progbits
 1076              		.align	2
 1077              		.global	CyBle_Get16ByPtr
 1078              		.code	16
 1079              		.thumb_func
 1080              		.type	CyBle_Get16ByPtr, %function
 1081              	CyBle_Get16ByPtr:
 1082              	.LFB14:
1404:Generated_Source\PSoC4/Bluetooth.c **** 
1405:Generated_Source\PSoC4/Bluetooth.c **** #endif /* (CYBLE_GATT_ROLE_SERVER) */
1406:Generated_Source\PSoC4/Bluetooth.c **** 
1407:Generated_Source\PSoC4/Bluetooth.c **** 
1408:Generated_Source\PSoC4/Bluetooth.c **** /******************************************************************************
1409:Generated_Source\PSoC4/Bluetooth.c **** * Function Name: CyBle_Get16ByPtr
1410:Generated_Source\PSoC4/Bluetooth.c **** ***************************************************************************//**
1411:Generated_Source\PSoC4/Bluetooth.c **** * 
1412:Generated_Source\PSoC4/Bluetooth.c **** *  Returns the two-bytes value by using a pointer to the LSB.
1413:Generated_Source\PSoC4/Bluetooth.c **** * 
ARM GAS  C:\Windows\TEMP\ccsjdpha.s 			page 47


1414:Generated_Source\PSoC4/Bluetooth.c **** *  \param ptr: Pointer to the LSB of two-bytes data (little endian).
1415:Generated_Source\PSoC4/Bluetooth.c **** * 
1416:Generated_Source\PSoC4/Bluetooth.c **** *  \return
1417:Generated_Source\PSoC4/Bluetooth.c **** *  uint16: Two-bytes data.
1418:Generated_Source\PSoC4/Bluetooth.c **** * 
1419:Generated_Source\PSoC4/Bluetooth.c **** ******************************************************************************/
1420:Generated_Source\PSoC4/Bluetooth.c **** uint16 CyBle_Get16ByPtr(const uint8 ptr[])
1421:Generated_Source\PSoC4/Bluetooth.c **** {
 1083              		.loc 1 1421 0
 1084              		.cfi_startproc
 1085              		@ args = 0, pretend = 0, frame = 0
 1086              		@ frame_needed = 0, uses_anonymous_args = 0
 1087              		@ link register save eliminated.
 1088              	.LVL113:
1422:Generated_Source\PSoC4/Bluetooth.c ****     return ((uint16) ptr[0u] | ((uint16) (((uint16) ptr[1u]) << 8u)));
 1089              		.loc 1 1422 0
 1090 0000 0378     		ldrb	r3, [r0]
 1091 0002 4078     		ldrb	r0, [r0, #1]
 1092              	.LVL114:
 1093 0004 0002     		lsls	r0, r0, #8
 1094 0006 1843     		orrs	r0, r3
1423:Generated_Source\PSoC4/Bluetooth.c **** }
 1095              		.loc 1 1423 0
 1096              		@ sp needed
 1097 0008 7047     		bx	lr
 1098              		.cfi_endproc
 1099              	.LFE14:
 1100              		.size	CyBle_Get16ByPtr, .-CyBle_Get16ByPtr
 1101 000a C046     		.section	.text.CyBle_Set16ByPtr,"ax",%progbits
 1102              		.align	2
 1103              		.global	CyBle_Set16ByPtr
 1104              		.code	16
 1105              		.thumb_func
 1106              		.type	CyBle_Set16ByPtr, %function
 1107              	CyBle_Set16ByPtr:
 1108              	.LFB15:
1424:Generated_Source\PSoC4/Bluetooth.c **** 
1425:Generated_Source\PSoC4/Bluetooth.c **** 
1426:Generated_Source\PSoC4/Bluetooth.c **** /******************************************************************************
1427:Generated_Source\PSoC4/Bluetooth.c **** * Function Name: CyBle_Set16ByPtr
1428:Generated_Source\PSoC4/Bluetooth.c **** ***************************************************************************//**
1429:Generated_Source\PSoC4/Bluetooth.c **** * 
1430:Generated_Source\PSoC4/Bluetooth.c **** *  Sets the two-bytes value by using a pointer to the LSB.
1431:Generated_Source\PSoC4/Bluetooth.c **** * 
1432:Generated_Source\PSoC4/Bluetooth.c **** *  \param ptr:    Pointer to the LSB of two-bytes data (little endian).
1433:Generated_Source\PSoC4/Bluetooth.c **** *  \param value:  Two-bytes data to be written.
1434:Generated_Source\PSoC4/Bluetooth.c **** * 
1435:Generated_Source\PSoC4/Bluetooth.c **** *  \return
1436:Generated_Source\PSoC4/Bluetooth.c **** *  None
1437:Generated_Source\PSoC4/Bluetooth.c **** * 
1438:Generated_Source\PSoC4/Bluetooth.c **** ******************************************************************************/
1439:Generated_Source\PSoC4/Bluetooth.c **** void CyBle_Set16ByPtr(uint8 ptr[], uint16 value)
1440:Generated_Source\PSoC4/Bluetooth.c **** {
 1109              		.loc 1 1440 0
 1110              		.cfi_startproc
 1111              		@ args = 0, pretend = 0, frame = 0
 1112              		@ frame_needed = 0, uses_anonymous_args = 0
ARM GAS  C:\Windows\TEMP\ccsjdpha.s 			page 48


 1113              		@ link register save eliminated.
 1114              	.LVL115:
1441:Generated_Source\PSoC4/Bluetooth.c ****     ptr[0u] = (uint8) value;
 1115              		.loc 1 1441 0
 1116 0000 0170     		strb	r1, [r0]
1442:Generated_Source\PSoC4/Bluetooth.c ****     ptr[1u] = (uint8) (value >> 8u);
 1117              		.loc 1 1442 0
 1118 0002 090A     		lsrs	r1, r1, #8
 1119              	.LVL116:
 1120 0004 4170     		strb	r1, [r0, #1]
1443:Generated_Source\PSoC4/Bluetooth.c **** }
 1121              		.loc 1 1443 0
 1122              		@ sp needed
 1123 0006 7047     		bx	lr
 1124              		.cfi_endproc
 1125              	.LFE15:
 1126              		.size	CyBle_Set16ByPtr, .-CyBle_Set16ByPtr
 1127              		.global	cyBle_sflashDeviceAddress
 1128              		.global	cyBle_deviceAddress
 1129              		.comm	CyBle_ApplCallback,4,4
 1130              		.comm	cyBle_pendingFlashWrite,1,1
 1131              		.comm	cyBle_peerBonding,1,1
 1132              		.global	cyBle_discoveryModeInfo
 1133              		.global	cyBle_scanRspData
 1134              		.global	cyBle_discoveryData
 1135              		.global	cyBle_discoveryParam
 1136              		.global	cyBle_stackMemoryRam
 1137              		.global	cyBle_initVar
 1138              		.section	.rodata
 1139              		.align	2
 1140              		.set	.LANCHOR1,. + 0
 1141              	.LC0:
 1142 0000 2400     		.short	36
 1143 0002 03       		.byte	3
 1144 0003 00       		.space	1
 1145 0004 3000     		.short	48
 1146 0006 01       		.byte	1
 1147 0007 00       		.space	1
 1148 0008 2800     		.short	40
 1149 000a 02       		.byte	2
 1150 000b 00       		.space	1
 1151 000c 2400     		.short	36
 1152 000e 01       		.byte	1
 1153 000f 00       		.space	1
 1154 0010 2400     		.short	36
 1155 0012 01       		.byte	1
 1156 0013 00       		.space	1
 1157              		.data
 1158              		.align	2
 1159              		.set	.LANCHOR0,. + 0
 1160              		.type	cyBle_discoveryData, %object
 1161              		.size	cyBle_discoveryData, 32
 1162              	cyBle_discoveryData:
 1163 0000 02       		.byte	2
 1164 0001 01       		.byte	1
 1165 0002 06       		.byte	6
 1166 0003 0A       		.byte	10
ARM GAS  C:\Windows\TEMP\ccsjdpha.s 			page 49


 1167 0004 09       		.byte	9
 1168 0005 43       		.byte	67
 1169 0006 79       		.byte	121
 1170 0007 62       		.byte	98
 1171 0008 65       		.byte	101
 1172 0009 72       		.byte	114
 1173 000a 50       		.byte	80
 1174 000b 6F       		.byte	111
 1175 000c 6E       		.byte	110
 1176 000d 67       		.byte	103
 1177 000e 03       		.byte	3
 1178 000f 03       		.byte	3
 1179 0010 15       		.byte	21
 1180 0011 18       		.byte	24
 1181 0012 00       		.byte	0
 1182 0013 00       		.byte	0
 1183 0014 00       		.byte	0
 1184 0015 00       		.byte	0
 1185 0016 00       		.byte	0
 1186 0017 00       		.byte	0
 1187 0018 00       		.byte	0
 1188 0019 00       		.byte	0
 1189 001a 00       		.byte	0
 1190 001b 00       		.byte	0
 1191 001c 00       		.byte	0
 1192 001d 00       		.byte	0
 1193 001e 00       		.byte	0
 1194 001f 12       		.byte	18
 1195              		.type	cyBle_scanRspData, %object
 1196              		.size	cyBle_scanRspData, 32
 1197              	cyBle_scanRspData:
 1198 0020 0A       		.byte	10
 1199 0021 09       		.byte	9
 1200 0022 43       		.byte	67
 1201 0023 79       		.byte	121
 1202 0024 62       		.byte	98
 1203 0025 65       		.byte	101
 1204 0026 72       		.byte	114
 1205 0027 50       		.byte	80
 1206 0028 6F       		.byte	111
 1207 0029 6E       		.byte	110
 1208 002a 67       		.byte	103
 1209 002b 03       		.byte	3
 1210 002c 03       		.byte	3
 1211 002d 15       		.byte	21
 1212 002e 18       		.byte	24
 1213 002f 00       		.byte	0
 1214 0030 00       		.byte	0
 1215 0031 00       		.byte	0
 1216 0032 00       		.byte	0
 1217 0033 00       		.byte	0
 1218 0034 00       		.byte	0
 1219 0035 00       		.byte	0
 1220 0036 00       		.byte	0
 1221 0037 00       		.byte	0
 1222 0038 00       		.byte	0
 1223 0039 00       		.byte	0
ARM GAS  C:\Windows\TEMP\ccsjdpha.s 			page 50


 1224 003a 00       		.byte	0
 1225 003b 00       		.byte	0
 1226 003c 00       		.byte	0
 1227 003d 00       		.byte	0
 1228 003e 00       		.byte	0
 1229 003f 0F       		.byte	15
 1230              		.type	cyBle_discoveryModeInfo, %object
 1231              		.size	cyBle_discoveryModeInfo, 20
 1232              	cyBle_discoveryModeInfo:
 1233 0040 02       		.byte	2
 1234 0041 000000   		.space	3
 1235 0044 00000000 		.word	cyBle_discoveryParam
 1236 0048 00000000 		.word	cyBle_discoveryData
 1237 004c 00000000 		.word	cyBle_scanRspData
 1238 0050 0000     		.short	0
 1239 0052 0000     		.space	2
 1240              		.type	cyBle_sflashDeviceAddress, %object
 1241              		.size	cyBle_sflashDeviceAddress, 4
 1242              	cyBle_sflashDeviceAddress:
 1243 0054 00F4FF0F 		.word	268432384
 1244              		.type	cyBle_deviceAddress, %object
 1245              		.size	cyBle_deviceAddress, 7
 1246              	cyBle_deviceAddress:
 1247 0058 00       		.byte	0
 1248 0059 00       		.byte	0
 1249 005a 00       		.byte	0
 1250 005b 50       		.byte	80
 1251 005c A0       		.byte	-96
 1252 005d 00       		.byte	0
 1253 005e 00       		.byte	0
 1254 005f 00       		.space	1
 1255              		.type	cyBle_discoveryParam, %object
 1256              		.size	cyBle_discoveryParam, 16
 1257              	cyBle_discoveryParam:
 1258 0060 2000     		.short	32
 1259 0062 3000     		.short	48
 1260 0064 00       		.byte	0
 1261 0065 00       		.byte	0
 1262 0066 00       		.byte	0
 1263 0067 00       		.byte	0
 1264 0068 00       		.byte	0
 1265 0069 00       		.byte	0
 1266 006a 50       		.byte	80
 1267 006b A0       		.byte	-96
 1268 006c 00       		.byte	0
 1269 006d 07       		.byte	7
 1270 006e 00       		.byte	0
 1271 006f 00       		.space	1
 1272              		.section	.noinit,"aw",%progbits
 1273              		.align	3
 1274              		.set	.LANCHOR3,. + 0
 1275              		.type	cyBle_stackMemoryRam, %object
 1276              		.size	cyBle_stackMemoryRam, 3512
 1277              	cyBle_stackMemoryRam:
 1278 0000 00000000 		.space	3512
 1278      00000000 
 1278      00000000 
ARM GAS  C:\Windows\TEMP\ccsjdpha.s 			page 51


 1278      00000000 
 1278      00000000 
 1279              		.bss
 1280              		.set	.LANCHOR2,. + 0
 1281              		.type	cyBle_initVar, %object
 1282              		.size	cyBle_initVar, 1
 1283              	cyBle_initVar:
 1284 0000 00       		.space	1
 1285              		.type	cyBle_pendingFlashClearCccdHandle, %object
 1286              		.size	cyBle_pendingFlashClearCccdHandle, 1
 1287              	cyBle_pendingFlashClearCccdHandle:
 1288 0001 00       		.space	1
 1289              		.text
 1290              	.Letext0:
 1291              		.file 2 "Generated_Source\\PSoC4\\cytypes.h"
 1292              		.file 3 "Generated_Source\\PSoC4\\Bluetooth_Stack.h"
 1293              		.file 4 "Generated_Source\\PSoC4\\Bluetooth_StackGap.h"
 1294              		.file 5 "Generated_Source\\PSoC4\\Bluetooth_StackGatt.h"
 1295              		.file 6 "Generated_Source\\PSoC4\\Bluetooth_StackGattDb.h"
 1296              		.file 7 "Generated_Source\\PSoC4\\Bluetooth.h"
 1297              		.file 8 "Generated_Source\\PSoC4\\Bluetooth_gatt.h"
 1298              		.file 9 "Generated_Source\\PSoC4\\Bluetooth_aios.h"
 1299              		.file 10 "Generated_Source\\PSoC4\\Bluetooth_eventHandler.h"
 1300              		.file 11 "Generated_Source\\PSoC4\\Bluetooth_StackHostMain.h"
 1301              		.file 12 "c:\\program files (x86)\\cypress\\psoc creator\\4.4\\psoc creator\\import\\gnu\\arm\\5.4
 1302              		.section	.debug_info,"",%progbits
 1303              	.Ldebug_info0:
 1304 0000 32110000 		.4byte	0x1132
 1305 0004 0400     		.2byte	0x4
 1306 0006 00000000 		.4byte	.Ldebug_abbrev0
 1307 000a 04       		.byte	0x4
 1308 000b 01       		.uleb128 0x1
 1309 000c 65010000 		.4byte	.LASF287
 1310 0010 0C       		.byte	0xc
 1311 0011 87040000 		.4byte	.LASF288
 1312 0015 1A0A0000 		.4byte	.LASF289
 1313 0019 00000000 		.4byte	.Ldebug_ranges0+0
 1314 001d 00000000 		.4byte	0
 1315 0021 00000000 		.4byte	.Ldebug_line0
 1316 0025 02       		.uleb128 0x2
 1317 0026 01       		.byte	0x1
 1318 0027 06       		.byte	0x6
 1319 0028 2A050000 		.4byte	.LASF0
 1320 002c 02       		.uleb128 0x2
 1321 002d 01       		.byte	0x1
 1322 002e 08       		.byte	0x8
 1323 002f C1050000 		.4byte	.LASF1
 1324 0033 02       		.uleb128 0x2
 1325 0034 02       		.byte	0x2
 1326 0035 05       		.byte	0x5
 1327 0036 83150000 		.4byte	.LASF2
 1328 003a 02       		.uleb128 0x2
 1329 003b 02       		.byte	0x2
 1330 003c 07       		.byte	0x7
 1331 003d E5180000 		.4byte	.LASF3
 1332 0041 02       		.uleb128 0x2
 1333 0042 04       		.byte	0x4
ARM GAS  C:\Windows\TEMP\ccsjdpha.s 			page 52


 1334 0043 05       		.byte	0x5
 1335 0044 72030000 		.4byte	.LASF4
 1336 0048 02       		.uleb128 0x2
 1337 0049 04       		.byte	0x4
 1338 004a 07       		.byte	0x7
 1339 004b 460B0000 		.4byte	.LASF5
 1340 004f 02       		.uleb128 0x2
 1341 0050 08       		.byte	0x8
 1342 0051 05       		.byte	0x5
 1343 0052 260D0000 		.4byte	.LASF6
 1344 0056 02       		.uleb128 0x2
 1345 0057 08       		.byte	0x8
 1346 0058 07       		.byte	0x7
 1347 0059 64120000 		.4byte	.LASF7
 1348 005d 03       		.uleb128 0x3
 1349 005e 04       		.byte	0x4
 1350 005f 05       		.byte	0x5
 1351 0060 696E7400 		.ascii	"int\000"
 1352 0064 02       		.uleb128 0x2
 1353 0065 04       		.byte	0x4
 1354 0066 07       		.byte	0x7
 1355 0067 120F0000 		.4byte	.LASF8
 1356 006b 04       		.uleb128 0x4
 1357 006c 3A150000 		.4byte	.LASF9
 1358 0070 02       		.byte	0x2
 1359 0071 FC01     		.2byte	0x1fc
 1360 0073 2C000000 		.4byte	0x2c
 1361 0077 04       		.uleb128 0x4
 1362 0078 801A0000 		.4byte	.LASF10
 1363 007c 02       		.byte	0x2
 1364 007d FD01     		.2byte	0x1fd
 1365 007f 3A000000 		.4byte	0x3a
 1366 0083 04       		.uleb128 0x4
 1367 0084 BE000000 		.4byte	.LASF11
 1368 0088 02       		.byte	0x2
 1369 0089 FE01     		.2byte	0x1fe
 1370 008b 48000000 		.4byte	0x48
 1371 008f 02       		.uleb128 0x2
 1372 0090 04       		.byte	0x4
 1373 0091 04       		.byte	0x4
 1374 0092 9D0E0000 		.4byte	.LASF12
 1375 0096 02       		.uleb128 0x2
 1376 0097 08       		.byte	0x8
 1377 0098 04       		.byte	0x4
 1378 0099 800D0000 		.4byte	.LASF13
 1379 009d 04       		.uleb128 0x4
 1380 009e 3C010000 		.4byte	.LASF14
 1381 00a2 02       		.byte	0x2
 1382 00a3 0D02     		.2byte	0x20d
 1383 00a5 A9000000 		.4byte	0xa9
 1384 00a9 02       		.uleb128 0x2
 1385 00aa 01       		.byte	0x1
 1386 00ab 08       		.byte	0x8
 1387 00ac DE060000 		.4byte	.LASF15
 1388 00b0 05       		.uleb128 0x5
 1389 00b1 6B000000 		.4byte	0x6b
 1390 00b5 02       		.uleb128 0x2
ARM GAS  C:\Windows\TEMP\ccsjdpha.s 			page 53


 1391 00b6 08       		.byte	0x8
 1392 00b7 04       		.byte	0x4
 1393 00b8 9E110000 		.4byte	.LASF16
 1394 00bc 02       		.uleb128 0x2
 1395 00bd 04       		.byte	0x4
 1396 00be 07       		.byte	0x7
 1397 00bf 1E000000 		.4byte	.LASF17
 1398 00c3 06       		.uleb128 0x6
 1399 00c4 04       		.byte	0x4
 1400 00c5 07       		.uleb128 0x7
 1401 00c6 04       		.byte	0x4
 1402 00c7 CB000000 		.4byte	0xcb
 1403 00cb 08       		.uleb128 0x8
 1404 00cc DB000000 		.4byte	0xdb
 1405 00d0 09       		.uleb128 0x9
 1406 00d1 83000000 		.4byte	0x83
 1407 00d5 09       		.uleb128 0x9
 1408 00d6 C3000000 		.4byte	0xc3
 1409 00da 00       		.byte	0
 1410 00db 0A       		.uleb128 0xa
 1411 00dc 01       		.byte	0x1
 1412 00dd 2C000000 		.4byte	0x2c
 1413 00e1 03       		.byte	0x3
 1414 00e2 3501     		.2byte	0x135
 1415 00e4 99020000 		.4byte	0x299
 1416 00e8 0B       		.uleb128 0xb
 1417 00e9 44070000 		.4byte	.LASF18
 1418 00ed 00       		.byte	0
 1419 00ee 0B       		.uleb128 0xb
 1420 00ef EA030000 		.4byte	.LASF19
 1421 00f3 01       		.byte	0x1
 1422 00f4 0B       		.uleb128 0xb
 1423 00f5 7B120000 		.4byte	.LASF20
 1424 00f9 02       		.byte	0x2
 1425 00fa 0B       		.uleb128 0xb
 1426 00fb 5E050000 		.4byte	.LASF21
 1427 00ff 03       		.byte	0x3
 1428 0100 0B       		.uleb128 0xb
 1429 0101 AC190000 		.4byte	.LASF22
 1430 0105 04       		.byte	0x4
 1431 0106 0B       		.uleb128 0xb
 1432 0107 34180000 		.4byte	.LASF23
 1433 010b 05       		.byte	0x5
 1434 010c 0B       		.uleb128 0xb
 1435 010d B5110000 		.4byte	.LASF24
 1436 0111 06       		.byte	0x6
 1437 0112 0B       		.uleb128 0xb
 1438 0113 8E160000 		.4byte	.LASF25
 1439 0117 20       		.byte	0x20
 1440 0118 0B       		.uleb128 0xb
 1441 0119 40020000 		.4byte	.LASF26
 1442 011d 21       		.byte	0x21
 1443 011e 0B       		.uleb128 0xb
 1444 011f C10C0000 		.4byte	.LASF27
 1445 0123 22       		.byte	0x22
 1446 0124 0B       		.uleb128 0xb
 1447 0125 72100000 		.4byte	.LASF28
ARM GAS  C:\Windows\TEMP\ccsjdpha.s 			page 54


 1448 0129 23       		.byte	0x23
 1449 012a 0B       		.uleb128 0xb
 1450 012b 7E0A0000 		.4byte	.LASF29
 1451 012f 24       		.byte	0x24
 1452 0130 0B       		.uleb128 0xb
 1453 0131 AA0A0000 		.4byte	.LASF30
 1454 0135 25       		.byte	0x25
 1455 0136 0B       		.uleb128 0xb
 1456 0137 E4140000 		.4byte	.LASF31
 1457 013b 26       		.byte	0x26
 1458 013c 0B       		.uleb128 0xb
 1459 013d 5A000000 		.4byte	.LASF32
 1460 0141 27       		.byte	0x27
 1461 0142 0B       		.uleb128 0xb
 1462 0143 3D1A0000 		.4byte	.LASF33
 1463 0147 28       		.byte	0x28
 1464 0148 0B       		.uleb128 0xb
 1465 0149 F4110000 		.4byte	.LASF34
 1466 014d 29       		.byte	0x29
 1467 014e 0B       		.uleb128 0xb
 1468 014f 260C0000 		.4byte	.LASF35
 1469 0153 2A       		.byte	0x2a
 1470 0154 0B       		.uleb128 0xb
 1471 0155 D20F0000 		.4byte	.LASF36
 1472 0159 2B       		.byte	0x2b
 1473 015a 0B       		.uleb128 0xb
 1474 015b 50180000 		.4byte	.LASF37
 1475 015f 2C       		.byte	0x2c
 1476 0160 0B       		.uleb128 0xb
 1477 0161 27000000 		.4byte	.LASF38
 1478 0165 2D       		.byte	0x2d
 1479 0166 0B       		.uleb128 0xb
 1480 0167 4E150000 		.4byte	.LASF39
 1481 016b 2E       		.byte	0x2e
 1482 016c 0B       		.uleb128 0xb
 1483 016d E6020000 		.4byte	.LASF40
 1484 0171 2F       		.byte	0x2f
 1485 0172 0B       		.uleb128 0xb
 1486 0173 BD060000 		.4byte	.LASF41
 1487 0177 30       		.byte	0x30
 1488 0178 0B       		.uleb128 0xb
 1489 0179 090E0000 		.4byte	.LASF42
 1490 017d 31       		.byte	0x31
 1491 017e 0B       		.uleb128 0xb
 1492 017f 8D070000 		.4byte	.LASF43
 1493 0183 32       		.byte	0x32
 1494 0184 0B       		.uleb128 0xb
 1495 0185 ED050000 		.4byte	.LASF44
 1496 0189 33       		.byte	0x33
 1497 018a 0B       		.uleb128 0xb
 1498 018b 14060000 		.4byte	.LASF45
 1499 018f 34       		.byte	0x34
 1500 0190 0B       		.uleb128 0xb
 1501 0191 FE160000 		.4byte	.LASF46
 1502 0195 35       		.byte	0x35
 1503 0196 0B       		.uleb128 0xb
 1504 0197 98020000 		.4byte	.LASF47
ARM GAS  C:\Windows\TEMP\ccsjdpha.s 			page 55


 1505 019b 36       		.byte	0x36
 1506 019c 0B       		.uleb128 0xb
 1507 019d 2F120000 		.4byte	.LASF48
 1508 01a1 37       		.byte	0x37
 1509 01a2 0B       		.uleb128 0xb
 1510 01a3 05160000 		.4byte	.LASF49
 1511 01a7 40       		.byte	0x40
 1512 01a8 0B       		.uleb128 0xb
 1513 01a9 79000000 		.4byte	.LASF50
 1514 01ad 41       		.byte	0x41
 1515 01ae 0B       		.uleb128 0xb
 1516 01af C1190000 		.4byte	.LASF51
 1517 01b3 42       		.byte	0x42
 1518 01b4 0B       		.uleb128 0xb
 1519 01b5 11120000 		.4byte	.LASF52
 1520 01b9 43       		.byte	0x43
 1521 01ba 0B       		.uleb128 0xb
 1522 01bb CF050000 		.4byte	.LASF53
 1523 01bf 44       		.byte	0x44
 1524 01c0 0B       		.uleb128 0xb
 1525 01c1 86050000 		.4byte	.LASF54
 1526 01c5 45       		.byte	0x45
 1527 01c6 0B       		.uleb128 0xb
 1528 01c7 CE130000 		.4byte	.LASF55
 1529 01cb 46       		.byte	0x46
 1530 01cc 0B       		.uleb128 0xb
 1531 01cd B0130000 		.4byte	.LASF56
 1532 01d1 47       		.byte	0x47
 1533 01d2 0B       		.uleb128 0xb
 1534 01d3 96060000 		.4byte	.LASF57
 1535 01d7 48       		.byte	0x48
 1536 01d8 0B       		.uleb128 0xb
 1537 01d9 F1100000 		.4byte	.LASF58
 1538 01dd 49       		.byte	0x49
 1539 01de 0B       		.uleb128 0xb
 1540 01df CB070000 		.4byte	.LASF59
 1541 01e3 4A       		.byte	0x4a
 1542 01e4 0B       		.uleb128 0xb
 1543 01e5 25070000 		.4byte	.LASF60
 1544 01e9 4B       		.byte	0x4b
 1545 01ea 0B       		.uleb128 0xb
 1546 01eb 02100000 		.4byte	.LASF61
 1547 01ef 4C       		.byte	0x4c
 1548 01f0 0B       		.uleb128 0xb
 1549 01f1 6B140000 		.4byte	.LASF62
 1550 01f5 4D       		.byte	0x4d
 1551 01f6 0B       		.uleb128 0xb
 1552 01f7 31030000 		.4byte	.LASF63
 1553 01fb 4E       		.byte	0x4e
 1554 01fc 0B       		.uleb128 0xb
 1555 01fd 2C0F0000 		.4byte	.LASF64
 1556 0201 4F       		.byte	0x4f
 1557 0202 0B       		.uleb128 0xb
 1558 0203 6F160000 		.4byte	.LASF65
 1559 0207 50       		.byte	0x50
 1560 0208 0B       		.uleb128 0xb
 1561 0209 E9070000 		.4byte	.LASF66
ARM GAS  C:\Windows\TEMP\ccsjdpha.s 			page 56


 1562 020d 51       		.byte	0x51
 1563 020e 0B       		.uleb128 0xb
 1564 020f 1F020000 		.4byte	.LASF67
 1565 0213 52       		.byte	0x52
 1566 0214 0B       		.uleb128 0xb
 1567 0215 EE170000 		.4byte	.LASF68
 1568 0219 53       		.byte	0x53
 1569 021a 0B       		.uleb128 0xb
 1570 021b 5F1A0000 		.4byte	.LASF69
 1571 021f 54       		.byte	0x54
 1572 0220 0B       		.uleb128 0xb
 1573 0221 24100000 		.4byte	.LASF70
 1574 0225 55       		.byte	0x55
 1575 0226 0B       		.uleb128 0xb
 1576 0227 13080000 		.4byte	.LASF71
 1577 022b 56       		.byte	0x56
 1578 022c 0B       		.uleb128 0xb
 1579 022d C80E0000 		.4byte	.LASF72
 1580 0231 57       		.byte	0x57
 1581 0232 0B       		.uleb128 0xb
 1582 0233 1A1A0000 		.4byte	.LASF73
 1583 0237 58       		.byte	0x58
 1584 0238 0B       		.uleb128 0xb
 1585 0239 74180000 		.4byte	.LASF74
 1586 023d 70       		.byte	0x70
 1587 023e 0B       		.uleb128 0xb
 1588 023f D4090000 		.4byte	.LASF75
 1589 0243 71       		.byte	0x71
 1590 0244 0B       		.uleb128 0xb
 1591 0245 D4040000 		.4byte	.LASF76
 1592 0249 72       		.byte	0x72
 1593 024a 0B       		.uleb128 0xb
 1594 024b 51160000 		.4byte	.LASF77
 1595 024f 73       		.byte	0x73
 1596 0250 0B       		.uleb128 0xb
 1597 0251 36110000 		.4byte	.LASF78
 1598 0255 74       		.byte	0x74
 1599 0256 0B       		.uleb128 0xb
 1600 0257 950C0000 		.4byte	.LASF79
 1601 025b 75       		.byte	0x75
 1602 025c 0B       		.uleb128 0xb
 1603 025d 75060000 		.4byte	.LASF80
 1604 0261 76       		.byte	0x76
 1605 0262 0B       		.uleb128 0xb
 1606 0263 D0120000 		.4byte	.LASF81
 1607 0267 77       		.byte	0x77
 1608 0268 0B       		.uleb128 0xb
 1609 0269 42010000 		.4byte	.LASF82
 1610 026d 78       		.byte	0x78
 1611 026e 0B       		.uleb128 0xb
 1612 026f 4F030000 		.4byte	.LASF83
 1613 0273 79       		.byte	0x79
 1614 0274 0B       		.uleb128 0xb
 1615 0275 DF190000 		.4byte	.LASF84
 1616 0279 7A       		.byte	0x7a
 1617 027a 0B       		.uleb128 0xb
 1618 027b A90D0000 		.4byte	.LASF85
ARM GAS  C:\Windows\TEMP\ccsjdpha.s 			page 57


 1619 027f FA       		.byte	0xfa
 1620 0280 0B       		.uleb128 0xb
 1621 0281 A8170000 		.4byte	.LASF86
 1622 0285 FB       		.byte	0xfb
 1623 0286 0B       		.uleb128 0xb
 1624 0287 FA090000 		.4byte	.LASF87
 1625 028b FC       		.byte	0xfc
 1626 028c 0B       		.uleb128 0xb
 1627 028d 86110000 		.4byte	.LASF88
 1628 0291 FD       		.byte	0xfd
 1629 0292 0B       		.uleb128 0xb
 1630 0293 C40F0000 		.4byte	.LASF89
 1631 0297 FF       		.byte	0xff
 1632 0298 00       		.byte	0
 1633 0299 0A       		.uleb128 0xa
 1634 029a 02       		.byte	0x2
 1635 029b 3A000000 		.4byte	0x3a
 1636 029f 03       		.byte	0x3
 1637 02a0 EA03     		.2byte	0x3ea
 1638 02a2 78030000 		.4byte	0x378
 1639 02a6 0B       		.uleb128 0xb
 1640 02a7 77050000 		.4byte	.LASF90
 1641 02ab 00       		.byte	0
 1642 02ac 0B       		.uleb128 0xb
 1643 02ad B5080000 		.4byte	.LASF91
 1644 02b1 01       		.byte	0x1
 1645 02b2 0B       		.uleb128 0xb
 1646 02b3 85190000 		.4byte	.LASF92
 1647 02b7 02       		.byte	0x2
 1648 02b8 0B       		.uleb128 0xb
 1649 02b9 31090000 		.4byte	.LASF93
 1650 02bd 03       		.byte	0x3
 1651 02be 0B       		.uleb128 0xb
 1652 02bf FF0A0000 		.4byte	.LASF94
 1653 02c3 04       		.byte	0x4
 1654 02c4 0B       		.uleb128 0xb
 1655 02c5 620D0000 		.4byte	.LASF95
 1656 02c9 05       		.byte	0x5
 1657 02ca 0B       		.uleb128 0xb
 1658 02cb 7B170000 		.4byte	.LASF96
 1659 02cf 06       		.byte	0x6
 1660 02d0 0B       		.uleb128 0xb
 1661 02d1 AE070000 		.4byte	.LASF97
 1662 02d5 07       		.byte	0x7
 1663 02d6 0B       		.uleb128 0xb
 1664 02d7 7F0E0000 		.4byte	.LASF98
 1665 02db 08       		.byte	0x8
 1666 02dc 0B       		.uleb128 0xb
 1667 02dd D4160000 		.4byte	.LASF99
 1668 02e1 09       		.byte	0x9
 1669 02e2 0B       		.uleb128 0xb
 1670 02e3 931A0000 		.4byte	.LASF100
 1671 02e7 0A       		.byte	0xa
 1672 02e8 0B       		.uleb128 0xb
 1673 02e9 78020000 		.4byte	.LASF101
 1674 02ed 0B       		.byte	0xb
 1675 02ee 0B       		.uleb128 0xb
ARM GAS  C:\Windows\TEMP\ccsjdpha.s 			page 58


 1676 02ef 0F180000 		.4byte	.LASF102
 1677 02f3 0C       		.byte	0xc
 1678 02f4 0B       		.uleb128 0xb
 1679 02f5 970F0000 		.4byte	.LASF103
 1680 02f9 0D       		.byte	0xd
 1681 02fa 0B       		.uleb128 0xb
 1682 02fb D30B0000 		.4byte	.LASF104
 1683 02ff 0E       		.byte	0xe
 1684 0300 0B       		.uleb128 0xb
 1685 0301 3D0D0000 		.4byte	.LASF105
 1686 0305 0F       		.byte	0xf
 1687 0306 0B       		.uleb128 0xb
 1688 0307 D9000000 		.4byte	.LASF106
 1689 030b 10       		.byte	0x10
 1690 030c 0B       		.uleb128 0xb
 1691 030d 2D0E0000 		.4byte	.LASF107
 1692 0311 11       		.byte	0x11
 1693 0312 0B       		.uleb128 0xb
 1694 0313 FD030000 		.4byte	.LASF108
 1695 0317 12       		.byte	0x12
 1696 0318 0B       		.uleb128 0xb
 1697 0319 02050000 		.4byte	.LASF109
 1698 031d 13       		.byte	0x13
 1699 031e 0B       		.uleb128 0xb
 1700 031f 870D0000 		.4byte	.LASF110
 1701 0323 27       		.byte	0x27
 1702 0324 0B       		.uleb128 0xb
 1703 0325 A30E0000 		.4byte	.LASF111
 1704 0329 28       		.byte	0x28
 1705 032a 0B       		.uleb128 0xb
 1706 032b 07010000 		.4byte	.LASF112
 1707 032f 29       		.byte	0x29
 1708 0330 0B       		.uleb128 0xb
 1709 0331 D2150000 		.4byte	.LASF113
 1710 0335 2A       		.byte	0x2a
 1711 0336 0B       		.uleb128 0xb
 1712 0337 580B0000 		.4byte	.LASF114
 1713 033b 2B       		.byte	0x2b
 1714 033c 0B       		.uleb128 0xb
 1715 033d 11130000 		.4byte	.LASF115
 1716 0341 2C       		.byte	0x2c
 1717 0342 0B       		.uleb128 0xb
 1718 0343 41140000 		.4byte	.LASF116
 1719 0347 2D       		.byte	0x2d
 1720 0348 0B       		.uleb128 0xb
 1721 0349 99080000 		.4byte	.LASF117
 1722 034d FE       		.byte	0xfe
 1723 034e 0B       		.uleb128 0xb
 1724 034f C4090000 		.4byte	.LASF118
 1725 0353 FF       		.byte	0xff
 1726 0354 0C       		.uleb128 0xc
 1727 0355 B1100000 		.4byte	.LASF119
 1728 0359 0001     		.2byte	0x100
 1729 035b 0C       		.uleb128 0xc
 1730 035c 98100000 		.4byte	.LASF120
 1731 0360 0101     		.2byte	0x101
 1732 0362 0C       		.uleb128 0xc
ARM GAS  C:\Windows\TEMP\ccsjdpha.s 			page 59


 1733 0363 5C040000 		.4byte	.LASF121
 1734 0367 0201     		.2byte	0x102
 1735 0369 0C       		.uleb128 0xc
 1736 036a 9A120000 		.4byte	.LASF122
 1737 036e 0301     		.2byte	0x103
 1738 0370 0C       		.uleb128 0xc
 1739 0371 C40A0000 		.4byte	.LASF123
 1740 0375 0401     		.2byte	0x104
 1741 0377 00       		.byte	0
 1742 0378 04       		.uleb128 0x4
 1743 0379 C7170000 		.4byte	.LASF124
 1744 037d 03       		.byte	0x3
 1745 037e 5C04     		.2byte	0x45c
 1746 0380 99020000 		.4byte	0x299
 1747 0384 0D       		.uleb128 0xd
 1748 0385 07       		.byte	0x7
 1749 0386 03       		.byte	0x3
 1750 0387 2A05     		.2byte	0x52a
 1751 0389 A8030000 		.4byte	0x3a8
 1752 038d 0E       		.uleb128 0xe
 1753 038e 3B170000 		.4byte	.LASF125
 1754 0392 03       		.byte	0x3
 1755 0393 2D05     		.2byte	0x52d
 1756 0395 A8030000 		.4byte	0x3a8
 1757 0399 00       		.byte	0
 1758 039a 0E       		.uleb128 0xe
 1759 039b 09020000 		.4byte	.LASF126
 1760 039f 03       		.byte	0x3
 1761 03a0 2F05     		.2byte	0x52f
 1762 03a2 6B000000 		.4byte	0x6b
 1763 03a6 06       		.byte	0x6
 1764 03a7 00       		.byte	0
 1765 03a8 0F       		.uleb128 0xf
 1766 03a9 6B000000 		.4byte	0x6b
 1767 03ad B8030000 		.4byte	0x3b8
 1768 03b1 10       		.uleb128 0x10
 1769 03b2 BC000000 		.4byte	0xbc
 1770 03b6 05       		.byte	0x5
 1771 03b7 00       		.byte	0
 1772 03b8 04       		.uleb128 0x4
 1773 03b9 36130000 		.4byte	.LASF127
 1774 03bd 03       		.byte	0x3
 1775 03be 3005     		.2byte	0x530
 1776 03c0 84030000 		.4byte	0x384
 1777 03c4 0D       		.uleb128 0xd
 1778 03c5 04       		.byte	0x4
 1779 03c6 03       		.byte	0x3
 1780 03c7 3A05     		.2byte	0x53a
 1781 03c9 E8030000 		.4byte	0x3e8
 1782 03cd 0E       		.uleb128 0xe
 1783 03ce AA110000 		.4byte	.LASF128
 1784 03d2 03       		.byte	0x3
 1785 03d3 3D05     		.2byte	0x53d
 1786 03d5 77000000 		.4byte	0x77
 1787 03d9 00       		.byte	0
 1788 03da 0E       		.uleb128 0xe
 1789 03db 52050000 		.4byte	.LASF129
ARM GAS  C:\Windows\TEMP\ccsjdpha.s 			page 60


 1790 03df 03       		.byte	0x3
 1791 03e0 3F05     		.2byte	0x53f
 1792 03e2 6B000000 		.4byte	0x6b
 1793 03e6 02       		.byte	0x2
 1794 03e7 00       		.byte	0
 1795 03e8 04       		.uleb128 0x4
 1796 03e9 A5030000 		.4byte	.LASF130
 1797 03ed 03       		.byte	0x3
 1798 03ee 4005     		.2byte	0x540
 1799 03f0 C4030000 		.4byte	0x3c4
 1800 03f4 0D       		.uleb128 0xd
 1801 03f5 06       		.byte	0x6
 1802 03f6 03       		.byte	0x3
 1803 03f7 4405     		.2byte	0x544
 1804 03f9 25040000 		.4byte	0x425
 1805 03fd 0E       		.uleb128 0xe
 1806 03fe 000D0000 		.4byte	.LASF131
 1807 0402 03       		.byte	0x3
 1808 0403 4705     		.2byte	0x547
 1809 0405 77000000 		.4byte	0x77
 1810 0409 00       		.byte	0
 1811 040a 0E       		.uleb128 0xe
 1812 040b 19190000 		.4byte	.LASF132
 1813 040f 03       		.byte	0x3
 1814 0410 4A05     		.2byte	0x54a
 1815 0412 77000000 		.4byte	0x77
 1816 0416 02       		.byte	0x2
 1817 0417 0E       		.uleb128 0xe
 1818 0418 030F0000 		.4byte	.LASF133
 1819 041c 03       		.byte	0x3
 1820 041d 4D05     		.2byte	0x54d
 1821 041f 6B000000 		.4byte	0x6b
 1822 0423 04       		.byte	0x4
 1823 0424 00       		.byte	0
 1824 0425 04       		.uleb128 0x4
 1825 0426 18030000 		.4byte	.LASF134
 1826 042a 03       		.byte	0x3
 1827 042b 4E05     		.2byte	0x54e
 1828 042d F4030000 		.4byte	0x3f4
 1829 0431 0D       		.uleb128 0xd
 1830 0432 01       		.byte	0x1
 1831 0433 03       		.byte	0x3
 1832 0434 5105     		.2byte	0x551
 1833 0436 48040000 		.4byte	0x448
 1834 043a 0E       		.uleb128 0xe
 1835 043b C10B0000 		.4byte	.LASF135
 1836 043f 03       		.byte	0x3
 1837 0440 5405     		.2byte	0x554
 1838 0442 6B000000 		.4byte	0x6b
 1839 0446 00       		.byte	0
 1840 0447 00       		.byte	0
 1841 0448 04       		.uleb128 0x4
 1842 0449 510E0000 		.4byte	.LASF136
 1843 044d 03       		.byte	0x3
 1844 044e 5505     		.2byte	0x555
 1845 0450 31040000 		.4byte	0x431
 1846 0454 0D       		.uleb128 0xd
ARM GAS  C:\Windows\TEMP\ccsjdpha.s 			page 61


 1847 0455 0C       		.byte	0xc
 1848 0456 03       		.byte	0x3
 1849 0457 5B05     		.2byte	0x55b
 1850 0459 85040000 		.4byte	0x485
 1851 045d 0E       		.uleb128 0xe
 1852 045e BF030000 		.4byte	.LASF137
 1853 0462 03       		.byte	0x3
 1854 0463 5E05     		.2byte	0x55e
 1855 0465 85040000 		.4byte	0x485
 1856 0469 00       		.byte	0
 1857 046a 0E       		.uleb128 0xe
 1858 046b 51130000 		.4byte	.LASF138
 1859 046f 03       		.byte	0x3
 1860 0470 6105     		.2byte	0x561
 1861 0472 8B040000 		.4byte	0x48b
 1862 0476 04       		.byte	0x4
 1863 0477 0E       		.uleb128 0xe
 1864 0478 1F0F0000 		.4byte	.LASF139
 1865 047c 03       		.byte	0x3
 1866 047d 6705     		.2byte	0x567
 1867 047f 77000000 		.4byte	0x77
 1868 0483 08       		.byte	0x8
 1869 0484 00       		.byte	0
 1870 0485 07       		.uleb128 0x7
 1871 0486 04       		.byte	0x4
 1872 0487 25040000 		.4byte	0x425
 1873 048b 07       		.uleb128 0x7
 1874 048c 04       		.byte	0x4
 1875 048d 48040000 		.4byte	0x448
 1876 0491 04       		.uleb128 0x4
 1877 0492 E50C0000 		.4byte	.LASF140
 1878 0496 03       		.byte	0x3
 1879 0497 6805     		.2byte	0x568
 1880 0499 54040000 		.4byte	0x454
 1881 049d 07       		.uleb128 0x7
 1882 049e 04       		.byte	0x4
 1883 049f 6B000000 		.4byte	0x6b
 1884 04a3 11       		.uleb128 0x11
 1885 04a4 01       		.byte	0x1
 1886 04a5 2C000000 		.4byte	0x2c
 1887 04a9 04       		.byte	0x4
 1888 04aa E0       		.byte	0xe0
 1889 04ab CE040000 		.4byte	0x4ce
 1890 04af 0B       		.uleb128 0xb
 1891 04b0 3A190000 		.4byte	.LASF141
 1892 04b4 00       		.byte	0
 1893 04b5 0B       		.uleb128 0xb
 1894 04b6 0A110000 		.4byte	.LASF142
 1895 04ba 01       		.byte	0x1
 1896 04bb 0B       		.uleb128 0xb
 1897 04bc 2D160000 		.4byte	.LASF143
 1898 04c0 02       		.byte	0x2
 1899 04c1 0B       		.uleb128 0xb
 1900 04c2 AA040000 		.4byte	.LASF144
 1901 04c6 03       		.byte	0x3
 1902 04c7 0B       		.uleb128 0xb
 1903 04c8 06090000 		.4byte	.LASF145
ARM GAS  C:\Windows\TEMP\ccsjdpha.s 			page 62


 1904 04cc 04       		.byte	0x4
 1905 04cd 00       		.byte	0
 1906 04ce 12       		.uleb128 0x12
 1907 04cf F10F0000 		.4byte	.LASF146
 1908 04d3 04       		.byte	0x4
 1909 04d4 F0       		.byte	0xf0
 1910 04d5 A3040000 		.4byte	0x4a3
 1911 04d9 0F       		.uleb128 0xf
 1912 04da 6B000000 		.4byte	0x6b
 1913 04de E9040000 		.4byte	0x4e9
 1914 04e2 10       		.uleb128 0x10
 1915 04e3 BC000000 		.4byte	0xbc
 1916 04e7 09       		.byte	0x9
 1917 04e8 00       		.byte	0
 1918 04e9 0D       		.uleb128 0xd
 1919 04ea 10       		.byte	0x10
 1920 04eb 04       		.byte	0x4
 1921 04ec 2102     		.2byte	0x221
 1922 04ee 5B050000 		.4byte	0x55b
 1923 04f2 0E       		.uleb128 0xe
 1924 04f3 2C060000 		.4byte	.LASF147
 1925 04f7 04       		.byte	0x4
 1926 04f8 2702     		.2byte	0x227
 1927 04fa 77000000 		.4byte	0x77
 1928 04fe 00       		.byte	0
 1929 04ff 0E       		.uleb128 0xe
 1930 0500 AD1A0000 		.4byte	.LASF148
 1931 0504 04       		.byte	0x4
 1932 0505 2D02     		.2byte	0x22d
 1933 0507 77000000 		.4byte	0x77
 1934 050b 02       		.byte	0x2
 1935 050c 0E       		.uleb128 0xe
 1936 050d F70A0000 		.4byte	.LASF149
 1937 0511 04       		.byte	0x4
 1938 0512 3602     		.2byte	0x236
 1939 0514 CE040000 		.4byte	0x4ce
 1940 0518 04       		.byte	0x4
 1941 0519 0E       		.uleb128 0xe
 1942 051a 871A0000 		.4byte	.LASF150
 1943 051e 04       		.byte	0x4
 1944 051f 3E02     		.2byte	0x23e
 1945 0521 6B000000 		.4byte	0x6b
 1946 0525 05       		.byte	0x5
 1947 0526 0E       		.uleb128 0xe
 1948 0527 FA0D0000 		.4byte	.LASF151
 1949 052b 04       		.byte	0x4
 1950 052c 4502     		.2byte	0x245
 1951 052e 6B000000 		.4byte	0x6b
 1952 0532 06       		.byte	0x6
 1953 0533 0E       		.uleb128 0xe
 1954 0534 F8180000 		.4byte	.LASF152
 1955 0538 04       		.byte	0x4
 1956 0539 4B02     		.2byte	0x24b
 1957 053b A8030000 		.4byte	0x3a8
 1958 053f 07       		.byte	0x7
 1959 0540 0E       		.uleb128 0xe
 1960 0541 2C190000 		.4byte	.LASF153
ARM GAS  C:\Windows\TEMP\ccsjdpha.s 			page 63


 1961 0545 04       		.byte	0x4
 1962 0546 5302     		.2byte	0x253
 1963 0548 6B000000 		.4byte	0x6b
 1964 054c 0D       		.byte	0xd
 1965 054d 0E       		.uleb128 0xe
 1966 054e 9A0A0000 		.4byte	.LASF154
 1967 0552 04       		.byte	0x4
 1968 0553 5F02     		.2byte	0x25f
 1969 0555 6B000000 		.4byte	0x6b
 1970 0559 0E       		.byte	0xe
 1971 055a 00       		.byte	0
 1972 055b 04       		.uleb128 0x4
 1973 055c 5C0A0000 		.4byte	.LASF155
 1974 0560 04       		.byte	0x4
 1975 0561 6102     		.2byte	0x261
 1976 0563 E9040000 		.4byte	0x4e9
 1977 0567 0D       		.uleb128 0xd
 1978 0568 20       		.byte	0x20
 1979 0569 04       		.byte	0x4
 1980 056a 6402     		.2byte	0x264
 1981 056c 8B050000 		.4byte	0x58b
 1982 0570 0E       		.uleb128 0xe
 1983 0571 1C100000 		.4byte	.LASF156
 1984 0575 04       		.byte	0x4
 1985 0576 6702     		.2byte	0x267
 1986 0578 8B050000 		.4byte	0x58b
 1987 057c 00       		.byte	0
 1988 057d 0E       		.uleb128 0xe
 1989 057e 6C130000 		.4byte	.LASF157
 1990 0582 04       		.byte	0x4
 1991 0583 6A02     		.2byte	0x26a
 1992 0585 6B000000 		.4byte	0x6b
 1993 0589 1F       		.byte	0x1f
 1994 058a 00       		.byte	0
 1995 058b 0F       		.uleb128 0xf
 1996 058c 6B000000 		.4byte	0x6b
 1997 0590 9B050000 		.4byte	0x59b
 1998 0594 10       		.uleb128 0x10
 1999 0595 BC000000 		.4byte	0xbc
 2000 0599 1E       		.byte	0x1e
 2001 059a 00       		.byte	0
 2002 059b 04       		.uleb128 0x4
 2003 059c 5E060000 		.4byte	.LASF158
 2004 05a0 04       		.byte	0x4
 2005 05a1 6C02     		.2byte	0x26c
 2006 05a3 67050000 		.4byte	0x567
 2007 05a7 0D       		.uleb128 0xd
 2008 05a8 20       		.byte	0x20
 2009 05a9 04       		.byte	0x4
 2010 05aa 6F02     		.2byte	0x26f
 2011 05ac CB050000 		.4byte	0x5cb
 2012 05b0 0E       		.uleb128 0xe
 2013 05b1 12000000 		.4byte	.LASF159
 2014 05b5 04       		.byte	0x4
 2015 05b6 7302     		.2byte	0x273
 2016 05b8 8B050000 		.4byte	0x58b
 2017 05bc 00       		.byte	0
ARM GAS  C:\Windows\TEMP\ccsjdpha.s 			page 64


 2018 05bd 0E       		.uleb128 0xe
 2019 05be C3150000 		.4byte	.LASF160
 2020 05c2 04       		.byte	0x4
 2021 05c3 7602     		.2byte	0x276
 2022 05c5 6B000000 		.4byte	0x6b
 2023 05c9 1F       		.byte	0x1f
 2024 05ca 00       		.byte	0
 2025 05cb 04       		.uleb128 0x4
 2026 05cc 0C150000 		.4byte	.LASF161
 2027 05d0 04       		.byte	0x4
 2028 05d1 7802     		.2byte	0x278
 2029 05d3 A7050000 		.4byte	0x5a7
 2030 05d7 0D       		.uleb128 0xd
 2031 05d8 14       		.byte	0x14
 2032 05d9 04       		.byte	0x4
 2033 05da 7B02     		.2byte	0x27b
 2034 05dc 22060000 		.4byte	0x622
 2035 05e0 0E       		.uleb128 0xe
 2036 05e1 D0000000 		.4byte	.LASF162
 2037 05e5 04       		.byte	0x4
 2038 05e6 8302     		.2byte	0x283
 2039 05e8 6B000000 		.4byte	0x6b
 2040 05ec 00       		.byte	0
 2041 05ed 0E       		.uleb128 0xe
 2042 05ee 340D0000 		.4byte	.LASF163
 2043 05f2 04       		.byte	0x4
 2044 05f3 8602     		.2byte	0x286
 2045 05f5 22060000 		.4byte	0x622
 2046 05f9 04       		.byte	0x4
 2047 05fa 0E       		.uleb128 0xe
 2048 05fb 1C100000 		.4byte	.LASF156
 2049 05ff 04       		.byte	0x4
 2050 0600 8802     		.2byte	0x288
 2051 0602 28060000 		.4byte	0x628
 2052 0606 08       		.byte	0x8
 2053 0607 0E       		.uleb128 0xe
 2054 0608 12000000 		.4byte	.LASF159
 2055 060c 04       		.byte	0x4
 2056 060d 8A02     		.2byte	0x28a
 2057 060f 2E060000 		.4byte	0x62e
 2058 0613 0C       		.byte	0xc
 2059 0614 0E       		.uleb128 0xe
 2060 0615 35080000 		.4byte	.LASF164
 2061 0619 04       		.byte	0x4
 2062 061a 9402     		.2byte	0x294
 2063 061c 77000000 		.4byte	0x77
 2064 0620 10       		.byte	0x10
 2065 0621 00       		.byte	0
 2066 0622 07       		.uleb128 0x7
 2067 0623 04       		.byte	0x4
 2068 0624 5B050000 		.4byte	0x55b
 2069 0628 07       		.uleb128 0x7
 2070 0629 04       		.byte	0x4
 2071 062a 9B050000 		.4byte	0x59b
 2072 062e 07       		.uleb128 0x7
 2073 062f 04       		.byte	0x4
 2074 0630 CB050000 		.4byte	0x5cb
ARM GAS  C:\Windows\TEMP\ccsjdpha.s 			page 65


 2075 0634 04       		.uleb128 0x4
 2076 0635 7C130000 		.4byte	.LASF165
 2077 0639 04       		.byte	0x4
 2078 063a 9602     		.2byte	0x296
 2079 063c D7050000 		.4byte	0x5d7
 2080 0640 04       		.uleb128 0x4
 2081 0641 B4120000 		.4byte	.LASF166
 2082 0645 05       		.byte	0x5
 2083 0646 8901     		.2byte	0x189
 2084 0648 77000000 		.4byte	0x77
 2085 064c 0D       		.uleb128 0xd
 2086 064d 02       		.byte	0x2
 2087 064e 05       		.byte	0x5
 2088 064f 9301     		.2byte	0x193
 2089 0651 70060000 		.4byte	0x670
 2090 0655 0E       		.uleb128 0xe
 2091 0656 0F030000 		.4byte	.LASF167
 2092 065a 05       		.byte	0x5
 2093 065b 9A01     		.2byte	0x19a
 2094 065d 6B000000 		.4byte	0x6b
 2095 0661 00       		.byte	0
 2096 0662 0E       		.uleb128 0xe
 2097 0663 7F190000 		.4byte	.LASF168
 2098 0667 05       		.byte	0x5
 2099 0668 A001     		.2byte	0x1a0
 2100 066a 6B000000 		.4byte	0x6b
 2101 066e 01       		.byte	0x1
 2102 066f 00       		.byte	0
 2103 0670 04       		.uleb128 0x4
 2104 0671 57020000 		.4byte	.LASF169
 2105 0675 05       		.byte	0x5
 2106 0676 A201     		.2byte	0x1a2
 2107 0678 4C060000 		.4byte	0x64c
 2108 067c 13       		.uleb128 0x13
 2109 067d 08       		.byte	0x8
 2110 067e 06       		.byte	0x6
 2111 067f CE       		.byte	0xce
 2112 0680 9D060000 		.4byte	0x69d
 2113 0684 14       		.uleb128 0x14
 2114 0685 5F130000 		.4byte	.LASF170
 2115 0689 06       		.byte	0x6
 2116 068a D1       		.byte	0xd1
 2117 068b 77000000 		.4byte	0x77
 2118 068f 00       		.byte	0
 2119 0690 14       		.uleb128 0x14
 2120 0691 27150000 		.4byte	.LASF171
 2121 0695 06       		.byte	0x6
 2122 0696 D6       		.byte	0xd6
 2123 0697 C3000000 		.4byte	0xc3
 2124 069b 04       		.byte	0x4
 2125 069c 00       		.byte	0
 2126 069d 12       		.uleb128 0x12
 2127 069e 68110000 		.4byte	.LASF172
 2128 06a2 06       		.byte	0x6
 2129 06a3 D8       		.byte	0xd8
 2130 06a4 7C060000 		.4byte	0x67c
 2131 06a8 13       		.uleb128 0x13
ARM GAS  C:\Windows\TEMP\ccsjdpha.s 			page 66


 2132 06a9 08       		.byte	0x8
 2133 06aa 06       		.byte	0x6
 2134 06ab DB       		.byte	0xdb
 2135 06ac C9060000 		.4byte	0x6c9
 2136 06b0 14       		.uleb128 0x14
 2137 06b1 F3060000 		.4byte	.LASF173
 2138 06b5 06       		.byte	0x6
 2139 06b6 DE       		.byte	0xde
 2140 06b7 77000000 		.4byte	0x77
 2141 06bb 00       		.byte	0
 2142 06bc 14       		.uleb128 0x14
 2143 06bd A3150000 		.4byte	.LASF174
 2144 06c1 06       		.byte	0x6
 2145 06c2 E3       		.byte	0xe3
 2146 06c3 C9060000 		.4byte	0x6c9
 2147 06c7 04       		.byte	0x4
 2148 06c8 00       		.byte	0
 2149 06c9 07       		.uleb128 0x7
 2150 06ca 04       		.byte	0x4
 2151 06cb 9D060000 		.4byte	0x69d
 2152 06cf 12       		.uleb128 0x12
 2153 06d0 C5140000 		.4byte	.LASF175
 2154 06d4 06       		.byte	0x6
 2155 06d5 E5       		.byte	0xe5
 2156 06d6 A8060000 		.4byte	0x6a8
 2157 06da 15       		.uleb128 0x15
 2158 06db 08       		.byte	0x8
 2159 06dc 06       		.byte	0x6
 2160 06dd E8       		.byte	0xe8
 2161 06de F9060000 		.4byte	0x6f9
 2162 06e2 16       		.uleb128 0x16
 2163 06e3 B4150000 		.4byte	.LASF176
 2164 06e7 06       		.byte	0x6
 2165 06e8 EF       		.byte	0xef
 2166 06e9 CF060000 		.4byte	0x6cf
 2167 06ed 16       		.uleb128 0x16
 2168 06ee FC0B0000 		.4byte	.LASF177
 2169 06f2 06       		.byte	0x6
 2170 06f3 F2       		.byte	0xf2
 2171 06f4 77000000 		.4byte	0x77
 2172 06f8 00       		.byte	0
 2173 06f9 12       		.uleb128 0x12
 2174 06fa 9E140000 		.4byte	.LASF178
 2175 06fe 06       		.byte	0x6
 2176 06ff F4       		.byte	0xf4
 2177 0700 DA060000 		.4byte	0x6da
 2178 0704 13       		.uleb128 0x13
 2179 0705 14       		.byte	0x14
 2180 0706 06       		.byte	0x6
 2181 0707 F7       		.byte	0xf7
 2182 0708 4D070000 		.4byte	0x74d
 2183 070c 14       		.uleb128 0x14
 2184 070d 37060000 		.4byte	.LASF179
 2185 0711 06       		.byte	0x6
 2186 0712 FA       		.byte	0xfa
 2187 0713 77000000 		.4byte	0x77
 2188 0717 00       		.byte	0
ARM GAS  C:\Windows\TEMP\ccsjdpha.s 			page 67


 2189 0718 0E       		.uleb128 0xe
 2190 0719 7F040000 		.4byte	.LASF180
 2191 071d 06       		.byte	0x6
 2192 071e 0001     		.2byte	0x100
 2193 0720 77000000 		.4byte	0x77
 2194 0724 02       		.byte	0x2
 2195 0725 0E       		.uleb128 0xe
 2196 0726 FE010000 		.4byte	.LASF181
 2197 072a 06       		.byte	0x6
 2198 072b 0B01     		.2byte	0x10b
 2199 072d 83000000 		.4byte	0x83
 2200 0731 04       		.byte	0x4
 2201 0732 0E       		.uleb128 0xe
 2202 0733 4B0F0000 		.4byte	.LASF182
 2203 0737 06       		.byte	0x6
 2204 0738 0E01     		.2byte	0x10e
 2205 073a 77000000 		.4byte	0x77
 2206 073e 08       		.byte	0x8
 2207 073f 0E       		.uleb128 0xe
 2208 0740 F5120000 		.4byte	.LASF183
 2209 0744 06       		.byte	0x6
 2210 0745 1701     		.2byte	0x117
 2211 0747 F9060000 		.4byte	0x6f9
 2212 074b 0C       		.byte	0xc
 2213 074c 00       		.byte	0
 2214 074d 04       		.uleb128 0x4
 2215 074e 3B080000 		.4byte	.LASF184
 2216 0752 06       		.byte	0x6
 2217 0753 1801     		.2byte	0x118
 2218 0755 04070000 		.4byte	0x704
 2219 0759 04       		.uleb128 0x4
 2220 075a 0E020000 		.4byte	.LASF185
 2221 075e 07       		.byte	0x7
 2222 075f 0502     		.2byte	0x205
 2223 0761 C5000000 		.4byte	0xc5
 2224 0765 17       		.uleb128 0x17
 2225 0766 AD02     		.2byte	0x2ad
 2226 0768 08       		.byte	0x8
 2227 0769 9D       		.byte	0x9d
 2228 076a A2070000 		.4byte	0x7a2
 2229 076e 14       		.uleb128 0x14
 2230 076f 0C0A0000 		.4byte	.LASF186
 2231 0773 08       		.byte	0x8
 2232 0774 A0       		.byte	0xa0
 2233 0775 A2070000 		.4byte	0x7a2
 2234 0779 00       		.byte	0
 2235 077a 18       		.uleb128 0x18
 2236 077b 70090000 		.4byte	.LASF187
 2237 077f 08       		.byte	0x8
 2238 0780 A3       		.byte	0xa3
 2239 0781 B3070000 		.4byte	0x7b3
 2240 0785 7902     		.2byte	0x279
 2241 0787 18       		.uleb128 0x18
 2242 0788 B2160000 		.4byte	.LASF188
 2243 078c 08       		.byte	0x8
 2244 078d A6       		.byte	0xa6
 2245 078e 6B000000 		.4byte	0x6b
ARM GAS  C:\Windows\TEMP\ccsjdpha.s 			page 68


 2246 0792 AB02     		.2byte	0x2ab
 2247 0794 18       		.uleb128 0x18
 2248 0795 E7080000 		.4byte	.LASF189
 2249 0799 08       		.byte	0x8
 2250 079a A9       		.byte	0xa9
 2251 079b 6B000000 		.4byte	0x6b
 2252 079f AC02     		.2byte	0x2ac
 2253 07a1 00       		.byte	0
 2254 07a2 0F       		.uleb128 0xf
 2255 07a3 6B000000 		.4byte	0x6b
 2256 07a7 B3070000 		.4byte	0x7b3
 2257 07ab 19       		.uleb128 0x19
 2258 07ac BC000000 		.4byte	0xbc
 2259 07b0 7802     		.2byte	0x278
 2260 07b2 00       		.byte	0
 2261 07b3 0F       		.uleb128 0xf
 2262 07b4 6B000000 		.4byte	0x6b
 2263 07b8 C9070000 		.4byte	0x7c9
 2264 07bc 10       		.uleb128 0x10
 2265 07bd BC000000 		.4byte	0xbc
 2266 07c1 04       		.byte	0x4
 2267 07c2 10       		.uleb128 0x10
 2268 07c3 BC000000 		.4byte	0xbc
 2269 07c7 09       		.byte	0x9
 2270 07c8 00       		.byte	0
 2271 07c9 12       		.uleb128 0x12
 2272 07ca 8B0B0000 		.4byte	.LASF190
 2273 07ce 08       		.byte	0x8
 2274 07cf AA       		.byte	0xaa
 2275 07d0 65070000 		.4byte	0x765
 2276 07d4 11       		.uleb128 0x11
 2277 07d5 01       		.byte	0x1
 2278 07d6 2C000000 		.4byte	0x2c
 2279 07da 09       		.byte	0x9
 2280 07db 2B       		.byte	0x2b
 2281 07dc F9070000 		.4byte	0x7f9
 2282 07e0 0B       		.uleb128 0xb
 2283 07e1 580F0000 		.4byte	.LASF191
 2284 07e5 00       		.byte	0
 2285 07e6 0B       		.uleb128 0xb
 2286 07e7 94000000 		.4byte	.LASF192
 2287 07eb 01       		.byte	0x1
 2288 07ec 0B       		.uleb128 0xb
 2289 07ed B9020000 		.4byte	.LASF193
 2290 07f1 02       		.byte	0x2
 2291 07f2 0B       		.uleb128 0xb
 2292 07f3 6B0F0000 		.4byte	.LASF194
 2293 07f7 03       		.byte	0x3
 2294 07f8 00       		.byte	0
 2295 07f9 11       		.uleb128 0x11
 2296 07fa 01       		.byte	0x1
 2297 07fb 2C000000 		.4byte	0x2c
 2298 07ff 09       		.byte	0x9
 2299 0800 34       		.byte	0x34
 2300 0801 3C080000 		.4byte	0x83c
 2301 0805 0B       		.uleb128 0xb
 2302 0806 60190000 		.4byte	.LASF195
ARM GAS  C:\Windows\TEMP\ccsjdpha.s 			page 69


 2303 080a 00       		.byte	0
 2304 080b 0B       		.uleb128 0xb
 2305 080c 220B0000 		.4byte	.LASF196
 2306 0810 01       		.byte	0x1
 2307 0811 0B       		.uleb128 0xb
 2308 0812 CA100000 		.4byte	.LASF197
 2309 0816 02       		.byte	0x2
 2310 0817 0B       		.uleb128 0xb
 2311 0818 01070000 		.4byte	.LASF198
 2312 081c 03       		.byte	0x3
 2313 081d 0B       		.uleb128 0xb
 2314 081e AE180000 		.4byte	.LASF199
 2315 0822 04       		.byte	0x4
 2316 0823 0B       		.uleb128 0xb
 2317 0824 A00B0000 		.4byte	.LASF200
 2318 0828 05       		.byte	0x5
 2319 0829 0B       		.uleb128 0xb
 2320 082a 70190000 		.4byte	.LASF201
 2321 082e 06       		.byte	0x6
 2322 082f 0B       		.uleb128 0xb
 2323 0830 A4090000 		.4byte	.LASF202
 2324 0834 06       		.byte	0x6
 2325 0835 0B       		.uleb128 0xb
 2326 0836 031A0000 		.4byte	.LASF203
 2327 083a 07       		.byte	0x7
 2328 083b 00       		.byte	0
 2329 083c 0A       		.uleb128 0xa
 2330 083d 01       		.byte	0x1
 2331 083e 2C000000 		.4byte	0x2c
 2332 0842 0A       		.byte	0xa
 2333 0843 A808     		.2byte	0x8a8
 2334 0845 68080000 		.4byte	0x868
 2335 0849 0B       		.uleb128 0xb
 2336 084a AD050000 		.4byte	.LASF204
 2337 084e 00       		.byte	0
 2338 084f 0B       		.uleb128 0xb
 2339 0850 7C0C0000 		.4byte	.LASF205
 2340 0854 01       		.byte	0x1
 2341 0855 0B       		.uleb128 0xb
 2342 0856 03190000 		.4byte	.LASF206
 2343 085a 02       		.byte	0x2
 2344 085b 0B       		.uleb128 0xb
 2345 085c CE020000 		.4byte	.LASF207
 2346 0860 03       		.byte	0x3
 2347 0861 0B       		.uleb128 0xb
 2348 0862 85140000 		.4byte	.LASF208
 2349 0866 04       		.byte	0x4
 2350 0867 00       		.byte	0
 2351 0868 04       		.uleb128 0x4
 2352 0869 1F160000 		.4byte	.LASF209
 2353 086d 0A       		.byte	0xa
 2354 086e B608     		.2byte	0x8b6
 2355 0870 3C080000 		.4byte	0x83c
 2356 0874 0D       		.uleb128 0xd
 2357 0875 0C       		.byte	0xc
 2358 0876 0A       		.byte	0xa
 2359 0877 060A     		.2byte	0xa06
ARM GAS  C:\Windows\TEMP\ccsjdpha.s 			page 70


 2360 0879 CC080000 		.4byte	0x8cc
 2361 087d 0E       		.uleb128 0xe
 2362 087e D0180000 		.4byte	.LASF210
 2363 0882 0A       		.byte	0xa
 2364 0883 090A     		.2byte	0xa09
 2365 0885 40060000 		.4byte	0x640
 2366 0889 00       		.byte	0
 2367 088a 0E       		.uleb128 0xe
 2368 088b E50D0000 		.4byte	.LASF211
 2369 088f 0A       		.byte	0xa
 2370 0890 0B0A     		.2byte	0xa0b
 2371 0892 40060000 		.4byte	0x640
 2372 0896 02       		.byte	0x2
 2373 0897 0E       		.uleb128 0xe
 2374 0898 DF110000 		.4byte	.LASF212
 2375 089c 0A       		.byte	0xa
 2376 089d 0D0A     		.2byte	0xa0d
 2377 089f 40060000 		.4byte	0x640
 2378 08a3 04       		.byte	0x4
 2379 08a4 0E       		.uleb128 0xe
 2380 08a5 5A100000 		.4byte	.LASF213
 2381 08a9 0A       		.byte	0xa
 2382 08aa 100A     		.2byte	0xa10
 2383 08ac 40060000 		.4byte	0x640
 2384 08b0 06       		.byte	0x6
 2385 08b1 0E       		.uleb128 0xe
 2386 08b2 1B170000 		.4byte	.LASF214
 2387 08b6 0A       		.byte	0xa
 2388 08b7 120A     		.2byte	0xa12
 2389 08b9 40060000 		.4byte	0x640
 2390 08bd 08       		.byte	0x8
 2391 08be 0E       		.uleb128 0xe
 2392 08bf F0040000 		.4byte	.LASF215
 2393 08c3 0A       		.byte	0xa
 2394 08c4 140A     		.2byte	0xa14
 2395 08c6 40060000 		.4byte	0x640
 2396 08ca 0A       		.byte	0xa
 2397 08cb 00       		.byte	0
 2398 08cc 04       		.uleb128 0x4
 2399 08cd 29130000 		.4byte	.LASF216
 2400 08d1 0A       		.byte	0xa
 2401 08d2 150A     		.2byte	0xa15
 2402 08d4 74080000 		.4byte	0x874
 2403 08d8 1A       		.uleb128 0x1a
 2404 08d9 A6000000 		.4byte	.LASF290
 2405 08dd 01       		.byte	0x1
 2406 08de AD04     		.2byte	0x4ad
 2407 08e0 00000000 		.4byte	.LFB11
 2408 08e4 78000000 		.4byte	.LFE11-.LFB11
 2409 08e8 01       		.uleb128 0x1
 2410 08e9 9C       		.byte	0x9c
 2411 08ea 6D090000 		.4byte	0x96d
 2412 08ee 1B       		.uleb128 0x1b
 2413 08ef 35150000 		.4byte	.LASF217
 2414 08f3 01       		.byte	0x1
 2415 08f4 AD04     		.2byte	0x4ad
 2416 08f6 6D090000 		.4byte	0x96d
ARM GAS  C:\Windows\TEMP\ccsjdpha.s 			page 71


 2417 08fa 00000000 		.4byte	.LLST0
 2418 08fe 1B       		.uleb128 0x1b
 2419 08ff 77130000 		.4byte	.LASF218
 2420 0903 01       		.byte	0x1
 2421 0904 AD04     		.2byte	0x4ad
 2422 0906 6B000000 		.4byte	0x6b
 2423 090a 21000000 		.4byte	.LLST1
 2424 090e 1C       		.uleb128 0x1c
 2425 090f 6900     		.ascii	"i\000"
 2426 0911 01       		.byte	0x1
 2427 0912 AF04     		.2byte	0x4af
 2428 0914 6B000000 		.4byte	0x6b
 2429 0918 5B000000 		.4byte	.LLST2
 2430 091c 1D       		.uleb128 0x1d
 2431 091d 810F0000 		.4byte	.LASF219
 2432 0921 01       		.byte	0x1
 2433 0922 B004     		.2byte	0x4b0
 2434 0924 6B000000 		.4byte	0x6b
 2435 0928 8F000000 		.4byte	.LLST3
 2436 092c 1D       		.uleb128 0x1d
 2437 092d A3190000 		.4byte	.LASF220
 2438 0931 01       		.byte	0x1
 2439 0932 B104     		.2byte	0x4b1
 2440 0934 6B000000 		.4byte	0x6b
 2441 0938 AE000000 		.4byte	.LLST4
 2442 093c 1D       		.uleb128 0x1d
 2443 093d 9C170000 		.4byte	.LASF221
 2444 0941 01       		.byte	0x1
 2445 0942 B204     		.2byte	0x4b2
 2446 0944 6B000000 		.4byte	0x6b
 2447 0948 D8000000 		.4byte	.LLST5
 2448 094c 1D       		.uleb128 0x1d
 2449 094d C5000000 		.4byte	.LASF222
 2450 0951 01       		.byte	0x1
 2451 0952 B304     		.2byte	0x4b3
 2452 0954 9D040000 		.4byte	0x49d
 2453 0958 18010000 		.4byte	.LLST6
 2454 095c 1D       		.uleb128 0x1d
 2455 095d 740A0000 		.4byte	.LASF223
 2456 0961 01       		.byte	0x1
 2457 0962 B404     		.2byte	0x4b4
 2458 0964 6B000000 		.4byte	0x6b
 2459 0968 4B010000 		.4byte	.LLST7
 2460 096c 00       		.byte	0
 2461 096d 07       		.uleb128 0x7
 2462 096e 04       		.byte	0x4
 2463 096f 73090000 		.4byte	0x973
 2464 0973 1E       		.uleb128 0x1e
 2465 0974 9D000000 		.4byte	0x9d
 2466 0978 1F       		.uleb128 0x1f
 2467 0979 7B030000 		.4byte	.LASF224
 2468 097d 01       		.byte	0x1
 2469 097e C9       		.byte	0xc9
 2470 097f 00000000 		.4byte	.LFB3
 2471 0983 08000000 		.4byte	.LFE3-.LFB3
 2472 0987 01       		.uleb128 0x1
 2473 0988 9C       		.byte	0x9c
ARM GAS  C:\Windows\TEMP\ccsjdpha.s 			page 72


 2474 0989 97090000 		.4byte	0x997
 2475 098d 20       		.uleb128 0x20
 2476 098e 06000000 		.4byte	.LVL28
 2477 0992 8B100000 		.4byte	0x108b
 2478 0996 00       		.byte	0
 2479 0997 1F       		.uleb128 0x1f
 2480 0998 08080000 		.4byte	.LASF225
 2481 099c 01       		.byte	0x1
 2482 099d 98       		.byte	0x98
 2483 099e 00000000 		.4byte	.LFB2
 2484 09a2 34000000 		.4byte	.LFE2-.LFB2
 2485 09a6 01       		.uleb128 0x1
 2486 09a7 9C       		.byte	0x9c
 2487 09a8 B6090000 		.4byte	0x9b6
 2488 09ac 20       		.uleb128 0x20
 2489 09ad 14000000 		.4byte	.LVL29
 2490 09b1 78090000 		.4byte	0x978
 2491 09b5 00       		.byte	0
 2492 09b6 21       		.uleb128 0x21
 2493 09b7 12140000 		.4byte	.LASF234
 2494 09bb 01       		.byte	0x1
 2495 09bc 9B01     		.2byte	0x19b
 2496 09be 78030000 		.4byte	0x378
 2497 09c2 00000000 		.4byte	.LFB4
 2498 09c6 B4000000 		.4byte	.LFE4-.LFB4
 2499 09ca 01       		.uleb128 0x1
 2500 09cb 9C       		.byte	0x9c
 2501 09cc DB0A0000 		.4byte	0xadb
 2502 09d0 1B       		.uleb128 0x1b
 2503 09d1 6B020000 		.4byte	.LASF226
 2504 09d5 01       		.byte	0x1
 2505 09d6 9B01     		.2byte	0x19b
 2506 09d8 59070000 		.4byte	0x759
 2507 09dc 69010000 		.4byte	.LLST8
 2508 09e0 1D       		.uleb128 0x1d
 2509 09e1 50000000 		.4byte	.LASF227
 2510 09e5 01       		.byte	0x1
 2511 09e6 9D01     		.2byte	0x19d
 2512 09e8 78030000 		.4byte	0x378
 2513 09ec BD010000 		.4byte	.LLST9
 2514 09f0 22       		.uleb128 0x22
 2515 09f1 D3080000 		.4byte	.LASF228
 2516 09f5 01       		.byte	0x1
 2517 09f6 A101     		.2byte	0x1a1
 2518 09f8 DB0A0000 		.4byte	0xadb
 2519 09fc 02       		.uleb128 0x2
 2520 09fd 91       		.byte	0x91
 2521 09fe 64       		.sleb128 -28
 2522 09ff 23       		.uleb128 0x23
 2523 0a00 2A000000 		.4byte	.LBB2
 2524 0a04 2A000000 		.4byte	.LBE2-.LBB2
 2525 0a08 680A0000 		.4byte	0xa68
 2526 0a0c 22       		.uleb128 0x22
 2527 0a0d 2A140000 		.4byte	.LASF229
 2528 0a11 01       		.byte	0x1
 2529 0a12 C301     		.2byte	0x1c3
 2530 0a14 25040000 		.4byte	0x425
ARM GAS  C:\Windows\TEMP\ccsjdpha.s 			page 73


 2531 0a18 02       		.uleb128 0x2
 2532 0a19 91       		.byte	0x91
 2533 0a1a 50       		.sleb128 -48
 2534 0a1b 22       		.uleb128 0x22
 2535 0a1c 54110000 		.4byte	.LASF230
 2536 0a20 01       		.byte	0x1
 2537 0a21 C401     		.2byte	0x1c4
 2538 0a23 48040000 		.4byte	0x448
 2539 0a27 02       		.uleb128 0x2
 2540 0a28 91       		.byte	0x91
 2541 0a29 4C       		.sleb128 -52
 2542 0a2a 22       		.uleb128 0x22
 2543 0a2b DE030000 		.4byte	.LASF231
 2544 0a2f 01       		.byte	0x1
 2545 0a30 C501     		.2byte	0x1c5
 2546 0a32 91040000 		.4byte	0x491
 2547 0a36 02       		.uleb128 0x2
 2548 0a37 91       		.byte	0x91
 2549 0a38 58       		.sleb128 -40
 2550 0a39 22       		.uleb128 0x22
 2551 0a3a F7080000 		.4byte	.LASF232
 2552 0a3e 01       		.byte	0x1
 2553 0a3f C601     		.2byte	0x1c6
 2554 0a41 77000000 		.4byte	0x77
 2555 0a45 02       		.uleb128 0x2
 2556 0a46 91       		.byte	0x91
 2557 0a47 4E       		.sleb128 -50
 2558 0a48 20       		.uleb128 0x20
 2559 0a49 4A000000 		.4byte	.LVL36
 2560 0a4d 96100000 		.4byte	0x1096
 2561 0a51 24       		.uleb128 0x24
 2562 0a52 54000000 		.4byte	.LVL37
 2563 0a56 A2100000 		.4byte	0x10a2
 2564 0a5a 25       		.uleb128 0x25
 2565 0a5b 01       		.uleb128 0x1
 2566 0a5c 50       		.byte	0x50
 2567 0a5d 02       		.uleb128 0x2
 2568 0a5e 74       		.byte	0x74
 2569 0a5f 00       		.sleb128 0
 2570 0a60 25       		.uleb128 0x25
 2571 0a61 01       		.uleb128 0x1
 2572 0a62 51       		.byte	0x51
 2573 0a63 02       		.uleb128 0x2
 2574 0a64 91       		.byte	0x91
 2575 0a65 4E       		.sleb128 -50
 2576 0a66 00       		.byte	0
 2577 0a67 00       		.byte	0
 2578 0a68 26       		.uleb128 0x26
 2579 0a69 10000000 		.4byte	.LVL33
 2580 0a6d AE100000 		.4byte	0x10ae
 2581 0a71 8A0A0000 		.4byte	0xa8a
 2582 0a75 25       		.uleb128 0x25
 2583 0a76 01       		.uleb128 0x1
 2584 0a77 50       		.byte	0x50
 2585 0a78 02       		.uleb128 0x2
 2586 0a79 91       		.byte	0x91
 2587 0a7a 64       		.sleb128 -28
ARM GAS  C:\Windows\TEMP\ccsjdpha.s 			page 74


 2588 0a7b 25       		.uleb128 0x25
 2589 0a7c 01       		.uleb128 0x1
 2590 0a7d 51       		.byte	0x51
 2591 0a7e 05       		.uleb128 0x5
 2592 0a7f 03       		.byte	0x3
 2593 0a80 00000000 		.4byte	.LANCHOR1
 2594 0a84 25       		.uleb128 0x25
 2595 0a85 01       		.uleb128 0x1
 2596 0a86 52       		.byte	0x52
 2597 0a87 01       		.uleb128 0x1
 2598 0a88 44       		.byte	0x44
 2599 0a89 00       		.byte	0
 2600 0a8a 20       		.uleb128 0x20
 2601 0a8b 1C000000 		.4byte	.LVL34
 2602 0a8f 97090000 		.4byte	0x997
 2603 0a93 26       		.uleb128 0x26
 2604 0a94 72000000 		.4byte	.LVL39
 2605 0a98 B7100000 		.4byte	0x10b7
 2606 0a9c C50A0000 		.4byte	0xac5
 2607 0aa0 25       		.uleb128 0x25
 2608 0aa1 01       		.uleb128 0x1
 2609 0aa2 51       		.byte	0x51
 2610 0aa3 05       		.uleb128 0x5
 2611 0aa4 03       		.byte	0x3
 2612 0aa5 00000000 		.4byte	.LANCHOR3
 2613 0aa9 25       		.uleb128 0x25
 2614 0aaa 01       		.uleb128 0x1
 2615 0aab 52       		.byte	0x52
 2616 0aac 03       		.uleb128 0x3
 2617 0aad 0A       		.byte	0xa
 2618 0aae 800D     		.2byte	0xd80
 2619 0ab0 25       		.uleb128 0x25
 2620 0ab1 01       		.uleb128 0x1
 2621 0ab2 53       		.byte	0x53
 2622 0ab3 02       		.uleb128 0x2
 2623 0ab4 91       		.byte	0x91
 2624 0ab5 64       		.sleb128 -28
 2625 0ab6 25       		.uleb128 0x25
 2626 0ab7 02       		.uleb128 0x2
 2627 0ab8 7D       		.byte	0x7d
 2628 0ab9 00       		.sleb128 0
 2629 0aba 01       		.uleb128 0x1
 2630 0abb 35       		.byte	0x35
 2631 0abc 25       		.uleb128 0x25
 2632 0abd 02       		.uleb128 0x2
 2633 0abe 7D       		.byte	0x7d
 2634 0abf 08       		.sleb128 8
 2635 0ac0 03       		.uleb128 0x3
 2636 0ac1 0A       		.byte	0xa
 2637 0ac2 7902     		.2byte	0x279
 2638 0ac4 00       		.byte	0
 2639 0ac5 24       		.uleb128 0x24
 2640 0ac6 86000000 		.4byte	.LVL41
 2641 0aca C3100000 		.4byte	0x10c3
 2642 0ace 25       		.uleb128 0x25
 2643 0acf 01       		.uleb128 0x1
 2644 0ad0 51       		.byte	0x51
ARM GAS  C:\Windows\TEMP\ccsjdpha.s 			page 75


 2645 0ad1 02       		.uleb128 0x2
 2646 0ad2 08       		.byte	0x8
 2647 0ad3 34       		.byte	0x34
 2648 0ad4 25       		.uleb128 0x25
 2649 0ad5 01       		.uleb128 0x1
 2650 0ad6 52       		.byte	0x52
 2651 0ad7 01       		.uleb128 0x1
 2652 0ad8 45       		.byte	0x45
 2653 0ad9 00       		.byte	0
 2654 0ada 00       		.byte	0
 2655 0adb 0F       		.uleb128 0xf
 2656 0adc E8030000 		.4byte	0x3e8
 2657 0ae0 EB0A0000 		.4byte	0xaeb
 2658 0ae4 10       		.uleb128 0x10
 2659 0ae5 BC000000 		.4byte	0xbc
 2660 0ae9 04       		.byte	0x4
 2661 0aea 00       		.byte	0
 2662 0aeb 27       		.uleb128 0x27
 2663 0aec B60C0000 		.4byte	.LASF233
 2664 0af0 01       		.byte	0x1
 2665 0af1 2002     		.2byte	0x220
 2666 0af3 00000000 		.4byte	.LFB5
 2667 0af7 14000000 		.4byte	.LFE5-.LFB5
 2668 0afb 01       		.uleb128 0x1
 2669 0afc 9C       		.byte	0x9c
 2670 0afd 0B0B0000 		.4byte	0xb0b
 2671 0b01 20       		.uleb128 0x20
 2672 0b02 06000000 		.4byte	.LVL44
 2673 0b06 CF100000 		.4byte	0x10cf
 2674 0b0a 00       		.byte	0
 2675 0b0b 21       		.uleb128 0x21
 2676 0b0c 64170000 		.4byte	.LASF235
 2677 0b10 01       		.byte	0x1
 2678 0b11 5802     		.2byte	0x258
 2679 0b13 78030000 		.4byte	0x378
 2680 0b17 00000000 		.4byte	.LFB6
 2681 0b1b 04010000 		.4byte	.LFE6-.LFB6
 2682 0b1f 01       		.uleb128 0x1
 2683 0b20 9C       		.byte	0x9c
 2684 0b21 1D0C0000 		.4byte	0xc1d
 2685 0b25 1B       		.uleb128 0x1b
 2686 0b26 8D120000 		.4byte	.LASF236
 2687 0b2a 01       		.byte	0x1
 2688 0b2b 5802     		.2byte	0x258
 2689 0b2d 6B000000 		.4byte	0x6b
 2690 0b31 09020000 		.4byte	.LLST10
 2691 0b35 1D       		.uleb128 0x1d
 2692 0b36 50000000 		.4byte	.LASF227
 2693 0b3a 01       		.byte	0x1
 2694 0b3b 5A02     		.2byte	0x25a
 2695 0b3d 78030000 		.4byte	0x378
 2696 0b41 43020000 		.4byte	.LLST11
 2697 0b45 23       		.uleb128 0x23
 2698 0b46 86000000 		.4byte	.LBB3
 2699 0b4a 26000000 		.4byte	.LBE3-.LBB3
 2700 0b4e 9D0B0000 		.4byte	0xb9d
 2701 0b52 22       		.uleb128 0x22
ARM GAS  C:\Windows\TEMP\ccsjdpha.s 			page 76


 2702 0b53 F10E0000 		.4byte	.LASF237
 2703 0b57 01       		.byte	0x1
 2704 0b58 7E02     		.2byte	0x27e
 2705 0b5a B3070000 		.4byte	0x7b3
 2706 0b5e 02       		.uleb128 0x2
 2707 0b5f 91       		.byte	0x91
 2708 0b60 44       		.sleb128 -60
 2709 0b61 26       		.uleb128 0x26
 2710 0b62 90000000 		.4byte	.LVL56
 2711 0b66 DB100000 		.4byte	0x10db
 2712 0b6a 800B0000 		.4byte	0xb80
 2713 0b6e 25       		.uleb128 0x25
 2714 0b6f 01       		.uleb128 0x1
 2715 0b70 50       		.byte	0x50
 2716 0b71 02       		.uleb128 0x2
 2717 0b72 91       		.byte	0x91
 2718 0b73 44       		.sleb128 -60
 2719 0b74 25       		.uleb128 0x25
 2720 0b75 01       		.uleb128 0x1
 2721 0b76 51       		.byte	0x51
 2722 0b77 01       		.uleb128 0x1
 2723 0b78 30       		.byte	0x30
 2724 0b79 25       		.uleb128 0x25
 2725 0b7a 01       		.uleb128 0x1
 2726 0b7b 52       		.byte	0x52
 2727 0b7c 02       		.uleb128 0x2
 2728 0b7d 08       		.byte	0x8
 2729 0b7e 32       		.byte	0x32
 2730 0b7f 00       		.byte	0
 2731 0b80 24       		.uleb128 0x24
 2732 0b81 9C000000 		.4byte	.LVL57
 2733 0b85 E4100000 		.4byte	0x10e4
 2734 0b89 25       		.uleb128 0x25
 2735 0b8a 01       		.uleb128 0x1
 2736 0b8b 50       		.byte	0x50
 2737 0b8c 02       		.uleb128 0x2
 2738 0b8d 91       		.byte	0x91
 2739 0b8e 44       		.sleb128 -60
 2740 0b8f 25       		.uleb128 0x25
 2741 0b90 01       		.uleb128 0x1
 2742 0b91 52       		.byte	0x52
 2743 0b92 02       		.uleb128 0x2
 2744 0b93 08       		.byte	0x8
 2745 0b94 32       		.byte	0x32
 2746 0b95 25       		.uleb128 0x25
 2747 0b96 01       		.uleb128 0x1
 2748 0b97 53       		.byte	0x53
 2749 0b98 02       		.uleb128 0x2
 2750 0b99 74       		.byte	0x74
 2751 0b9a 00       		.sleb128 0
 2752 0b9b 00       		.byte	0
 2753 0b9c 00       		.byte	0
 2754 0b9d 23       		.uleb128 0x23
 2755 0b9e AC000000 		.4byte	.LBB4
 2756 0ba2 3A000000 		.4byte	.LBE4-.LBB4
 2757 0ba6 F30B0000 		.4byte	0xbf3
 2758 0baa 22       		.uleb128 0x22
ARM GAS  C:\Windows\TEMP\ccsjdpha.s 			page 77


 2759 0bab F10E0000 		.4byte	.LASF237
 2760 0baf 01       		.byte	0x1
 2761 0bb0 8B02     		.2byte	0x28b
 2762 0bb2 D9040000 		.4byte	0x4d9
 2763 0bb6 02       		.uleb128 0x2
 2764 0bb7 91       		.byte	0x91
 2765 0bb8 44       		.sleb128 -60
 2766 0bb9 26       		.uleb128 0x26
 2767 0bba B6000000 		.4byte	.LVL59
 2768 0bbe DB100000 		.4byte	0x10db
 2769 0bc2 D70B0000 		.4byte	0xbd7
 2770 0bc6 25       		.uleb128 0x25
 2771 0bc7 01       		.uleb128 0x1
 2772 0bc8 50       		.byte	0x50
 2773 0bc9 02       		.uleb128 0x2
 2774 0bca 91       		.byte	0x91
 2775 0bcb 44       		.sleb128 -60
 2776 0bcc 25       		.uleb128 0x25
 2777 0bcd 01       		.uleb128 0x1
 2778 0bce 51       		.byte	0x51
 2779 0bcf 01       		.uleb128 0x1
 2780 0bd0 30       		.byte	0x30
 2781 0bd1 25       		.uleb128 0x25
 2782 0bd2 01       		.uleb128 0x1
 2783 0bd3 52       		.byte	0x52
 2784 0bd4 01       		.uleb128 0x1
 2785 0bd5 3A       		.byte	0x3a
 2786 0bd6 00       		.byte	0
 2787 0bd7 24       		.uleb128 0x24
 2788 0bd8 D8000000 		.4byte	.LVL60
 2789 0bdc E4100000 		.4byte	0x10e4
 2790 0be0 25       		.uleb128 0x25
 2791 0be1 01       		.uleb128 0x1
 2792 0be2 50       		.byte	0x50
 2793 0be3 02       		.uleb128 0x2
 2794 0be4 91       		.byte	0x91
 2795 0be5 44       		.sleb128 -60
 2796 0be6 25       		.uleb128 0x25
 2797 0be7 01       		.uleb128 0x1
 2798 0be8 52       		.byte	0x52
 2799 0be9 01       		.uleb128 0x1
 2800 0bea 3A       		.byte	0x3a
 2801 0beb 25       		.uleb128 0x25
 2802 0bec 01       		.uleb128 0x1
 2803 0bed 53       		.byte	0x53
 2804 0bee 02       		.uleb128 0x2
 2805 0bef 74       		.byte	0x74
 2806 0bf0 00       		.sleb128 0
 2807 0bf1 00       		.byte	0
 2808 0bf2 00       		.byte	0
 2809 0bf3 26       		.uleb128 0x26
 2810 0bf4 12000000 		.4byte	.LVL47
 2811 0bf8 EF100000 		.4byte	0x10ef
 2812 0bfc 070C0000 		.4byte	0xc07
 2813 0c00 25       		.uleb128 0x25
 2814 0c01 01       		.uleb128 0x1
 2815 0c02 50       		.byte	0x50
ARM GAS  C:\Windows\TEMP\ccsjdpha.s 			page 78


 2816 0c03 02       		.uleb128 0x2
 2817 0c04 74       		.byte	0x74
 2818 0c05 00       		.sleb128 0
 2819 0c06 00       		.byte	0
 2820 0c07 24       		.uleb128 0x24
 2821 0c08 62000000 		.4byte	.LVL53
 2822 0c0c E4100000 		.4byte	0x10e4
 2823 0c10 25       		.uleb128 0x25
 2824 0c11 01       		.uleb128 0x1
 2825 0c12 52       		.byte	0x52
 2826 0c13 01       		.uleb128 0x1
 2827 0c14 3A       		.byte	0x3a
 2828 0c15 25       		.uleb128 0x25
 2829 0c16 01       		.uleb128 0x1
 2830 0c17 53       		.byte	0x53
 2831 0c18 02       		.uleb128 0x2
 2832 0c19 74       		.byte	0x74
 2833 0c1a 00       		.sleb128 0
 2834 0c1b 00       		.byte	0
 2835 0c1c 00       		.byte	0
 2836 0c1d 21       		.uleb128 0x21
 2837 0c1e 36050000 		.4byte	.LASF238
 2838 0c22 01       		.byte	0x1
 2839 0c23 BA02     		.2byte	0x2ba
 2840 0c25 78030000 		.4byte	0x378
 2841 0c29 00000000 		.4byte	.LFB7
 2842 0c2d 6C000000 		.4byte	.LFE7-.LFB7
 2843 0c31 01       		.uleb128 0x1
 2844 0c32 9C       		.byte	0x9c
 2845 0c33 E70C0000 		.4byte	0xce7
 2846 0c37 1B       		.uleb128 0x1b
 2847 0c38 3B170000 		.4byte	.LASF125
 2848 0c3c 01       		.byte	0x1
 2849 0c3d BA02     		.2byte	0x2ba
 2850 0c3f E70C0000 		.4byte	0xce7
 2851 0c43 9A020000 		.4byte	.LLST12
 2852 0c47 1D       		.uleb128 0x1d
 2853 0c48 50000000 		.4byte	.LASF227
 2854 0c4c 01       		.byte	0x1
 2855 0c4d BC02     		.2byte	0x2bc
 2856 0c4f 78030000 		.4byte	0x378
 2857 0c53 DC020000 		.4byte	.LLST13
 2858 0c57 28       		.uleb128 0x28
 2859 0c58 0E000000 		.4byte	.LBB5
 2860 0c5c 4E000000 		.4byte	.LBE5-.LBB5
 2861 0c60 22       		.uleb128 0x22
 2862 0c61 F3010000 		.4byte	.LASF239
 2863 0c65 01       		.byte	0x1
 2864 0c66 C302     		.2byte	0x2c3
 2865 0c68 6B000000 		.4byte	0x6b
 2866 0c6c 02       		.uleb128 0x2
 2867 0c6d 91       		.byte	0x91
 2868 0c6e 67       		.sleb128 -25
 2869 0c6f 22       		.uleb128 0x22
 2870 0c70 26180000 		.4byte	.LASF240
 2871 0c74 01       		.byte	0x1
 2872 0c75 C402     		.2byte	0x2c4
ARM GAS  C:\Windows\TEMP\ccsjdpha.s 			page 79


 2873 0c77 B8030000 		.4byte	0x3b8
 2874 0c7b 02       		.uleb128 0x2
 2875 0c7c 91       		.byte	0x91
 2876 0c7d 68       		.sleb128 -24
 2877 0c7e 26       		.uleb128 0x26
 2878 0c7f 18000000 		.4byte	.LVL65
 2879 0c83 DB100000 		.4byte	0x10db
 2880 0c87 9C0C0000 		.4byte	0xc9c
 2881 0c8b 25       		.uleb128 0x25
 2882 0c8c 01       		.uleb128 0x1
 2883 0c8d 50       		.byte	0x50
 2884 0c8e 02       		.uleb128 0x2
 2885 0c8f 91       		.byte	0x91
 2886 0c90 68       		.sleb128 -24
 2887 0c91 25       		.uleb128 0x25
 2888 0c92 01       		.uleb128 0x1
 2889 0c93 51       		.byte	0x51
 2890 0c94 01       		.uleb128 0x1
 2891 0c95 30       		.byte	0x30
 2892 0c96 25       		.uleb128 0x25
 2893 0c97 01       		.uleb128 0x1
 2894 0c98 52       		.byte	0x52
 2895 0c99 01       		.uleb128 0x1
 2896 0c9a 37       		.byte	0x37
 2897 0c9b 00       		.byte	0
 2898 0c9c 26       		.uleb128 0x26
 2899 0c9d 22000000 		.4byte	.LVL66
 2900 0ca1 FA100000 		.4byte	0x10fa
 2901 0ca5 BB0C0000 		.4byte	0xcbb
 2902 0ca9 25       		.uleb128 0x25
 2903 0caa 01       		.uleb128 0x1
 2904 0cab 50       		.byte	0x50
 2905 0cac 02       		.uleb128 0x2
 2906 0cad 75       		.byte	0x75
 2907 0cae 00       		.sleb128 0
 2908 0caf 25       		.uleb128 0x25
 2909 0cb0 01       		.uleb128 0x1
 2910 0cb1 51       		.byte	0x51
 2911 0cb2 02       		.uleb128 0x2
 2912 0cb3 91       		.byte	0x91
 2913 0cb4 68       		.sleb128 -24
 2914 0cb5 25       		.uleb128 0x25
 2915 0cb6 01       		.uleb128 0x1
 2916 0cb7 52       		.byte	0x52
 2917 0cb8 01       		.uleb128 0x1
 2918 0cb9 36       		.byte	0x36
 2919 0cba 00       		.byte	0
 2920 0cbb 26       		.uleb128 0x26
 2921 0cbc 3A000000 		.4byte	.LVL67
 2922 0cc0 05110000 		.4byte	0x1105
 2923 0cc4 D50C0000 		.4byte	0xcd5
 2924 0cc8 25       		.uleb128 0x25
 2925 0cc9 01       		.uleb128 0x1
 2926 0cca 50       		.byte	0x50
 2927 0ccb 02       		.uleb128 0x2
 2928 0ccc 7D       		.byte	0x7d
 2929 0ccd 07       		.sleb128 7
ARM GAS  C:\Windows\TEMP\ccsjdpha.s 			page 80


 2930 0cce 25       		.uleb128 0x25
 2931 0ccf 01       		.uleb128 0x1
 2932 0cd0 51       		.byte	0x51
 2933 0cd1 02       		.uleb128 0x2
 2934 0cd2 75       		.byte	0x75
 2935 0cd3 00       		.sleb128 0
 2936 0cd4 00       		.byte	0
 2937 0cd5 24       		.uleb128 0x24
 2938 0cd6 5A000000 		.4byte	.LVL70
 2939 0cda 11110000 		.4byte	0x1111
 2940 0cde 25       		.uleb128 0x25
 2941 0cdf 01       		.uleb128 0x1
 2942 0ce0 50       		.byte	0x50
 2943 0ce1 02       		.uleb128 0x2
 2944 0ce2 75       		.byte	0x75
 2945 0ce3 00       		.sleb128 0
 2946 0ce4 00       		.byte	0
 2947 0ce5 00       		.byte	0
 2948 0ce6 00       		.byte	0
 2949 0ce7 07       		.uleb128 0x7
 2950 0ce8 04       		.byte	0x4
 2951 0ce9 B8030000 		.4byte	0x3b8
 2952 0ced 21       		.uleb128 0x21
 2953 0cee 41060000 		.4byte	.LASF241
 2954 0cf2 01       		.byte	0x1
 2955 0cf3 1B03     		.2byte	0x31b
 2956 0cf5 78030000 		.4byte	0x378
 2957 0cf9 00000000 		.4byte	.LFB8
 2958 0cfd 90000000 		.4byte	.LFE8-.LFB8
 2959 0d01 01       		.uleb128 0x1
 2960 0d02 9C       		.byte	0x9c
 2961 0d03 3B0D0000 		.4byte	0xd3b
 2962 0d07 1B       		.uleb128 0x1b
 2963 0d08 8D030000 		.4byte	.LASF242
 2964 0d0c 01       		.byte	0x1
 2965 0d0d 1B03     		.2byte	0x31b
 2966 0d0f 6B000000 		.4byte	0x6b
 2967 0d13 1D030000 		.4byte	.LLST14
 2968 0d17 1D       		.uleb128 0x1d
 2969 0d18 50000000 		.4byte	.LASF227
 2970 0d1c 01       		.byte	0x1
 2971 0d1d 1D03     		.2byte	0x31d
 2972 0d1f 78030000 		.4byte	0x378
 2973 0d23 95030000 		.4byte	.LLST15
 2974 0d27 24       		.uleb128 0x24
 2975 0d28 5C000000 		.4byte	.LVL76
 2976 0d2c 1D110000 		.4byte	0x111d
 2977 0d30 25       		.uleb128 0x25
 2978 0d31 01       		.uleb128 0x1
 2979 0d32 50       		.byte	0x50
 2980 0d33 05       		.uleb128 0x5
 2981 0d34 03       		.byte	0x3
 2982 0d35 40000000 		.4byte	.LANCHOR0+64
 2983 0d39 00       		.byte	0
 2984 0d3a 00       		.byte	0
 2985 0d3b 27       		.uleb128 0x27
 2986 0d3c 6E080000 		.4byte	.LASF243
ARM GAS  C:\Windows\TEMP\ccsjdpha.s 			page 81


 2987 0d40 01       		.byte	0x1
 2988 0d41 5803     		.2byte	0x358
 2989 0d43 00000000 		.4byte	.LFB9
 2990 0d47 18000000 		.4byte	.LFE9-.LFB9
 2991 0d4b 01       		.uleb128 0x1
 2992 0d4c 9C       		.byte	0x9c
 2993 0d4d 5B0D0000 		.4byte	0xd5b
 2994 0d51 20       		.uleb128 0x20
 2995 0d52 06000000 		.4byte	.LVL84
 2996 0d56 29110000 		.4byte	0x1129
 2997 0d5a 00       		.byte	0
 2998 0d5b 27       		.uleb128 0x27
 2999 0d5c 600C0000 		.4byte	.LASF244
 3000 0d60 01       		.byte	0x1
 3001 0d61 6E03     		.2byte	0x36e
 3002 0d63 00000000 		.4byte	.LFB10
 3003 0d67 02000000 		.4byte	.LFE10-.LFB10
 3004 0d6b 01       		.uleb128 0x1
 3005 0d6c 9C       		.byte	0x9c
 3006 0d6d A50D0000 		.4byte	0xda5
 3007 0d71 29       		.uleb128 0x29
 3008 0d72 3B170000 		.4byte	.LASF125
 3009 0d76 01       		.byte	0x1
 3010 0d77 6E03     		.2byte	0x36e
 3011 0d79 A50D0000 		.4byte	0xda5
 3012 0d7d 01       		.uleb128 0x1
 3013 0d7e 50       		.byte	0x50
 3014 0d7f 29       		.uleb128 0x29
 3015 0d80 77130000 		.4byte	.LASF218
 3016 0d84 01       		.byte	0x1
 3017 0d85 6E03     		.2byte	0x36e
 3018 0d87 6B000000 		.4byte	0x6b
 3019 0d8b 01       		.uleb128 0x1
 3020 0d8c 51       		.byte	0x51
 3021 0d8d 2A       		.uleb128 0x2a
 3022 0d8e 6900     		.ascii	"i\000"
 3023 0d90 01       		.byte	0x1
 3024 0d91 7003     		.2byte	0x370
 3025 0d93 6B000000 		.4byte	0x6b
 3026 0d97 2B       		.uleb128 0x2b
 3027 0d98 C5000000 		.4byte	.LASF222
 3028 0d9c 01       		.byte	0x1
 3029 0d9d 7103     		.2byte	0x371
 3030 0d9f 9D040000 		.4byte	0x49d
 3031 0da3 00       		.byte	0
 3032 0da4 00       		.byte	0
 3033 0da5 07       		.uleb128 0x7
 3034 0da6 04       		.byte	0x4
 3035 0da7 AB0D0000 		.4byte	0xdab
 3036 0dab 1E       		.uleb128 0x1e
 3037 0dac B8030000 		.4byte	0x3b8
 3038 0db0 21       		.uleb128 0x21
 3039 0db1 8D150000 		.4byte	.LASF245
 3040 0db5 01       		.byte	0x1
 3041 0db6 1205     		.2byte	0x512
 3042 0db8 78030000 		.4byte	0x378
 3043 0dbc 00000000 		.4byte	.LFB12
ARM GAS  C:\Windows\TEMP\ccsjdpha.s 			page 82


 3044 0dc0 60000000 		.4byte	.LFE12-.LFB12
 3045 0dc4 01       		.uleb128 0x1
 3046 0dc5 9C       		.byte	0x9c
 3047 0dc6 470E0000 		.4byte	0xe47
 3048 0dca 1B       		.uleb128 0x1b
 3049 0dcb 35150000 		.4byte	.LASF217
 3050 0dcf 01       		.byte	0x1
 3051 0dd0 1205     		.2byte	0x512
 3052 0dd2 6D090000 		.4byte	0x96d
 3053 0dd6 B3030000 		.4byte	.LLST16
 3054 0dda 1D       		.uleb128 0x1d
 3055 0ddb 50000000 		.4byte	.LASF227
 3056 0ddf 01       		.byte	0x1
 3057 0de0 1405     		.2byte	0x514
 3058 0de2 78030000 		.4byte	0x378
 3059 0de6 F5030000 		.4byte	.LLST17
 3060 0dea 1C       		.uleb128 0x1c
 3061 0deb 6900     		.ascii	"i\000"
 3062 0ded 01       		.byte	0x1
 3063 0dee 1505     		.2byte	0x515
 3064 0df0 6B000000 		.4byte	0x6b
 3065 0df4 14040000 		.4byte	.LLST18
 3066 0df8 1C       		.uleb128 0x1c
 3067 0df9 70747200 		.ascii	"ptr\000"
 3068 0dfd 01       		.byte	0x1
 3069 0dfe 1605     		.2byte	0x516
 3070 0e00 470E0000 		.4byte	0xe47
 3071 0e04 3E040000 		.4byte	.LLST19
 3072 0e08 1D       		.uleb128 0x1d
 3073 0e09 BC0F0000 		.4byte	.LASF246
 3074 0e0d 01       		.byte	0x1
 3075 0e0e 1705     		.2byte	0x517
 3076 0e10 6B000000 		.4byte	0x6b
 3077 0e14 51040000 		.4byte	.LLST20
 3078 0e18 26       		.uleb128 0x26
 3079 0e19 48000000 		.4byte	.LVL97
 3080 0e1d D8080000 		.4byte	0x8d8
 3081 0e21 310E0000 		.4byte	0xe31
 3082 0e25 25       		.uleb128 0x25
 3083 0e26 01       		.uleb128 0x1
 3084 0e27 50       		.byte	0x50
 3085 0e28 02       		.uleb128 0x2
 3086 0e29 74       		.byte	0x74
 3087 0e2a 00       		.sleb128 0
 3088 0e2b 25       		.uleb128 0x25
 3089 0e2c 01       		.uleb128 0x1
 3090 0e2d 51       		.byte	0x51
 3091 0e2e 01       		.uleb128 0x1
 3092 0e2f 30       		.byte	0x30
 3093 0e30 00       		.byte	0
 3094 0e31 24       		.uleb128 0x24
 3095 0e32 50000000 		.4byte	.LVL98
 3096 0e36 D8080000 		.4byte	0x8d8
 3097 0e3a 25       		.uleb128 0x25
 3098 0e3b 01       		.uleb128 0x1
 3099 0e3c 50       		.byte	0x50
 3100 0e3d 02       		.uleb128 0x2
ARM GAS  C:\Windows\TEMP\ccsjdpha.s 			page 83


 3101 0e3e 74       		.byte	0x74
 3102 0e3f 00       		.sleb128 0
 3103 0e40 25       		.uleb128 0x25
 3104 0e41 01       		.uleb128 0x1
 3105 0e42 51       		.byte	0x51
 3106 0e43 01       		.uleb128 0x1
 3107 0e44 31       		.byte	0x31
 3108 0e45 00       		.byte	0
 3109 0e46 00       		.byte	0
 3110 0e47 07       		.uleb128 0x7
 3111 0e48 04       		.byte	0x4
 3112 0e49 9D000000 		.4byte	0x9d
 3113 0e4d 21       		.uleb128 0x21
 3114 0e4e 77070000 		.4byte	.LASF247
 3115 0e52 01       		.byte	0x1
 3116 0e53 5A05     		.2byte	0x55a
 3117 0e55 78030000 		.4byte	0x378
 3118 0e59 00000000 		.4byte	.LFB13
 3119 0e5d 48000000 		.4byte	.LFE13-.LFB13
 3120 0e61 01       		.uleb128 0x1
 3121 0e62 9C       		.byte	0x9c
 3122 0e63 B60E0000 		.4byte	0xeb6
 3123 0e67 1B       		.uleb128 0x1b
 3124 0e68 35150000 		.4byte	.LASF217
 3125 0e6c 01       		.byte	0x1
 3126 0e6d 5A05     		.2byte	0x55a
 3127 0e6f 470E0000 		.4byte	0xe47
 3128 0e73 64040000 		.4byte	.LLST21
 3129 0e77 1D       		.uleb128 0x1d
 3130 0e78 50000000 		.4byte	.LASF227
 3131 0e7c 01       		.byte	0x1
 3132 0e7d 5C05     		.2byte	0x55c
 3133 0e7f 78030000 		.4byte	0x378
 3134 0e83 9E040000 		.4byte	.LLST22
 3135 0e87 1D       		.uleb128 0x1d
 3136 0e88 BC0F0000 		.4byte	.LASF246
 3137 0e8c 01       		.byte	0x1
 3138 0e8d 5D05     		.2byte	0x55d
 3139 0e8f 6B000000 		.4byte	0x6b
 3140 0e93 BD040000 		.4byte	.LLST23
 3141 0e97 1C       		.uleb128 0x1c
 3142 0e98 6900     		.ascii	"i\000"
 3143 0e9a 01       		.byte	0x1
 3144 0e9b 5E05     		.2byte	0x55e
 3145 0e9d 6B000000 		.4byte	0x6b
 3146 0ea1 D0040000 		.4byte	.LLST24
 3147 0ea5 1C       		.uleb128 0x1c
 3148 0ea6 70747200 		.ascii	"ptr\000"
 3149 0eaa 01       		.byte	0x1
 3150 0eab 5F05     		.2byte	0x55f
 3151 0ead 470E0000 		.4byte	0xe47
 3152 0eb1 FA040000 		.4byte	.LLST25
 3153 0eb5 00       		.byte	0
 3154 0eb6 21       		.uleb128 0x21
 3155 0eb7 CE110000 		.4byte	.LASF248
 3156 0ebb 01       		.byte	0x1
 3157 0ebc 8C05     		.2byte	0x58c
ARM GAS  C:\Windows\TEMP\ccsjdpha.s 			page 84


 3158 0ebe 77000000 		.4byte	0x77
 3159 0ec2 00000000 		.4byte	.LFB14
 3160 0ec6 0A000000 		.4byte	.LFE14-.LFB14
 3161 0eca 01       		.uleb128 0x1
 3162 0ecb 9C       		.byte	0x9c
 3163 0ecc E10E0000 		.4byte	0xee1
 3164 0ed0 2C       		.uleb128 0x2c
 3165 0ed1 70747200 		.ascii	"ptr\000"
 3166 0ed5 01       		.byte	0x1
 3167 0ed6 8C05     		.2byte	0x58c
 3168 0ed8 E10E0000 		.4byte	0xee1
 3169 0edc 0D050000 		.4byte	.LLST26
 3170 0ee0 00       		.byte	0
 3171 0ee1 07       		.uleb128 0x7
 3172 0ee2 04       		.byte	0x4
 3173 0ee3 E70E0000 		.4byte	0xee7
 3174 0ee7 1E       		.uleb128 0x1e
 3175 0ee8 6B000000 		.4byte	0x6b
 3176 0eec 27       		.uleb128 0x27
 3177 0eed 860F0000 		.4byte	.LASF249
 3178 0ef1 01       		.byte	0x1
 3179 0ef2 9F05     		.2byte	0x59f
 3180 0ef4 00000000 		.4byte	.LFB15
 3181 0ef8 08000000 		.4byte	.LFE15-.LFB15
 3182 0efc 01       		.uleb128 0x1
 3183 0efd 9C       		.byte	0x9c
 3184 0efe 210F0000 		.4byte	0xf21
 3185 0f02 2D       		.uleb128 0x2d
 3186 0f03 70747200 		.ascii	"ptr\000"
 3187 0f07 01       		.byte	0x1
 3188 0f08 9F05     		.2byte	0x59f
 3189 0f0a 9D040000 		.4byte	0x49d
 3190 0f0e 01       		.uleb128 0x1
 3191 0f0f 50       		.byte	0x50
 3192 0f10 1B       		.uleb128 0x1b
 3193 0f11 EF120000 		.4byte	.LASF250
 3194 0f15 01       		.byte	0x1
 3195 0f16 9F05     		.2byte	0x59f
 3196 0f18 77000000 		.4byte	0x77
 3197 0f1c 2E050000 		.4byte	.LLST27
 3198 0f20 00       		.byte	0
 3199 0f21 2E       		.uleb128 0x2e
 3200 0f22 4C080000 		.4byte	.LASF251
 3201 0f26 01       		.byte	0x1
 3202 0f27 84       		.byte	0x84
 3203 0f28 6B000000 		.4byte	0x6b
 3204 0f2c 05       		.uleb128 0x5
 3205 0f2d 03       		.byte	0x3
 3206 0f2e 01000000 		.4byte	cyBle_pendingFlashClearCccdHandle
 3207 0f32 2F       		.uleb128 0x2f
 3208 0f33 FE120000 		.4byte	.LASF252
 3209 0f37 01       		.byte	0x1
 3210 0f38 89       		.byte	0x89
 3211 0f39 59070000 		.4byte	0x759
 3212 0f3d 05       		.uleb128 0x5
 3213 0f3e 03       		.byte	0x3
 3214 0f3f 00000000 		.4byte	CyBle_ApplCallback
ARM GAS  C:\Windows\TEMP\ccsjdpha.s 			page 85


 3215 0f43 2F       		.uleb128 0x2f
 3216 0f44 40150000 		.4byte	.LASF253
 3217 0f48 01       		.byte	0x1
 3218 0f49 2B       		.byte	0x2b
 3219 0f4a 6B000000 		.4byte	0x6b
 3220 0f4e 05       		.uleb128 0x5
 3221 0f4f 03       		.byte	0x3
 3222 0f50 00000000 		.4byte	cyBle_initVar
 3223 0f54 0F       		.uleb128 0xf
 3224 0f55 6B000000 		.4byte	0x6b
 3225 0f59 650F0000 		.4byte	0xf65
 3226 0f5d 19       		.uleb128 0x19
 3227 0f5e BC000000 		.4byte	0xbc
 3228 0f62 B70D     		.2byte	0xdb7
 3229 0f64 00       		.byte	0
 3230 0f65 2F       		.uleb128 0x2f
 3231 0f66 E9160000 		.4byte	.LASF254
 3232 0f6a 01       		.byte	0x1
 3233 0f6b 36       		.byte	0x36
 3234 0f6c 540F0000 		.4byte	0xf54
 3235 0f70 05       		.uleb128 0x5
 3236 0f71 03       		.byte	0x3
 3237 0f72 00000000 		.4byte	cyBle_stackMemoryRam
 3238 0f76 30       		.uleb128 0x30
 3239 0f77 4D170000 		.4byte	.LASF255
 3240 0f7b 07       		.byte	0x7
 3241 0f7c A502     		.2byte	0x2a5
 3242 0f7e B0000000 		.4byte	0xb0
 3243 0f82 2F       		.uleb128 0x2f
 3244 0f83 48040000 		.4byte	.LASF256
 3245 0f87 01       		.byte	0x1
 3246 0f88 8A       		.byte	0x8a
 3247 0f89 B8030000 		.4byte	0x3b8
 3248 0f8d 05       		.uleb128 0x5
 3249 0f8e 03       		.byte	0x3
 3250 0f8f 00000000 		.4byte	cyBle_deviceAddress
 3251 0f93 2F       		.uleb128 0x2f
 3252 0f94 56090000 		.4byte	.LASF257
 3253 0f98 01       		.byte	0x1
 3254 0f99 8B       		.byte	0x8b
 3255 0f9a E70C0000 		.4byte	0xce7
 3256 0f9e 05       		.uleb128 0x5
 3257 0f9f 03       		.byte	0x3
 3258 0fa0 00000000 		.4byte	cyBle_sflashDeviceAddress
 3259 0fa4 2F       		.uleb128 0x2f
 3260 0fa5 20040000 		.4byte	.LASF258
 3261 0fa9 01       		.byte	0x1
 3262 0faa 3C       		.byte	0x3c
 3263 0fab 5B050000 		.4byte	0x55b
 3264 0faf 05       		.uleb128 0x5
 3265 0fb0 03       		.byte	0x3
 3266 0fb1 00000000 		.4byte	cyBle_discoveryParam
 3267 0fb5 2F       		.uleb128 0x2f
 3268 0fb6 9A180000 		.4byte	.LASF259
 3269 0fba 01       		.byte	0x1
 3270 0fbb 48       		.byte	0x48
 3271 0fbc 9B050000 		.4byte	0x59b
ARM GAS  C:\Windows\TEMP\ccsjdpha.s 			page 86


 3272 0fc0 05       		.uleb128 0x5
 3273 0fc1 03       		.byte	0x3
 3274 0fc2 00000000 		.4byte	cyBle_discoveryData
 3275 0fc6 2F       		.uleb128 0x2f
 3276 0fc7 48100000 		.4byte	.LASF260
 3277 0fcb 01       		.byte	0x1
 3278 0fcc 51       		.byte	0x51
 3279 0fcd CB050000 		.4byte	0x5cb
 3280 0fd1 05       		.uleb128 0x5
 3281 0fd2 03       		.byte	0x3
 3282 0fd3 00000000 		.4byte	cyBle_scanRspData
 3283 0fd7 2F       		.uleb128 0x2f
 3284 0fd8 BC160000 		.4byte	.LASF261
 3285 0fdc 01       		.byte	0x1
 3286 0fdd 61       		.byte	0x61
 3287 0fde 34060000 		.4byte	0x634
 3288 0fe2 05       		.uleb128 0x5
 3289 0fe3 03       		.byte	0x3
 3290 0fe4 00000000 		.4byte	cyBle_discoveryModeInfo
 3291 0fe8 2F       		.uleb128 0x2f
 3292 0fe9 98130000 		.4byte	.LASF262
 3293 0fed 01       		.byte	0x1
 3294 0fee 81       		.byte	0x81
 3295 0fef 6B000000 		.4byte	0x6b
 3296 0ff3 05       		.uleb128 0x5
 3297 0ff4 03       		.byte	0x3
 3298 0ff5 00000000 		.4byte	cyBle_pendingFlashWrite
 3299 0ff9 2F       		.uleb128 0x2f
 3300 0ffa 00000000 		.4byte	.LASF263
 3301 0ffe 01       		.byte	0x1
 3302 0fff 80       		.byte	0x80
 3303 1000 6B000000 		.4byte	0x6b
 3304 1004 05       		.uleb128 0x5
 3305 1005 03       		.byte	0x3
 3306 1006 00000000 		.4byte	cyBle_peerBonding
 3307 100a 0F       		.uleb128 0xf
 3308 100b 1A100000 		.4byte	0x101a
 3309 100f 1A100000 		.4byte	0x101a
 3310 1013 10       		.uleb128 0x10
 3311 1014 BC000000 		.4byte	0xbc
 3312 1018 33       		.byte	0x33
 3313 1019 00       		.byte	0
 3314 101a 1E       		.uleb128 0x1e
 3315 101b 4D070000 		.4byte	0x74d
 3316 101f 31       		.uleb128 0x31
 3317 1020 720E0000 		.4byte	.LASF264
 3318 1024 08       		.byte	0x8
 3319 1025 E9       		.byte	0xe9
 3320 1026 2A100000 		.4byte	0x102a
 3321 102a 1E       		.uleb128 0x1e
 3322 102b 0A100000 		.4byte	0x100a
 3323 102f 31       		.uleb128 0x31
 3324 1030 DA170000 		.4byte	.LASF265
 3325 1034 08       		.byte	0x8
 3326 1035 ED       		.byte	0xed
 3327 1036 D9040000 		.4byte	0x4d9
 3328 103a 31       		.uleb128 0x31
ARM GAS  C:\Windows\TEMP\ccsjdpha.s 			page 87


 3329 103b 130D0000 		.4byte	.LASF266
 3330 103f 08       		.byte	0x8
 3331 1040 F5       		.byte	0xf5
 3332 1041 45100000 		.4byte	0x1045
 3333 1045 1E       		.uleb128 0x1e
 3334 1046 C9070000 		.4byte	0x7c9
 3335 104a 30       		.uleb128 0x30
 3336 104b 1E140000 		.4byte	.LASF267
 3337 104f 0A       		.byte	0xa
 3338 1050 160B     		.2byte	0xb16
 3339 1052 68080000 		.4byte	0x868
 3340 1056 30       		.uleb128 0x30
 3341 1057 72150000 		.4byte	.LASF268
 3342 105b 0A       		.byte	0xa
 3343 105c 170B     		.2byte	0xb17
 3344 105e 70060000 		.4byte	0x670
 3345 1062 30       		.uleb128 0x30
 3346 1063 4F0C0000 		.4byte	.LASF269
 3347 1067 0A       		.byte	0xa
 3348 1068 180B     		.2byte	0xb18
 3349 106a B0000000 		.4byte	0xb0
 3350 106e 30       		.uleb128 0x30
 3351 106f 42170000 		.4byte	.LASF270
 3352 1073 0A       		.byte	0xa
 3353 1074 190B     		.2byte	0xb19
 3354 1076 7A100000 		.4byte	0x107a
 3355 107a 1E       		.uleb128 0x1e
 3356 107b CC080000 		.4byte	0x8cc
 3357 107f 30       		.uleb128 0x30
 3358 1080 C70D0000 		.4byte	.LASF271
 3359 1084 0A       		.byte	0xa
 3360 1085 1C0B     		.2byte	0xb1c
 3361 1087 6B000000 		.4byte	0x6b
 3362 108b 32       		.uleb128 0x32
 3363 108c B6140000 		.4byte	.LASF272
 3364 1090 B6140000 		.4byte	.LASF272
 3365 1094 09       		.byte	0x9
 3366 1095 EC       		.byte	0xec
 3367 1096 33       		.uleb128 0x33
 3368 1097 89090000 		.4byte	.LASF273
 3369 109b 89090000 		.4byte	.LASF273
 3370 109f 03       		.byte	0x3
 3371 10a0 2A0C     		.2byte	0xc2a
 3372 10a2 33       		.uleb128 0x33
 3373 10a3 DB0A0000 		.4byte	.LASF274
 3374 10a7 DB0A0000 		.4byte	.LASF274
 3375 10ab 03       		.byte	0x3
 3376 10ac 1106     		.2byte	0x611
 3377 10ae 34       		.uleb128 0x34
 3378 10af 95170000 		.4byte	.LASF278
 3379 10b3 95170000 		.4byte	.LASF278
 3380 10b7 33       		.uleb128 0x33
 3381 10b8 E3060000 		.4byte	.LASF275
 3382 10bc E3060000 		.4byte	.LASF275
 3383 10c0 03       		.byte	0x3
 3384 10c1 D906     		.2byte	0x6d9
 3385 10c3 33       		.uleb128 0x33
ARM GAS  C:\Windows\TEMP\ccsjdpha.s 			page 88


 3386 10c4 EF150000 		.4byte	.LASF276
 3387 10c8 EF150000 		.4byte	.LASF276
 3388 10cc 06       		.byte	0x6
 3389 10cd 5A01     		.2byte	0x15a
 3390 10cf 33       		.uleb128 0x33
 3391 10d0 8A080000 		.4byte	.LASF277
 3392 10d4 8A080000 		.4byte	.LASF277
 3393 10d8 03       		.byte	0x3
 3394 10d9 F406     		.2byte	0x6f4
 3395 10db 34       		.uleb128 0x34
 3396 10dc 4A130000 		.4byte	.LASF279
 3397 10e0 4A130000 		.4byte	.LASF279
 3398 10e4 32       		.uleb128 0x32
 3399 10e5 35040000 		.4byte	.LASF280
 3400 10e9 35040000 		.4byte	.LASF280
 3401 10ed 0B       		.byte	0xb
 3402 10ee 82       		.byte	0x82
 3403 10ef 32       		.uleb128 0x32
 3404 10f0 C9030000 		.4byte	.LASF281
 3405 10f4 C9030000 		.4byte	.LASF281
 3406 10f8 0B       		.byte	0xb
 3407 10f9 64       		.byte	0x64
 3408 10fa 32       		.uleb128 0x32
 3409 10fb 3A140000 		.4byte	.LASF282
 3410 10ff 3A140000 		.4byte	.LASF282
 3411 1103 0C       		.byte	0xc
 3412 1104 16       		.byte	0x16
 3413 1105 33       		.uleb128 0x33
 3414 1106 23010000 		.4byte	.LASF283
 3415 110a 23010000 		.4byte	.LASF283
 3416 110e 04       		.byte	0x4
 3417 110f 9005     		.2byte	0x590
 3418 1111 33       		.uleb128 0x33
 3419 1112 EF130000 		.4byte	.LASF284
 3420 1116 EF130000 		.4byte	.LASF284
 3421 111a 04       		.byte	0x4
 3422 111b C108     		.2byte	0x8c1
 3423 111d 33       		.uleb128 0x33
 3424 111e 090C0000 		.4byte	.LASF285
 3425 1122 090C0000 		.4byte	.LASF285
 3426 1126 04       		.byte	0x4
 3427 1127 EA05     		.2byte	0x5ea
 3428 1129 33       		.uleb128 0x33
 3429 112a 5B070000 		.4byte	.LASF286
 3430 112e 5B070000 		.4byte	.LASF286
 3431 1132 04       		.byte	0x4
 3432 1133 FB05     		.2byte	0x5fb
 3433 1135 00       		.byte	0
 3434              		.section	.debug_abbrev,"",%progbits
 3435              	.Ldebug_abbrev0:
 3436 0000 01       		.uleb128 0x1
 3437 0001 11       		.uleb128 0x11
 3438 0002 01       		.byte	0x1
 3439 0003 25       		.uleb128 0x25
 3440 0004 0E       		.uleb128 0xe
 3441 0005 13       		.uleb128 0x13
 3442 0006 0B       		.uleb128 0xb
ARM GAS  C:\Windows\TEMP\ccsjdpha.s 			page 89


 3443 0007 03       		.uleb128 0x3
 3444 0008 0E       		.uleb128 0xe
 3445 0009 1B       		.uleb128 0x1b
 3446 000a 0E       		.uleb128 0xe
 3447 000b 55       		.uleb128 0x55
 3448 000c 17       		.uleb128 0x17
 3449 000d 11       		.uleb128 0x11
 3450 000e 01       		.uleb128 0x1
 3451 000f 10       		.uleb128 0x10
 3452 0010 17       		.uleb128 0x17
 3453 0011 00       		.byte	0
 3454 0012 00       		.byte	0
 3455 0013 02       		.uleb128 0x2
 3456 0014 24       		.uleb128 0x24
 3457 0015 00       		.byte	0
 3458 0016 0B       		.uleb128 0xb
 3459 0017 0B       		.uleb128 0xb
 3460 0018 3E       		.uleb128 0x3e
 3461 0019 0B       		.uleb128 0xb
 3462 001a 03       		.uleb128 0x3
 3463 001b 0E       		.uleb128 0xe
 3464 001c 00       		.byte	0
 3465 001d 00       		.byte	0
 3466 001e 03       		.uleb128 0x3
 3467 001f 24       		.uleb128 0x24
 3468 0020 00       		.byte	0
 3469 0021 0B       		.uleb128 0xb
 3470 0022 0B       		.uleb128 0xb
 3471 0023 3E       		.uleb128 0x3e
 3472 0024 0B       		.uleb128 0xb
 3473 0025 03       		.uleb128 0x3
 3474 0026 08       		.uleb128 0x8
 3475 0027 00       		.byte	0
 3476 0028 00       		.byte	0
 3477 0029 04       		.uleb128 0x4
 3478 002a 16       		.uleb128 0x16
 3479 002b 00       		.byte	0
 3480 002c 03       		.uleb128 0x3
 3481 002d 0E       		.uleb128 0xe
 3482 002e 3A       		.uleb128 0x3a
 3483 002f 0B       		.uleb128 0xb
 3484 0030 3B       		.uleb128 0x3b
 3485 0031 05       		.uleb128 0x5
 3486 0032 49       		.uleb128 0x49
 3487 0033 13       		.uleb128 0x13
 3488 0034 00       		.byte	0
 3489 0035 00       		.byte	0
 3490 0036 05       		.uleb128 0x5
 3491 0037 35       		.uleb128 0x35
 3492 0038 00       		.byte	0
 3493 0039 49       		.uleb128 0x49
 3494 003a 13       		.uleb128 0x13
 3495 003b 00       		.byte	0
 3496 003c 00       		.byte	0
 3497 003d 06       		.uleb128 0x6
 3498 003e 0F       		.uleb128 0xf
 3499 003f 00       		.byte	0
ARM GAS  C:\Windows\TEMP\ccsjdpha.s 			page 90


 3500 0040 0B       		.uleb128 0xb
 3501 0041 0B       		.uleb128 0xb
 3502 0042 00       		.byte	0
 3503 0043 00       		.byte	0
 3504 0044 07       		.uleb128 0x7
 3505 0045 0F       		.uleb128 0xf
 3506 0046 00       		.byte	0
 3507 0047 0B       		.uleb128 0xb
 3508 0048 0B       		.uleb128 0xb
 3509 0049 49       		.uleb128 0x49
 3510 004a 13       		.uleb128 0x13
 3511 004b 00       		.byte	0
 3512 004c 00       		.byte	0
 3513 004d 08       		.uleb128 0x8
 3514 004e 15       		.uleb128 0x15
 3515 004f 01       		.byte	0x1
 3516 0050 27       		.uleb128 0x27
 3517 0051 19       		.uleb128 0x19
 3518 0052 01       		.uleb128 0x1
 3519 0053 13       		.uleb128 0x13
 3520 0054 00       		.byte	0
 3521 0055 00       		.byte	0
 3522 0056 09       		.uleb128 0x9
 3523 0057 05       		.uleb128 0x5
 3524 0058 00       		.byte	0
 3525 0059 49       		.uleb128 0x49
 3526 005a 13       		.uleb128 0x13
 3527 005b 00       		.byte	0
 3528 005c 00       		.byte	0
 3529 005d 0A       		.uleb128 0xa
 3530 005e 04       		.uleb128 0x4
 3531 005f 01       		.byte	0x1
 3532 0060 0B       		.uleb128 0xb
 3533 0061 0B       		.uleb128 0xb
 3534 0062 49       		.uleb128 0x49
 3535 0063 13       		.uleb128 0x13
 3536 0064 3A       		.uleb128 0x3a
 3537 0065 0B       		.uleb128 0xb
 3538 0066 3B       		.uleb128 0x3b
 3539 0067 05       		.uleb128 0x5
 3540 0068 01       		.uleb128 0x1
 3541 0069 13       		.uleb128 0x13
 3542 006a 00       		.byte	0
 3543 006b 00       		.byte	0
 3544 006c 0B       		.uleb128 0xb
 3545 006d 28       		.uleb128 0x28
 3546 006e 00       		.byte	0
 3547 006f 03       		.uleb128 0x3
 3548 0070 0E       		.uleb128 0xe
 3549 0071 1C       		.uleb128 0x1c
 3550 0072 0B       		.uleb128 0xb
 3551 0073 00       		.byte	0
 3552 0074 00       		.byte	0
 3553 0075 0C       		.uleb128 0xc
 3554 0076 28       		.uleb128 0x28
 3555 0077 00       		.byte	0
 3556 0078 03       		.uleb128 0x3
ARM GAS  C:\Windows\TEMP\ccsjdpha.s 			page 91


 3557 0079 0E       		.uleb128 0xe
 3558 007a 1C       		.uleb128 0x1c
 3559 007b 05       		.uleb128 0x5
 3560 007c 00       		.byte	0
 3561 007d 00       		.byte	0
 3562 007e 0D       		.uleb128 0xd
 3563 007f 13       		.uleb128 0x13
 3564 0080 01       		.byte	0x1
 3565 0081 0B       		.uleb128 0xb
 3566 0082 0B       		.uleb128 0xb
 3567 0083 3A       		.uleb128 0x3a
 3568 0084 0B       		.uleb128 0xb
 3569 0085 3B       		.uleb128 0x3b
 3570 0086 05       		.uleb128 0x5
 3571 0087 01       		.uleb128 0x1
 3572 0088 13       		.uleb128 0x13
 3573 0089 00       		.byte	0
 3574 008a 00       		.byte	0
 3575 008b 0E       		.uleb128 0xe
 3576 008c 0D       		.uleb128 0xd
 3577 008d 00       		.byte	0
 3578 008e 03       		.uleb128 0x3
 3579 008f 0E       		.uleb128 0xe
 3580 0090 3A       		.uleb128 0x3a
 3581 0091 0B       		.uleb128 0xb
 3582 0092 3B       		.uleb128 0x3b
 3583 0093 05       		.uleb128 0x5
 3584 0094 49       		.uleb128 0x49
 3585 0095 13       		.uleb128 0x13
 3586 0096 38       		.uleb128 0x38
 3587 0097 0B       		.uleb128 0xb
 3588 0098 00       		.byte	0
 3589 0099 00       		.byte	0
 3590 009a 0F       		.uleb128 0xf
 3591 009b 01       		.uleb128 0x1
 3592 009c 01       		.byte	0x1
 3593 009d 49       		.uleb128 0x49
 3594 009e 13       		.uleb128 0x13
 3595 009f 01       		.uleb128 0x1
 3596 00a0 13       		.uleb128 0x13
 3597 00a1 00       		.byte	0
 3598 00a2 00       		.byte	0
 3599 00a3 10       		.uleb128 0x10
 3600 00a4 21       		.uleb128 0x21
 3601 00a5 00       		.byte	0
 3602 00a6 49       		.uleb128 0x49
 3603 00a7 13       		.uleb128 0x13
 3604 00a8 2F       		.uleb128 0x2f
 3605 00a9 0B       		.uleb128 0xb
 3606 00aa 00       		.byte	0
 3607 00ab 00       		.byte	0
 3608 00ac 11       		.uleb128 0x11
 3609 00ad 04       		.uleb128 0x4
 3610 00ae 01       		.byte	0x1
 3611 00af 0B       		.uleb128 0xb
 3612 00b0 0B       		.uleb128 0xb
 3613 00b1 49       		.uleb128 0x49
ARM GAS  C:\Windows\TEMP\ccsjdpha.s 			page 92


 3614 00b2 13       		.uleb128 0x13
 3615 00b3 3A       		.uleb128 0x3a
 3616 00b4 0B       		.uleb128 0xb
 3617 00b5 3B       		.uleb128 0x3b
 3618 00b6 0B       		.uleb128 0xb
 3619 00b7 01       		.uleb128 0x1
 3620 00b8 13       		.uleb128 0x13
 3621 00b9 00       		.byte	0
 3622 00ba 00       		.byte	0
 3623 00bb 12       		.uleb128 0x12
 3624 00bc 16       		.uleb128 0x16
 3625 00bd 00       		.byte	0
 3626 00be 03       		.uleb128 0x3
 3627 00bf 0E       		.uleb128 0xe
 3628 00c0 3A       		.uleb128 0x3a
 3629 00c1 0B       		.uleb128 0xb
 3630 00c2 3B       		.uleb128 0x3b
 3631 00c3 0B       		.uleb128 0xb
 3632 00c4 49       		.uleb128 0x49
 3633 00c5 13       		.uleb128 0x13
 3634 00c6 00       		.byte	0
 3635 00c7 00       		.byte	0
 3636 00c8 13       		.uleb128 0x13
 3637 00c9 13       		.uleb128 0x13
 3638 00ca 01       		.byte	0x1
 3639 00cb 0B       		.uleb128 0xb
 3640 00cc 0B       		.uleb128 0xb
 3641 00cd 3A       		.uleb128 0x3a
 3642 00ce 0B       		.uleb128 0xb
 3643 00cf 3B       		.uleb128 0x3b
 3644 00d0 0B       		.uleb128 0xb
 3645 00d1 01       		.uleb128 0x1
 3646 00d2 13       		.uleb128 0x13
 3647 00d3 00       		.byte	0
 3648 00d4 00       		.byte	0
 3649 00d5 14       		.uleb128 0x14
 3650 00d6 0D       		.uleb128 0xd
 3651 00d7 00       		.byte	0
 3652 00d8 03       		.uleb128 0x3
 3653 00d9 0E       		.uleb128 0xe
 3654 00da 3A       		.uleb128 0x3a
 3655 00db 0B       		.uleb128 0xb
 3656 00dc 3B       		.uleb128 0x3b
 3657 00dd 0B       		.uleb128 0xb
 3658 00de 49       		.uleb128 0x49
 3659 00df 13       		.uleb128 0x13
 3660 00e0 38       		.uleb128 0x38
 3661 00e1 0B       		.uleb128 0xb
 3662 00e2 00       		.byte	0
 3663 00e3 00       		.byte	0
 3664 00e4 15       		.uleb128 0x15
 3665 00e5 17       		.uleb128 0x17
 3666 00e6 01       		.byte	0x1
 3667 00e7 0B       		.uleb128 0xb
 3668 00e8 0B       		.uleb128 0xb
 3669 00e9 3A       		.uleb128 0x3a
 3670 00ea 0B       		.uleb128 0xb
ARM GAS  C:\Windows\TEMP\ccsjdpha.s 			page 93


 3671 00eb 3B       		.uleb128 0x3b
 3672 00ec 0B       		.uleb128 0xb
 3673 00ed 01       		.uleb128 0x1
 3674 00ee 13       		.uleb128 0x13
 3675 00ef 00       		.byte	0
 3676 00f0 00       		.byte	0
 3677 00f1 16       		.uleb128 0x16
 3678 00f2 0D       		.uleb128 0xd
 3679 00f3 00       		.byte	0
 3680 00f4 03       		.uleb128 0x3
 3681 00f5 0E       		.uleb128 0xe
 3682 00f6 3A       		.uleb128 0x3a
 3683 00f7 0B       		.uleb128 0xb
 3684 00f8 3B       		.uleb128 0x3b
 3685 00f9 0B       		.uleb128 0xb
 3686 00fa 49       		.uleb128 0x49
 3687 00fb 13       		.uleb128 0x13
 3688 00fc 00       		.byte	0
 3689 00fd 00       		.byte	0
 3690 00fe 17       		.uleb128 0x17
 3691 00ff 13       		.uleb128 0x13
 3692 0100 01       		.byte	0x1
 3693 0101 0B       		.uleb128 0xb
 3694 0102 05       		.uleb128 0x5
 3695 0103 3A       		.uleb128 0x3a
 3696 0104 0B       		.uleb128 0xb
 3697 0105 3B       		.uleb128 0x3b
 3698 0106 0B       		.uleb128 0xb
 3699 0107 01       		.uleb128 0x1
 3700 0108 13       		.uleb128 0x13
 3701 0109 00       		.byte	0
 3702 010a 00       		.byte	0
 3703 010b 18       		.uleb128 0x18
 3704 010c 0D       		.uleb128 0xd
 3705 010d 00       		.byte	0
 3706 010e 03       		.uleb128 0x3
 3707 010f 0E       		.uleb128 0xe
 3708 0110 3A       		.uleb128 0x3a
 3709 0111 0B       		.uleb128 0xb
 3710 0112 3B       		.uleb128 0x3b
 3711 0113 0B       		.uleb128 0xb
 3712 0114 49       		.uleb128 0x49
 3713 0115 13       		.uleb128 0x13
 3714 0116 38       		.uleb128 0x38
 3715 0117 05       		.uleb128 0x5
 3716 0118 00       		.byte	0
 3717 0119 00       		.byte	0
 3718 011a 19       		.uleb128 0x19
 3719 011b 21       		.uleb128 0x21
 3720 011c 00       		.byte	0
 3721 011d 49       		.uleb128 0x49
 3722 011e 13       		.uleb128 0x13
 3723 011f 2F       		.uleb128 0x2f
 3724 0120 05       		.uleb128 0x5
 3725 0121 00       		.byte	0
 3726 0122 00       		.byte	0
 3727 0123 1A       		.uleb128 0x1a
ARM GAS  C:\Windows\TEMP\ccsjdpha.s 			page 94


 3728 0124 2E       		.uleb128 0x2e
 3729 0125 01       		.byte	0x1
 3730 0126 03       		.uleb128 0x3
 3731 0127 0E       		.uleb128 0xe
 3732 0128 3A       		.uleb128 0x3a
 3733 0129 0B       		.uleb128 0xb
 3734 012a 3B       		.uleb128 0x3b
 3735 012b 05       		.uleb128 0x5
 3736 012c 27       		.uleb128 0x27
 3737 012d 19       		.uleb128 0x19
 3738 012e 11       		.uleb128 0x11
 3739 012f 01       		.uleb128 0x1
 3740 0130 12       		.uleb128 0x12
 3741 0131 06       		.uleb128 0x6
 3742 0132 40       		.uleb128 0x40
 3743 0133 18       		.uleb128 0x18
 3744 0134 9742     		.uleb128 0x2117
 3745 0136 19       		.uleb128 0x19
 3746 0137 01       		.uleb128 0x1
 3747 0138 13       		.uleb128 0x13
 3748 0139 00       		.byte	0
 3749 013a 00       		.byte	0
 3750 013b 1B       		.uleb128 0x1b
 3751 013c 05       		.uleb128 0x5
 3752 013d 00       		.byte	0
 3753 013e 03       		.uleb128 0x3
 3754 013f 0E       		.uleb128 0xe
 3755 0140 3A       		.uleb128 0x3a
 3756 0141 0B       		.uleb128 0xb
 3757 0142 3B       		.uleb128 0x3b
 3758 0143 05       		.uleb128 0x5
 3759 0144 49       		.uleb128 0x49
 3760 0145 13       		.uleb128 0x13
 3761 0146 02       		.uleb128 0x2
 3762 0147 17       		.uleb128 0x17
 3763 0148 00       		.byte	0
 3764 0149 00       		.byte	0
 3765 014a 1C       		.uleb128 0x1c
 3766 014b 34       		.uleb128 0x34
 3767 014c 00       		.byte	0
 3768 014d 03       		.uleb128 0x3
 3769 014e 08       		.uleb128 0x8
 3770 014f 3A       		.uleb128 0x3a
 3771 0150 0B       		.uleb128 0xb
 3772 0151 3B       		.uleb128 0x3b
 3773 0152 05       		.uleb128 0x5
 3774 0153 49       		.uleb128 0x49
 3775 0154 13       		.uleb128 0x13
 3776 0155 02       		.uleb128 0x2
 3777 0156 17       		.uleb128 0x17
 3778 0157 00       		.byte	0
 3779 0158 00       		.byte	0
 3780 0159 1D       		.uleb128 0x1d
 3781 015a 34       		.uleb128 0x34
 3782 015b 00       		.byte	0
 3783 015c 03       		.uleb128 0x3
 3784 015d 0E       		.uleb128 0xe
ARM GAS  C:\Windows\TEMP\ccsjdpha.s 			page 95


 3785 015e 3A       		.uleb128 0x3a
 3786 015f 0B       		.uleb128 0xb
 3787 0160 3B       		.uleb128 0x3b
 3788 0161 05       		.uleb128 0x5
 3789 0162 49       		.uleb128 0x49
 3790 0163 13       		.uleb128 0x13
 3791 0164 02       		.uleb128 0x2
 3792 0165 17       		.uleb128 0x17
 3793 0166 00       		.byte	0
 3794 0167 00       		.byte	0
 3795 0168 1E       		.uleb128 0x1e
 3796 0169 26       		.uleb128 0x26
 3797 016a 00       		.byte	0
 3798 016b 49       		.uleb128 0x49
 3799 016c 13       		.uleb128 0x13
 3800 016d 00       		.byte	0
 3801 016e 00       		.byte	0
 3802 016f 1F       		.uleb128 0x1f
 3803 0170 2E       		.uleb128 0x2e
 3804 0171 01       		.byte	0x1
 3805 0172 3F       		.uleb128 0x3f
 3806 0173 19       		.uleb128 0x19
 3807 0174 03       		.uleb128 0x3
 3808 0175 0E       		.uleb128 0xe
 3809 0176 3A       		.uleb128 0x3a
 3810 0177 0B       		.uleb128 0xb
 3811 0178 3B       		.uleb128 0x3b
 3812 0179 0B       		.uleb128 0xb
 3813 017a 27       		.uleb128 0x27
 3814 017b 19       		.uleb128 0x19
 3815 017c 11       		.uleb128 0x11
 3816 017d 01       		.uleb128 0x1
 3817 017e 12       		.uleb128 0x12
 3818 017f 06       		.uleb128 0x6
 3819 0180 40       		.uleb128 0x40
 3820 0181 18       		.uleb128 0x18
 3821 0182 9742     		.uleb128 0x2117
 3822 0184 19       		.uleb128 0x19
 3823 0185 01       		.uleb128 0x1
 3824 0186 13       		.uleb128 0x13
 3825 0187 00       		.byte	0
 3826 0188 00       		.byte	0
 3827 0189 20       		.uleb128 0x20
 3828 018a 898201   		.uleb128 0x4109
 3829 018d 00       		.byte	0
 3830 018e 11       		.uleb128 0x11
 3831 018f 01       		.uleb128 0x1
 3832 0190 31       		.uleb128 0x31
 3833 0191 13       		.uleb128 0x13
 3834 0192 00       		.byte	0
 3835 0193 00       		.byte	0
 3836 0194 21       		.uleb128 0x21
 3837 0195 2E       		.uleb128 0x2e
 3838 0196 01       		.byte	0x1
 3839 0197 3F       		.uleb128 0x3f
 3840 0198 19       		.uleb128 0x19
 3841 0199 03       		.uleb128 0x3
ARM GAS  C:\Windows\TEMP\ccsjdpha.s 			page 96


 3842 019a 0E       		.uleb128 0xe
 3843 019b 3A       		.uleb128 0x3a
 3844 019c 0B       		.uleb128 0xb
 3845 019d 3B       		.uleb128 0x3b
 3846 019e 05       		.uleb128 0x5
 3847 019f 27       		.uleb128 0x27
 3848 01a0 19       		.uleb128 0x19
 3849 01a1 49       		.uleb128 0x49
 3850 01a2 13       		.uleb128 0x13
 3851 01a3 11       		.uleb128 0x11
 3852 01a4 01       		.uleb128 0x1
 3853 01a5 12       		.uleb128 0x12
 3854 01a6 06       		.uleb128 0x6
 3855 01a7 40       		.uleb128 0x40
 3856 01a8 18       		.uleb128 0x18
 3857 01a9 9742     		.uleb128 0x2117
 3858 01ab 19       		.uleb128 0x19
 3859 01ac 01       		.uleb128 0x1
 3860 01ad 13       		.uleb128 0x13
 3861 01ae 00       		.byte	0
 3862 01af 00       		.byte	0
 3863 01b0 22       		.uleb128 0x22
 3864 01b1 34       		.uleb128 0x34
 3865 01b2 00       		.byte	0
 3866 01b3 03       		.uleb128 0x3
 3867 01b4 0E       		.uleb128 0xe
 3868 01b5 3A       		.uleb128 0x3a
 3869 01b6 0B       		.uleb128 0xb
 3870 01b7 3B       		.uleb128 0x3b
 3871 01b8 05       		.uleb128 0x5
 3872 01b9 49       		.uleb128 0x49
 3873 01ba 13       		.uleb128 0x13
 3874 01bb 02       		.uleb128 0x2
 3875 01bc 18       		.uleb128 0x18
 3876 01bd 00       		.byte	0
 3877 01be 00       		.byte	0
 3878 01bf 23       		.uleb128 0x23
 3879 01c0 0B       		.uleb128 0xb
 3880 01c1 01       		.byte	0x1
 3881 01c2 11       		.uleb128 0x11
 3882 01c3 01       		.uleb128 0x1
 3883 01c4 12       		.uleb128 0x12
 3884 01c5 06       		.uleb128 0x6
 3885 01c6 01       		.uleb128 0x1
 3886 01c7 13       		.uleb128 0x13
 3887 01c8 00       		.byte	0
 3888 01c9 00       		.byte	0
 3889 01ca 24       		.uleb128 0x24
 3890 01cb 898201   		.uleb128 0x4109
 3891 01ce 01       		.byte	0x1
 3892 01cf 11       		.uleb128 0x11
 3893 01d0 01       		.uleb128 0x1
 3894 01d1 31       		.uleb128 0x31
 3895 01d2 13       		.uleb128 0x13
 3896 01d3 00       		.byte	0
 3897 01d4 00       		.byte	0
 3898 01d5 25       		.uleb128 0x25
ARM GAS  C:\Windows\TEMP\ccsjdpha.s 			page 97


 3899 01d6 8A8201   		.uleb128 0x410a
 3900 01d9 00       		.byte	0
 3901 01da 02       		.uleb128 0x2
 3902 01db 18       		.uleb128 0x18
 3903 01dc 9142     		.uleb128 0x2111
 3904 01de 18       		.uleb128 0x18
 3905 01df 00       		.byte	0
 3906 01e0 00       		.byte	0
 3907 01e1 26       		.uleb128 0x26
 3908 01e2 898201   		.uleb128 0x4109
 3909 01e5 01       		.byte	0x1
 3910 01e6 11       		.uleb128 0x11
 3911 01e7 01       		.uleb128 0x1
 3912 01e8 31       		.uleb128 0x31
 3913 01e9 13       		.uleb128 0x13
 3914 01ea 01       		.uleb128 0x1
 3915 01eb 13       		.uleb128 0x13
 3916 01ec 00       		.byte	0
 3917 01ed 00       		.byte	0
 3918 01ee 27       		.uleb128 0x27
 3919 01ef 2E       		.uleb128 0x2e
 3920 01f0 01       		.byte	0x1
 3921 01f1 3F       		.uleb128 0x3f
 3922 01f2 19       		.uleb128 0x19
 3923 01f3 03       		.uleb128 0x3
 3924 01f4 0E       		.uleb128 0xe
 3925 01f5 3A       		.uleb128 0x3a
 3926 01f6 0B       		.uleb128 0xb
 3927 01f7 3B       		.uleb128 0x3b
 3928 01f8 05       		.uleb128 0x5
 3929 01f9 27       		.uleb128 0x27
 3930 01fa 19       		.uleb128 0x19
 3931 01fb 11       		.uleb128 0x11
 3932 01fc 01       		.uleb128 0x1
 3933 01fd 12       		.uleb128 0x12
 3934 01fe 06       		.uleb128 0x6
 3935 01ff 40       		.uleb128 0x40
 3936 0200 18       		.uleb128 0x18
 3937 0201 9742     		.uleb128 0x2117
 3938 0203 19       		.uleb128 0x19
 3939 0204 01       		.uleb128 0x1
 3940 0205 13       		.uleb128 0x13
 3941 0206 00       		.byte	0
 3942 0207 00       		.byte	0
 3943 0208 28       		.uleb128 0x28
 3944 0209 0B       		.uleb128 0xb
 3945 020a 01       		.byte	0x1
 3946 020b 11       		.uleb128 0x11
 3947 020c 01       		.uleb128 0x1
 3948 020d 12       		.uleb128 0x12
 3949 020e 06       		.uleb128 0x6
 3950 020f 00       		.byte	0
 3951 0210 00       		.byte	0
 3952 0211 29       		.uleb128 0x29
 3953 0212 05       		.uleb128 0x5
 3954 0213 00       		.byte	0
 3955 0214 03       		.uleb128 0x3
ARM GAS  C:\Windows\TEMP\ccsjdpha.s 			page 98


 3956 0215 0E       		.uleb128 0xe
 3957 0216 3A       		.uleb128 0x3a
 3958 0217 0B       		.uleb128 0xb
 3959 0218 3B       		.uleb128 0x3b
 3960 0219 05       		.uleb128 0x5
 3961 021a 49       		.uleb128 0x49
 3962 021b 13       		.uleb128 0x13
 3963 021c 02       		.uleb128 0x2
 3964 021d 18       		.uleb128 0x18
 3965 021e 00       		.byte	0
 3966 021f 00       		.byte	0
 3967 0220 2A       		.uleb128 0x2a
 3968 0221 34       		.uleb128 0x34
 3969 0222 00       		.byte	0
 3970 0223 03       		.uleb128 0x3
 3971 0224 08       		.uleb128 0x8
 3972 0225 3A       		.uleb128 0x3a
 3973 0226 0B       		.uleb128 0xb
 3974 0227 3B       		.uleb128 0x3b
 3975 0228 05       		.uleb128 0x5
 3976 0229 49       		.uleb128 0x49
 3977 022a 13       		.uleb128 0x13
 3978 022b 00       		.byte	0
 3979 022c 00       		.byte	0
 3980 022d 2B       		.uleb128 0x2b
 3981 022e 34       		.uleb128 0x34
 3982 022f 00       		.byte	0
 3983 0230 03       		.uleb128 0x3
 3984 0231 0E       		.uleb128 0xe
 3985 0232 3A       		.uleb128 0x3a
 3986 0233 0B       		.uleb128 0xb
 3987 0234 3B       		.uleb128 0x3b
 3988 0235 05       		.uleb128 0x5
 3989 0236 49       		.uleb128 0x49
 3990 0237 13       		.uleb128 0x13
 3991 0238 1C       		.uleb128 0x1c
 3992 0239 0B       		.uleb128 0xb
 3993 023a 00       		.byte	0
 3994 023b 00       		.byte	0
 3995 023c 2C       		.uleb128 0x2c
 3996 023d 05       		.uleb128 0x5
 3997 023e 00       		.byte	0
 3998 023f 03       		.uleb128 0x3
 3999 0240 08       		.uleb128 0x8
 4000 0241 3A       		.uleb128 0x3a
 4001 0242 0B       		.uleb128 0xb
 4002 0243 3B       		.uleb128 0x3b
 4003 0244 05       		.uleb128 0x5
 4004 0245 49       		.uleb128 0x49
 4005 0246 13       		.uleb128 0x13
 4006 0247 02       		.uleb128 0x2
 4007 0248 17       		.uleb128 0x17
 4008 0249 00       		.byte	0
 4009 024a 00       		.byte	0
 4010 024b 2D       		.uleb128 0x2d
 4011 024c 05       		.uleb128 0x5
 4012 024d 00       		.byte	0
ARM GAS  C:\Windows\TEMP\ccsjdpha.s 			page 99


 4013 024e 03       		.uleb128 0x3
 4014 024f 08       		.uleb128 0x8
 4015 0250 3A       		.uleb128 0x3a
 4016 0251 0B       		.uleb128 0xb
 4017 0252 3B       		.uleb128 0x3b
 4018 0253 05       		.uleb128 0x5
 4019 0254 49       		.uleb128 0x49
 4020 0255 13       		.uleb128 0x13
 4021 0256 02       		.uleb128 0x2
 4022 0257 18       		.uleb128 0x18
 4023 0258 00       		.byte	0
 4024 0259 00       		.byte	0
 4025 025a 2E       		.uleb128 0x2e
 4026 025b 34       		.uleb128 0x34
 4027 025c 00       		.byte	0
 4028 025d 03       		.uleb128 0x3
 4029 025e 0E       		.uleb128 0xe
 4030 025f 3A       		.uleb128 0x3a
 4031 0260 0B       		.uleb128 0xb
 4032 0261 3B       		.uleb128 0x3b
 4033 0262 0B       		.uleb128 0xb
 4034 0263 49       		.uleb128 0x49
 4035 0264 13       		.uleb128 0x13
 4036 0265 02       		.uleb128 0x2
 4037 0266 18       		.uleb128 0x18
 4038 0267 00       		.byte	0
 4039 0268 00       		.byte	0
 4040 0269 2F       		.uleb128 0x2f
 4041 026a 34       		.uleb128 0x34
 4042 026b 00       		.byte	0
 4043 026c 03       		.uleb128 0x3
 4044 026d 0E       		.uleb128 0xe
 4045 026e 3A       		.uleb128 0x3a
 4046 026f 0B       		.uleb128 0xb
 4047 0270 3B       		.uleb128 0x3b
 4048 0271 0B       		.uleb128 0xb
 4049 0272 49       		.uleb128 0x49
 4050 0273 13       		.uleb128 0x13
 4051 0274 3F       		.uleb128 0x3f
 4052 0275 19       		.uleb128 0x19
 4053 0276 02       		.uleb128 0x2
 4054 0277 18       		.uleb128 0x18
 4055 0278 00       		.byte	0
 4056 0279 00       		.byte	0
 4057 027a 30       		.uleb128 0x30
 4058 027b 34       		.uleb128 0x34
 4059 027c 00       		.byte	0
 4060 027d 03       		.uleb128 0x3
 4061 027e 0E       		.uleb128 0xe
 4062 027f 3A       		.uleb128 0x3a
 4063 0280 0B       		.uleb128 0xb
 4064 0281 3B       		.uleb128 0x3b
 4065 0282 05       		.uleb128 0x5
 4066 0283 49       		.uleb128 0x49
 4067 0284 13       		.uleb128 0x13
 4068 0285 3F       		.uleb128 0x3f
 4069 0286 19       		.uleb128 0x19
ARM GAS  C:\Windows\TEMP\ccsjdpha.s 			page 100


 4070 0287 3C       		.uleb128 0x3c
 4071 0288 19       		.uleb128 0x19
 4072 0289 00       		.byte	0
 4073 028a 00       		.byte	0
 4074 028b 31       		.uleb128 0x31
 4075 028c 34       		.uleb128 0x34
 4076 028d 00       		.byte	0
 4077 028e 03       		.uleb128 0x3
 4078 028f 0E       		.uleb128 0xe
 4079 0290 3A       		.uleb128 0x3a
 4080 0291 0B       		.uleb128 0xb
 4081 0292 3B       		.uleb128 0x3b
 4082 0293 0B       		.uleb128 0xb
 4083 0294 49       		.uleb128 0x49
 4084 0295 13       		.uleb128 0x13
 4085 0296 3F       		.uleb128 0x3f
 4086 0297 19       		.uleb128 0x19
 4087 0298 3C       		.uleb128 0x3c
 4088 0299 19       		.uleb128 0x19
 4089 029a 00       		.byte	0
 4090 029b 00       		.byte	0
 4091 029c 32       		.uleb128 0x32
 4092 029d 2E       		.uleb128 0x2e
 4093 029e 00       		.byte	0
 4094 029f 3F       		.uleb128 0x3f
 4095 02a0 19       		.uleb128 0x19
 4096 02a1 3C       		.uleb128 0x3c
 4097 02a2 19       		.uleb128 0x19
 4098 02a3 6E       		.uleb128 0x6e
 4099 02a4 0E       		.uleb128 0xe
 4100 02a5 03       		.uleb128 0x3
 4101 02a6 0E       		.uleb128 0xe
 4102 02a7 3A       		.uleb128 0x3a
 4103 02a8 0B       		.uleb128 0xb
 4104 02a9 3B       		.uleb128 0x3b
 4105 02aa 0B       		.uleb128 0xb
 4106 02ab 00       		.byte	0
 4107 02ac 00       		.byte	0
 4108 02ad 33       		.uleb128 0x33
 4109 02ae 2E       		.uleb128 0x2e
 4110 02af 00       		.byte	0
 4111 02b0 3F       		.uleb128 0x3f
 4112 02b1 19       		.uleb128 0x19
 4113 02b2 3C       		.uleb128 0x3c
 4114 02b3 19       		.uleb128 0x19
 4115 02b4 6E       		.uleb128 0x6e
 4116 02b5 0E       		.uleb128 0xe
 4117 02b6 03       		.uleb128 0x3
 4118 02b7 0E       		.uleb128 0xe
 4119 02b8 3A       		.uleb128 0x3a
 4120 02b9 0B       		.uleb128 0xb
 4121 02ba 3B       		.uleb128 0x3b
 4122 02bb 05       		.uleb128 0x5
 4123 02bc 00       		.byte	0
 4124 02bd 00       		.byte	0
 4125 02be 34       		.uleb128 0x34
 4126 02bf 2E       		.uleb128 0x2e
ARM GAS  C:\Windows\TEMP\ccsjdpha.s 			page 101


 4127 02c0 00       		.byte	0
 4128 02c1 3F       		.uleb128 0x3f
 4129 02c2 19       		.uleb128 0x19
 4130 02c3 3C       		.uleb128 0x3c
 4131 02c4 19       		.uleb128 0x19
 4132 02c5 6E       		.uleb128 0x6e
 4133 02c6 0E       		.uleb128 0xe
 4134 02c7 03       		.uleb128 0x3
 4135 02c8 0E       		.uleb128 0xe
 4136 02c9 00       		.byte	0
 4137 02ca 00       		.byte	0
 4138 02cb 00       		.byte	0
 4139              		.section	.debug_loc,"",%progbits
 4140              	.Ldebug_loc0:
 4141              	.LLST0:
 4142 0000 00000000 		.4byte	.LVL0
 4143 0004 62000000 		.4byte	.LVL22
 4144 0008 0100     		.2byte	0x1
 4145 000a 50       		.byte	0x50
 4146 000b 62000000 		.4byte	.LVL22
 4147 000f 78000000 		.4byte	.LFE11
 4148 0013 0400     		.2byte	0x4
 4149 0015 F3       		.byte	0xf3
 4150 0016 01       		.uleb128 0x1
 4151 0017 50       		.byte	0x50
 4152 0018 9F       		.byte	0x9f
 4153 0019 00000000 		.4byte	0
 4154 001d 00000000 		.4byte	0
 4155              	.LLST1:
 4156 0021 00000000 		.4byte	.LVL0
 4157 0025 08000000 		.4byte	.LVL3
 4158 0029 0100     		.2byte	0x1
 4159 002b 51       		.byte	0x51
 4160 002c 08000000 		.4byte	.LVL3
 4161 0030 12000000 		.4byte	.LVL5
 4162 0034 0400     		.2byte	0x4
 4163 0036 F3       		.byte	0xf3
 4164 0037 01       		.uleb128 0x1
 4165 0038 51       		.byte	0x51
 4166 0039 9F       		.byte	0x9f
 4167 003a 12000000 		.4byte	.LVL5
 4168 003e 14000000 		.4byte	.LVL6
 4169 0042 0100     		.2byte	0x1
 4170 0044 51       		.byte	0x51
 4171 0045 14000000 		.4byte	.LVL6
 4172 0049 78000000 		.4byte	.LFE11
 4173 004d 0400     		.2byte	0x4
 4174 004f F3       		.byte	0xf3
 4175 0050 01       		.uleb128 0x1
 4176 0051 51       		.byte	0x51
 4177 0052 9F       		.byte	0x9f
 4178 0053 00000000 		.4byte	0
 4179 0057 00000000 		.4byte	0
 4180              	.LLST2:
 4181 005b 4A000000 		.4byte	.LVL18
 4182 005f 4E000000 		.4byte	.LVL19
 4183 0063 0100     		.2byte	0x1
ARM GAS  C:\Windows\TEMP\ccsjdpha.s 			page 102


 4184 0065 53       		.byte	0x53
 4185 0066 4E000000 		.4byte	.LVL19
 4186 006a 52000000 		.4byte	.LVL20
 4187 006e 0100     		.2byte	0x1
 4188 0070 52       		.byte	0x52
 4189 0071 54000000 		.4byte	.LVL21
 4190 0075 6A000000 		.4byte	.LVL23
 4191 0079 0100     		.2byte	0x1
 4192 007b 52       		.byte	0x52
 4193 007c 6C000000 		.4byte	.LVL24
 4194 0080 70000000 		.4byte	.LVL25
 4195 0084 0100     		.2byte	0x1
 4196 0086 52       		.byte	0x52
 4197 0087 00000000 		.4byte	0
 4198 008b 00000000 		.4byte	0
 4199              	.LLST3:
 4200 008f 02000000 		.4byte	.LVL1
 4201 0093 1A000000 		.4byte	.LVL8
 4202 0097 0200     		.2byte	0x2
 4203 0099 30       		.byte	0x30
 4204 009a 9F       		.byte	0x9f
 4205 009b 1A000000 		.4byte	.LVL8
 4206 009f 4E000000 		.4byte	.LVL19
 4207 00a3 0100     		.2byte	0x1
 4208 00a5 55       		.byte	0x55
 4209 00a6 00000000 		.4byte	0
 4210 00aa 00000000 		.4byte	0
 4211              	.LLST4:
 4212 00ae 02000000 		.4byte	.LVL1
 4213 00b2 1A000000 		.4byte	.LVL8
 4214 00b6 0200     		.2byte	0x2
 4215 00b8 30       		.byte	0x30
 4216 00b9 9F       		.byte	0x9f
 4217 00ba 1A000000 		.4byte	.LVL8
 4218 00be 44000000 		.4byte	.LVL15
 4219 00c2 0100     		.2byte	0x1
 4220 00c4 54       		.byte	0x54
 4221 00c5 46000000 		.4byte	.LVL16
 4222 00c9 70000000 		.4byte	.LVL26
 4223 00cd 0100     		.2byte	0x1
 4224 00cf 54       		.byte	0x54
 4225 00d0 00000000 		.4byte	0
 4226 00d4 00000000 		.4byte	0
 4227              	.LLST5:
 4228 00d8 02000000 		.4byte	.LVL1
 4229 00dc 1A000000 		.4byte	.LVL8
 4230 00e0 0200     		.2byte	0x2
 4231 00e2 30       		.byte	0x30
 4232 00e3 9F       		.byte	0x9f
 4233 00e4 1A000000 		.4byte	.LVL8
 4234 00e8 22000000 		.4byte	.LVL10
 4235 00ec 0100     		.2byte	0x1
 4236 00ee 53       		.byte	0x53
 4237 00ef 24000000 		.4byte	.LVL11
 4238 00f3 30000000 		.4byte	.LVL12
 4239 00f7 0100     		.2byte	0x1
 4240 00f9 53       		.byte	0x53
ARM GAS  C:\Windows\TEMP\ccsjdpha.s 			page 103


 4241 00fa 32000000 		.4byte	.LVL13
 4242 00fe 48000000 		.4byte	.LVL17
 4243 0102 0100     		.2byte	0x1
 4244 0104 53       		.byte	0x53
 4245 0105 4A000000 		.4byte	.LVL18
 4246 0109 62000000 		.4byte	.LVL22
 4247 010d 0100     		.2byte	0x1
 4248 010f 53       		.byte	0x53
 4249 0110 00000000 		.4byte	0
 4250 0114 00000000 		.4byte	0
 4251              	.LLST6:
 4252 0118 06000000 		.4byte	.LVL2
 4253 011c 0A000000 		.4byte	.LVL4
 4254 0120 0600     		.2byte	0x6
 4255 0122 03       		.byte	0x3
 4256 0123 00000000 		.4byte	cyBle_discoveryData
 4257 0127 9F       		.byte	0x9f
 4258 0128 12000000 		.4byte	.LVL5
 4259 012c 1A000000 		.4byte	.LVL8
 4260 0130 0600     		.2byte	0x6
 4261 0132 03       		.byte	0x3
 4262 0133 00000000 		.4byte	cyBle_scanRspData
 4263 0137 9F       		.byte	0x9f
 4264 0138 1A000000 		.4byte	.LVL8
 4265 013c 78000000 		.4byte	.LFE11
 4266 0140 0100     		.2byte	0x1
 4267 0142 51       		.byte	0x51
 4268 0143 00000000 		.4byte	0
 4269 0147 00000000 		.4byte	0
 4270              	.LLST7:
 4271 014b 0A000000 		.4byte	.LVL4
 4272 014f 12000000 		.4byte	.LVL5
 4273 0153 0100     		.2byte	0x1
 4274 0155 56       		.byte	0x56
 4275 0156 18000000 		.4byte	.LVL7
 4276 015a 70000000 		.4byte	.LVL27
 4277 015e 0100     		.2byte	0x1
 4278 0160 56       		.byte	0x56
 4279 0161 00000000 		.4byte	0
 4280 0165 00000000 		.4byte	0
 4281              	.LLST8:
 4282 0169 00000000 		.4byte	.LVL30
 4283 016d 0C000000 		.4byte	.LVL32
 4284 0171 0100     		.2byte	0x1
 4285 0173 50       		.byte	0x50
 4286 0174 0C000000 		.4byte	.LVL32
 4287 0178 2C000000 		.4byte	.LVL35
 4288 017c 0100     		.2byte	0x1
 4289 017e 54       		.byte	0x54
 4290 017f 2C000000 		.4byte	.LVL35
 4291 0183 49000000 		.4byte	.LVL36-1
 4292 0187 0500     		.2byte	0x5
 4293 0189 03       		.byte	0x3
 4294 018a 00000000 		.4byte	CyBle_ApplCallback
 4295 018e 49000000 		.4byte	.LVL36-1
 4296 0192 88000000 		.4byte	.LVL42
 4297 0196 0400     		.2byte	0x4
ARM GAS  C:\Windows\TEMP\ccsjdpha.s 			page 104


 4298 0198 F3       		.byte	0xf3
 4299 0199 01       		.uleb128 0x1
 4300 019a 50       		.byte	0x50
 4301 019b 9F       		.byte	0x9f
 4302 019c 88000000 		.4byte	.LVL42
 4303 01a0 8A000000 		.4byte	.LVL43
 4304 01a4 0100     		.2byte	0x1
 4305 01a6 54       		.byte	0x54
 4306 01a7 8A000000 		.4byte	.LVL43
 4307 01ab B4000000 		.4byte	.LFE4
 4308 01af 0400     		.2byte	0x4
 4309 01b1 F3       		.byte	0xf3
 4310 01b2 01       		.uleb128 0x1
 4311 01b3 50       		.byte	0x50
 4312 01b4 9F       		.byte	0x9f
 4313 01b5 00000000 		.4byte	0
 4314 01b9 00000000 		.4byte	0
 4315              	.LLST9:
 4316 01bd 06000000 		.4byte	.LVL31
 4317 01c1 54000000 		.4byte	.LVL37
 4318 01c5 0200     		.2byte	0x2
 4319 01c7 30       		.byte	0x30
 4320 01c8 9F       		.byte	0x9f
 4321 01c9 54000000 		.4byte	.LVL37
 4322 01cd 6E000000 		.4byte	.LVL38
 4323 01d1 0100     		.2byte	0x1
 4324 01d3 50       		.byte	0x50
 4325 01d4 72000000 		.4byte	.LVL39
 4326 01d8 82000000 		.4byte	.LVL40
 4327 01dc 0100     		.2byte	0x1
 4328 01de 50       		.byte	0x50
 4329 01df 86000000 		.4byte	.LVL41
 4330 01e3 88000000 		.4byte	.LVL42
 4331 01e7 0100     		.2byte	0x1
 4332 01e9 50       		.byte	0x50
 4333 01ea 88000000 		.4byte	.LVL42
 4334 01ee 8A000000 		.4byte	.LVL43
 4335 01f2 0200     		.2byte	0x2
 4336 01f4 30       		.byte	0x30
 4337 01f5 9F       		.byte	0x9f
 4338 01f6 8A000000 		.4byte	.LVL43
 4339 01fa B4000000 		.4byte	.LFE4
 4340 01fe 0100     		.2byte	0x1
 4341 0200 50       		.byte	0x50
 4342 0201 00000000 		.4byte	0
 4343 0205 00000000 		.4byte	0
 4344              	.LLST10:
 4345 0209 00000000 		.4byte	.LVL45
 4346 020d 11000000 		.4byte	.LVL47-1
 4347 0211 0100     		.2byte	0x1
 4348 0213 50       		.byte	0x50
 4349 0214 11000000 		.4byte	.LVL47-1
 4350 0218 26000000 		.4byte	.LVL48
 4351 021c 0400     		.2byte	0x4
 4352 021e F3       		.byte	0xf3
 4353 021f 01       		.uleb128 0x1
 4354 0220 50       		.byte	0x50
ARM GAS  C:\Windows\TEMP\ccsjdpha.s 			page 105


 4355 0221 9F       		.byte	0x9f
 4356 0222 26000000 		.4byte	.LVL48
 4357 0226 28000000 		.4byte	.LVL49
 4358 022a 0100     		.2byte	0x1
 4359 022c 50       		.byte	0x50
 4360 022d 28000000 		.4byte	.LVL49
 4361 0231 04010000 		.4byte	.LFE6
 4362 0235 0400     		.2byte	0x4
 4363 0237 F3       		.byte	0xf3
 4364 0238 01       		.uleb128 0x1
 4365 0239 50       		.byte	0x50
 4366 023a 9F       		.byte	0x9f
 4367 023b 00000000 		.4byte	0
 4368 023f 00000000 		.4byte	0
 4369              	.LLST11:
 4370 0243 06000000 		.4byte	.LVL46
 4371 0247 12000000 		.4byte	.LVL47
 4372 024b 0200     		.2byte	0x2
 4373 024d 30       		.byte	0x30
 4374 024e 9F       		.byte	0x9f
 4375 024f 12000000 		.4byte	.LVL47
 4376 0253 26000000 		.4byte	.LVL48
 4377 0257 0100     		.2byte	0x1
 4378 0259 50       		.byte	0x50
 4379 025a 26000000 		.4byte	.LVL48
 4380 025e 2A000000 		.4byte	.LVL50
 4381 0262 0200     		.2byte	0x2
 4382 0264 30       		.byte	0x30
 4383 0265 9F       		.byte	0x9f
 4384 0266 2A000000 		.4byte	.LVL50
 4385 026a 5E000000 		.4byte	.LVL52
 4386 026e 0100     		.2byte	0x1
 4387 0270 50       		.byte	0x50
 4388 0271 62000000 		.4byte	.LVL53
 4389 0275 8C000000 		.4byte	.LVL55
 4390 0279 0100     		.2byte	0x1
 4391 027b 50       		.byte	0x50
 4392 027c 9C000000 		.4byte	.LVL57
 4393 0280 B2000000 		.4byte	.LVL58
 4394 0284 0100     		.2byte	0x1
 4395 0286 50       		.byte	0x50
 4396 0287 D8000000 		.4byte	.LVL60
 4397 028b 04010000 		.4byte	.LFE6
 4398 028f 0100     		.2byte	0x1
 4399 0291 50       		.byte	0x50
 4400 0292 00000000 		.4byte	0
 4401 0296 00000000 		.4byte	0
 4402              	.LLST12:
 4403 029a 00000000 		.4byte	.LVL62
 4404 029e 14000000 		.4byte	.LVL64
 4405 02a2 0100     		.2byte	0x1
 4406 02a4 50       		.byte	0x50
 4407 02a5 14000000 		.4byte	.LVL64
 4408 02a9 5C000000 		.4byte	.LVL71
 4409 02ad 0100     		.2byte	0x1
 4410 02af 55       		.byte	0x55
 4411 02b0 5C000000 		.4byte	.LVL71
ARM GAS  C:\Windows\TEMP\ccsjdpha.s 			page 106


 4412 02b4 5E000000 		.4byte	.LVL72
 4413 02b8 0100     		.2byte	0x1
 4414 02ba 50       		.byte	0x50
 4415 02bb 5E000000 		.4byte	.LVL72
 4416 02bf 60000000 		.4byte	.LVL73
 4417 02c3 0100     		.2byte	0x1
 4418 02c5 55       		.byte	0x55
 4419 02c6 60000000 		.4byte	.LVL73
 4420 02ca 6C000000 		.4byte	.LFE7
 4421 02ce 0400     		.2byte	0x4
 4422 02d0 F3       		.byte	0xf3
 4423 02d1 01       		.uleb128 0x1
 4424 02d2 50       		.byte	0x50
 4425 02d3 9F       		.byte	0x9f
 4426 02d4 00000000 		.4byte	0
 4427 02d8 00000000 		.4byte	0
 4428              	.LLST13:
 4429 02dc 06000000 		.4byte	.LVL63
 4430 02e0 3A000000 		.4byte	.LVL67
 4431 02e4 0200     		.2byte	0x2
 4432 02e6 30       		.byte	0x30
 4433 02e7 9F       		.byte	0x9f
 4434 02e8 3A000000 		.4byte	.LVL67
 4435 02ec 56000000 		.4byte	.LVL69
 4436 02f0 0100     		.2byte	0x1
 4437 02f2 50       		.byte	0x50
 4438 02f3 5A000000 		.4byte	.LVL70
 4439 02f7 5C000000 		.4byte	.LVL71
 4440 02fb 0100     		.2byte	0x1
 4441 02fd 50       		.byte	0x50
 4442 02fe 5C000000 		.4byte	.LVL71
 4443 0302 5E000000 		.4byte	.LVL72
 4444 0306 0200     		.2byte	0x2
 4445 0308 30       		.byte	0x30
 4446 0309 9F       		.byte	0x9f
 4447 030a 5E000000 		.4byte	.LVL72
 4448 030e 6C000000 		.4byte	.LFE7
 4449 0312 0100     		.2byte	0x1
 4450 0314 50       		.byte	0x50
 4451 0315 00000000 		.4byte	0
 4452 0319 00000000 		.4byte	0
 4453              	.LLST14:
 4454 031d 00000000 		.4byte	.LVL74
 4455 0321 56000000 		.4byte	.LVL75
 4456 0325 0100     		.2byte	0x1
 4457 0327 50       		.byte	0x50
 4458 0328 56000000 		.4byte	.LVL75
 4459 032c 5B000000 		.4byte	.LVL76-1
 4460 0330 0200     		.2byte	0x2
 4461 0332 73       		.byte	0x73
 4462 0333 00       		.sleb128 0
 4463 0334 5B000000 		.4byte	.LVL76-1
 4464 0338 6E000000 		.4byte	.LVL77
 4465 033c 0400     		.2byte	0x4
 4466 033e F3       		.byte	0xf3
 4467 033f 01       		.uleb128 0x1
 4468 0340 50       		.byte	0x50
ARM GAS  C:\Windows\TEMP\ccsjdpha.s 			page 107


 4469 0341 9F       		.byte	0x9f
 4470 0342 6E000000 		.4byte	.LVL77
 4471 0346 70000000 		.4byte	.LVL78
 4472 034a 0100     		.2byte	0x1
 4473 034c 50       		.byte	0x50
 4474 034d 70000000 		.4byte	.LVL78
 4475 0351 72000000 		.4byte	.LVL79
 4476 0355 0400     		.2byte	0x4
 4477 0357 F3       		.byte	0xf3
 4478 0358 01       		.uleb128 0x1
 4479 0359 50       		.byte	0x50
 4480 035a 9F       		.byte	0x9f
 4481 035b 72000000 		.4byte	.LVL79
 4482 035f 74000000 		.4byte	.LVL80
 4483 0363 0100     		.2byte	0x1
 4484 0365 50       		.byte	0x50
 4485 0366 74000000 		.4byte	.LVL80
 4486 036a 78000000 		.4byte	.LVL81
 4487 036e 0400     		.2byte	0x4
 4488 0370 F3       		.byte	0xf3
 4489 0371 01       		.uleb128 0x1
 4490 0372 50       		.byte	0x50
 4491 0373 9F       		.byte	0x9f
 4492 0374 78000000 		.4byte	.LVL81
 4493 0378 7A000000 		.4byte	.LVL82
 4494 037c 0100     		.2byte	0x1
 4495 037e 50       		.byte	0x50
 4496 037f 7A000000 		.4byte	.LVL82
 4497 0383 90000000 		.4byte	.LFE8
 4498 0387 0400     		.2byte	0x4
 4499 0389 F3       		.byte	0xf3
 4500 038a 01       		.uleb128 0x1
 4501 038b 50       		.byte	0x50
 4502 038c 9F       		.byte	0x9f
 4503 038d 00000000 		.4byte	0
 4504 0391 00000000 		.4byte	0
 4505              	.LLST15:
 4506 0395 5C000000 		.4byte	.LVL76
 4507 0399 6E000000 		.4byte	.LVL77
 4508 039d 0100     		.2byte	0x1
 4509 039f 50       		.byte	0x50
 4510 03a0 7C000000 		.4byte	.LVL83
 4511 03a4 90000000 		.4byte	.LFE8
 4512 03a8 0100     		.2byte	0x1
 4513 03aa 50       		.byte	0x50
 4514 03ab 00000000 		.4byte	0
 4515 03af 00000000 		.4byte	0
 4516              	.LLST16:
 4517 03b3 00000000 		.4byte	.LVL86
 4518 03b7 12000000 		.4byte	.LVL88
 4519 03bb 0100     		.2byte	0x1
 4520 03bd 50       		.byte	0x50
 4521 03be 12000000 		.4byte	.LVL88
 4522 03c2 54000000 		.4byte	.LVL99
 4523 03c6 0100     		.2byte	0x1
 4524 03c8 54       		.byte	0x54
 4525 03c9 54000000 		.4byte	.LVL99
ARM GAS  C:\Windows\TEMP\ccsjdpha.s 			page 108


 4526 03cd 56000000 		.4byte	.LVL100
 4527 03d1 0100     		.2byte	0x1
 4528 03d3 50       		.byte	0x50
 4529 03d4 56000000 		.4byte	.LVL100
 4530 03d8 56000000 		.4byte	.LVL101
 4531 03dc 0100     		.2byte	0x1
 4532 03de 54       		.byte	0x54
 4533 03df 56000000 		.4byte	.LVL101
 4534 03e3 60000000 		.4byte	.LFE12
 4535 03e7 0400     		.2byte	0x4
 4536 03e9 F3       		.byte	0xf3
 4537 03ea 01       		.uleb128 0x1
 4538 03eb 50       		.byte	0x50
 4539 03ec 9F       		.byte	0x9f
 4540 03ed 00000000 		.4byte	0
 4541 03f1 00000000 		.4byte	0
 4542              	.LLST17:
 4543 03f5 04000000 		.4byte	.LVL87
 4544 03f9 56000000 		.4byte	.LVL100
 4545 03fd 0200     		.2byte	0x2
 4546 03ff 30       		.byte	0x30
 4547 0400 9F       		.byte	0x9f
 4548 0401 56000000 		.4byte	.LVL100
 4549 0405 60000000 		.4byte	.LFE12
 4550 0409 0100     		.2byte	0x1
 4551 040b 50       		.byte	0x50
 4552 040c 00000000 		.4byte	0
 4553 0410 00000000 		.4byte	0
 4554              	.LLST18:
 4555 0414 22000000 		.4byte	.LVL90
 4556 0418 26000000 		.4byte	.LVL91
 4557 041c 0200     		.2byte	0x2
 4558 041e 30       		.byte	0x30
 4559 041f 9F       		.byte	0x9f
 4560 0420 26000000 		.4byte	.LVL91
 4561 0424 2A000000 		.4byte	.LVL92
 4562 0428 0100     		.2byte	0x1
 4563 042a 53       		.byte	0x53
 4564 042b 2C000000 		.4byte	.LVL93
 4565 042f 3C000000 		.4byte	.LVL94
 4566 0433 0100     		.2byte	0x1
 4567 0435 53       		.byte	0x53
 4568 0436 00000000 		.4byte	0
 4569 043a 00000000 		.4byte	0
 4570              	.LLST19:
 4571 043e 1A000000 		.4byte	.LVL89
 4572 0442 44000000 		.4byte	.LVL96
 4573 0446 0100     		.2byte	0x1
 4574 0448 50       		.byte	0x50
 4575 0449 00000000 		.4byte	0
 4576 044d 00000000 		.4byte	0
 4577              	.LLST20:
 4578 0451 22000000 		.4byte	.LVL90
 4579 0455 42000000 		.4byte	.LVL95
 4580 0459 0100     		.2byte	0x1
 4581 045b 51       		.byte	0x51
 4582 045c 00000000 		.4byte	0
ARM GAS  C:\Windows\TEMP\ccsjdpha.s 			page 109


 4583 0460 00000000 		.4byte	0
 4584              	.LLST21:
 4585 0464 00000000 		.4byte	.LVL102
 4586 0468 38000000 		.4byte	.LVL110
 4587 046c 0100     		.2byte	0x1
 4588 046e 50       		.byte	0x50
 4589 046f 38000000 		.4byte	.LVL110
 4590 0473 3A000000 		.4byte	.LVL111
 4591 0477 0400     		.2byte	0x4
 4592 0479 F3       		.byte	0xf3
 4593 047a 01       		.uleb128 0x1
 4594 047b 50       		.byte	0x50
 4595 047c 9F       		.byte	0x9f
 4596 047d 3A000000 		.4byte	.LVL111
 4597 0481 3C000000 		.4byte	.LVL112
 4598 0485 0100     		.2byte	0x1
 4599 0487 50       		.byte	0x50
 4600 0488 3C000000 		.4byte	.LVL112
 4601 048c 48000000 		.4byte	.LFE13
 4602 0490 0400     		.2byte	0x4
 4603 0492 F3       		.byte	0xf3
 4604 0493 01       		.uleb128 0x1
 4605 0494 50       		.byte	0x50
 4606 0495 9F       		.byte	0x9f
 4607 0496 00000000 		.4byte	0
 4608 049a 00000000 		.4byte	0
 4609              	.LLST22:
 4610 049e 02000000 		.4byte	.LVL103
 4611 04a2 3C000000 		.4byte	.LVL112
 4612 04a6 0200     		.2byte	0x2
 4613 04a8 30       		.byte	0x30
 4614 04a9 9F       		.byte	0x9f
 4615 04aa 3C000000 		.4byte	.LVL112
 4616 04ae 48000000 		.4byte	.LFE13
 4617 04b2 0100     		.2byte	0x1
 4618 04b4 50       		.byte	0x50
 4619 04b5 00000000 		.4byte	0
 4620 04b9 00000000 		.4byte	0
 4621              	.LLST23:
 4622 04bd 1C000000 		.4byte	.LVL105
 4623 04c1 3A000000 		.4byte	.LVL111
 4624 04c5 0100     		.2byte	0x1
 4625 04c7 51       		.byte	0x51
 4626 04c8 00000000 		.4byte	0
 4627 04cc 00000000 		.4byte	0
 4628              	.LLST24:
 4629 04d0 1C000000 		.4byte	.LVL105
 4630 04d4 20000000 		.4byte	.LVL106
 4631 04d8 0200     		.2byte	0x2
 4632 04da 30       		.byte	0x30
 4633 04db 9F       		.byte	0x9f
 4634 04dc 20000000 		.4byte	.LVL106
 4635 04e0 24000000 		.4byte	.LVL107
 4636 04e4 0100     		.2byte	0x1
 4637 04e6 53       		.byte	0x53
 4638 04e7 26000000 		.4byte	.LVL108
 4639 04eb 32000000 		.4byte	.LVL109
ARM GAS  C:\Windows\TEMP\ccsjdpha.s 			page 110


 4640 04ef 0100     		.2byte	0x1
 4641 04f1 53       		.byte	0x53
 4642 04f2 00000000 		.4byte	0
 4643 04f6 00000000 		.4byte	0
 4644              	.LLST25:
 4645 04fa 1A000000 		.4byte	.LVL104
 4646 04fe 3A000000 		.4byte	.LVL111
 4647 0502 0100     		.2byte	0x1
 4648 0504 54       		.byte	0x54
 4649 0505 00000000 		.4byte	0
 4650 0509 00000000 		.4byte	0
 4651              	.LLST26:
 4652 050d 00000000 		.4byte	.LVL113
 4653 0511 04000000 		.4byte	.LVL114
 4654 0515 0100     		.2byte	0x1
 4655 0517 50       		.byte	0x50
 4656 0518 04000000 		.4byte	.LVL114
 4657 051c 0A000000 		.4byte	.LFE14
 4658 0520 0400     		.2byte	0x4
 4659 0522 F3       		.byte	0xf3
 4660 0523 01       		.uleb128 0x1
 4661 0524 50       		.byte	0x50
 4662 0525 9F       		.byte	0x9f
 4663 0526 00000000 		.4byte	0
 4664 052a 00000000 		.4byte	0
 4665              	.LLST27:
 4666 052e 00000000 		.4byte	.LVL115
 4667 0532 04000000 		.4byte	.LVL116
 4668 0536 0100     		.2byte	0x1
 4669 0538 51       		.byte	0x51
 4670 0539 04000000 		.4byte	.LVL116
 4671 053d 08000000 		.4byte	.LFE15
 4672 0541 0400     		.2byte	0x4
 4673 0543 F3       		.byte	0xf3
 4674 0544 01       		.uleb128 0x1
 4675 0545 51       		.byte	0x51
 4676 0546 9F       		.byte	0x9f
 4677 0547 00000000 		.4byte	0
 4678 054b 00000000 		.4byte	0
 4679              		.section	.debug_aranges,"",%progbits
 4680 0000 84000000 		.4byte	0x84
 4681 0004 0200     		.2byte	0x2
 4682 0006 00000000 		.4byte	.Ldebug_info0
 4683 000a 04       		.byte	0x4
 4684 000b 00       		.byte	0
 4685 000c 0000     		.2byte	0
 4686 000e 0000     		.2byte	0
 4687 0010 00000000 		.4byte	.LFB11
 4688 0014 78000000 		.4byte	.LFE11-.LFB11
 4689 0018 00000000 		.4byte	.LFB3
 4690 001c 08000000 		.4byte	.LFE3-.LFB3
 4691 0020 00000000 		.4byte	.LFB2
 4692 0024 34000000 		.4byte	.LFE2-.LFB2
 4693 0028 00000000 		.4byte	.LFB4
 4694 002c B4000000 		.4byte	.LFE4-.LFB4
 4695 0030 00000000 		.4byte	.LFB5
 4696 0034 14000000 		.4byte	.LFE5-.LFB5
ARM GAS  C:\Windows\TEMP\ccsjdpha.s 			page 111


 4697 0038 00000000 		.4byte	.LFB6
 4698 003c 04010000 		.4byte	.LFE6-.LFB6
 4699 0040 00000000 		.4byte	.LFB7
 4700 0044 6C000000 		.4byte	.LFE7-.LFB7
 4701 0048 00000000 		.4byte	.LFB8
 4702 004c 90000000 		.4byte	.LFE8-.LFB8
 4703 0050 00000000 		.4byte	.LFB9
 4704 0054 18000000 		.4byte	.LFE9-.LFB9
 4705 0058 00000000 		.4byte	.LFB10
 4706 005c 02000000 		.4byte	.LFE10-.LFB10
 4707 0060 00000000 		.4byte	.LFB12
 4708 0064 60000000 		.4byte	.LFE12-.LFB12
 4709 0068 00000000 		.4byte	.LFB13
 4710 006c 48000000 		.4byte	.LFE13-.LFB13
 4711 0070 00000000 		.4byte	.LFB14
 4712 0074 0A000000 		.4byte	.LFE14-.LFB14
 4713 0078 00000000 		.4byte	.LFB15
 4714 007c 08000000 		.4byte	.LFE15-.LFB15
 4715 0080 00000000 		.4byte	0
 4716 0084 00000000 		.4byte	0
 4717              		.section	.debug_ranges,"",%progbits
 4718              	.Ldebug_ranges0:
 4719 0000 00000000 		.4byte	.LFB11
 4720 0004 78000000 		.4byte	.LFE11
 4721 0008 00000000 		.4byte	.LFB3
 4722 000c 08000000 		.4byte	.LFE3
 4723 0010 00000000 		.4byte	.LFB2
 4724 0014 34000000 		.4byte	.LFE2
 4725 0018 00000000 		.4byte	.LFB4
 4726 001c B4000000 		.4byte	.LFE4
 4727 0020 00000000 		.4byte	.LFB5
 4728 0024 14000000 		.4byte	.LFE5
 4729 0028 00000000 		.4byte	.LFB6
 4730 002c 04010000 		.4byte	.LFE6
 4731 0030 00000000 		.4byte	.LFB7
 4732 0034 6C000000 		.4byte	.LFE7
 4733 0038 00000000 		.4byte	.LFB8
 4734 003c 90000000 		.4byte	.LFE8
 4735 0040 00000000 		.4byte	.LFB9
 4736 0044 18000000 		.4byte	.LFE9
 4737 0048 00000000 		.4byte	.LFB10
 4738 004c 02000000 		.4byte	.LFE10
 4739 0050 00000000 		.4byte	.LFB12
 4740 0054 60000000 		.4byte	.LFE12
 4741 0058 00000000 		.4byte	.LFB13
 4742 005c 48000000 		.4byte	.LFE13
 4743 0060 00000000 		.4byte	.LFB14
 4744 0064 0A000000 		.4byte	.LFE14
 4745 0068 00000000 		.4byte	.LFB15
 4746 006c 08000000 		.4byte	.LFE15
 4747 0070 00000000 		.4byte	0
 4748 0074 00000000 		.4byte	0
 4749              		.section	.debug_line,"",%progbits
 4750              	.Ldebug_line0:
 4751 0000 93030000 		.section	.debug_str,"MS",%progbits,1
 4751      02008B01 
 4751      00000201 
ARM GAS  C:\Windows\TEMP\ccsjdpha.s 			page 112


 4751      FB0E0D00 
 4751      01010101 
 4752              	.LASF263:
 4753 0000 6379426C 		.ascii	"cyBle_peerBonding\000"
 4753      655F7065 
 4753      6572426F 
 4753      6E64696E 
 4753      6700
 4754              	.LASF159:
 4755 0012 7363616E 		.ascii	"scanRspData\000"
 4755      52737044 
 4755      61746100 
 4756              	.LASF17:
 4757 001e 73697A65 		.ascii	"sizetype\000"
 4757      74797065 
 4757      00
 4758              	.LASF38:
 4759 0027 4359424C 		.ascii	"CYBLE_EVT_GAP_NUMERIC_COMPARISON_REQUEST\000"
 4759      455F4556 
 4759      545F4741 
 4759      505F4E55 
 4759      4D455249 
 4760              	.LASF227:
 4761 0050 61706952 		.ascii	"apiResult\000"
 4761      6573756C 
 4761      7400
 4762              	.LASF32:
 4763 005a 4359424C 		.ascii	"CYBLE_EVT_GAP_DEVICE_CONNECTED\000"
 4763      455F4556 
 4763      545F4741 
 4763      505F4445 
 4763      56494345 
 4764              	.LASF50:
 4765 0079 4359424C 		.ascii	"CYBLE_EVT_GATT_CONNECT_IND\000"
 4765      455F4556 
 4765      545F4741 
 4765      54545F43 
 4765      4F4E4E45 
 4766              	.LASF192:
 4767 0094 4359424C 		.ascii	"CYBLE_AIOS_ANALOG\000"
 4767      455F4149 
 4767      4F535F41 
 4767      4E414C4F 
 4767      4700
 4768              	.LASF290:
 4769 00a6 4379426C 		.ascii	"CyBle_ChangeAdLocalName\000"
 4769      655F4368 
 4769      616E6765 
 4769      41644C6F 
 4769      63616C4E 
 4770              	.LASF11:
 4771 00be 75696E74 		.ascii	"uint32\000"
 4771      333200
 4772              	.LASF222:
 4773 00c5 64657374 		.ascii	"destBuffer\000"
 4773      42756666 
 4773      657200
ARM GAS  C:\Windows\TEMP\ccsjdpha.s 			page 113


 4774              	.LASF162:
 4775 00d0 64697363 		.ascii	"discMode\000"
 4775      4D6F6465 
 4775      00
 4776              	.LASF106:
 4777 00d9 4359424C 		.ascii	"CYBLE_ERROR_L2CAP_CONNECTION_ENTITY_NOT_FOUND\000"
 4777      455F4552 
 4777      524F525F 
 4777      4C324341 
 4777      505F434F 
 4778              	.LASF112:
 4779 0107 4359424C 		.ascii	"CYBLE_ERROR_MIC_AUTH_FAILED\000"
 4779      455F4552 
 4779      524F525F 
 4779      4D49435F 
 4779      41555448 
 4780              	.LASF283:
 4781 0123 4379426C 		.ascii	"CyBle_GapGetPeerBdHandle\000"
 4781      655F4761 
 4781      70476574 
 4781      50656572 
 4781      42644861 
 4782              	.LASF14:
 4783 013c 63686172 		.ascii	"char8\000"
 4783      3800
 4784              	.LASF82:
 4785 0142 4359424C 		.ascii	"CYBLE_EVT_L2CAP_CBFC_RX_CREDIT_IND\000"
 4785      455F4556 
 4785      545F4C32 
 4785      4341505F 
 4785      43424643 
 4786              	.LASF287:
 4787 0165 474E5520 		.ascii	"GNU C11 5.4.1 20160609 (release) [ARM/embedded-5-br"
 4787      43313120 
 4787      352E342E 
 4787      31203230 
 4787      31363036 
 4788 0198 616E6368 		.ascii	"anch revision 237715] -mcpu=cortex-m0 -mthumb -g -O"
 4788      20726576 
 4788      6973696F 
 4788      6E203233 
 4788      37373135 
 4789 01cb 67202D66 		.ascii	"g -ffunction-sections -ffat-lto-objects\000"
 4789      66756E63 
 4789      74696F6E 
 4789      2D736563 
 4789      74696F6E 
 4790              	.LASF239:
 4791 01f3 62446576 		.ascii	"bDevHandle\000"
 4791      48616E64 
 4791      6C6500
 4792              	.LASF181:
 4793 01fe 7065726D 		.ascii	"permission\000"
 4793      69737369 
 4793      6F6E00
 4794              	.LASF126:
 4795 0209 74797065 		.ascii	"type\000"
ARM GAS  C:\Windows\TEMP\ccsjdpha.s 			page 114


 4795      00
 4796              	.LASF185:
 4797 020e 4359424C 		.ascii	"CYBLE_CALLBACK_T\000"
 4797      455F4341 
 4797      4C4C4241 
 4797      434B5F54 
 4797      00
 4798              	.LASF67:
 4799 021f 4359424C 		.ascii	"CYBLE_EVT_GATTC_HANDLE_VALUE_NTF\000"
 4799      455F4556 
 4799      545F4741 
 4799      5454435F 
 4799      48414E44 
 4800              	.LASF26:
 4801 0240 4359424C 		.ascii	"CYBLE_EVT_GAP_AUTH_REQ\000"
 4801      455F4556 
 4801      545F4741 
 4801      505F4155 
 4801      54485F52 
 4802              	.LASF169:
 4803 0257 4359424C 		.ascii	"CYBLE_CONN_HANDLE_T\000"
 4803      455F434F 
 4803      4E4E5F48 
 4803      414E444C 
 4803      455F5400 
 4804              	.LASF226:
 4805 026b 63616C6C 		.ascii	"callbackFunc\000"
 4805      6261636B 
 4805      46756E63 
 4805      00
 4806              	.LASF101:
 4807 0278 4359424C 		.ascii	"CYBLE_ERROR_BT_ON_NOT_COMPLETED\000"
 4807      455F4552 
 4807      524F525F 
 4807      42545F4F 
 4807      4E5F4E4F 
 4808              	.LASF47:
 4809 0298 4359424C 		.ascii	"CYBLE_EVT_GAP_AUTH_REQ_REPLY_ERR\000"
 4809      455F4556 
 4809      545F4741 
 4809      505F4155 
 4809      54485F52 
 4810              	.LASF193:
 4811 02b9 4359424C 		.ascii	"CYBLE_AIOS_AGGREGATE\000"
 4811      455F4149 
 4811      4F535F41 
 4811      47475245 
 4811      47415445 
 4812              	.LASF207:
 4813 02ce 4359424C 		.ascii	"CYBLE_STATE_ADVERTISING\000"
 4813      455F5354 
 4813      4154455F 
 4813      41445645 
 4813      52544953 
 4814              	.LASF40:
 4815 02e6 4359424C 		.ascii	"CYBLE_EVT_GAP_OOB_GENERATED_NOTIFICATION\000"
 4815      455F4556 
ARM GAS  C:\Windows\TEMP\ccsjdpha.s 			page 115


 4815      545F4741 
 4815      505F4F4F 
 4815      425F4745 
 4816              	.LASF167:
 4817 030f 62644861 		.ascii	"bdHandle\000"
 4817      6E646C65 
 4817      00
 4818              	.LASF134:
 4819 0318 4359424C 		.ascii	"CYBLE_DLE_CONFIG_PARAM_T\000"
 4819      455F444C 
 4819      455F434F 
 4819      4E464947 
 4819      5F504152 
 4820              	.LASF63:
 4821 0331 4359424C 		.ascii	"CYBLE_EVT_GATTS_WRITE_CMD_REQ\000"
 4821      455F4556 
 4821      545F4741 
 4821      5454535F 
 4821      57524954 
 4822              	.LASF83:
 4823 034f 4359424C 		.ascii	"CYBLE_EVT_L2CAP_CBFC_TX_CREDIT_IND\000"
 4823      455F4556 
 4823      545F4C32 
 4823      4341505F 
 4823      43424643 
 4824              	.LASF4:
 4825 0372 6C6F6E67 		.ascii	"long int\000"
 4825      20696E74 
 4825      00
 4826              	.LASF224:
 4827 037b 4379426C 		.ascii	"CyBle_ServiceInit\000"
 4827      655F5365 
 4827      72766963 
 4827      65496E69 
 4827      7400
 4828              	.LASF242:
 4829 038d 61647665 		.ascii	"advertisingIntervalType\000"
 4829      72746973 
 4829      696E6749 
 4829      6E746572 
 4829      76616C54 
 4830              	.LASF130:
 4831 03a5 4359424C 		.ascii	"CYBLE_STK_APP_DATA_BUFF_T\000"
 4831      455F5354 
 4831      4B5F4150 
 4831      505F4441 
 4831      54415F42 
 4832              	.LASF137:
 4833 03bf 646C6543 		.ascii	"dleConfig\000"
 4833      6F6E6669 
 4833      6700
 4834              	.LASF281:
 4835 03c9 4379426C 		.ascii	"CyBle_StoreStackData\000"
 4835      655F5374 
 4835      6F726553 
 4835      7461636B 
 4835      44617461 
ARM GAS  C:\Windows\TEMP\ccsjdpha.s 			page 116


 4836              	.LASF231:
 4837 03de 73746163 		.ascii	"stackConfig\000"
 4837      6B436F6E 
 4837      66696700 
 4838              	.LASF19:
 4839 03ea 4359424C 		.ascii	"CYBLE_EVT_STACK_ON\000"
 4839      455F4556 
 4839      545F5354 
 4839      41434B5F 
 4839      4F4E00
 4840              	.LASF108:
 4841 03fd 4359424C 		.ascii	"CYBLE_ERROR_L2CAP_PSM_NOT_IN_RANGE\000"
 4841      455F4552 
 4841      524F525F 
 4841      4C324341 
 4841      505F5053 
 4842              	.LASF258:
 4843 0420 6379426C 		.ascii	"cyBle_discoveryParam\000"
 4843      655F6469 
 4843      73636F76 
 4843      65727950 
 4843      6172616D 
 4844              	.LASF280:
 4845 0435 4379426C 		.ascii	"CyBle_StoreAppData\000"
 4845      655F5374 
 4845      6F726541 
 4845      70704461 
 4845      746100
 4846              	.LASF256:
 4847 0448 6379426C 		.ascii	"cyBle_deviceAddress\000"
 4847      655F6465 
 4847      76696365 
 4847      41646472 
 4847      65737300 
 4848              	.LASF121:
 4849 045c 4359424C 		.ascii	"CYBLE_ERROR_CHAR_IS_NOT_DISCOVERED\000"
 4849      455F4552 
 4849      524F525F 
 4849      43484152 
 4849      5F49535F 
 4850              	.LASF180:
 4851 047f 61747454 		.ascii	"attType\000"
 4851      79706500 
 4852              	.LASF288:
 4853 0487 47656E65 		.ascii	"Generated_Source\\PSoC4\\Bluetooth.c\000"
 4853      72617465 
 4853      645F536F 
 4853      75726365 
 4853      5C50536F 
 4854              	.LASF144:
 4855 04aa 4359424C 		.ascii	"CYBLE_GAPP_NON_CONNECTABLE_UNDIRECTED_ADV\000"
 4855      455F4741 
 4855      50505F4E 
 4855      4F4E5F43 
 4855      4F4E4E45 
 4856              	.LASF76:
 4857 04d4 4359424C 		.ascii	"CYBLE_EVT_L2CAP_COMMAND_REJ\000"
ARM GAS  C:\Windows\TEMP\ccsjdpha.s 			page 117


 4857      455F4556 
 4857      545F4C32 
 4857      4341505F 
 4857      434F4D4D 
 4858              	.LASF215:
 4859 04f0 7270614F 		.ascii	"rpaOnlyCharHandle\000"
 4859      6E6C7943 
 4859      68617248 
 4859      616E646C 
 4859      6500
 4860              	.LASF109:
 4861 0502 4359424C 		.ascii	"CYBLE_ERROR_GATT_DB_INVALID_ATTR_HANDLE\000"
 4861      455F4552 
 4861      524F525F 
 4861      47415454 
 4861      5F44425F 
 4862              	.LASF0:
 4863 052a 7369676E 		.ascii	"signed char\000"
 4863      65642063 
 4863      68617200 
 4864              	.LASF238:
 4865 0536 4379426C 		.ascii	"CyBle_GapRemoveBondedDevice\000"
 4865      655F4761 
 4865      7052656D 
 4865      6F766542 
 4865      6F6E6465 
 4866              	.LASF129:
 4867 0552 62756666 		.ascii	"bufferUnits\000"
 4867      6572556E 
 4867      69747300 
 4868              	.LASF21:
 4869 055e 4359424C 		.ascii	"CYBLE_EVT_HARDWARE_ERROR\000"
 4869      455F4556 
 4869      545F4841 
 4869      52445741 
 4869      52455F45 
 4870              	.LASF90:
 4871 0577 4359424C 		.ascii	"CYBLE_ERROR_OK\000"
 4871      455F4552 
 4871      524F525F 
 4871      4F4B00
 4872              	.LASF54:
 4873 0586 4359424C 		.ascii	"CYBLE_EVT_GATTC_READ_BY_GROUP_TYPE_RSP\000"
 4873      455F4556 
 4873      545F4741 
 4873      5454435F 
 4873      52454144 
 4874              	.LASF204:
 4875 05ad 4359424C 		.ascii	"CYBLE_STATE_STOPPED\000"
 4875      455F5354 
 4875      4154455F 
 4875      53544F50 
 4875      50454400 
 4876              	.LASF1:
 4877 05c1 756E7369 		.ascii	"unsigned char\000"
 4877      676E6564 
 4877      20636861 
ARM GAS  C:\Windows\TEMP\ccsjdpha.s 			page 118


 4877      7200
 4878              	.LASF53:
 4879 05cf 4359424C 		.ascii	"CYBLE_EVT_GATTC_XCHNG_MTU_RSP\000"
 4879      455F4556 
 4879      545F4741 
 4879      5454435F 
 4879      5843484E 
 4880              	.LASF44:
 4881 05ed 4359424C 		.ascii	"CYBLE_EVT_GAP_SMP_NEGOTIATED_AUTH_INFO\000"
 4881      455F4556 
 4881      545F4741 
 4881      505F534D 
 4881      505F4E45 
 4882              	.LASF45:
 4883 0614 4359424C 		.ascii	"CYBLE_EVT_GAP_CONN_ESTB\000"
 4883      455F4556 
 4883      545F4741 
 4883      505F434F 
 4883      4E4E5F45 
 4884              	.LASF147:
 4885 062c 61647649 		.ascii	"advIntvMin\000"
 4885      6E74764D 
 4885      696E00
 4886              	.LASF179:
 4887 0637 61747448 		.ascii	"attHandle\000"
 4887      616E646C 
 4887      6500
 4888              	.LASF241:
 4889 0641 4379426C 		.ascii	"CyBle_GappStartAdvertisement\000"
 4889      655F4761 
 4889      70705374 
 4889      61727441 
 4889      64766572 
 4890              	.LASF158:
 4891 065e 4359424C 		.ascii	"CYBLE_GAPP_DISC_DATA_T\000"
 4891      455F4741 
 4891      50505F44 
 4891      4953435F 
 4891      44415441 
 4892              	.LASF80:
 4893 0675 4359424C 		.ascii	"CYBLE_EVT_L2CAP_CBFC_DISCONN_CNF\000"
 4893      455F4556 
 4893      545F4C32 
 4893      4341505F 
 4893      43424643 
 4894              	.LASF57:
 4895 0696 4359424C 		.ascii	"CYBLE_EVT_GATTC_FIND_BY_TYPE_VALUE_RSP\000"
 4895      455F4556 
 4895      545F4741 
 4895      5454435F 
 4895      46494E44 
 4896              	.LASF41:
 4897 06bd 4359424C 		.ascii	"CYBLE_EVT_GAP_DATA_LENGTH_CHANGE\000"
 4897      455F4556 
 4897      545F4741 
 4897      505F4441 
 4897      54415F4C 
ARM GAS  C:\Windows\TEMP\ccsjdpha.s 			page 119


 4898              	.LASF15:
 4899 06de 63686172 		.ascii	"char\000"
 4899      00
 4900              	.LASF275:
 4901 06e3 4379426C 		.ascii	"CyBle_StackInit\000"
 4901      655F5374 
 4901      61636B49 
 4901      6E697400 
 4902              	.LASF173:
 4903 06f3 6D617841 		.ascii	"maxAttrLength\000"
 4903      7474724C 
 4903      656E6774 
 4903      6800
 4904              	.LASF198:
 4905 0701 4359424C 		.ascii	"CYBLE_AIOS_CHAR_EXTENDED_PROPERTIES\000"
 4905      455F4149 
 4905      4F535F43 
 4905      4841525F 
 4905      45585445 
 4906              	.LASF60:
 4907 0725 4359424C 		.ascii	"CYBLE_EVT_GATTC_READ_MULTI_RSP\000"
 4907      455F4556 
 4907      545F4741 
 4907      5454435F 
 4907      52454144 
 4908              	.LASF18:
 4909 0744 4359424C 		.ascii	"CYBLE_EVT_HOST_INVALID\000"
 4909      455F4556 
 4909      545F484F 
 4909      53545F49 
 4909      4E56414C 
 4910              	.LASF286:
 4911 075b 4379426C 		.ascii	"CyBle_GappExitDiscoveryMode\000"
 4911      655F4761 
 4911      70704578 
 4911      69744469 
 4911      73636F76 
 4912              	.LASF247:
 4913 0777 4379426C 		.ascii	"CyBle_GapGetLocalName\000"
 4913      655F4761 
 4913      70476574 
 4913      4C6F6361 
 4913      6C4E616D 
 4914              	.LASF43:
 4915 078d 4359424C 		.ascii	"CYBLE_EVT_GAPC_DIRECT_ADV_REPORT\000"
 4915      455F4556 
 4915      545F4741 
 4915      50435F44 
 4915      49524543 
 4916              	.LASF97:
 4917 07ae 4359424C 		.ascii	"CYBLE_ERROR_NO_DEVICE_ENTITY\000"
 4917      455F4552 
 4917      524F525F 
 4917      4E4F5F44 
 4917      45564943 
 4918              	.LASF59:
 4919 07cb 4359424C 		.ascii	"CYBLE_EVT_GATTC_READ_BLOB_RSP\000"
ARM GAS  C:\Windows\TEMP\ccsjdpha.s 			page 120


 4919      455F4556 
 4919      545F4741 
 4919      5454435F 
 4919      52454144 
 4920              	.LASF66:
 4921 07e9 4359424C 		.ascii	"CYBLE_EVT_GATTC_EXEC_WRITE_RSP\000"
 4921      455F4556 
 4921      545F4741 
 4921      5454435F 
 4921      45584543 
 4922              	.LASF225:
 4923 0808 4379426C 		.ascii	"CyBle_Init\000"
 4923      655F496E 
 4923      697400
 4924              	.LASF71:
 4925 0813 4359424C 		.ascii	"CYBLE_EVT_GATTC_STOP_CMD_COMPLETE\000"
 4925      455F4556 
 4925      545F4741 
 4925      5454435F 
 4925      53544F50 
 4926              	.LASF164:
 4927 0835 61647654 		.ascii	"advTo\000"
 4927      6F00
 4928              	.LASF184:
 4929 083b 4359424C 		.ascii	"CYBLE_GATTS_DB_T\000"
 4929      455F4741 
 4929      5454535F 
 4929      44425F54 
 4929      00
 4930              	.LASF251:
 4931 084c 6379426C 		.ascii	"cyBle_pendingFlashClearCccdHandle\000"
 4931      655F7065 
 4931      6E64696E 
 4931      67466C61 
 4931      7368436C 
 4932              	.LASF243:
 4933 086e 4379426C 		.ascii	"CyBle_GappStopAdvertisement\000"
 4933      655F4761 
 4933      70705374 
 4933      6F704164 
 4933      76657274 
 4934              	.LASF277:
 4935 088a 4379426C 		.ascii	"CyBle_Shutdown\000"
 4935      655F5368 
 4935      7574646F 
 4935      776E00
 4936              	.LASF117:
 4937 0899 4359424C 		.ascii	"CYBLE_ERROR_CONTROLLER_BUSY\000"
 4937      455F4552 
 4937      524F525F 
 4937      434F4E54 
 4937      524F4C4C 
 4938              	.LASF91:
 4939 08b5 4359424C 		.ascii	"CYBLE_ERROR_INVALID_PARAMETER\000"
 4939      455F4552 
 4939      524F525F 
 4939      494E5641 
ARM GAS  C:\Windows\TEMP\ccsjdpha.s 			page 121


 4939      4C49445F 
 4940              	.LASF228:
 4941 08d3 6379426C 		.ascii	"cyBle_stackDataBuff\000"
 4941      655F7374 
 4941      61636B44 
 4941      61746142 
 4941      75666600 
 4942              	.LASF189:
 4943 08e7 626F756E 		.ascii	"boundedDevCount\000"
 4943      64656444 
 4943      6576436F 
 4943      756E7400 
 4944              	.LASF232:
 4945 08f7 66656174 		.ascii	"featureHeapReq\000"
 4945      75726548 
 4945      65617052 
 4945      657100
 4946              	.LASF145:
 4947 0906 4359424C 		.ascii	"CYBLE_GAPP_CONNECTABLE_LOW_DC_DIRECTED_ADV\000"
 4947      455F4741 
 4947      50505F43 
 4947      4F4E4E45 
 4947      43544142 
 4948              	.LASF93:
 4949 0931 4359424C 		.ascii	"CYBLE_ERROR_MEMORY_ALLOCATION_FAILED\000"
 4949      455F4552 
 4949      524F525F 
 4949      4D454D4F 
 4949      52595F41 
 4950              	.LASF257:
 4951 0956 6379426C 		.ascii	"cyBle_sflashDeviceAddress\000"
 4951      655F7366 
 4951      6C617368 
 4951      44657669 
 4951      63654164 
 4952              	.LASF187:
 4953 0970 61747456 		.ascii	"attValuesCCCDFlashMemory\000"
 4953      616C7565 
 4953      73434343 
 4953      44466C61 
 4953      73684D65 
 4954              	.LASF273:
 4955 0989 4379426C 		.ascii	"CyBle_EnablePrivacyFeature\000"
 4955      655F456E 
 4955      61626C65 
 4955      50726976 
 4955      61637946 
 4956              	.LASF202:
 4957 09a4 4359424C 		.ascii	"CYBLE_AIOS_NUM_OF_DIGITAL_DESCR\000"
 4957      455F4149 
 4957      4F535F4E 
 4957      554D5F4F 
 4957      465F4449 
 4958              	.LASF118:
 4959 09c4 4359424C 		.ascii	"CYBLE_ERROR_MAX\000"
 4959      455F4552 
 4959      524F525F 
ARM GAS  C:\Windows\TEMP\ccsjdpha.s 			page 122


 4959      4D415800 
 4960              	.LASF75:
 4961 09d4 4359424C 		.ascii	"CYBLE_EVT_L2CAP_CONN_PARAM_UPDATE_RSP\000"
 4961      455F4556 
 4961      545F4C32 
 4961      4341505F 
 4961      434F4E4E 
 4962              	.LASF87:
 4963 09fa 4359424C 		.ascii	"CYBLE_EVT_HCI_PKT\000"
 4963      455F4556 
 4963      545F4843 
 4963      495F504B 
 4963      5400
 4964              	.LASF186:
 4965 0a0c 73746163 		.ascii	"stackFlashptr\000"
 4965      6B466C61 
 4965      73687074 
 4965      7200
 4966              	.LASF289:
 4967 0a1a 433A5C55 		.ascii	"C:\\Users\\Oleg\\Documents\\Programming\\POK\\Cyber"
 4967      73657273 
 4967      5C4F6C65 
 4967      675C446F 
 4967      63756D65 
 4968 0a47 506F6E67 		.ascii	"Pong\\CyberPong.cydsn\000"
 4968      5C437962 
 4968      6572506F 
 4968      6E672E63 
 4968      7964736E 
 4969              	.LASF155:
 4970 0a5c 4359424C 		.ascii	"CYBLE_GAPP_DISC_PARAM_T\000"
 4970      455F4741 
 4970      50505F44 
 4970      4953435F 
 4970      50415241 
 4971              	.LASF223:
 4972 0a74 6D61784C 		.ascii	"maxLength\000"
 4972      656E6774 
 4972      6800
 4973              	.LASF29:
 4974 0a7e 4359424C 		.ascii	"CYBLE_EVT_GAP_AUTH_COMPLETE\000"
 4974      455F4556 
 4974      545F4741 
 4974      505F4155 
 4974      54485F43 
 4975              	.LASF154:
 4976 0a9a 61647646 		.ascii	"advFilterPolicy\000"
 4976      696C7465 
 4976      72506F6C 
 4976      69637900 
 4977              	.LASF30:
 4978 0aaa 4359424C 		.ascii	"CYBLE_EVT_GAP_AUTH_FAILED\000"
 4978      455F4556 
 4978      545F4741 
 4978      505F4155 
 4978      54485F46 
 4979              	.LASF123:
ARM GAS  C:\Windows\TEMP\ccsjdpha.s 			page 123


 4980 0ac4 4359424C 		.ascii	"CYBLE_ERROR_STACK_BUSY\000"
 4980      455F4552 
 4980      524F525F 
 4980      53544143 
 4980      4B5F4255 
 4981              	.LASF274:
 4982 0adb 4379426C 		.ascii	"CyBle_StackSetFeatureConfig\000"
 4982      655F5374 
 4982      61636B53 
 4982      65744665 
 4982      61747572 
 4983              	.LASF149:
 4984 0af7 61647654 		.ascii	"advType\000"
 4984      79706500 
 4985              	.LASF94:
 4986 0aff 4359424C 		.ascii	"CYBLE_ERROR_INSUFFICIENT_RESOURCES\000"
 4986      455F4552 
 4986      524F525F 
 4986      494E5355 
 4986      46464943 
 4987              	.LASF196:
 4988 0b22 4359424C 		.ascii	"CYBLE_AIOS_CHAR_PRESENTATION_FORMAT\000"
 4988      455F4149 
 4988      4F535F43 
 4988      4841525F 
 4988      50524553 
 4989              	.LASF5:
 4990 0b46 6C6F6E67 		.ascii	"long unsigned int\000"
 4990      20756E73 
 4990      69676E65 
 4990      6420696E 
 4990      7400
 4991              	.LASF114:
 4992 0b58 4359424C 		.ascii	"CYBLE_ERROR_UNSUPPORTED_FEATURE_OR_PARAMETER_VALUE\000"
 4992      455F4552 
 4992      524F525F 
 4992      554E5355 
 4992      50504F52 
 4993              	.LASF190:
 4994 0b8b 43595F42 		.ascii	"CY_BLE_FLASH_STORAGE\000"
 4994      4C455F46 
 4994      4C415348 
 4994      5F53544F 
 4994      52414745 
 4995              	.LASF200:
 4996 0ba0 4359424C 		.ascii	"CYBLE_AIOS_TIME_TRIGGER_SETTINGS\000"
 4996      455F4149 
 4996      4F535F54 
 4996      494D455F 
 4996      54524947 
 4997              	.LASF135:
 4998 0bc1 7265736F 		.ascii	"resolvingListSize\000"
 4998      6C76696E 
 4998      674C6973 
 4998      7453697A 
 4998      6500
 4999              	.LASF104:
ARM GAS  C:\Windows\TEMP\ccsjdpha.s 			page 124


 5000 0bd3 4359424C 		.ascii	"CYBLE_ERROR_L2CAP_PSM_ALREADY_REGISTERED\000"
 5000      455F4552 
 5000      524F525F 
 5000      4C324341 
 5000      505F5053 
 5001              	.LASF177:
 5002 0bfc 61747456 		.ascii	"attValueUuid\000"
 5002      616C7565 
 5002      55756964 
 5002      00
 5003              	.LASF285:
 5004 0c09 4379426C 		.ascii	"CyBle_GappEnterDiscoveryMode\000"
 5004      655F4761 
 5004      7070456E 
 5004      74657244 
 5004      6973636F 
 5005              	.LASF35:
 5006 0c26 4359424C 		.ascii	"CYBLE_EVT_GAP_CONNECTION_UPDATE_COMPLETE\000"
 5006      455F4556 
 5006      545F4741 
 5006      505F434F 
 5006      4E4E4543 
 5007              	.LASF269:
 5008 0c4f 6379426C 		.ascii	"cyBle_busyStatus\000"
 5008      655F6275 
 5008      73795374 
 5008      61747573 
 5008      00
 5009              	.LASF244:
 5010 0c60 4379426C 		.ascii	"CyBle_ChangeAdDeviceAddress\000"
 5010      655F4368 
 5010      616E6765 
 5010      41644465 
 5010      76696365 
 5011              	.LASF205:
 5012 0c7c 4359424C 		.ascii	"CYBLE_STATE_INITIALIZING\000"
 5012      455F5354 
 5012      4154455F 
 5012      494E4954 
 5012      49414C49 
 5013              	.LASF79:
 5014 0c95 4359424C 		.ascii	"CYBLE_EVT_L2CAP_CBFC_DISCONN_IND\000"
 5014      455F4556 
 5014      545F4C32 
 5014      4341505F 
 5014      43424643 
 5015              	.LASF233:
 5016 0cb6 4379426C 		.ascii	"CyBle_Stop\000"
 5016      655F5374 
 5016      6F7000
 5017              	.LASF27:
 5018 0cc1 4359424C 		.ascii	"CYBLE_EVT_GAP_PASSKEY_ENTRY_REQUEST\000"
 5018      455F4556 
 5018      545F4741 
 5018      505F5041 
 5018      53534B45 
 5019              	.LASF140:
ARM GAS  C:\Windows\TEMP\ccsjdpha.s 			page 125


 5020 0ce5 4359424C 		.ascii	"CYBLE_STACK_CONFIG_PARAM_T\000"
 5020      455F5354 
 5020      41434B5F 
 5020      434F4E46 
 5020      49475F50 
 5021              	.LASF131:
 5022 0d00 646C654D 		.ascii	"dleMaxTxCapability\000"
 5022      61785478 
 5022      43617061 
 5022      62696C69 
 5022      747900
 5023              	.LASF266:
 5024 0d13 6379426C 		.ascii	"cyBle_flashStorage\000"
 5024      655F666C 
 5024      61736853 
 5024      746F7261 
 5024      676500
 5025              	.LASF6:
 5026 0d26 6C6F6E67 		.ascii	"long long int\000"
 5026      206C6F6E 
 5026      6720696E 
 5026      7400
 5027              	.LASF163:
 5028 0d34 61647650 		.ascii	"advParam\000"
 5028      6172616D 
 5028      00
 5029              	.LASF105:
 5030 0d3d 4359424C 		.ascii	"CYBLE_ERROR_L2CAP_PSM_NOT_REGISTERED\000"
 5030      455F4552 
 5030      524F525F 
 5030      4C324341 
 5030      505F5053 
 5031              	.LASF95:
 5032 0d62 4359424C 		.ascii	"CYBLE_ERROR_OOB_NOT_AVAILABLE\000"
 5032      455F4552 
 5032      524F525F 
 5032      4F4F425F 
 5032      4E4F545F 
 5033              	.LASF13:
 5034 0d80 646F7562 		.ascii	"double\000"
 5034      6C6500
 5035              	.LASF110:
 5036 0d87 4359424C 		.ascii	"CYBLE_ERROR_DEVICE_ALREADY_EXISTS\000"
 5036      455F4552 
 5036      524F525F 
 5036      44455649 
 5036      43455F41 
 5037              	.LASF85:
 5038 0da9 4359424C 		.ascii	"CYBLE_EVT_PENDING_FLASH_WRITE\000"
 5038      455F4556 
 5038      545F5045 
 5038      4E44494E 
 5038      475F464C 
 5039              	.LASF271:
 5040 0dc7 6379426C 		.ascii	"cyBle_advertisingIntervalType\000"
 5040      655F6164 
 5040      76657274 
ARM GAS  C:\Windows\TEMP\ccsjdpha.s 			page 126


 5040      6973696E 
 5040      67496E74 
 5041              	.LASF211:
 5042 0de5 64657669 		.ascii	"deviceNameCharHandle\000"
 5042      63654E61 
 5042      6D654368 
 5042      61724861 
 5042      6E646C65 
 5043              	.LASF151:
 5044 0dfa 64697265 		.ascii	"directAddrType\000"
 5044      63744164 
 5044      64725479 
 5044      706500
 5045              	.LASF42:
 5046 0e09 4359424C 		.ascii	"CYBLE_EVT_GAP_ENHANCE_CONN_COMPLETE\000"
 5046      455F4556 
 5046      545F4741 
 5046      505F454E 
 5046      48414E43 
 5047              	.LASF107:
 5048 0e2d 4359424C 		.ascii	"CYBLE_ERROR_L2CAP_CHANNEL_NOT_FOUND\000"
 5048      455F4552 
 5048      524F525F 
 5048      4C324341 
 5048      505F4348 
 5049              	.LASF136:
 5050 0e51 4359424C 		.ascii	"CYBLE_PRIVACY_1_2_CONFIG_PARAM_T\000"
 5050      455F5052 
 5050      49564143 
 5050      595F315F 
 5050      325F434F 
 5051              	.LASF264:
 5052 0e72 6379426C 		.ascii	"cyBle_gattDB\000"
 5052      655F6761 
 5052      74744442 
 5052      00
 5053              	.LASF98:
 5054 0e7f 4359424C 		.ascii	"CYBLE_ERROR_REPEATED_ATTEMPTS\000"
 5054      455F4552 
 5054      524F525F 
 5054      52455045 
 5054      41544544 
 5055              	.LASF12:
 5056 0e9d 666C6F61 		.ascii	"float\000"
 5056      7400
 5057              	.LASF111:
 5058 0ea3 4359424C 		.ascii	"CYBLE_ERROR_FLASH_WRITE_NOT_PERMITED\000"
 5058      455F4552 
 5058      524F525F 
 5058      464C4153 
 5058      485F5752 
 5059              	.LASF72:
 5060 0ec8 4359424C 		.ascii	"CYBLE_EVT_GATTS_READ_CHAR_VAL_ACCESS_REQ\000"
 5060      455F4556 
 5060      545F4741 
 5060      5454535F 
 5060      52454144 
ARM GAS  C:\Windows\TEMP\ccsjdpha.s 			page 127


 5061              	.LASF237:
 5062 0ef1 64656661 		.ascii	"defaultValuesCCCD\000"
 5062      756C7456 
 5062      616C7565 
 5062      73434343 
 5062      4400
 5063              	.LASF133:
 5064 0f03 646C654E 		.ascii	"dleNumTxBuffer\000"
 5064      756D5478 
 5064      42756666 
 5064      657200
 5065              	.LASF8:
 5066 0f12 756E7369 		.ascii	"unsigned int\000"
 5066      676E6564 
 5066      20696E74 
 5066      00
 5067              	.LASF139:
 5068 0f1f 66656174 		.ascii	"feature_mask\000"
 5068      7572655F 
 5068      6D61736B 
 5068      00
 5069              	.LASF64:
 5070 0f2c 4359424C 		.ascii	"CYBLE_EVT_GATTS_PREP_WRITE_REQ\000"
 5070      455F4556 
 5070      545F4741 
 5070      5454535F 
 5070      50524550 
 5071              	.LASF182:
 5072 0f4b 61747445 		.ascii	"attEndHandle\000"
 5072      6E644861 
 5072      6E646C65 
 5072      00
 5073              	.LASF191:
 5074 0f58 4359424C 		.ascii	"CYBLE_AIOS_DIGITAL\000"
 5074      455F4149 
 5074      4F535F44 
 5074      49474954 
 5074      414C00
 5075              	.LASF194:
 5076 0f6b 4359424C 		.ascii	"CYBLE_AIOS_CHAR_COUNT\000"
 5076      455F4149 
 5076      4F535F43 
 5076      4841525F 
 5076      434F554E 
 5077              	.LASF219:
 5078 0f81 666C6167 		.ascii	"flag\000"
 5078      00
 5079              	.LASF249:
 5080 0f86 4379426C 		.ascii	"CyBle_Set16ByPtr\000"
 5080      655F5365 
 5080      74313642 
 5080      79507472 
 5080      00
 5081              	.LASF103:
 5082 0f97 4359424C 		.ascii	"CYBLE_ERROR_L2CAP_PSM_WRONG_ENCODING\000"
 5082      455F4552 
 5082      524F525F 
ARM GAS  C:\Windows\TEMP\ccsjdpha.s 			page 128


 5082      4C324341 
 5082      505F5053 
 5083              	.LASF246:
 5084 0fbc 63686172 		.ascii	"charLen\000"
 5084      4C656E00 
 5085              	.LASF89:
 5086 0fc4 4359424C 		.ascii	"CYBLE_EVT_MAX\000"
 5086      455F4556 
 5086      545F4D41 
 5086      5800
 5087              	.LASF36:
 5088 0fd2 4359424C 		.ascii	"CYBLE_EVT_GAPC_SCAN_START_STOP\000"
 5088      455F4556 
 5088      545F4741 
 5088      50435F53 
 5088      43414E5F 
 5089              	.LASF146:
 5090 0ff1 4359424C 		.ascii	"CYBLE_GAPP_ADV_T\000"
 5090      455F4741 
 5090      50505F41 
 5090      44565F54 
 5090      00
 5091              	.LASF61:
 5092 1002 4359424C 		.ascii	"CYBLE_EVT_GATTS_WRITE_REQ\000"
 5092      455F4556 
 5092      545F4741 
 5092      5454535F 
 5092      57524954 
 5093              	.LASF156:
 5094 101c 61647644 		.ascii	"advData\000"
 5094      61746100 
 5095              	.LASF70:
 5096 1024 4359424C 		.ascii	"CYBLE_EVT_GATTS_DATA_SIGNED_CMD_REQ\000"
 5096      455F4556 
 5096      545F4741 
 5096      5454535F 
 5096      44415441 
 5097              	.LASF260:
 5098 1048 6379426C 		.ascii	"cyBle_scanRspData\000"
 5098      655F7363 
 5098      616E5273 
 5098      70446174 
 5098      6100
 5099              	.LASF213:
 5100 105a 70726566 		.ascii	"prefConnParamCharHandle\000"
 5100      436F6E6E 
 5100      50617261 
 5100      6D436861 
 5100      7248616E 
 5101              	.LASF28:
 5102 1072 4359424C 		.ascii	"CYBLE_EVT_GAP_PASSKEY_DISPLAY_REQUEST\000"
 5102      455F4556 
 5102      545F4741 
 5102      505F5041 
 5102      53534B45 
 5103              	.LASF120:
 5104 1098 4359424C 		.ascii	"CYBLE_ERROR_IND_DISABLED\000"
ARM GAS  C:\Windows\TEMP\ccsjdpha.s 			page 129


 5104      455F4552 
 5104      524F525F 
 5104      494E445F 
 5104      44495341 
 5105              	.LASF119:
 5106 10b1 4359424C 		.ascii	"CYBLE_ERROR_NTF_DISABLED\000"
 5106      455F4552 
 5106      524F525F 
 5106      4E54465F 
 5106      44495341 
 5107              	.LASF197:
 5108 10ca 4359424C 		.ascii	"CYBLE_AIOS_CHAR_USER_DESCRIPTION_DESCR\000"
 5108      455F4149 
 5108      4F535F43 
 5108      4841525F 
 5108      55534552 
 5109              	.LASF58:
 5110 10f1 4359424C 		.ascii	"CYBLE_EVT_GATTC_READ_RSP\000"
 5110      455F4556 
 5110      545F4741 
 5110      5454435F 
 5110      52454144 
 5111              	.LASF142:
 5112 110a 4359424C 		.ascii	"CYBLE_GAPP_CONNECTABLE_HIGH_DC_DIRECTED_ADV\000"
 5112      455F4741 
 5112      50505F43 
 5112      4F4E4E45 
 5112      43544142 
 5113              	.LASF78:
 5114 1136 4359424C 		.ascii	"CYBLE_EVT_L2CAP_CBFC_CONN_CNF\000"
 5114      455F4556 
 5114      545F4C32 
 5114      4341505F 
 5114      43424643 
 5115              	.LASF230:
 5116 1154 70726976 		.ascii	"privacyConfigParams\000"
 5116      61637943 
 5116      6F6E6669 
 5116      67506172 
 5116      616D7300 
 5117              	.LASF172:
 5118 1168 4359424C 		.ascii	"CYBLE_GATTS_ATT_GEN_VAL_LEN_T\000"
 5118      455F4741 
 5118      5454535F 
 5118      4154545F 
 5118      47454E5F 
 5119              	.LASF88:
 5120 1186 4359424C 		.ascii	"CYBLE_EVT_FLASH_CORRUPT\000"
 5120      455F4556 
 5120      545F464C 
 5120      4153485F 
 5120      434F5252 
 5121              	.LASF16:
 5122 119e 6C6F6E67 		.ascii	"long double\000"
 5122      20646F75 
 5122      626C6500 
 5123              	.LASF128:
ARM GAS  C:\Windows\TEMP\ccsjdpha.s 			page 130


 5124 11aa 62756666 		.ascii	"bufferSize\000"
 5124      65725369 
 5124      7A6500
 5125              	.LASF24:
 5126 11b5 4359424C 		.ascii	"CYBLE_EVT_MEMORY_REQUEST\000"
 5126      455F4556 
 5126      545F4D45 
 5126      4D4F5259 
 5126      5F524551 
 5127              	.LASF248:
 5128 11ce 4379426C 		.ascii	"CyBle_Get16ByPtr\000"
 5128      655F4765 
 5128      74313642 
 5128      79507472 
 5128      00
 5129              	.LASF212:
 5130 11df 61707065 		.ascii	"appearanceCharHandle\000"
 5130      6172616E 
 5130      63654368 
 5130      61724861 
 5130      6E646C65 
 5131              	.LASF34:
 5132 11f4 4359424C 		.ascii	"CYBLE_EVT_GAP_ENCRYPT_CHANGE\000"
 5132      455F4556 
 5132      545F4741 
 5132      505F454E 
 5132      43525950 
 5133              	.LASF52:
 5134 1211 4359424C 		.ascii	"CYBLE_EVT_GATTS_XCNHG_MTU_REQ\000"
 5134      455F4556 
 5134      545F4741 
 5134      5454535F 
 5134      58434E48 
 5135              	.LASF48:
 5136 122f 4359424C 		.ascii	"CYBLE_EVT_GAP_SMP_LOC_P256_KEYS_GEN_AND_SET_COMPLET"
 5136      455F4556 
 5136      545F4741 
 5136      505F534D 
 5136      505F4C4F 
 5137 1262 4500     		.ascii	"E\000"
 5138              	.LASF7:
 5139 1264 6C6F6E67 		.ascii	"long long unsigned int\000"
 5139      206C6F6E 
 5139      6720756E 
 5139      7369676E 
 5139      65642069 
 5140              	.LASF20:
 5141 127b 4359424C 		.ascii	"CYBLE_EVT_TIMEOUT\000"
 5141      455F4556 
 5141      545F5449 
 5141      4D454F55 
 5141      5400
 5142              	.LASF236:
 5143 128d 6973466F 		.ascii	"isForceWrite\000"
 5143      72636557 
 5143      72697465 
 5143      00
ARM GAS  C:\Windows\TEMP\ccsjdpha.s 			page 131


 5144              	.LASF122:
 5145 129a 4359424C 		.ascii	"CYBLE_ERROR_INVALID_STATE\000"
 5145      455F4552 
 5145      524F525F 
 5145      494E5641 
 5145      4C49445F 
 5146              	.LASF166:
 5147 12b4 4359424C 		.ascii	"CYBLE_GATT_DB_ATTR_HANDLE_T\000"
 5147      455F4741 
 5147      54545F44 
 5147      425F4154 
 5147      54525F48 
 5148              	.LASF81:
 5149 12d0 4359424C 		.ascii	"CYBLE_EVT_L2CAP_CBFC_DATA_READ\000"
 5149      455F4556 
 5149      545F4C32 
 5149      4341505F 
 5149      43424643 
 5150              	.LASF250:
 5151 12ef 76616C75 		.ascii	"value\000"
 5151      6500
 5152              	.LASF183:
 5153 12f5 61747456 		.ascii	"attValue\000"
 5153      616C7565 
 5153      00
 5154              	.LASF252:
 5155 12fe 4379426C 		.ascii	"CyBle_ApplCallback\000"
 5155      655F4170 
 5155      706C4361 
 5155      6C6C6261 
 5155      636B00
 5156              	.LASF115:
 5157 1311 4359424C 		.ascii	"CYBLE_ERROR_FLASH_WRITE\000"
 5157      455F4552 
 5157      524F525F 
 5157      464C4153 
 5157      485F5752 
 5158              	.LASF216:
 5159 1329 4359424C 		.ascii	"CYBLE_GAPS_T\000"
 5159      455F4741 
 5159      50535F54 
 5159      00
 5160              	.LASF127:
 5161 1336 4359424C 		.ascii	"CYBLE_GAP_BD_ADDR_T\000"
 5161      455F4741 
 5161      505F4244 
 5161      5F414444 
 5161      525F5400 
 5162              	.LASF279:
 5163 134a 6D656D73 		.ascii	"memset\000"
 5163      657400
 5164              	.LASF138:
 5165 1351 70726976 		.ascii	"privacyConfig\000"
 5165      61637943 
 5165      6F6E6669 
 5165      6700
 5166              	.LASF170:
ARM GAS  C:\Windows\TEMP\ccsjdpha.s 			page 132


 5167 135f 61637475 		.ascii	"actualLength\000"
 5167      616C4C65 
 5167      6E677468 
 5167      00
 5168              	.LASF157:
 5169 136c 61647644 		.ascii	"advDataLen\000"
 5169      6174614C 
 5169      656E00
 5170              	.LASF218:
 5171 1377 64657374 		.ascii	"dest\000"
 5171      00
 5172              	.LASF165:
 5173 137c 4359424C 		.ascii	"CYBLE_GAPP_DISC_MODE_INFO_T\000"
 5173      455F4741 
 5173      50505F44 
 5173      4953435F 
 5173      4D4F4445 
 5174              	.LASF262:
 5175 1398 6379426C 		.ascii	"cyBle_pendingFlashWrite\000"
 5175      655F7065 
 5175      6E64696E 
 5175      67466C61 
 5175      73685772 
 5176              	.LASF56:
 5177 13b0 4359424C 		.ascii	"CYBLE_EVT_GATTC_FIND_INFO_RSP\000"
 5177      455F4556 
 5177      545F4741 
 5177      5454435F 
 5177      46494E44 
 5178              	.LASF55:
 5179 13ce 4359424C 		.ascii	"CYBLE_EVT_GATTC_READ_BY_TYPE_RSP\000"
 5179      455F4556 
 5179      545F4741 
 5179      5454435F 
 5179      52454144 
 5180              	.LASF284:
 5181 13ef 4379426C 		.ascii	"CyBle_GapRemoveDeviceFromWhiteList\000"
 5181      655F4761 
 5181      7052656D 
 5181      6F766544 
 5181      65766963 
 5182              	.LASF234:
 5183 1412 4379426C 		.ascii	"CyBle_Start\000"
 5183      655F5374 
 5183      61727400 
 5184              	.LASF267:
 5185 141e 6379426C 		.ascii	"cyBle_state\000"
 5185      655F7374 
 5185      61746500 
 5186              	.LASF229:
 5187 142a 646C6543 		.ascii	"dleConfigParams\000"
 5187      6F6E6669 
 5187      67506172 
 5187      616D7300 
 5188              	.LASF282:
 5189 143a 6D656D63 		.ascii	"memcmp\000"
 5189      6D7000
ARM GAS  C:\Windows\TEMP\ccsjdpha.s 			page 133


 5190              	.LASF116:
 5191 1441 4359424C 		.ascii	"CYBLE_ERROR_LL_SAME_TRANSACTION_COLLISION\000"
 5191      455F4552 
 5191      524F525F 
 5191      4C4C5F53 
 5191      414D455F 
 5192              	.LASF62:
 5193 146b 4359424C 		.ascii	"CYBLE_EVT_GATTC_WRITE_RSP\000"
 5193      455F4556 
 5193      545F4741 
 5193      5454435F 
 5193      57524954 
 5194              	.LASF208:
 5195 1485 4359424C 		.ascii	"CYBLE_STATE_DISCONNECTED\000"
 5195      455F5354 
 5195      4154455F 
 5195      44495343 
 5195      4F4E4E45 
 5196              	.LASF178:
 5197 149e 4359424C 		.ascii	"CYBLE_GATTS_ATT_VALUE_T\000"
 5197      455F4741 
 5197      5454535F 
 5197      4154545F 
 5197      56414C55 
 5198              	.LASF272:
 5199 14b6 4379426C 		.ascii	"CyBle_AiosInit\000"
 5199      655F4169 
 5199      6F73496E 
 5199      697400
 5200              	.LASF175:
 5201 14c5 4359424C 		.ascii	"CYBLE_GATTS_ATT_PACK_VAL_LEN_T\000"
 5201      455F4741 
 5201      5454535F 
 5201      4154545F 
 5201      5041434B 
 5202              	.LASF31:
 5203 14e4 4359424C 		.ascii	"CYBLE_EVT_GAPP_ADVERTISEMENT_START_STOP\000"
 5203      455F4556 
 5203      545F4741 
 5203      50505F41 
 5203      44564552 
 5204              	.LASF161:
 5205 150c 4359424C 		.ascii	"CYBLE_GAPP_SCAN_RSP_DATA_T\000"
 5205      455F4741 
 5205      50505F53 
 5205      43414E5F 
 5205      5253505F 
 5206              	.LASF171:
 5207 1527 61747447 		.ascii	"attGenericVal\000"
 5207      656E6572 
 5207      69635661 
 5207      6C00
 5208              	.LASF217:
 5209 1535 6E616D65 		.ascii	"name\000"
 5209      00
 5210              	.LASF9:
 5211 153a 75696E74 		.ascii	"uint8\000"
ARM GAS  C:\Windows\TEMP\ccsjdpha.s 			page 134


 5211      3800
 5212              	.LASF253:
 5213 1540 6379426C 		.ascii	"cyBle_initVar\000"
 5213      655F696E 
 5213      69745661 
 5213      7200
 5214              	.LASF39:
 5215 154e 4359424C 		.ascii	"CYBLE_EVT_GAP_KEYPRESS_NOTIFICATION\000"
 5215      455F4556 
 5215      545F4741 
 5215      505F4B45 
 5215      59505245 
 5216              	.LASF268:
 5217 1572 6379426C 		.ascii	"cyBle_connHandle\000"
 5217      655F636F 
 5217      6E6E4861 
 5217      6E646C65 
 5217      00
 5218              	.LASF2:
 5219 1583 73686F72 		.ascii	"short int\000"
 5219      7420696E 
 5219      7400
 5220              	.LASF245:
 5221 158d 4379426C 		.ascii	"CyBle_GapSetLocalName\000"
 5221      655F4761 
 5221      70536574 
 5221      4C6F6361 
 5221      6C4E616D 
 5222              	.LASF174:
 5223 15a3 61747447 		.ascii	"attGenericValLen\000"
 5223      656E6572 
 5223      69635661 
 5223      6C4C656E 
 5223      00
 5224              	.LASF176:
 5225 15b4 61747446 		.ascii	"attFormatValue\000"
 5225      6F726D61 
 5225      7456616C 
 5225      756500
 5226              	.LASF160:
 5227 15c3 7363616E 		.ascii	"scanRspDataLen\000"
 5227      52737044 
 5227      6174614C 
 5227      656E00
 5228              	.LASF113:
 5229 15d2 4359424C 		.ascii	"CYBLE_ERROR_HARDWARE_FAILURE\000"
 5229      455F4552 
 5229      524F525F 
 5229      48415244 
 5229      57415245 
 5230              	.LASF276:
 5231 15ef 4379426C 		.ascii	"CyBle_GattsDbRegister\000"
 5231      655F4761 
 5231      74747344 
 5231      62526567 
 5231      69737465 
 5232              	.LASF49:
ARM GAS  C:\Windows\TEMP\ccsjdpha.s 			page 135


 5233 1605 4359424C 		.ascii	"CYBLE_EVT_GATTC_ERROR_RSP\000"
 5233      455F4556 
 5233      545F4741 
 5233      5454435F 
 5233      4552524F 
 5234              	.LASF209:
 5235 161f 4359424C 		.ascii	"CYBLE_STATE_T\000"
 5235      455F5354 
 5235      4154455F 
 5235      5400
 5236              	.LASF143:
 5237 162d 4359424C 		.ascii	"CYBLE_GAPP_SCANNABLE_UNDIRECTED_ADV\000"
 5237      455F4741 
 5237      50505F53 
 5237      43414E4E 
 5237      41424C45 
 5238              	.LASF77:
 5239 1651 4359424C 		.ascii	"CYBLE_EVT_L2CAP_CBFC_CONN_IND\000"
 5239      455F4556 
 5239      545F4C32 
 5239      4341505F 
 5239      43424643 
 5240              	.LASF65:
 5241 166f 4359424C 		.ascii	"CYBLE_EVT_GATTS_EXEC_WRITE_REQ\000"
 5241      455F4556 
 5241      545F4741 
 5241      5454535F 
 5241      45584543 
 5242              	.LASF25:
 5243 168e 4359424C 		.ascii	"CYBLE_EVT_GAPC_SCAN_PROGRESS_RESULT\000"
 5243      455F4556 
 5243      545F4741 
 5243      50435F53 
 5243      43414E5F 
 5244              	.LASF188:
 5245 16b2 63636364 		.ascii	"cccdCount\000"
 5245      436F756E 
 5245      7400
 5246              	.LASF261:
 5247 16bc 6379426C 		.ascii	"cyBle_discoveryModeInfo\000"
 5247      655F6469 
 5247      73636F76 
 5247      6572794D 
 5247      6F646549 
 5248              	.LASF99:
 5249 16d4 4359424C 		.ascii	"CYBLE_ERROR_GAP_ROLE\000"
 5249      455F4552 
 5249      524F525F 
 5249      4741505F 
 5249      524F4C45 
 5250              	.LASF254:
 5251 16e9 6379426C 		.ascii	"cyBle_stackMemoryRam\000"
 5251      655F7374 
 5251      61636B4D 
 5251      656D6F72 
 5251      7952616D 
 5252              	.LASF46:
ARM GAS  C:\Windows\TEMP\ccsjdpha.s 			page 136


 5253 16fe 4359424C 		.ascii	"CYBLE_EVT_GAP_SCAN_REQ_RECVD\000"
 5253      455F4556 
 5253      545F4741 
 5253      505F5343 
 5253      414E5F52 
 5254              	.LASF214:
 5255 171b 63656E74 		.ascii	"centralAddrResolutionCharHandle\000"
 5255      72616C41 
 5255      64647252 
 5255      65736F6C 
 5255      7574696F 
 5256              	.LASF125:
 5257 173b 62644164 		.ascii	"bdAddr\000"
 5257      647200
 5258              	.LASF270:
 5259 1742 6379426C 		.ascii	"cyBle_gaps\000"
 5259      655F6761 
 5259      707300
 5260              	.LASF255:
 5261 174d 6379426C 		.ascii	"cyBle_eventHandlerFlag\000"
 5261      655F6576 
 5261      656E7448 
 5261      616E646C 
 5261      6572466C 
 5262              	.LASF235:
 5263 1764 4379426C 		.ascii	"CyBle_StoreBondingData\000"
 5263      655F5374 
 5263      6F726542 
 5263      6F6E6469 
 5263      6E674461 
 5264              	.LASF96:
 5265 177b 4359424C 		.ascii	"CYBLE_ERROR_NO_CONNECTION\000"
 5265      455F4552 
 5265      524F525F 
 5265      4E4F5F43 
 5265      4F4E4E45 
 5266              	.LASF278:
 5267 1795 6D656D63 		.ascii	"memcpy\000"
 5267      707900
 5268              	.LASF221:
 5269 179c 62797465 		.ascii	"byteCounter\000"
 5269      436F756E 
 5269      74657200 
 5270              	.LASF86:
 5271 17a8 4359424C 		.ascii	"CYBLE_EVT_LE_PING_AUTH_TIMEOUT\000"
 5271      455F4556 
 5271      545F4C45 
 5271      5F50494E 
 5271      475F4155 
 5272              	.LASF124:
 5273 17c7 4359424C 		.ascii	"CYBLE_API_RESULT_T\000"
 5273      455F4150 
 5273      495F5245 
 5273      53554C54 
 5273      5F5400
 5274              	.LASF265:
 5275 17da 6379426C 		.ascii	"cyBle_attValuesCCCD\000"
ARM GAS  C:\Windows\TEMP\ccsjdpha.s 			page 137


 5275      655F6174 
 5275      7456616C 
 5275      75657343 
 5275      43434400 
 5276              	.LASF68:
 5277 17ee 4359424C 		.ascii	"CYBLE_EVT_GATTC_HANDLE_VALUE_IND\000"
 5277      455F4556 
 5277      545F4741 
 5277      5454435F 
 5277      48414E44 
 5278              	.LASF102:
 5279 180f 4359424C 		.ascii	"CYBLE_ERROR_SEC_FAILED\000"
 5279      455F4552 
 5279      524F525F 
 5279      5345435F 
 5279      4641494C 
 5280              	.LASF240:
 5281 1826 696E7661 		.ascii	"invalidBdAddr\000"
 5281      6C696442 
 5281      64416464 
 5281      7200
 5282              	.LASF23:
 5283 1834 4359424C 		.ascii	"CYBLE_EVT_STACK_BUSY_STATUS\000"
 5283      455F4556 
 5283      545F5354 
 5283      41434B5F 
 5283      42555359 
 5284              	.LASF37:
 5285 1850 4359424C 		.ascii	"CYBLE_EVT_GAP_KEYINFO_EXCHNGE_CMPLT\000"
 5285      455F4556 
 5285      545F4741 
 5285      505F4B45 
 5285      59494E46 
 5286              	.LASF74:
 5287 1874 4359424C 		.ascii	"CYBLE_EVT_L2CAP_CONN_PARAM_UPDATE_REQ\000"
 5287      455F4556 
 5287      545F4C32 
 5287      4341505F 
 5287      434F4E4E 
 5288              	.LASF259:
 5289 189a 6379426C 		.ascii	"cyBle_discoveryData\000"
 5289      655F6469 
 5289      73636F76 
 5289      65727944 
 5289      61746100 
 5290              	.LASF199:
 5291 18ae 4359424C 		.ascii	"CYBLE_AIOS_VALUE_TRIGGER_SETTINGS\000"
 5291      455F4149 
 5291      4F535F56 
 5291      414C5545 
 5291      5F545249 
 5292              	.LASF210:
 5293 18d0 67617053 		.ascii	"gapServiceCharHandle\000"
 5293      65727669 
 5293      63654368 
 5293      61724861 
 5293      6E646C65 
ARM GAS  C:\Windows\TEMP\ccsjdpha.s 			page 138


 5294              	.LASF3:
 5295 18e5 73686F72 		.ascii	"short unsigned int\000"
 5295      7420756E 
 5295      7369676E 
 5295      65642069 
 5295      6E7400
 5296              	.LASF152:
 5297 18f8 64697265 		.ascii	"directAddr\000"
 5297      63744164 
 5297      647200
 5298              	.LASF206:
 5299 1903 4359424C 		.ascii	"CYBLE_STATE_CONNECTED\000"
 5299      455F5354 
 5299      4154455F 
 5299      434F4E4E 
 5299      45435445 
 5300              	.LASF132:
 5301 1919 646C654D 		.ascii	"dleMaxRxCapability\000"
 5301      61785278 
 5301      43617061 
 5301      62696C69 
 5301      747900
 5302              	.LASF153:
 5303 192c 61647643 		.ascii	"advChannelMap\000"
 5303      68616E6E 
 5303      656C4D61 
 5303      7000
 5304              	.LASF141:
 5305 193a 4359424C 		.ascii	"CYBLE_GAPP_CONNECTABLE_UNDIRECTED_ADV\000"
 5305      455F4741 
 5305      50505F43 
 5305      4F4E4E45 
 5305      43544142 
 5306              	.LASF195:
 5307 1960 4359424C 		.ascii	"CYBLE_AIOS_CCCD\000"
 5307      455F4149 
 5307      4F535F43 
 5307      43434400 
 5308              	.LASF201:
 5309 1970 4359424C 		.ascii	"CYBLE_AIOS_VRD\000"
 5309      455F4149 
 5309      4F535F56 
 5309      524400
 5310              	.LASF168:
 5311 197f 61747449 		.ascii	"attId\000"
 5311      6400
 5312              	.LASF92:
 5313 1985 4359424C 		.ascii	"CYBLE_ERROR_INVALID_OPERATION\000"
 5313      455F4552 
 5313      524F525F 
 5313      494E5641 
 5313      4C49445F 
 5314              	.LASF220:
 5315 19a3 61644C65 		.ascii	"adLength\000"
 5315      6E677468 
 5315      00
 5316              	.LASF22:
ARM GAS  C:\Windows\TEMP\ccsjdpha.s 			page 139


 5317 19ac 4359424C 		.ascii	"CYBLE_EVT_HCI_STATUS\000"
 5317      455F4556 
 5317      545F4843 
 5317      495F5354 
 5317      41545553 
 5318              	.LASF51:
 5319 19c1 4359424C 		.ascii	"CYBLE_EVT_GATT_DISCONNECT_IND\000"
 5319      455F4556 
 5319      545F4741 
 5319      54545F44 
 5319      4953434F 
 5320              	.LASF84:
 5321 19df 4359424C 		.ascii	"CYBLE_EVT_L2CAP_CBFC_DATA_WRITE_IND\000"
 5321      455F4556 
 5321      545F4C32 
 5321      4341505F 
 5321      43424643 
 5322              	.LASF203:
 5323 1a03 4359424C 		.ascii	"CYBLE_AIOS_DESCR_COUNT\000"
 5323      455F4149 
 5323      4F535F44 
 5323      45534352 
 5323      5F434F55 
 5324              	.LASF73:
 5325 1a1a 4359424C 		.ascii	"CYBLE_EVT_GATTC_LONG_PROCEDURE_END\000"
 5325      455F4556 
 5325      545F4741 
 5325      5454435F 
 5325      4C4F4E47 
 5326              	.LASF33:
 5327 1a3d 4359424C 		.ascii	"CYBLE_EVT_GAP_DEVICE_DISCONNECTED\000"
 5327      455F4556 
 5327      545F4741 
 5327      505F4445 
 5327      56494345 
 5328              	.LASF69:
 5329 1a5f 4359424C 		.ascii	"CYBLE_EVT_GATTS_HANDLE_VALUE_CNF\000"
 5329      455F4556 
 5329      545F4741 
 5329      5454535F 
 5329      48414E44 
 5330              	.LASF10:
 5331 1a80 75696E74 		.ascii	"uint16\000"
 5331      313600
 5332              	.LASF150:
 5333 1a87 6F776E41 		.ascii	"ownAddrType\000"
 5333      64647254 
 5333      79706500 
 5334              	.LASF100:
 5335 1a93 4359424C 		.ascii	"CYBLE_ERROR_TX_POWER_READ\000"
 5335      455F4552 
 5335      524F525F 
 5335      54585F50 
 5335      4F574552 
 5336              	.LASF148:
 5337 1aad 61647649 		.ascii	"advIntvMax\000"
 5337      6E74764D 
ARM GAS  C:\Windows\TEMP\ccsjdpha.s 			page 140


 5337      617800
 5338              		.ident	"GCC: (GNU Tools for ARM Embedded Processors) 5.4.1 20160609 (release) [ARM/embedded-5-bran
