ARM GAS  C:\Windows\TEMP\ccyNncCN.s 			page 1


   1              		.syntax unified
   2              		.cpu cortex-m0
   3              		.fpu softvfp
   4              		.eabi_attribute 20, 1
   5              		.eabi_attribute 21, 1
   6              		.eabi_attribute 23, 3
   7              		.eabi_attribute 24, 1
   8              		.eabi_attribute 25, 1
   9              		.eabi_attribute 26, 1
  10              		.eabi_attribute 30, 1
  11              		.eabi_attribute 34, 0
  12              		.eabi_attribute 18, 4
  13              		.thumb
  14              		.syntax unified
  15              		.file	"Bluetooth_aios.c"
  16              		.text
  17              	.Ltext0:
  18              		.cfi_sections	.debug_frame
  19              		.section	.text.CyBle_AiosInit,"ax",%progbits
  20              		.align	2
  21              		.global	CyBle_AiosInit
  22              		.code	16
  23              		.thumb_func
  24              		.type	CyBle_AiosInit, %function
  25              	CyBle_AiosInit:
  26              	.LFB2:
  27              		.file 1 "Generated_Source\\PSoC4\\Bluetooth_aios.c"
   1:Generated_Source\PSoC4/Bluetooth_aios.c **** /***************************************************************************//**
   2:Generated_Source\PSoC4/Bluetooth_aios.c **** * \file CYBLE_aios.c
   3:Generated_Source\PSoC4/Bluetooth_aios.c **** * \version 3.66
   4:Generated_Source\PSoC4/Bluetooth_aios.c **** * 
   5:Generated_Source\PSoC4/Bluetooth_aios.c **** * \brief
   6:Generated_Source\PSoC4/Bluetooth_aios.c **** *  Contains the source code for Automation Input Output Service.
   7:Generated_Source\PSoC4/Bluetooth_aios.c **** * 
   8:Generated_Source\PSoC4/Bluetooth_aios.c **** ********************************************************************************
   9:Generated_Source\PSoC4/Bluetooth_aios.c **** * \copyright
  10:Generated_Source\PSoC4/Bluetooth_aios.c **** * Copyright 2016-2020, Cypress Semiconductor Corporation.  All rights reserved.
  11:Generated_Source\PSoC4/Bluetooth_aios.c **** * You may use this file only in accordance with the license, terms, conditions,
  12:Generated_Source\PSoC4/Bluetooth_aios.c **** * disclaimers, and limitations in the end user license agreement accompanying
  13:Generated_Source\PSoC4/Bluetooth_aios.c **** * the software package with which this file was provided.
  14:Generated_Source\PSoC4/Bluetooth_aios.c **** *******************************************************************************/
  15:Generated_Source\PSoC4/Bluetooth_aios.c **** 
  16:Generated_Source\PSoC4/Bluetooth_aios.c **** #include "Bluetooth_eventHandler.h"
  17:Generated_Source\PSoC4/Bluetooth_aios.c **** #include "Bluetooth_aios.h"
  18:Generated_Source\PSoC4/Bluetooth_aios.c ****  
  19:Generated_Source\PSoC4/Bluetooth_aios.c **** 
  20:Generated_Source\PSoC4/Bluetooth_aios.c **** #ifdef CYBLE_AIOS_SERVER
  21:Generated_Source\PSoC4/Bluetooth_aios.c **** /* Generated code */
  22:Generated_Source\PSoC4/Bluetooth_aios.c **** /* Analog characteristic data */
  23:Generated_Source\PSoC4/Bluetooth_aios.c **** static CYBLE_AIOSS_CHAR_T aiossCharIdx1[0x04u] = {
  24:Generated_Source\PSoC4/Bluetooth_aios.c ****     {
  25:Generated_Source\PSoC4/Bluetooth_aios.c ****         0x0012u, /* Handle of the MotorLeft characteristic */ 
  26:Generated_Source\PSoC4/Bluetooth_aios.c ****         
  27:Generated_Source\PSoC4/Bluetooth_aios.c ****             /* Array of Descriptors handles */
  28:Generated_Source\PSoC4/Bluetooth_aios.c ****             {
  29:Generated_Source\PSoC4/Bluetooth_aios.c ****                 0x0013u, /* Handle of the Client Characteristic Configuration descriptor */ 
  30:Generated_Source\PSoC4/Bluetooth_aios.c ****                 0x0014u, /* Handle of the Characteristic Presentation Format descriptor */ 
ARM GAS  C:\Windows\TEMP\ccyNncCN.s 			page 2


  31:Generated_Source\PSoC4/Bluetooth_aios.c ****                 0x0015u, /* Handle of the Characteristic User Description descriptor */ 
  32:Generated_Source\PSoC4/Bluetooth_aios.c ****                 0x0016u, /* Handle of the Characteristic Extended Properties descriptor */ 
  33:Generated_Source\PSoC4/Bluetooth_aios.c ****                 0x0017u, /* Handle of the Value Trigger Setting descriptor */ 
  34:Generated_Source\PSoC4/Bluetooth_aios.c ****                 0x0018u, /* Handle of the Time Trigger Setting descriptor */ 
  35:Generated_Source\PSoC4/Bluetooth_aios.c ****                 0x0019u, /* Handle of the Valid Range descriptor */ 
  36:Generated_Source\PSoC4/Bluetooth_aios.c ****             }, 
  37:Generated_Source\PSoC4/Bluetooth_aios.c ****     },
  38:Generated_Source\PSoC4/Bluetooth_aios.c ****     {
  39:Generated_Source\PSoC4/Bluetooth_aios.c ****         0x001Bu, /* Handle of the MotorRight characteristic */ 
  40:Generated_Source\PSoC4/Bluetooth_aios.c ****         
  41:Generated_Source\PSoC4/Bluetooth_aios.c ****             /* Array of Descriptors handles */
  42:Generated_Source\PSoC4/Bluetooth_aios.c ****             {
  43:Generated_Source\PSoC4/Bluetooth_aios.c ****                 0x001Cu, /* Handle of the Client Characteristic Configuration descriptor */ 
  44:Generated_Source\PSoC4/Bluetooth_aios.c ****                 0x001Du, /* Handle of the Characteristic Presentation Format descriptor */ 
  45:Generated_Source\PSoC4/Bluetooth_aios.c ****                 0x001Eu, /* Handle of the Characteristic User Description descriptor */ 
  46:Generated_Source\PSoC4/Bluetooth_aios.c ****                 0x001Fu, /* Handle of the Characteristic Extended Properties descriptor */ 
  47:Generated_Source\PSoC4/Bluetooth_aios.c ****                 0x0020u, /* Handle of the Value Trigger Setting descriptor */ 
  48:Generated_Source\PSoC4/Bluetooth_aios.c ****                 0x0021u, /* Handle of the Time Trigger Setting descriptor */ 
  49:Generated_Source\PSoC4/Bluetooth_aios.c ****                 0x0022u, /* Handle of the Valid Range descriptor */ 
  50:Generated_Source\PSoC4/Bluetooth_aios.c ****             }, 
  51:Generated_Source\PSoC4/Bluetooth_aios.c ****     },
  52:Generated_Source\PSoC4/Bluetooth_aios.c ****     {
  53:Generated_Source\PSoC4/Bluetooth_aios.c ****         0x0024u, /* Handle of the MotorUp characteristic */ 
  54:Generated_Source\PSoC4/Bluetooth_aios.c ****         
  55:Generated_Source\PSoC4/Bluetooth_aios.c ****             /* Array of Descriptors handles */
  56:Generated_Source\PSoC4/Bluetooth_aios.c ****             {
  57:Generated_Source\PSoC4/Bluetooth_aios.c ****                 0x0025u, /* Handle of the Client Characteristic Configuration descriptor */ 
  58:Generated_Source\PSoC4/Bluetooth_aios.c ****                 0x0026u, /* Handle of the Characteristic Presentation Format descriptor */ 
  59:Generated_Source\PSoC4/Bluetooth_aios.c ****                 0x0027u, /* Handle of the Characteristic User Description descriptor */ 
  60:Generated_Source\PSoC4/Bluetooth_aios.c ****                 0x0028u, /* Handle of the Characteristic Extended Properties descriptor */ 
  61:Generated_Source\PSoC4/Bluetooth_aios.c ****                 0x0029u, /* Handle of the Value Trigger Setting descriptor */ 
  62:Generated_Source\PSoC4/Bluetooth_aios.c ****                 0x002Au, /* Handle of the Time Trigger Setting descriptor */ 
  63:Generated_Source\PSoC4/Bluetooth_aios.c ****                 0x002Bu, /* Handle of the Valid Range descriptor */ 
  64:Generated_Source\PSoC4/Bluetooth_aios.c ****             }, 
  65:Generated_Source\PSoC4/Bluetooth_aios.c ****     },
  66:Generated_Source\PSoC4/Bluetooth_aios.c ****     {
  67:Generated_Source\PSoC4/Bluetooth_aios.c ****         0x002Du, /* Handle of the MotorDown characteristic */ 
  68:Generated_Source\PSoC4/Bluetooth_aios.c ****         
  69:Generated_Source\PSoC4/Bluetooth_aios.c ****             /* Array of Descriptors handles */
  70:Generated_Source\PSoC4/Bluetooth_aios.c ****             {
  71:Generated_Source\PSoC4/Bluetooth_aios.c ****                 0x002Eu, /* Handle of the Client Characteristic Configuration descriptor */ 
  72:Generated_Source\PSoC4/Bluetooth_aios.c ****                 0x002Fu, /* Handle of the Characteristic Presentation Format descriptor */ 
  73:Generated_Source\PSoC4/Bluetooth_aios.c ****                 0x0030u, /* Handle of the Characteristic User Description descriptor */ 
  74:Generated_Source\PSoC4/Bluetooth_aios.c ****                 0x0031u, /* Handle of the Characteristic Extended Properties descriptor */ 
  75:Generated_Source\PSoC4/Bluetooth_aios.c ****                 0x0032u, /* Handle of the Value Trigger Setting descriptor */ 
  76:Generated_Source\PSoC4/Bluetooth_aios.c ****                 0x0033u, /* Handle of the Time Trigger Setting descriptor */ 
  77:Generated_Source\PSoC4/Bluetooth_aios.c ****                 CYBLE_GATT_INVALID_ATTR_HANDLE_VALUE, /* Handle of the Valid Range descriptor */ 
  78:Generated_Source\PSoC4/Bluetooth_aios.c ****             }, 
  79:Generated_Source\PSoC4/Bluetooth_aios.c ****     },
  80:Generated_Source\PSoC4/Bluetooth_aios.c **** };
  81:Generated_Source\PSoC4/Bluetooth_aios.c **** 
  82:Generated_Source\PSoC4/Bluetooth_aios.c **** /* Number of AIOS characteristics instances */
  83:Generated_Source\PSoC4/Bluetooth_aios.c **** uint8 cyBle_aiossCharInstances[0x03u] = {
  84:Generated_Source\PSoC4/Bluetooth_aios.c ****     0x00u, 0x04u, 0x00u
  85:Generated_Source\PSoC4/Bluetooth_aios.c **** };
  86:Generated_Source\PSoC4/Bluetooth_aios.c **** 
  87:Generated_Source\PSoC4/Bluetooth_aios.c **** const CYBLE_AIOSS_T cyBle_aioss =
ARM GAS  C:\Windows\TEMP\ccyNncCN.s 			page 3


  88:Generated_Source\PSoC4/Bluetooth_aios.c **** {
  89:Generated_Source\PSoC4/Bluetooth_aios.c ****     0x0010u,    /* Handle of the AIOS service */
  90:Generated_Source\PSoC4/Bluetooth_aios.c ****     {
  91:Generated_Source\PSoC4/Bluetooth_aios.c ****         {
  92:Generated_Source\PSoC4/Bluetooth_aios.c ****             NULL, /* Handle of the Digital characteristic */ 
  93:Generated_Source\PSoC4/Bluetooth_aios.c ****         }, 
  94:Generated_Source\PSoC4/Bluetooth_aios.c ****         {
  95:Generated_Source\PSoC4/Bluetooth_aios.c ****             &aiossCharIdx1[0], /* Handle of the Analog characteristic */ 
  96:Generated_Source\PSoC4/Bluetooth_aios.c ****         }, 
  97:Generated_Source\PSoC4/Bluetooth_aios.c ****         {
  98:Generated_Source\PSoC4/Bluetooth_aios.c ****             NULL, /* Handle of the Aggregate characteristic */ 
  99:Generated_Source\PSoC4/Bluetooth_aios.c ****         }, 
 100:Generated_Source\PSoC4/Bluetooth_aios.c ****     },
 101:Generated_Source\PSoC4/Bluetooth_aios.c **** };
 102:Generated_Source\PSoC4/Bluetooth_aios.c **** 
 103:Generated_Source\PSoC4/Bluetooth_aios.c **** /* End of generated code */
 104:Generated_Source\PSoC4/Bluetooth_aios.c ****     
 105:Generated_Source\PSoC4/Bluetooth_aios.c **** static CYBLE_GATT_DB_ATTR_HANDLE_T cyBle_aiossReqHandle;
 106:Generated_Source\PSoC4/Bluetooth_aios.c **** 
 107:Generated_Source\PSoC4/Bluetooth_aios.c **** #endif /* CYBLE_AIOS_SERVER */
 108:Generated_Source\PSoC4/Bluetooth_aios.c **** 
 109:Generated_Source\PSoC4/Bluetooth_aios.c **** #ifdef CYBLE_AIOS_CLIENT
 110:Generated_Source\PSoC4/Bluetooth_aios.c **** /* Generated code */
 111:Generated_Source\PSoC4/Bluetooth_aios.c **** 
 112:Generated_Source\PSoC4/Bluetooth_aios.c **** /* End of generated code */
 113:Generated_Source\PSoC4/Bluetooth_aios.c **** 
 114:Generated_Source\PSoC4/Bluetooth_aios.c **** static CYBLE_GATT_DB_ATTR_HANDLE_T cyBle_aioscReqHandle;
 115:Generated_Source\PSoC4/Bluetooth_aios.c **** 
 116:Generated_Source\PSoC4/Bluetooth_aios.c **** uint8 cyBle_aioscActiveCharIndex = 0u;
 117:Generated_Source\PSoC4/Bluetooth_aios.c **** uint8 cyBle_aioscActiveCharInstance = 0u;
 118:Generated_Source\PSoC4/Bluetooth_aios.c **** uint8 cyBle_aioscPrevCharInstIndex;
 119:Generated_Source\PSoC4/Bluetooth_aios.c **** 
 120:Generated_Source\PSoC4/Bluetooth_aios.c **** #endif /* (CYBLE_AIOS_CLIENT) */
 121:Generated_Source\PSoC4/Bluetooth_aios.c **** 
 122:Generated_Source\PSoC4/Bluetooth_aios.c **** static CYBLE_CALLBACK_T CyBle_AiosApplCallback = NULL;
 123:Generated_Source\PSoC4/Bluetooth_aios.c **** 
 124:Generated_Source\PSoC4/Bluetooth_aios.c **** /******************************************************************************
 125:Generated_Source\PSoC4/Bluetooth_aios.c **** * Function Name: CyBle_AiosInit
 126:Generated_Source\PSoC4/Bluetooth_aios.c **** ***************************************************************************//**
 127:Generated_Source\PSoC4/Bluetooth_aios.c **** * 
 128:Generated_Source\PSoC4/Bluetooth_aios.c **** *  This function initializes the Automation IO Service.
 129:Generated_Source\PSoC4/Bluetooth_aios.c **** * 
 130:Generated_Source\PSoC4/Bluetooth_aios.c **** ******************************************************************************/
 131:Generated_Source\PSoC4/Bluetooth_aios.c **** void CyBle_AiosInit(void)
 132:Generated_Source\PSoC4/Bluetooth_aios.c **** {
  28              		.loc 1 132 0
  29              		.cfi_startproc
  30              		@ args = 0, pretend = 0, frame = 0
  31              		@ frame_needed = 0, uses_anonymous_args = 0
  32              		@ link register save eliminated.
 133:Generated_Source\PSoC4/Bluetooth_aios.c **** #ifdef CYBLE_AIOS_CLIENT
 134:Generated_Source\PSoC4/Bluetooth_aios.c ****    
 135:Generated_Source\PSoC4/Bluetooth_aios.c ****     uint8 i;
 136:Generated_Source\PSoC4/Bluetooth_aios.c ****     uint8 j;
 137:Generated_Source\PSoC4/Bluetooth_aios.c **** 
 138:Generated_Source\PSoC4/Bluetooth_aios.c ****     cyBle_aioscActiveCharIndex = 0u;
 139:Generated_Source\PSoC4/Bluetooth_aios.c ****     cyBle_aioscActiveCharInstance = 0u;
ARM GAS  C:\Windows\TEMP\ccyNncCN.s 			page 4


 140:Generated_Source\PSoC4/Bluetooth_aios.c ****     cyBle_aioscPrevCharInstIndex = 0u;
 141:Generated_Source\PSoC4/Bluetooth_aios.c **** 
 142:Generated_Source\PSoC4/Bluetooth_aios.c ****     if(cyBle_serverInfo[CYBLE_SRVI_AIOS].range.startHandle == CYBLE_GATT_INVALID_ATTR_HANDLE_VALUE)
 143:Generated_Source\PSoC4/Bluetooth_aios.c ****     {
 144:Generated_Source\PSoC4/Bluetooth_aios.c ****         for(i = (uint8) CYBLE_AIOS_DIGITAL; (i < ((uint8) CYBLE_AIOS_CHAR_COUNT)); i++)
 145:Generated_Source\PSoC4/Bluetooth_aios.c ****         {
 146:Generated_Source\PSoC4/Bluetooth_aios.c ****             for(j = 0u; j < cyBle_aioscCharInstances[i]; j++)
 147:Generated_Source\PSoC4/Bluetooth_aios.c ****             {
 148:Generated_Source\PSoC4/Bluetooth_aios.c ****                 (void) memset(&cyBle_aiosc.charInfoAddr[i].charInfoPtr[j], 0, sizeof(CYBLE_AIOSC_CH
 149:Generated_Source\PSoC4/Bluetooth_aios.c ****             }
 150:Generated_Source\PSoC4/Bluetooth_aios.c ****         }
 151:Generated_Source\PSoC4/Bluetooth_aios.c ****     }
 152:Generated_Source\PSoC4/Bluetooth_aios.c ****     cyBle_aioscReqHandle = CYBLE_GATT_INVALID_ATTR_HANDLE_VALUE;
 153:Generated_Source\PSoC4/Bluetooth_aios.c ****     
 154:Generated_Source\PSoC4/Bluetooth_aios.c **** #endif /* CYBLE_AIOS_CLIENT */
 155:Generated_Source\PSoC4/Bluetooth_aios.c **** 
 156:Generated_Source\PSoC4/Bluetooth_aios.c **** #ifdef CYBLE_AIOS_SERVER
 157:Generated_Source\PSoC4/Bluetooth_aios.c ****     (void)CyBle_AiosSetAggregateChar();
 158:Generated_Source\PSoC4/Bluetooth_aios.c **** #endif /* CYBLE_AIOS_SERVER */
 159:Generated_Source\PSoC4/Bluetooth_aios.c **** 
 160:Generated_Source\PSoC4/Bluetooth_aios.c **** }
  33              		.loc 1 160 0
  34              		@ sp needed
  35 0000 7047     		bx	lr
  36              		.cfi_endproc
  37              	.LFE2:
  38              		.size	CyBle_AiosInit, .-CyBle_AiosInit
  39 0002 C046     		.section	.text.CyBle_AiosRegisterAttrCallback,"ax",%progbits
  40              		.align	2
  41              		.global	CyBle_AiosRegisterAttrCallback
  42              		.code	16
  43              		.thumb_func
  44              		.type	CyBle_AiosRegisterAttrCallback, %function
  45              	CyBle_AiosRegisterAttrCallback:
  46              	.LFB3:
 161:Generated_Source\PSoC4/Bluetooth_aios.c **** 
 162:Generated_Source\PSoC4/Bluetooth_aios.c **** /******************************************************************************
 163:Generated_Source\PSoC4/Bluetooth_aios.c **** * Function Name: CyBle_AiosRegisterAttrCallback
 164:Generated_Source\PSoC4/Bluetooth_aios.c **** ***************************************************************************//**
 165:Generated_Source\PSoC4/Bluetooth_aios.c **** * 
 166:Generated_Source\PSoC4/Bluetooth_aios.c **** *  Registers a callback function for service specific attribute operations.
 167:Generated_Source\PSoC4/Bluetooth_aios.c **** *  Service specific write requests from peer device will not be handled with
 168:Generated_Source\PSoC4/Bluetooth_aios.c **** *  unregistered callback function.
 169:Generated_Source\PSoC4/Bluetooth_aios.c **** * 
 170:Generated_Source\PSoC4/Bluetooth_aios.c **** *  \param callbackFunc:  An application layer event callback function to receive
 171:Generated_Source\PSoC4/Bluetooth_aios.c **** *                 events from the BLE Component. The definition of
 172:Generated_Source\PSoC4/Bluetooth_aios.c **** *                 CYBLE_CALLBACK_T for AIOS Service is:\n
 173:Generated_Source\PSoC4/Bluetooth_aios.c **** *                 typedef void (* CYBLE_CALLBACK_T) (uint32 eventCode,
 174:Generated_Source\PSoC4/Bluetooth_aios.c **** *                                                    void *eventParam)
 175:Generated_Source\PSoC4/Bluetooth_aios.c **** *                 * eventCode:  Indicates the event that triggered this callback
 176:Generated_Source\PSoC4/Bluetooth_aios.c **** *                   (e.g. CYBLE_EVT_AIOS_NOTIFICATION_ENABLED).
 177:Generated_Source\PSoC4/Bluetooth_aios.c **** *                 * eventParam: Contains the parameters corresponding to the
 178:Generated_Source\PSoC4/Bluetooth_aios.c **** *                   current event. (e.g. Pointer to CYBLE_AIOS_CHAR_VALUE_T
 179:Generated_Source\PSoC4/Bluetooth_aios.c **** *                   structure that contains details of the characteristic
 180:Generated_Source\PSoC4/Bluetooth_aios.c **** *                   for which the notification enabled event was triggered).
 181:Generated_Source\PSoC4/Bluetooth_aios.c **** * 
 182:Generated_Source\PSoC4/Bluetooth_aios.c **** ******************************************************************************/
ARM GAS  C:\Windows\TEMP\ccyNncCN.s 			page 5


 183:Generated_Source\PSoC4/Bluetooth_aios.c **** void CyBle_AiosRegisterAttrCallback(CYBLE_CALLBACK_T callbackFunc)
 184:Generated_Source\PSoC4/Bluetooth_aios.c **** {
  47              		.loc 1 184 0
  48              		.cfi_startproc
  49              		@ args = 0, pretend = 0, frame = 0
  50              		@ frame_needed = 0, uses_anonymous_args = 0
  51              		@ link register save eliminated.
  52              	.LVL0:
 185:Generated_Source\PSoC4/Bluetooth_aios.c ****     CyBle_AiosApplCallback = callbackFunc;
  53              		.loc 1 185 0
  54 0000 014B     		ldr	r3, .L3
  55 0002 1860     		str	r0, [r3]
 186:Generated_Source\PSoC4/Bluetooth_aios.c ****     
 187:Generated_Source\PSoC4/Bluetooth_aios.c **** }
  56              		.loc 1 187 0
  57              		@ sp needed
  58 0004 7047     		bx	lr
  59              	.L4:
  60 0006 C046     		.align	2
  61              	.L3:
  62 0008 00000000 		.word	.LANCHOR0
  63              		.cfi_endproc
  64              	.LFE3:
  65              		.size	CyBle_AiosRegisterAttrCallback, .-CyBle_AiosRegisterAttrCallback
  66              		.section	.text.CyBle_AiossGetCharacteristicValue,"ax",%progbits
  67              		.align	2
  68              		.global	CyBle_AiossGetCharacteristicValue
  69              		.code	16
  70              		.thumb_func
  71              		.type	CyBle_AiossGetCharacteristicValue, %function
  72              	CyBle_AiossGetCharacteristicValue:
  73              	.LFB6:
 188:Generated_Source\PSoC4/Bluetooth_aios.c **** 
 189:Generated_Source\PSoC4/Bluetooth_aios.c **** #ifdef CYBLE_AIOS_SERVER
 190:Generated_Source\PSoC4/Bluetooth_aios.c **** 
 191:Generated_Source\PSoC4/Bluetooth_aios.c **** /******************************************************************************
 192:Generated_Source\PSoC4/Bluetooth_aios.c **** * Function Name: CyBle_AiossWriteEventHandler
 193:Generated_Source\PSoC4/Bluetooth_aios.c **** ***************************************************************************//**
 194:Generated_Source\PSoC4/Bluetooth_aios.c **** * 
 195:Generated_Source\PSoC4/Bluetooth_aios.c **** *  Handles the Write Request Event.
 196:Generated_Source\PSoC4/Bluetooth_aios.c **** * 
 197:Generated_Source\PSoC4/Bluetooth_aios.c **** *  \param eventParam: The pointer to the data structure specified by the event.
 198:Generated_Source\PSoC4/Bluetooth_aios.c **** * 
 199:Generated_Source\PSoC4/Bluetooth_aios.c **** * \return
 200:Generated_Source\PSoC4/Bluetooth_aios.c **** *  CYBLE_GATT_ERR_CODE_T - A function return state if it succeeded
 201:Generated_Source\PSoC4/Bluetooth_aios.c **** *  (CYBLE_GATT_ERR_NONE) or failed with error codes:
 202:Generated_Source\PSoC4/Bluetooth_aios.c **** *   * CYBLE_GATTS_ERR_PROCEDURE_ALREADY_IN_PROGRESS - profile or service
 203:Generated_Source\PSoC4/Bluetooth_aios.c **** *                           request cannot be serviced because an operation t
 204:Generated_Source\PSoC4/Bluetooth_aios.c **** *                           hat has been previously triggered is still in
 205:Generated_Source\PSoC4/Bluetooth_aios.c **** *                           progress.
 206:Generated_Source\PSoC4/Bluetooth_aios.c **** *   * CYBLE_GATTS_ERR_CCCD_IMPROPERLY_CONFIGURED - Client Characteristic 
 207:Generated_Source\PSoC4/Bluetooth_aios.c ****                             Configuration descriptor is not configured according
 208:Generated_Source\PSoC4/Bluetooth_aios.c **** *                           to the requirements of the profile or service.       
 209:Generated_Source\PSoC4/Bluetooth_aios.c **** * 
 210:Generated_Source\PSoC4/Bluetooth_aios.c **** ******************************************************************************/
 211:Generated_Source\PSoC4/Bluetooth_aios.c **** CYBLE_GATT_ERR_CODE_T CyBle_AiossWriteEventHandler(CYBLE_GATTS_WRITE_REQ_PARAM_T *eventParam)
 212:Generated_Source\PSoC4/Bluetooth_aios.c **** {
ARM GAS  C:\Windows\TEMP\ccyNncCN.s 			page 6


 213:Generated_Source\PSoC4/Bluetooth_aios.c ****     uint8 i;
 214:Generated_Source\PSoC4/Bluetooth_aios.c ****     uint8 j;
 215:Generated_Source\PSoC4/Bluetooth_aios.c ****     CYBLE_GATT_ERR_CODE_T gattErr = CYBLE_GATT_ERR_NONE;
 216:Generated_Source\PSoC4/Bluetooth_aios.c ****     CYBLE_GATT_DB_ATTR_HANDLE_T tmpHandle;
 217:Generated_Source\PSoC4/Bluetooth_aios.c ****     uint8 foundItem = CYBLE_AIOS_UNDEFINED_ITEM;
 218:Generated_Source\PSoC4/Bluetooth_aios.c ****     CYBLE_AIOSS_CHAR_T *aiosCharInfoPtr;
 219:Generated_Source\PSoC4/Bluetooth_aios.c ****     CYBLE_AIOS_DESCR_VALUE_T wrDescrReqParam;
 220:Generated_Source\PSoC4/Bluetooth_aios.c ****     uint32 event = 0u;
 221:Generated_Source\PSoC4/Bluetooth_aios.c ****     CYBLE_AIOS_CHAR_VALUE_T wrCharReqParam;
 222:Generated_Source\PSoC4/Bluetooth_aios.c ****     uint8 descInd;
 223:Generated_Source\PSoC4/Bluetooth_aios.c ****     
 224:Generated_Source\PSoC4/Bluetooth_aios.c ****     tmpHandle = eventParam->handleValPair.attrHandle;
 225:Generated_Source\PSoC4/Bluetooth_aios.c ****     
 226:Generated_Source\PSoC4/Bluetooth_aios.c ****     if(CyBle_AiosApplCallback != NULL)
 227:Generated_Source\PSoC4/Bluetooth_aios.c ****     {
 228:Generated_Source\PSoC4/Bluetooth_aios.c ****         /* Go through all possible Service characteristics.
 229:Generated_Source\PSoC4/Bluetooth_aios.c ****         * Exit the handler in following conditions:
 230:Generated_Source\PSoC4/Bluetooth_aios.c ****         * 1) No more characteristic left;
 231:Generated_Source\PSoC4/Bluetooth_aios.c ****         * 2) Characteristic or descriptor was successfully written;
 232:Generated_Source\PSoC4/Bluetooth_aios.c ****         * 3) Error occurred while writing characteristic or descriptor.
 233:Generated_Source\PSoC4/Bluetooth_aios.c ****         */
 234:Generated_Source\PSoC4/Bluetooth_aios.c ****         for(i = 0u; ((i < ((uint8) CYBLE_AIOS_CHAR_COUNT)) && (foundItem == 0u) && (gattErr == CYBL
 235:Generated_Source\PSoC4/Bluetooth_aios.c ****             i++)
 236:Generated_Source\PSoC4/Bluetooth_aios.c ****         {
 237:Generated_Source\PSoC4/Bluetooth_aios.c ****             /* Check if characteristic is enabled. If the pointer to the characteristic
 238:Generated_Source\PSoC4/Bluetooth_aios.c ****             * is not "NULL", there is at least one instance of the characteristic in
 239:Generated_Source\PSoC4/Bluetooth_aios.c ****             * the AIO Service.
 240:Generated_Source\PSoC4/Bluetooth_aios.c ****             */
 241:Generated_Source\PSoC4/Bluetooth_aios.c ****             
 242:Generated_Source\PSoC4/Bluetooth_aios.c ****             if(cyBle_aioss.charInfoAddr[i].charInfoPtr != NULL)
 243:Generated_Source\PSoC4/Bluetooth_aios.c ****             {   
 244:Generated_Source\PSoC4/Bluetooth_aios.c ****                 for(j = 0u; j < cyBle_aiossCharInstances[i]; j++)
 245:Generated_Source\PSoC4/Bluetooth_aios.c ****                 {
 246:Generated_Source\PSoC4/Bluetooth_aios.c ****                     aiosCharInfoPtr = &cyBle_aioss.charInfoAddr[i].charInfoPtr[j];
 247:Generated_Source\PSoC4/Bluetooth_aios.c ****                     
 248:Generated_Source\PSoC4/Bluetooth_aios.c ****                     /* Client Characteristic Write Request handling */
 249:Generated_Source\PSoC4/Bluetooth_aios.c ****                     if(tmpHandle == aiosCharInfoPtr->charHandle)
 250:Generated_Source\PSoC4/Bluetooth_aios.c ****                     {
 251:Generated_Source\PSoC4/Bluetooth_aios.c ****                         wrDescrReqParam.descrIndex = CYBLE_AIOS_DESCR_COUNT;
 252:Generated_Source\PSoC4/Bluetooth_aios.c ****                         foundItem = CYBLE_AIOS_CHARACTERISTIC_ITEM;
 253:Generated_Source\PSoC4/Bluetooth_aios.c ****                     }                
 254:Generated_Source\PSoC4/Bluetooth_aios.c ****                     
 255:Generated_Source\PSoC4/Bluetooth_aios.c ****                     /* Client Characteristic Descriptor Write Request handling */
 256:Generated_Source\PSoC4/Bluetooth_aios.c ****                     else
 257:Generated_Source\PSoC4/Bluetooth_aios.c ****                     {
 258:Generated_Source\PSoC4/Bluetooth_aios.c ****                         /* No handle match was found */
 259:Generated_Source\PSoC4/Bluetooth_aios.c ****                         wrDescrReqParam.descrIndex = CYBLE_AIOS_DESCR_COUNT;
 260:Generated_Source\PSoC4/Bluetooth_aios.c ****                         
 261:Generated_Source\PSoC4/Bluetooth_aios.c ****                         for(descInd = 0u; (descInd < (uint8)CYBLE_AIOS_DESCR_COUNT) && (foundItem !
 262:Generated_Source\PSoC4/Bluetooth_aios.c ****                         {
 263:Generated_Source\PSoC4/Bluetooth_aios.c **** 	                        if(aiosCharInfoPtr->descrHandle[descInd] == tmpHandle)
 264:Generated_Source\PSoC4/Bluetooth_aios.c **** 	                        {
 265:Generated_Source\PSoC4/Bluetooth_aios.c **** 		                        wrDescrReqParam.descrIndex = (CYBLE_AIOS_DESCR_INDEX_T)descInd;
 266:Generated_Source\PSoC4/Bluetooth_aios.c **** 		                        foundItem = CYBLE_AIOS_DESCRIPTOR_ITEM;
 267:Generated_Source\PSoC4/Bluetooth_aios.c **** 	                        }
 268:Generated_Source\PSoC4/Bluetooth_aios.c ****                         }
 269:Generated_Source\PSoC4/Bluetooth_aios.c ****                     }
ARM GAS  C:\Windows\TEMP\ccyNncCN.s 			page 7


 270:Generated_Source\PSoC4/Bluetooth_aios.c ****                        
 271:Generated_Source\PSoC4/Bluetooth_aios.c ****                     /* Verify if requested handle was found and successfully handled */
 272:Generated_Source\PSoC4/Bluetooth_aios.c ****                     if((gattErr == CYBLE_GATT_ERR_NONE) && (foundItem == CYBLE_AIOS_DESCRIPTOR_ITEM
 273:Generated_Source\PSoC4/Bluetooth_aios.c ****                     {
 274:Generated_Source\PSoC4/Bluetooth_aios.c ****                         switch(wrDescrReqParam.descrIndex)
 275:Generated_Source\PSoC4/Bluetooth_aios.c ****                         {
 276:Generated_Source\PSoC4/Bluetooth_aios.c ****                         case CYBLE_AIOS_CCCD :
 277:Generated_Source\PSoC4/Bluetooth_aios.c ****                              /* Verify that optional notification property is enabled for character
 278:Generated_Source\PSoC4/Bluetooth_aios.c ****                             if(CYBLE_IS_NOTIFICATION_SUPPORTED(aiosCharInfoPtr->charHandle))
 279:Generated_Source\PSoC4/Bluetooth_aios.c ****                             {
 280:Generated_Source\PSoC4/Bluetooth_aios.c ****                                 if(CYBLE_IS_NOTIFICATION_ENABLED_IN_PTR(eventParam->handleValPair.v
 281:Generated_Source\PSoC4/Bluetooth_aios.c ****                                 {
 282:Generated_Source\PSoC4/Bluetooth_aios.c ****                                     event = (uint32)CYBLE_EVT_AIOSS_NOTIFICATION_ENABLED;
 283:Generated_Source\PSoC4/Bluetooth_aios.c ****                                 }
 284:Generated_Source\PSoC4/Bluetooth_aios.c ****                                 else
 285:Generated_Source\PSoC4/Bluetooth_aios.c ****                                 {
 286:Generated_Source\PSoC4/Bluetooth_aios.c ****                                     event = (uint32)CYBLE_EVT_AIOSS_NOTIFICATION_DISABLED;
 287:Generated_Source\PSoC4/Bluetooth_aios.c ****                                 }
 288:Generated_Source\PSoC4/Bluetooth_aios.c **** 
 289:Generated_Source\PSoC4/Bluetooth_aios.c ****                             #if((CYBLE_GAP_ROLE_PERIPHERAL || CYBLE_GAP_ROLE_CENTRAL) && \
 290:Generated_Source\PSoC4/Bluetooth_aios.c ****                                 (CYBLE_BONDING_REQUIREMENT == CYBLE_BONDING_YES))
 291:Generated_Source\PSoC4/Bluetooth_aios.c ****                                 /* Set flag to store bonding data to flash */
 292:Generated_Source\PSoC4/Bluetooth_aios.c ****                                 if(cyBle_peerBonding == CYBLE_GAP_BONDING)
 293:Generated_Source\PSoC4/Bluetooth_aios.c ****                                 {
 294:Generated_Source\PSoC4/Bluetooth_aios.c ****                                     cyBle_pendingFlashWrite |= CYBLE_PENDING_CCCD_FLASH_WRITE_BIT;
 295:Generated_Source\PSoC4/Bluetooth_aios.c ****                                 }
 296:Generated_Source\PSoC4/Bluetooth_aios.c ****                             #endif /* (CYBLE_BONDING_REQUIREMENT == CYBLE_BONDING_YES) */
 297:Generated_Source\PSoC4/Bluetooth_aios.c ****                             }
 298:Generated_Source\PSoC4/Bluetooth_aios.c ****                             else if(CYBLE_IS_INDICATION_SUPPORTED(aiosCharInfoPtr->charHandle))
 299:Generated_Source\PSoC4/Bluetooth_aios.c ****                             {
 300:Generated_Source\PSoC4/Bluetooth_aios.c ****                                 if(CYBLE_IS_INDICATION_ENABLED_IN_PTR(eventParam->handleValPair.val
 301:Generated_Source\PSoC4/Bluetooth_aios.c ****                                 {
 302:Generated_Source\PSoC4/Bluetooth_aios.c ****                                     event = (uint32)CYBLE_EVT_AIOSS_INDICATION_ENABLED;
 303:Generated_Source\PSoC4/Bluetooth_aios.c ****                                 }
 304:Generated_Source\PSoC4/Bluetooth_aios.c ****                                 else
 305:Generated_Source\PSoC4/Bluetooth_aios.c ****                                 {
 306:Generated_Source\PSoC4/Bluetooth_aios.c ****                                     event = (uint32)CYBLE_EVT_AIOSS_INDICATION_DISABLED;
 307:Generated_Source\PSoC4/Bluetooth_aios.c ****                                 }
 308:Generated_Source\PSoC4/Bluetooth_aios.c **** 
 309:Generated_Source\PSoC4/Bluetooth_aios.c ****                             #if((CYBLE_GAP_ROLE_PERIPHERAL || CYBLE_GAP_ROLE_CENTRAL) && \
 310:Generated_Source\PSoC4/Bluetooth_aios.c ****                                 (CYBLE_BONDING_REQUIREMENT == CYBLE_BONDING_YES))
 311:Generated_Source\PSoC4/Bluetooth_aios.c ****                                 /* Set flag to store bonding data to flash */
 312:Generated_Source\PSoC4/Bluetooth_aios.c ****                                 if(cyBle_peerBonding == CYBLE_GAP_BONDING)
 313:Generated_Source\PSoC4/Bluetooth_aios.c ****                                 {
 314:Generated_Source\PSoC4/Bluetooth_aios.c ****                                     cyBle_pendingFlashWrite |= CYBLE_PENDING_CCCD_FLASH_WRITE_BIT;
 315:Generated_Source\PSoC4/Bluetooth_aios.c ****                                 }
 316:Generated_Source\PSoC4/Bluetooth_aios.c ****                             #endif /* (CYBLE_BONDING_REQUIREMENT == CYBLE_BONDING_YES) */
 317:Generated_Source\PSoC4/Bluetooth_aios.c ****                             }
 318:Generated_Source\PSoC4/Bluetooth_aios.c ****                             else
 319:Generated_Source\PSoC4/Bluetooth_aios.c ****                             {
 320:Generated_Source\PSoC4/Bluetooth_aios.c ****                                 gattErr = CYBLE_GATT_ERR_REQUEST_NOT_SUPPORTED;
 321:Generated_Source\PSoC4/Bluetooth_aios.c ****                             }
 322:Generated_Source\PSoC4/Bluetooth_aios.c ****                             break;
 323:Generated_Source\PSoC4/Bluetooth_aios.c ****                             
 324:Generated_Source\PSoC4/Bluetooth_aios.c ****                         case CYBLE_AIOS_CHAR_USER_DESCRIPTION_DESCR:
 325:Generated_Source\PSoC4/Bluetooth_aios.c ****                             if(CYBLE_GATT_DB_ATTR_GET_ATTR_GEN_MAX_LEN(
 326:Generated_Source\PSoC4/Bluetooth_aios.c ****                                 aiosCharInfoPtr->descrHandle[CYBLE_AIOS_CHAR_USER_DESCRIPTION_DESCR
ARM GAS  C:\Windows\TEMP\ccyNncCN.s 			page 8


 327:Generated_Source\PSoC4/Bluetooth_aios.c ****                                     eventParam->handleValPair.value.len)
 328:Generated_Source\PSoC4/Bluetooth_aios.c ****                             {
 329:Generated_Source\PSoC4/Bluetooth_aios.c ****                                 /* Set new length of the descriptor value */
 330:Generated_Source\PSoC4/Bluetooth_aios.c ****                                 CYBLE_GATT_DB_ATTR_SET_ATTR_GEN_LEN(
 331:Generated_Source\PSoC4/Bluetooth_aios.c ****                                     aiosCharInfoPtr->descrHandle[CYBLE_AIOS_CHAR_USER_DESCRIPTION_D
 332:Generated_Source\PSoC4/Bluetooth_aios.c ****                                         eventParam->handleValPair.value.len);
 333:Generated_Source\PSoC4/Bluetooth_aios.c ****                             }
 334:Generated_Source\PSoC4/Bluetooth_aios.c ****                             else
 335:Generated_Source\PSoC4/Bluetooth_aios.c ****                             {
 336:Generated_Source\PSoC4/Bluetooth_aios.c ****                                 gattErr = CYBLE_GATT_ERR_INVALID_ATTRIBUTE_LEN;
 337:Generated_Source\PSoC4/Bluetooth_aios.c ****                             }
 338:Generated_Source\PSoC4/Bluetooth_aios.c ****                             break;
 339:Generated_Source\PSoC4/Bluetooth_aios.c ****                         
 340:Generated_Source\PSoC4/Bluetooth_aios.c ****                         case CYBLE_AIOS_VALUE_TRIGGER_SETTINGS:  
 341:Generated_Source\PSoC4/Bluetooth_aios.c ****                             /* Trigger condition value not supported.*/
 342:Generated_Source\PSoC4/Bluetooth_aios.c ****                             if( eventParam->handleValPair.value.val[0u] >= CYBLE_AIOS_VALUE_TRIGGER
 343:Generated_Source\PSoC4/Bluetooth_aios.c ****                             {
 344:Generated_Source\PSoC4/Bluetooth_aios.c ****                                 gattErr = CYBLE_GATT_ERR_TRIGGER_CODITION_VALUE_NOT_SUPPORTED;
 345:Generated_Source\PSoC4/Bluetooth_aios.c ****                             }
 346:Generated_Source\PSoC4/Bluetooth_aios.c ****                             break;
 347:Generated_Source\PSoC4/Bluetooth_aios.c **** 
 348:Generated_Source\PSoC4/Bluetooth_aios.c ****                         case CYBLE_AIOS_TIME_TRIGGER_SETTINGS:     
 349:Generated_Source\PSoC4/Bluetooth_aios.c ****                             /* Trigger condition value not supported.*/
 350:Generated_Source\PSoC4/Bluetooth_aios.c ****                             if( eventParam->handleValPair.value.val[0u] >= CYBLE_AIOS_TIME_TRIGGER_
 351:Generated_Source\PSoC4/Bluetooth_aios.c ****                             {
 352:Generated_Source\PSoC4/Bluetooth_aios.c ****                                 gattErr = CYBLE_GATT_ERR_TRIGGER_CODITION_VALUE_NOT_SUPPORTED;
 353:Generated_Source\PSoC4/Bluetooth_aios.c ****                             }
 354:Generated_Source\PSoC4/Bluetooth_aios.c ****                             break;
 355:Generated_Source\PSoC4/Bluetooth_aios.c ****                             
 356:Generated_Source\PSoC4/Bluetooth_aios.c ****                         default:
 357:Generated_Source\PSoC4/Bluetooth_aios.c ****                             break;
 358:Generated_Source\PSoC4/Bluetooth_aios.c ****                         }    
 359:Generated_Source\PSoC4/Bluetooth_aios.c ****                     }                    
 360:Generated_Source\PSoC4/Bluetooth_aios.c ****                     
 361:Generated_Source\PSoC4/Bluetooth_aios.c ****                     /* Check is there no error conditions happen yet */
 362:Generated_Source\PSoC4/Bluetooth_aios.c ****                     if((gattErr == CYBLE_GATT_ERR_NONE)
 363:Generated_Source\PSoC4/Bluetooth_aios.c ****                     && ( (foundItem == CYBLE_AIOS_CHARACTERISTIC_ITEM) || (foundItem == CYBLE_AIOS_
 364:Generated_Source\PSoC4/Bluetooth_aios.c ****                     {
 365:Generated_Source\PSoC4/Bluetooth_aios.c ****                         gattErr = CyBle_GattDbCheckPermission(eventParam->handleValPair.attrHandle,
 366:Generated_Source\PSoC4/Bluetooth_aios.c ****                                                               &eventParam->connHandle,
 367:Generated_Source\PSoC4/Bluetooth_aios.c ****                                                               CYBLE_GATT_DB_WRITE | CYBLE_GATT_DB_P
 368:Generated_Source\PSoC4/Bluetooth_aios.c ****                         
 369:Generated_Source\PSoC4/Bluetooth_aios.c ****                         if(gattErr == CYBLE_GATT_ERR_NONE)
 370:Generated_Source\PSoC4/Bluetooth_aios.c ****                         {
 371:Generated_Source\PSoC4/Bluetooth_aios.c ****                             /* Fill data and pass it to user */
 372:Generated_Source\PSoC4/Bluetooth_aios.c ****                                                           
 373:Generated_Source\PSoC4/Bluetooth_aios.c ****                             if( foundItem == CYBLE_AIOS_CHARACTERISTIC_ITEM)
 374:Generated_Source\PSoC4/Bluetooth_aios.c ****                             {
 375:Generated_Source\PSoC4/Bluetooth_aios.c ****                                 wrCharReqParam.connHandle = eventParam->connHandle;
 376:Generated_Source\PSoC4/Bluetooth_aios.c ****                                 wrCharReqParam.charIndex = (CYBLE_AIOS_CHAR_INDEX_T) i;
 377:Generated_Source\PSoC4/Bluetooth_aios.c ****                                 wrCharReqParam.charInstance = j;
 378:Generated_Source\PSoC4/Bluetooth_aios.c ****                                 wrCharReqParam.gattErrorCode = CYBLE_GATT_ERR_NONE;
 379:Generated_Source\PSoC4/Bluetooth_aios.c ****                                 wrCharReqParam.value = &eventParam->handleValPair.value;
 380:Generated_Source\PSoC4/Bluetooth_aios.c ****                             
 381:Generated_Source\PSoC4/Bluetooth_aios.c ****                                 CyBle_AiosApplCallback(CYBLE_EVT_AIOSS_CHAR_WRITE, &wrCharReqParam)
 382:Generated_Source\PSoC4/Bluetooth_aios.c ****                             }
 383:Generated_Source\PSoC4/Bluetooth_aios.c ****                             else if (foundItem == CYBLE_AIOS_DESCRIPTOR_ITEM)
ARM GAS  C:\Windows\TEMP\ccyNncCN.s 			page 9


 384:Generated_Source\PSoC4/Bluetooth_aios.c ****                             {
 385:Generated_Source\PSoC4/Bluetooth_aios.c ****                                 wrDescrReqParam.connHandle = eventParam->connHandle;
 386:Generated_Source\PSoC4/Bluetooth_aios.c ****                                 wrDescrReqParam.charIndex = (CYBLE_AIOS_CHAR_INDEX_T) i;
 387:Generated_Source\PSoC4/Bluetooth_aios.c ****                                 wrDescrReqParam.charInstance = j;
 388:Generated_Source\PSoC4/Bluetooth_aios.c ****                                 wrDescrReqParam.gattErrorCode = CYBLE_GATT_ERR_NONE;
 389:Generated_Source\PSoC4/Bluetooth_aios.c ****                                 wrDescrReqParam.value = &eventParam->handleValPair.value;
 390:Generated_Source\PSoC4/Bluetooth_aios.c ****                             
 391:Generated_Source\PSoC4/Bluetooth_aios.c ****                                 CyBle_AiosApplCallback(CYBLE_EVT_AIOSS_DESCR_WRITE, &wrDescrReqPara
 392:Generated_Source\PSoC4/Bluetooth_aios.c ****                             }
 393:Generated_Source\PSoC4/Bluetooth_aios.c ****                             else 
 394:Generated_Source\PSoC4/Bluetooth_aios.c ****                             {
 395:Generated_Source\PSoC4/Bluetooth_aios.c ****                                 /* No handle match was found */
 396:Generated_Source\PSoC4/Bluetooth_aios.c ****                             }
 397:Generated_Source\PSoC4/Bluetooth_aios.c **** 
 398:Generated_Source\PSoC4/Bluetooth_aios.c ****                             /* Write value to GATT database */
 399:Generated_Source\PSoC4/Bluetooth_aios.c ****                             gattErr = CyBle_GattsWriteAttributeValue(&eventParam->handleValPair, 0u
 400:Generated_Source\PSoC4/Bluetooth_aios.c ****                                 &eventParam->connHandle, CYBLE_GATT_DB_PEER_INITIATED);
 401:Generated_Source\PSoC4/Bluetooth_aios.c ****                             
 402:Generated_Source\PSoC4/Bluetooth_aios.c ****                             if( event != 0u )
 403:Generated_Source\PSoC4/Bluetooth_aios.c ****                             {   
 404:Generated_Source\PSoC4/Bluetooth_aios.c ****                                 CyBle_AiosApplCallback(event, &wrDescrReqParam);
 405:Generated_Source\PSoC4/Bluetooth_aios.c ****                             }
 406:Generated_Source\PSoC4/Bluetooth_aios.c ****                             else 
 407:Generated_Source\PSoC4/Bluetooth_aios.c ****                             {
 408:Generated_Source\PSoC4/Bluetooth_aios.c ****                                 /* No event was found */
 409:Generated_Source\PSoC4/Bluetooth_aios.c ****                             }
 410:Generated_Source\PSoC4/Bluetooth_aios.c ****                         }
 411:Generated_Source\PSoC4/Bluetooth_aios.c ****                         cyBle_eventHandlerFlag &= (uint8)~CYBLE_CALLBACK;
 412:Generated_Source\PSoC4/Bluetooth_aios.c ****                         break;
 413:Generated_Source\PSoC4/Bluetooth_aios.c ****                     }
 414:Generated_Source\PSoC4/Bluetooth_aios.c ****                 }
 415:Generated_Source\PSoC4/Bluetooth_aios.c ****             }
 416:Generated_Source\PSoC4/Bluetooth_aios.c ****         }
 417:Generated_Source\PSoC4/Bluetooth_aios.c ****     }
 418:Generated_Source\PSoC4/Bluetooth_aios.c **** 
 419:Generated_Source\PSoC4/Bluetooth_aios.c ****     if(gattErr != CYBLE_GATT_ERR_NONE )
 420:Generated_Source\PSoC4/Bluetooth_aios.c ****     {
 421:Generated_Source\PSoC4/Bluetooth_aios.c ****         /* Indicate that request was handled */
 422:Generated_Source\PSoC4/Bluetooth_aios.c ****         cyBle_eventHandlerFlag &= (uint8)~CYBLE_CALLBACK;
 423:Generated_Source\PSoC4/Bluetooth_aios.c ****     }
 424:Generated_Source\PSoC4/Bluetooth_aios.c ****     else
 425:Generated_Source\PSoC4/Bluetooth_aios.c ****     {   
 426:Generated_Source\PSoC4/Bluetooth_aios.c ****         if( foundItem == CYBLE_AIOS_CHARACTERISTIC_ITEM )
 427:Generated_Source\PSoC4/Bluetooth_aios.c ****         {
 428:Generated_Source\PSoC4/Bluetooth_aios.c ****             gattErr = CyBle_AiosSetAggregateChar();
 429:Generated_Source\PSoC4/Bluetooth_aios.c ****         }
 430:Generated_Source\PSoC4/Bluetooth_aios.c ****     }
 431:Generated_Source\PSoC4/Bluetooth_aios.c ****     
 432:Generated_Source\PSoC4/Bluetooth_aios.c ****     return (gattErr);
 433:Generated_Source\PSoC4/Bluetooth_aios.c **** }
 434:Generated_Source\PSoC4/Bluetooth_aios.c **** 
 435:Generated_Source\PSoC4/Bluetooth_aios.c **** /******************************************************************************
 436:Generated_Source\PSoC4/Bluetooth_aios.c **** * Function Name: CyBle_AiossSetCharacteristicValue
 437:Generated_Source\PSoC4/Bluetooth_aios.c **** ***************************************************************************//**
 438:Generated_Source\PSoC4/Bluetooth_aios.c **** * 
 439:Generated_Source\PSoC4/Bluetooth_aios.c **** *  Sets the characteristic value of the service in the local database.
 440:Generated_Source\PSoC4/Bluetooth_aios.c **** * 
ARM GAS  C:\Windows\TEMP\ccyNncCN.s 			page 10


 441:Generated_Source\PSoC4/Bluetooth_aios.c **** *  \param charIndex:    The index of the service characteristic. Starts with 
 442:Generated_Source\PSoC4/Bluetooth_aios.c **** *                       zero.
 443:Generated_Source\PSoC4/Bluetooth_aios.c **** *  \param charInstance: The instance number of the characteristic specified by
 444:Generated_Source\PSoC4/Bluetooth_aios.c **** *                       "charIndex".
 445:Generated_Source\PSoC4/Bluetooth_aios.c **** *  \param attrSize:     The size (in bytes) of the characteristic value 
 446:Generated_Source\PSoC4/Bluetooth_aios.c **** *                       attribute.
 447:Generated_Source\PSoC4/Bluetooth_aios.c **** *  \param attrValue:    The pointer to the characteristic value data that 
 448:Generated_Source\PSoC4/Bluetooth_aios.c **** *                       should be stored in the GATT database.
 449:Generated_Source\PSoC4/Bluetooth_aios.c **** * 
 450:Generated_Source\PSoC4/Bluetooth_aios.c **** * \return
 451:Generated_Source\PSoC4/Bluetooth_aios.c **** *  A return value is of type CYBLE_API_RESULT_T.
 452:Generated_Source\PSoC4/Bluetooth_aios.c **** *  * CYBLE_ERROR_OK - The request handled successfully.
 453:Generated_Source\PSoC4/Bluetooth_aios.c **** *  * CYBLE_ERROR_INVALID_PARAMETER - Validation of the input parameter failed.
 454:Generated_Source\PSoC4/Bluetooth_aios.c **** *  * CYBLE_ERROR_GATT_DB_INVALID_ATTR_HANDLE - An optional characteristic is
 455:Generated_Source\PSoC4/Bluetooth_aios.c **** *                                              absent.
 456:Generated_Source\PSoC4/Bluetooth_aios.c **** ******************************************************************************/
 457:Generated_Source\PSoC4/Bluetooth_aios.c **** CYBLE_API_RESULT_T CyBle_AiossSetCharacteristicValue(CYBLE_AIOS_CHAR_INDEX_T charIndex,
 458:Generated_Source\PSoC4/Bluetooth_aios.c ****     uint8 charInstance, uint8 attrSize, uint8 *attrValue)
 459:Generated_Source\PSoC4/Bluetooth_aios.c **** {
 460:Generated_Source\PSoC4/Bluetooth_aios.c ****     CYBLE_API_RESULT_T apiResult = CYBLE_ERROR_INVALID_PARAMETER;
 461:Generated_Source\PSoC4/Bluetooth_aios.c **** 
 462:Generated_Source\PSoC4/Bluetooth_aios.c ****     /* Validate range of AIOS characteristics */
 463:Generated_Source\PSoC4/Bluetooth_aios.c ****     if((charIndex < CYBLE_AIOS_CHAR_COUNT) && (charInstance < cyBle_aiossCharInstances[charIndex]))
 464:Generated_Source\PSoC4/Bluetooth_aios.c ****     {
 465:Generated_Source\PSoC4/Bluetooth_aios.c ****         /* Check if requested characteristic is present in Service.
 466:Generated_Source\PSoC4/Bluetooth_aios.c ****         * There are three conditions which should be checked: 1) The pointer to
 467:Generated_Source\PSoC4/Bluetooth_aios.c ****         * "CYBLE_AIOS_CHAR_T" is not NULL, 2) The handle of the characteristic is
 468:Generated_Source\PSoC4/Bluetooth_aios.c ****         * a valid handle, 3) The requested instance is a valid characteristic
 469:Generated_Source\PSoC4/Bluetooth_aios.c ****         * instance.
 470:Generated_Source\PSoC4/Bluetooth_aios.c ****         */
 471:Generated_Source\PSoC4/Bluetooth_aios.c ****         if((cyBle_aioss.charInfoAddr[charIndex].charInfoPtr != NULL) &&
 472:Generated_Source\PSoC4/Bluetooth_aios.c ****             (CYBLE_GATT_INVALID_ATTR_HANDLE_VALUE !=
 473:Generated_Source\PSoC4/Bluetooth_aios.c ****                 cyBle_aioss.charInfoAddr[charIndex].charInfoPtr[charInstance].charHandle))
 474:Generated_Source\PSoC4/Bluetooth_aios.c ****         {
 475:Generated_Source\PSoC4/Bluetooth_aios.c ****             CYBLE_GATT_HANDLE_VALUE_PAIR_T locHandleValuePair;
 476:Generated_Source\PSoC4/Bluetooth_aios.c **** 
 477:Generated_Source\PSoC4/Bluetooth_aios.c ****             locHandleValuePair.attrHandle =
 478:Generated_Source\PSoC4/Bluetooth_aios.c ****                 cyBle_aioss.charInfoAddr[charIndex].charInfoPtr[charInstance].charHandle;
 479:Generated_Source\PSoC4/Bluetooth_aios.c ****             locHandleValuePair.value.len = attrSize;
 480:Generated_Source\PSoC4/Bluetooth_aios.c ****             locHandleValuePair.value.val = attrValue;
 481:Generated_Source\PSoC4/Bluetooth_aios.c **** 
 482:Generated_Source\PSoC4/Bluetooth_aios.c ****             /* Store data in database */
 483:Generated_Source\PSoC4/Bluetooth_aios.c ****             if(CyBle_GattsWriteAttributeValue(&locHandleValuePair, 0u, NULL, CYBLE_GATT_DB_LOCALLY_
 484:Generated_Source\PSoC4/Bluetooth_aios.c ****                 CYBLE_GATT_ERR_NONE)
 485:Generated_Source\PSoC4/Bluetooth_aios.c ****             {
 486:Generated_Source\PSoC4/Bluetooth_aios.c ****                 apiResult = CYBLE_ERROR_OK;
 487:Generated_Source\PSoC4/Bluetooth_aios.c ****             }
 488:Generated_Source\PSoC4/Bluetooth_aios.c ****         }
 489:Generated_Source\PSoC4/Bluetooth_aios.c ****         else
 490:Generated_Source\PSoC4/Bluetooth_aios.c ****         {
 491:Generated_Source\PSoC4/Bluetooth_aios.c ****             apiResult = CYBLE_ERROR_GATT_DB_INVALID_ATTR_HANDLE;
 492:Generated_Source\PSoC4/Bluetooth_aios.c ****         }
 493:Generated_Source\PSoC4/Bluetooth_aios.c ****     }
 494:Generated_Source\PSoC4/Bluetooth_aios.c ****     
 495:Generated_Source\PSoC4/Bluetooth_aios.c ****     if ( apiResult == CYBLE_ERROR_OK )
 496:Generated_Source\PSoC4/Bluetooth_aios.c ****     {   
 497:Generated_Source\PSoC4/Bluetooth_aios.c ****         if(CyBle_AiosSetAggregateChar() != CYBLE_GATT_ERR_NONE)
ARM GAS  C:\Windows\TEMP\ccyNncCN.s 			page 11


 498:Generated_Source\PSoC4/Bluetooth_aios.c ****         {   
 499:Generated_Source\PSoC4/Bluetooth_aios.c ****             apiResult = CYBLE_ERROR_GATT_DB_INVALID_ATTR_HANDLE;
 500:Generated_Source\PSoC4/Bluetooth_aios.c ****         }
 501:Generated_Source\PSoC4/Bluetooth_aios.c ****     }
 502:Generated_Source\PSoC4/Bluetooth_aios.c ****     
 503:Generated_Source\PSoC4/Bluetooth_aios.c ****     return (apiResult);
 504:Generated_Source\PSoC4/Bluetooth_aios.c **** }
 505:Generated_Source\PSoC4/Bluetooth_aios.c **** 
 506:Generated_Source\PSoC4/Bluetooth_aios.c **** /******************************************************************************
 507:Generated_Source\PSoC4/Bluetooth_aios.c **** * Function Name: CyBle_AiossGetCharacteristicValue
 508:Generated_Source\PSoC4/Bluetooth_aios.c **** ***************************************************************************//**
 509:Generated_Source\PSoC4/Bluetooth_aios.c **** * 
 510:Generated_Source\PSoC4/Bluetooth_aios.c **** *  Gets the characteristic value of the service, which is a value identified by
 511:Generated_Source\PSoC4/Bluetooth_aios.c **** *  charIndex.
 512:Generated_Source\PSoC4/Bluetooth_aios.c **** * 
 513:Generated_Source\PSoC4/Bluetooth_aios.c **** *  \param charIndex:    The index of the service characteristic. Starts with 
 514:Generated_Source\PSoC4/Bluetooth_aios.c **** *                       zero.
 515:Generated_Source\PSoC4/Bluetooth_aios.c **** *  \param charInstance: The instance number of the characteristic specified by
 516:Generated_Source\PSoC4/Bluetooth_aios.c **** *                       "charIndex".
 517:Generated_Source\PSoC4/Bluetooth_aios.c **** *  \param attrSize:     The size of the characteristic value attribute.
 518:Generated_Source\PSoC4/Bluetooth_aios.c **** *  \param attrValue:    The pointer to the location where characteristic value
 519:Generated_Source\PSoC4/Bluetooth_aios.c **** *                       data should be stored.
 520:Generated_Source\PSoC4/Bluetooth_aios.c **** * 
 521:Generated_Source\PSoC4/Bluetooth_aios.c **** * \return
 522:Generated_Source\PSoC4/Bluetooth_aios.c **** *  A return value is of type CYBLE_API_RESULT_T.
 523:Generated_Source\PSoC4/Bluetooth_aios.c **** *  * CYBLE_ERROR_OK - The request handled successfully
 524:Generated_Source\PSoC4/Bluetooth_aios.c **** *  * CYBLE_ERROR_INVALID_PARAMETER - Validation of the input parameter failed
 525:Generated_Source\PSoC4/Bluetooth_aios.c **** *  * CYBLE_ERROR_GATT_DB_INVALID_ATTR_HANDLE - An optional characteristic is
 526:Generated_Source\PSoC4/Bluetooth_aios.c **** *                                              absent.
 527:Generated_Source\PSoC4/Bluetooth_aios.c **** *
 528:Generated_Source\PSoC4/Bluetooth_aios.c **** ******************************************************************************/
 529:Generated_Source\PSoC4/Bluetooth_aios.c **** CYBLE_API_RESULT_T CyBle_AiossGetCharacteristicValue(CYBLE_AIOS_CHAR_INDEX_T charIndex, 
 530:Generated_Source\PSoC4/Bluetooth_aios.c ****     uint8 charInstance, uint8 attrSize, uint8 *attrValue)
 531:Generated_Source\PSoC4/Bluetooth_aios.c **** {
  74              		.loc 1 531 0
  75              		.cfi_startproc
  76              		@ args = 0, pretend = 0, frame = 16
  77              		@ frame_needed = 0, uses_anonymous_args = 0
  78              	.LVL1:
  79 0000 30B5     		push	{r4, r5, lr}
  80              		.cfi_def_cfa_offset 12
  81              		.cfi_offset 4, -12
  82              		.cfi_offset 5, -8
  83              		.cfi_offset 14, -4
  84 0002 85B0     		sub	sp, sp, #20
  85              		.cfi_def_cfa_offset 32
  86              	.LVL2:
 532:Generated_Source\PSoC4/Bluetooth_aios.c ****      CYBLE_API_RESULT_T apiResult = CYBLE_ERROR_INVALID_PARAMETER;
 533:Generated_Source\PSoC4/Bluetooth_aios.c **** 
 534:Generated_Source\PSoC4/Bluetooth_aios.c ****     if((charIndex < CYBLE_AIOS_CHAR_COUNT) && (charInstance < cyBle_aiossCharInstances[charIndex]))
  87              		.loc 1 534 0
  88 0004 0228     		cmp	r0, #2
  89 0006 25D8     		bhi	.L8
  90              		.loc 1 534 0 is_stmt 0 discriminator 1
  91 0008 174C     		ldr	r4, .L13
  92 000a 245C     		ldrb	r4, [r4, r0]
  93 000c 8C42     		cmp	r4, r1
ARM GAS  C:\Windows\TEMP\ccyNncCN.s 			page 12


  94 000e 23D9     		bls	.L9
 535:Generated_Source\PSoC4/Bluetooth_aios.c ****     {
 536:Generated_Source\PSoC4/Bluetooth_aios.c ****         /* Check if requested characteristic is present in Service. There are three
 537:Generated_Source\PSoC4/Bluetooth_aios.c ****         * conditions to be checked: 1) The pointer to "CYBLE_AIOSS_CHAR_T" record in
 538:Generated_Source\PSoC4/Bluetooth_aios.c ****         * the cyBle_aioss struct is not NULL, 2) The handle of the characteristic is a 
 539:Generated_Source\PSoC4/Bluetooth_aios.c ****         * valid handle, 3) The requested instance is a valid characteristic instance.
 540:Generated_Source\PSoC4/Bluetooth_aios.c ****         */
 541:Generated_Source\PSoC4/Bluetooth_aios.c ****         if((cyBle_aioss.charInfoAddr[charIndex].charInfoPtr != NULL) &&
  95              		.loc 1 541 0 is_stmt 1
  96 0010 8000     		lsls	r0, r0, #2
  97              	.LVL3:
  98 0012 164C     		ldr	r4, .L13+4
  99 0014 2018     		adds	r0, r4, r0
 100 0016 4468     		ldr	r4, [r0, #4]
 101 0018 002C     		cmp	r4, #0
 102 001a 1FD0     		beq	.L10
 542:Generated_Source\PSoC4/Bluetooth_aios.c ****             (cyBle_aioss.charInfoAddr[charIndex].charInfoPtr[charInstance].charHandle != CYBLE_GATT
 103              		.loc 1 542 0 discriminator 1
 104 001c 0901     		lsls	r1, r1, #4
 105              	.LVL4:
 106 001e 6418     		adds	r4, r4, r1
 107 0020 2188     		ldrh	r1, [r4]
 541:Generated_Source\PSoC4/Bluetooth_aios.c ****             (cyBle_aioss.charInfoAddr[charIndex].charInfoPtr[charInstance].charHandle != CYBLE_GATT
 108              		.loc 1 541 0 discriminator 1
 109 0022 0029     		cmp	r1, #0
 110 0024 1CD0     		beq	.L11
 111              	.LBB2:
 543:Generated_Source\PSoC4/Bluetooth_aios.c ****         {
 544:Generated_Source\PSoC4/Bluetooth_aios.c ****             CYBLE_GATT_HANDLE_VALUE_PAIR_T locHandleValuePair;
 545:Generated_Source\PSoC4/Bluetooth_aios.c **** 
 546:Generated_Source\PSoC4/Bluetooth_aios.c ****             locHandleValuePair.attrHandle = cyBle_aioss.charInfoAddr[charIndex].charInfoPtr[charIns
 112              		.loc 1 546 0
 113 0026 01A8     		add	r0, sp, #4
 114 0028 0181     		strh	r1, [r0, #8]
 547:Generated_Source\PSoC4/Bluetooth_aios.c ****             locHandleValuePair.value.len = attrSize;
 115              		.loc 1 547 0
 116 002a 95B2     		uxth	r5, r2
 117 002c 8580     		strh	r5, [r0, #4]
 548:Generated_Source\PSoC4/Bluetooth_aios.c ****             locHandleValuePair.value.val = attrValue;
 118              		.loc 1 548 0
 119 002e 0193     		str	r3, [sp, #4]
 549:Generated_Source\PSoC4/Bluetooth_aios.c **** 
 550:Generated_Source\PSoC4/Bluetooth_aios.c ****             /* Read characteristic value from database */
 551:Generated_Source\PSoC4/Bluetooth_aios.c ****             if(CyBle_GattsReadAttributeValue(&locHandleValuePair, NULL, CYBLE_GATT_DB_LOCALLY_INITI
 120              		.loc 1 551 0
 121 0030 0022     		movs	r2, #0
 122              	.LVL5:
 123 0032 0021     		movs	r1, #0
 124 0034 FFF7FEFF 		bl	CyBle_GattsReadAttributeValue
 125              	.LVL6:
 126 0038 0028     		cmp	r0, #0
 127 003a 09D1     		bne	.L12
 128              	.LVL7:
 552:Generated_Source\PSoC4/Bluetooth_aios.c ****                 CYBLE_GATT_ERR_NONE)
 553:Generated_Source\PSoC4/Bluetooth_aios.c ****             {
 554:Generated_Source\PSoC4/Bluetooth_aios.c ****                 apiResult = CYBLE_ERROR_OK;
 555:Generated_Source\PSoC4/Bluetooth_aios.c ****                 
ARM GAS  C:\Windows\TEMP\ccyNncCN.s 			page 13


 556:Generated_Source\PSoC4/Bluetooth_aios.c ****             /* Set new length of the descriptor value */
 557:Generated_Source\PSoC4/Bluetooth_aios.c ****             CYBLE_GATT_DB_ATTR_SET_ATTR_GEN_LEN(cyBle_aioss.charInfoAddr[charIndex].charInfoPtr[cha
 129              		.loc 1 557 0
 130 003c 2388     		ldrh	r3, [r4]
 131 003e 013B     		subs	r3, r3, #1
 132 0040 9A00     		lsls	r2, r3, #2
 133 0042 D318     		adds	r3, r2, r3
 134 0044 9A00     		lsls	r2, r3, #2
 135 0046 0A4B     		ldr	r3, .L13+8
 136 0048 9A18     		adds	r2, r3, r2
 137 004a 1369     		ldr	r3, [r2, #16]
 138 004c 1D80     		strh	r5, [r3]
 139 004e 08E0     		b	.L6
 140              	.LVL8:
 141              	.L12:
 142              	.LBE2:
 532:Generated_Source\PSoC4/Bluetooth_aios.c **** 
 143              		.loc 1 532 0
 144 0050 0120     		movs	r0, #1
 543:Generated_Source\PSoC4/Bluetooth_aios.c ****             CYBLE_GATT_HANDLE_VALUE_PAIR_T locHandleValuePair;
 145              		.loc 1 543 0
 146 0052 06E0     		b	.L6
 147              	.LVL9:
 148              	.L8:
 532:Generated_Source\PSoC4/Bluetooth_aios.c **** 
 149              		.loc 1 532 0
 150 0054 0120     		movs	r0, #1
 151              	.LVL10:
 152 0056 04E0     		b	.L6
 153              	.LVL11:
 154              	.L9:
 155 0058 0120     		movs	r0, #1
 156              	.LVL12:
 157 005a 02E0     		b	.L6
 158              	.L10:
 558:Generated_Source\PSoC4/Bluetooth_aios.c ****                                                 attrSize);
 559:Generated_Source\PSoC4/Bluetooth_aios.c ****             }
 560:Generated_Source\PSoC4/Bluetooth_aios.c ****         }
 561:Generated_Source\PSoC4/Bluetooth_aios.c ****         else
 562:Generated_Source\PSoC4/Bluetooth_aios.c ****         {
 563:Generated_Source\PSoC4/Bluetooth_aios.c ****             apiResult = CYBLE_ERROR_GATT_DB_INVALID_ATTR_HANDLE;
 159              		.loc 1 563 0
 160 005c 1320     		movs	r0, #19
 161 005e 00E0     		b	.L6
 162              	.LVL13:
 163              	.L11:
 164 0060 1320     		movs	r0, #19
 165              	.LVL14:
 166              	.L6:
 564:Generated_Source\PSoC4/Bluetooth_aios.c ****         }
 565:Generated_Source\PSoC4/Bluetooth_aios.c ****     }
 566:Generated_Source\PSoC4/Bluetooth_aios.c **** 
 567:Generated_Source\PSoC4/Bluetooth_aios.c ****     return (apiResult);
 568:Generated_Source\PSoC4/Bluetooth_aios.c ****     
 569:Generated_Source\PSoC4/Bluetooth_aios.c **** }
 167              		.loc 1 569 0
 168 0062 05B0     		add	sp, sp, #20
ARM GAS  C:\Windows\TEMP\ccyNncCN.s 			page 14


 169              		@ sp needed
 170 0064 30BD     		pop	{r4, r5, pc}
 171              	.L14:
 172 0066 C046     		.align	2
 173              	.L13:
 174 0068 00000000 		.word	.LANCHOR1
 175 006c 00000000 		.word	.LANCHOR2
 176 0070 00000000 		.word	cyBle_gattDB
 177              		.cfi_endproc
 178              	.LFE6:
 179              		.size	CyBle_AiossGetCharacteristicValue, .-CyBle_AiossGetCharacteristicValue
 180              		.section	.text.CyBle_AiossGetCharacteristicDescriptor,"ax",%progbits
 181              		.align	2
 182              		.global	CyBle_AiossGetCharacteristicDescriptor
 183              		.code	16
 184              		.thumb_func
 185              		.type	CyBle_AiossGetCharacteristicDescriptor, %function
 186              	CyBle_AiossGetCharacteristicDescriptor:
 187              	.LFB7:
 570:Generated_Source\PSoC4/Bluetooth_aios.c **** 
 571:Generated_Source\PSoC4/Bluetooth_aios.c **** /******************************************************************************
 572:Generated_Source\PSoC4/Bluetooth_aios.c **** * Function Name: CyBle_AiossGetCharacteristicDescriptor
 573:Generated_Source\PSoC4/Bluetooth_aios.c **** ***************************************************************************//**
 574:Generated_Source\PSoC4/Bluetooth_aios.c **** * 
 575:Generated_Source\PSoC4/Bluetooth_aios.c **** *  Gets a characteristic descriptor of a specified characteristic of the
 576:Generated_Source\PSoC4/Bluetooth_aios.c **** *  Automation Input Output Service from the local GATT database.
 577:Generated_Source\PSoC4/Bluetooth_aios.c **** * 
 578:Generated_Source\PSoC4/Bluetooth_aios.c **** *  \param charIndex:    The index of the characteristic.
 579:Generated_Source\PSoC4/Bluetooth_aios.c **** *  \param charInstance: The instance number of the characteristic specified by
 580:Generated_Source\PSoC4/Bluetooth_aios.c **** *                       "charIndex".
 581:Generated_Source\PSoC4/Bluetooth_aios.c **** *  \param descrIndex:   The index of the characteristic descriptor.
 582:Generated_Source\PSoC4/Bluetooth_aios.c **** *  \param attrSize:     The size of the characteristic descriptor attribute.
 583:Generated_Source\PSoC4/Bluetooth_aios.c **** *  \param attrValue:    The pointer to the location where characteristic  
 584:Generated_Source\PSoC4/Bluetooth_aios.c **** *                       descriptor value data should be stored.
 585:Generated_Source\PSoC4/Bluetooth_aios.c **** * 
 586:Generated_Source\PSoC4/Bluetooth_aios.c **** * \return
 587:Generated_Source\PSoC4/Bluetooth_aios.c **** *  Return value is of type CYBLE_API_RESULT_T.
 588:Generated_Source\PSoC4/Bluetooth_aios.c **** *  * CYBLE_ERROR_OK - The request handled successfully.
 589:Generated_Source\PSoC4/Bluetooth_aios.c **** *  * CYBLE_ERROR_INVALID_PARAMETER - Validation of the input parameter failed.
 590:Generated_Source\PSoC4/Bluetooth_aios.c **** *  * CYBLE_ERROR_GATT_DB_INVALID_ATTR_HANDLE - Optional descriptor is absent.
 591:Generated_Source\PSoC4/Bluetooth_aios.c **** *
 592:Generated_Source\PSoC4/Bluetooth_aios.c **** ******************************************************************************/
 593:Generated_Source\PSoC4/Bluetooth_aios.c **** CYBLE_API_RESULT_T CyBle_AiossGetCharacteristicDescriptor(CYBLE_AIOS_CHAR_INDEX_T charIndex, 
 594:Generated_Source\PSoC4/Bluetooth_aios.c ****      uint8 charInstance, CYBLE_AIOS_DESCR_INDEX_T descrIndex, uint8 attrSize, uint8 *attrValue)
 595:Generated_Source\PSoC4/Bluetooth_aios.c **** {
 188              		.loc 1 595 0
 189              		.cfi_startproc
 190              		@ args = 4, pretend = 0, frame = 16
 191              		@ frame_needed = 0, uses_anonymous_args = 0
 192              	.LVL15:
 193 0000 70B5     		push	{r4, r5, r6, lr}
 194              		.cfi_def_cfa_offset 16
 195              		.cfi_offset 4, -16
 196              		.cfi_offset 5, -12
 197              		.cfi_offset 6, -8
 198              		.cfi_offset 14, -4
 199 0002 84B0     		sub	sp, sp, #16
ARM GAS  C:\Windows\TEMP\ccyNncCN.s 			page 15


 200              		.cfi_def_cfa_offset 32
 201 0004 1400     		movs	r4, r2
 202              	.LVL16:
 596:Generated_Source\PSoC4/Bluetooth_aios.c ****     
 597:Generated_Source\PSoC4/Bluetooth_aios.c ****      CYBLE_API_RESULT_T apiResult = CYBLE_ERROR_INVALID_PARAMETER;
 598:Generated_Source\PSoC4/Bluetooth_aios.c **** 
 599:Generated_Source\PSoC4/Bluetooth_aios.c ****     if((charIndex < CYBLE_AIOS_CHAR_COUNT) && (charInstance < cyBle_aiossCharInstances[charIndex]) 
 203              		.loc 1 599 0
 204 0006 0228     		cmp	r0, #2
 205 0008 2FD8     		bhi	.L18
 206              		.loc 1 599 0 is_stmt 0 discriminator 1
 207 000a 1E4A     		ldr	r2, .L25
 208              	.LVL17:
 209 000c 125C     		ldrb	r2, [r2, r0]
 210 000e 8A42     		cmp	r2, r1
 211 0010 2DD9     		bls	.L19
 212              		.loc 1 599 0 discriminator 2
 213 0012 062C     		cmp	r4, #6
 214 0014 2DD8     		bhi	.L20
 600:Generated_Source\PSoC4/Bluetooth_aios.c ****         (descrIndex < CYBLE_AIOS_DESCR_COUNT ))
 601:Generated_Source\PSoC4/Bluetooth_aios.c ****     {
 602:Generated_Source\PSoC4/Bluetooth_aios.c ****         /* Check if requested descriptor is present in Service.
 603:Generated_Source\PSoC4/Bluetooth_aios.c ****         * There are three conditions to be checked: 1) The pointer to
 604:Generated_Source\PSoC4/Bluetooth_aios.c ****         * "CYBLE_AiosS_CHAR_T" is not NULL, 2) The handle of the characteristic is
 605:Generated_Source\PSoC4/Bluetooth_aios.c ****         * a valid handle, 3) The handle of the descriptor is a valid handle.
 606:Generated_Source\PSoC4/Bluetooth_aios.c ****         */
 607:Generated_Source\PSoC4/Bluetooth_aios.c ****         if((cyBle_aioss.charInfoAddr[charIndex].charInfoPtr != NULL) &&
 215              		.loc 1 607 0 is_stmt 1
 216 0016 8000     		lsls	r0, r0, #2
 217              	.LVL18:
 218 0018 1B4A     		ldr	r2, .L25+4
 219 001a 1018     		adds	r0, r2, r0
 220 001c 4568     		ldr	r5, [r0, #4]
 221 001e 002D     		cmp	r5, #0
 222 0020 29D0     		beq	.L21
 608:Generated_Source\PSoC4/Bluetooth_aios.c ****             (cyBle_aioss.charInfoAddr[charIndex].charInfoPtr[charInstance].charHandle != CYBLE_GATT
 223              		.loc 1 608 0 discriminator 1
 224 0022 0901     		lsls	r1, r1, #4
 225              	.LVL19:
 226 0024 6D18     		adds	r5, r5, r1
 227 0026 2A88     		ldrh	r2, [r5]
 607:Generated_Source\PSoC4/Bluetooth_aios.c ****             (cyBle_aioss.charInfoAddr[charIndex].charInfoPtr[charInstance].charHandle != CYBLE_GATT
 228              		.loc 1 607 0 discriminator 1
 229 0028 002A     		cmp	r2, #0
 230 002a 26D0     		beq	.L22
 609:Generated_Source\PSoC4/Bluetooth_aios.c ****                     (cyBle_aioss.charInfoAddr[charIndex].charInfoPtr[charInstance].descrHandle[desc
 231              		.loc 1 609 0
 232 002c 6200     		lsls	r2, r4, #1
 233 002e AA18     		adds	r2, r5, r2
 234 0030 5288     		ldrh	r2, [r2, #2]
 608:Generated_Source\PSoC4/Bluetooth_aios.c ****             (cyBle_aioss.charInfoAddr[charIndex].charInfoPtr[charInstance].charHandle != CYBLE_GATT
 235              		.loc 1 608 0
 236 0032 002A     		cmp	r2, #0
 237 0034 23D0     		beq	.L23
 238              	.LBB3:
 610:Generated_Source\PSoC4/Bluetooth_aios.c ****         {
 611:Generated_Source\PSoC4/Bluetooth_aios.c ****             CYBLE_GATT_HANDLE_VALUE_PAIR_T locHandleValuePair;
ARM GAS  C:\Windows\TEMP\ccyNncCN.s 			page 16


 612:Generated_Source\PSoC4/Bluetooth_aios.c **** 
 613:Generated_Source\PSoC4/Bluetooth_aios.c ****             locHandleValuePair.attrHandle =
 239              		.loc 1 613 0
 240 0036 01A8     		add	r0, sp, #4
 241 0038 0281     		strh	r2, [r0, #8]
 614:Generated_Source\PSoC4/Bluetooth_aios.c ****                 cyBle_aioss.charInfoAddr[charIndex].charInfoPtr[charInstance].descrHandle[descrInde
 615:Generated_Source\PSoC4/Bluetooth_aios.c ****             locHandleValuePair.value.len = attrSize;
 242              		.loc 1 615 0
 243 003a 9EB2     		uxth	r6, r3
 244 003c 8680     		strh	r6, [r0, #4]
 616:Generated_Source\PSoC4/Bluetooth_aios.c ****             locHandleValuePair.value.val = attrValue;
 245              		.loc 1 616 0
 246 003e 089B     		ldr	r3, [sp, #32]
 247              	.LVL20:
 248 0040 0193     		str	r3, [sp, #4]
 617:Generated_Source\PSoC4/Bluetooth_aios.c ****                         
 618:Generated_Source\PSoC4/Bluetooth_aios.c ****             /* Read characteristic value from database */
 619:Generated_Source\PSoC4/Bluetooth_aios.c ****             if(CyBle_GattsReadAttributeValue(&locHandleValuePair, NULL, CYBLE_GATT_DB_LOCALLY_INITI
 249              		.loc 1 619 0
 250 0042 0022     		movs	r2, #0
 251 0044 0021     		movs	r1, #0
 252 0046 FFF7FEFF 		bl	CyBle_GattsReadAttributeValue
 253              	.LVL21:
 254 004a 0028     		cmp	r0, #0
 255 004c 0BD1     		bne	.L24
 256              	.LVL22:
 620:Generated_Source\PSoC4/Bluetooth_aios.c ****                 CYBLE_GATT_ERR_NONE)
 621:Generated_Source\PSoC4/Bluetooth_aios.c ****             {
 622:Generated_Source\PSoC4/Bluetooth_aios.c ****                 apiResult = CYBLE_ERROR_OK;
 623:Generated_Source\PSoC4/Bluetooth_aios.c ****                 
 624:Generated_Source\PSoC4/Bluetooth_aios.c ****                 /* Set new length of the descriptor value */
 625:Generated_Source\PSoC4/Bluetooth_aios.c ****                 CYBLE_GATT_DB_ATTR_SET_ATTR_GEN_LEN(cyBle_aioss.charInfoAddr[charIndex].charInfoPtr
 257              		.loc 1 625 0
 258 004e 6400     		lsls	r4, r4, #1
 259 0050 2D19     		adds	r5, r5, r4
 260 0052 6B88     		ldrh	r3, [r5, #2]
 261 0054 013B     		subs	r3, r3, #1
 262 0056 9A00     		lsls	r2, r3, #2
 263 0058 D318     		adds	r3, r2, r3
 264 005a 9A00     		lsls	r2, r3, #2
 265 005c 0B4B     		ldr	r3, .L25+8
 266 005e 9A18     		adds	r2, r3, r2
 267 0060 1369     		ldr	r3, [r2, #16]
 268 0062 1E80     		strh	r6, [r3]
 269 0064 0CE0     		b	.L16
 270              	.LVL23:
 271              	.L24:
 272              	.LBE3:
 597:Generated_Source\PSoC4/Bluetooth_aios.c **** 
 273              		.loc 1 597 0
 274 0066 0120     		movs	r0, #1
 610:Generated_Source\PSoC4/Bluetooth_aios.c ****             CYBLE_GATT_HANDLE_VALUE_PAIR_T locHandleValuePair;
 275              		.loc 1 610 0
 276 0068 0AE0     		b	.L16
 277              	.LVL24:
 278              	.L18:
 597:Generated_Source\PSoC4/Bluetooth_aios.c **** 
ARM GAS  C:\Windows\TEMP\ccyNncCN.s 			page 17


 279              		.loc 1 597 0
 280 006a 0120     		movs	r0, #1
 281              	.LVL25:
 282 006c 08E0     		b	.L16
 283              	.LVL26:
 284              	.L19:
 285 006e 0120     		movs	r0, #1
 286              	.LVL27:
 287 0070 06E0     		b	.L16
 288              	.LVL28:
 289              	.L20:
 290 0072 0120     		movs	r0, #1
 291              	.LVL29:
 292 0074 04E0     		b	.L16
 293              	.L21:
 626:Generated_Source\PSoC4/Bluetooth_aios.c ****                                                     descrHandle[descrIndex],
 627:Generated_Source\PSoC4/Bluetooth_aios.c ****                                                     attrSize);
 628:Generated_Source\PSoC4/Bluetooth_aios.c ****             }
 629:Generated_Source\PSoC4/Bluetooth_aios.c ****         }
 630:Generated_Source\PSoC4/Bluetooth_aios.c ****         else
 631:Generated_Source\PSoC4/Bluetooth_aios.c ****         {
 632:Generated_Source\PSoC4/Bluetooth_aios.c ****             apiResult = CYBLE_ERROR_GATT_DB_INVALID_ATTR_HANDLE;
 294              		.loc 1 632 0
 295 0076 1320     		movs	r0, #19
 296 0078 02E0     		b	.L16
 297              	.LVL30:
 298              	.L22:
 299 007a 1320     		movs	r0, #19
 300 007c 00E0     		b	.L16
 301              	.L23:
 302 007e 1320     		movs	r0, #19
 303              	.LVL31:
 304              	.L16:
 633:Generated_Source\PSoC4/Bluetooth_aios.c ****         }
 634:Generated_Source\PSoC4/Bluetooth_aios.c ****     }
 635:Generated_Source\PSoC4/Bluetooth_aios.c ****     return (apiResult);
 636:Generated_Source\PSoC4/Bluetooth_aios.c **** }
 305              		.loc 1 636 0
 306 0080 04B0     		add	sp, sp, #16
 307              		@ sp needed
 308 0082 70BD     		pop	{r4, r5, r6, pc}
 309              	.L26:
 310              		.align	2
 311              	.L25:
 312 0084 00000000 		.word	.LANCHOR1
 313 0088 00000000 		.word	.LANCHOR2
 314 008c 00000000 		.word	cyBle_gattDB
 315              		.cfi_endproc
 316              	.LFE7:
 317              		.size	CyBle_AiossGetCharacteristicDescriptor, .-CyBle_AiossGetCharacteristicDescriptor
 318              		.section	.text.CyBle_AiossSetCharacteristicDescriptor,"ax",%progbits
 319              		.align	2
 320              		.global	CyBle_AiossSetCharacteristicDescriptor
 321              		.code	16
 322              		.thumb_func
 323              		.type	CyBle_AiossSetCharacteristicDescriptor, %function
 324              	CyBle_AiossSetCharacteristicDescriptor:
ARM GAS  C:\Windows\TEMP\ccyNncCN.s 			page 18


 325              	.LFB8:
 637:Generated_Source\PSoC4/Bluetooth_aios.c **** 
 638:Generated_Source\PSoC4/Bluetooth_aios.c **** /******************************************************************************
 639:Generated_Source\PSoC4/Bluetooth_aios.c **** * Function Name: CyBle_AiossSetCharacteristicDescriptor
 640:Generated_Source\PSoC4/Bluetooth_aios.c **** ***************************************************************************//**
 641:Generated_Source\PSoC4/Bluetooth_aios.c **** * 
 642:Generated_Source\PSoC4/Bluetooth_aios.c **** *  Set a characteristic descriptor of a specified characteristic of the Indoor 
 643:Generated_Source\PSoC4/Bluetooth_aios.c **** *  Positioning Service from the local GATT database.
 644:Generated_Source\PSoC4/Bluetooth_aios.c **** * 
 645:Generated_Source\PSoC4/Bluetooth_aios.c **** *  \param charIndex:    The index of the characteristic.
 646:Generated_Source\PSoC4/Bluetooth_aios.c **** *  \param charInstance: The instance number of the characteristic specified by
 647:Generated_Source\PSoC4/Bluetooth_aios.c **** *                       "charIndex".
 648:Generated_Source\PSoC4/Bluetooth_aios.c **** *  \param descrIndex:   The index of the characteristic descriptor.
 649:Generated_Source\PSoC4/Bluetooth_aios.c **** *  \param attrSize:     The size of the characteristic descriptor attribute.
 650:Generated_Source\PSoC4/Bluetooth_aios.c **** *  \param attrValue:    The pointer to the descriptor value data to 
 651:Generated_Source\PSoC4/Bluetooth_aios.c **** *                       be stored in the GATT database.
 652:Generated_Source\PSoC4/Bluetooth_aios.c **** * 
 653:Generated_Source\PSoC4/Bluetooth_aios.c **** * \return
 654:Generated_Source\PSoC4/Bluetooth_aios.c **** *  Return value is of type CYBLE_API_RESULT_T.
 655:Generated_Source\PSoC4/Bluetooth_aios.c **** *  * CYBLE_ERROR_OK - The request handled successfully.
 656:Generated_Source\PSoC4/Bluetooth_aios.c **** *  * CYBLE_ERROR_INVALID_PARAMETER - Validation of the input parameter failed.
 657:Generated_Source\PSoC4/Bluetooth_aios.c **** *  * CYBLE_ERROR_GATT_DB_INVALID_ATTR_HANDLE - Optional descriptor is absent.
 658:Generated_Source\PSoC4/Bluetooth_aios.c **** *
 659:Generated_Source\PSoC4/Bluetooth_aios.c **** ******************************************************************************/
 660:Generated_Source\PSoC4/Bluetooth_aios.c **** CYBLE_API_RESULT_T CyBle_AiossSetCharacteristicDescriptor(CYBLE_AIOS_CHAR_INDEX_T charIndex, 
 661:Generated_Source\PSoC4/Bluetooth_aios.c ****      uint8 charInstance, CYBLE_AIOS_DESCR_INDEX_T descrIndex, uint8 attrSize, uint8 *attrValue)
 662:Generated_Source\PSoC4/Bluetooth_aios.c **** {
 326              		.loc 1 662 0
 327              		.cfi_startproc
 328              		@ args = 4, pretend = 0, frame = 16
 329              		@ frame_needed = 0, uses_anonymous_args = 0
 330              	.LVL32:
 331 0000 10B5     		push	{r4, lr}
 332              		.cfi_def_cfa_offset 8
 333              		.cfi_offset 4, -8
 334              		.cfi_offset 14, -4
 335 0002 84B0     		sub	sp, sp, #16
 336              		.cfi_def_cfa_offset 24
 337              	.LVL33:
 663:Generated_Source\PSoC4/Bluetooth_aios.c ****       CYBLE_API_RESULT_T apiResult = CYBLE_ERROR_INVALID_PARAMETER;
 664:Generated_Source\PSoC4/Bluetooth_aios.c **** 
 665:Generated_Source\PSoC4/Bluetooth_aios.c ****     if((charIndex < CYBLE_AIOS_CHAR_COUNT) && (charInstance < cyBle_aiossCharInstances[charIndex]) 
 338              		.loc 1 665 0
 339 0004 0228     		cmp	r0, #2
 340 0006 25D8     		bhi	.L30
 341              		.loc 1 665 0 is_stmt 0 discriminator 1
 342 0008 194C     		ldr	r4, .L37
 343 000a 245C     		ldrb	r4, [r4, r0]
 344 000c 8C42     		cmp	r4, r1
 345 000e 23D9     		bls	.L31
 346              		.loc 1 665 0 discriminator 2
 347 0010 062A     		cmp	r2, #6
 348 0012 23D8     		bhi	.L32
 666:Generated_Source\PSoC4/Bluetooth_aios.c ****         (descrIndex < CYBLE_AIOS_DESCR_COUNT))
 667:Generated_Source\PSoC4/Bluetooth_aios.c ****     {
 668:Generated_Source\PSoC4/Bluetooth_aios.c ****         /* Check if requested descriptor is present in Service.
 669:Generated_Source\PSoC4/Bluetooth_aios.c ****         * There are three conditions to be checked: 1) The pointer to
ARM GAS  C:\Windows\TEMP\ccyNncCN.s 			page 19


 670:Generated_Source\PSoC4/Bluetooth_aios.c ****         * "CYBLE_AiosS_CHAR_T" is not NULL, 2) The handle of the characteristic is
 671:Generated_Source\PSoC4/Bluetooth_aios.c ****         * a valid handle, 3) The handle of the descriptor is a valid handle.
 672:Generated_Source\PSoC4/Bluetooth_aios.c ****         */
 673:Generated_Source\PSoC4/Bluetooth_aios.c ****         if((cyBle_aioss.charInfoAddr[charIndex].charInfoPtr != NULL) &&
 349              		.loc 1 673 0 is_stmt 1
 350 0014 8000     		lsls	r0, r0, #2
 351              	.LVL34:
 352 0016 174C     		ldr	r4, .L37+4
 353 0018 2018     		adds	r0, r4, r0
 354 001a 4068     		ldr	r0, [r0, #4]
 355 001c 0028     		cmp	r0, #0
 356 001e 1FD0     		beq	.L33
 674:Generated_Source\PSoC4/Bluetooth_aios.c ****             (cyBle_aioss.charInfoAddr[charIndex].charInfoPtr[charInstance].charHandle != CYBLE_GATT
 357              		.loc 1 674 0 discriminator 1
 358 0020 0901     		lsls	r1, r1, #4
 359              	.LVL35:
 360 0022 4118     		adds	r1, r0, r1
 361 0024 0888     		ldrh	r0, [r1]
 673:Generated_Source\PSoC4/Bluetooth_aios.c ****             (cyBle_aioss.charInfoAddr[charIndex].charInfoPtr[charInstance].charHandle != CYBLE_GATT
 362              		.loc 1 673 0 discriminator 1
 363 0026 0028     		cmp	r0, #0
 364 0028 1CD0     		beq	.L34
 675:Generated_Source\PSoC4/Bluetooth_aios.c ****                         (cyBle_aioss.charInfoAddr[charIndex].charInfoPtr[charInstance].descrHandle[
 365              		.loc 1 675 0
 366 002a 5200     		lsls	r2, r2, #1
 367              	.LVL36:
 368 002c 8918     		adds	r1, r1, r2
 369 002e 4A88     		ldrh	r2, [r1, #2]
 674:Generated_Source\PSoC4/Bluetooth_aios.c ****             (cyBle_aioss.charInfoAddr[charIndex].charInfoPtr[charInstance].charHandle != CYBLE_GATT
 370              		.loc 1 674 0
 371 0030 002A     		cmp	r2, #0
 372 0032 19D0     		beq	.L35
 373              	.LBB4:
 676:Generated_Source\PSoC4/Bluetooth_aios.c ****         {
 677:Generated_Source\PSoC4/Bluetooth_aios.c ****             CYBLE_GATT_HANDLE_VALUE_PAIR_T locHandleValuePair;
 678:Generated_Source\PSoC4/Bluetooth_aios.c **** 
 679:Generated_Source\PSoC4/Bluetooth_aios.c ****             locHandleValuePair.attrHandle =
 374              		.loc 1 679 0
 375 0034 01A8     		add	r0, sp, #4
 376 0036 0281     		strh	r2, [r0, #8]
 680:Generated_Source\PSoC4/Bluetooth_aios.c ****                 cyBle_aioss.charInfoAddr[charIndex].charInfoPtr[charInstance].descrHandle[descrInde
 681:Generated_Source\PSoC4/Bluetooth_aios.c ****             locHandleValuePair.value.len = attrSize;
 377              		.loc 1 681 0
 378 0038 8380     		strh	r3, [r0, #4]
 682:Generated_Source\PSoC4/Bluetooth_aios.c ****             locHandleValuePair.value.val = attrValue;
 379              		.loc 1 682 0
 380 003a 069B     		ldr	r3, [sp, #24]
 381              	.LVL37:
 382 003c 0193     		str	r3, [sp, #4]
 683:Generated_Source\PSoC4/Bluetooth_aios.c **** 
 684:Generated_Source\PSoC4/Bluetooth_aios.c ****             if(CyBle_GattsWriteAttributeValue(&locHandleValuePair, 0u, NULL, CYBLE_GATT_DB_LOCALLY_
 383              		.loc 1 684 0
 384 003e 0023     		movs	r3, #0
 385 0040 0022     		movs	r2, #0
 386 0042 0021     		movs	r1, #0
 387 0044 FFF7FEFF 		bl	CyBle_GattsWriteAttributeValue
 388              	.LVL38:
ARM GAS  C:\Windows\TEMP\ccyNncCN.s 			page 20


 389 0048 0028     		cmp	r0, #0
 390 004a 01D0     		beq	.L36
 391              	.LBE4:
 663:Generated_Source\PSoC4/Bluetooth_aios.c **** 
 392              		.loc 1 663 0
 393 004c 0120     		movs	r0, #1
 394 004e 0CE0     		b	.L28
 395              	.L36:
 396              	.LBB5:
 685:Generated_Source\PSoC4/Bluetooth_aios.c ****                 CYBLE_GATT_ERR_NONE)
 686:Generated_Source\PSoC4/Bluetooth_aios.c ****             {
 687:Generated_Source\PSoC4/Bluetooth_aios.c ****                 apiResult = CYBLE_ERROR_OK;
 397              		.loc 1 687 0
 398 0050 0020     		movs	r0, #0
 399              	.LVL39:
 400              	.LBE5:
 676:Generated_Source\PSoC4/Bluetooth_aios.c ****             CYBLE_GATT_HANDLE_VALUE_PAIR_T locHandleValuePair;
 401              		.loc 1 676 0
 402 0052 0AE0     		b	.L28
 403              	.LVL40:
 404              	.L30:
 663:Generated_Source\PSoC4/Bluetooth_aios.c **** 
 405              		.loc 1 663 0
 406 0054 0120     		movs	r0, #1
 407              	.LVL41:
 408 0056 08E0     		b	.L28
 409              	.LVL42:
 410              	.L31:
 411 0058 0120     		movs	r0, #1
 412              	.LVL43:
 413 005a 06E0     		b	.L28
 414              	.LVL44:
 415              	.L32:
 416 005c 0120     		movs	r0, #1
 417              	.LVL45:
 418 005e 04E0     		b	.L28
 419              	.L33:
 688:Generated_Source\PSoC4/Bluetooth_aios.c ****             }
 689:Generated_Source\PSoC4/Bluetooth_aios.c ****         }
 690:Generated_Source\PSoC4/Bluetooth_aios.c ****         else
 691:Generated_Source\PSoC4/Bluetooth_aios.c ****         {
 692:Generated_Source\PSoC4/Bluetooth_aios.c ****             apiResult = CYBLE_ERROR_GATT_DB_INVALID_ATTR_HANDLE;
 420              		.loc 1 692 0
 421 0060 1320     		movs	r0, #19
 422 0062 02E0     		b	.L28
 423              	.LVL46:
 424              	.L34:
 425 0064 1320     		movs	r0, #19
 426 0066 00E0     		b	.L28
 427              	.LVL47:
 428              	.L35:
 429 0068 1320     		movs	r0, #19
 430              	.LVL48:
 431              	.L28:
 693:Generated_Source\PSoC4/Bluetooth_aios.c ****         }
 694:Generated_Source\PSoC4/Bluetooth_aios.c ****     }
 695:Generated_Source\PSoC4/Bluetooth_aios.c ****     return (apiResult);
ARM GAS  C:\Windows\TEMP\ccyNncCN.s 			page 21


 696:Generated_Source\PSoC4/Bluetooth_aios.c **** }
 432              		.loc 1 696 0
 433 006a 04B0     		add	sp, sp, #16
 434              		@ sp needed
 435 006c 10BD     		pop	{r4, pc}
 436              	.L38:
 437 006e C046     		.align	2
 438              	.L37:
 439 0070 00000000 		.word	.LANCHOR1
 440 0074 00000000 		.word	.LANCHOR2
 441              		.cfi_endproc
 442              	.LFE8:
 443              		.size	CyBle_AiossSetCharacteristicDescriptor, .-CyBle_AiossSetCharacteristicDescriptor
 444              		.section	.text.CyBle_AiossSendNotification,"ax",%progbits
 445              		.align	2
 446              		.global	CyBle_AiossSendNotification
 447              		.code	16
 448              		.thumb_func
 449              		.type	CyBle_AiossSendNotification, %function
 450              	CyBle_AiossSendNotification:
 451              	.LFB9:
 697:Generated_Source\PSoC4/Bluetooth_aios.c **** 
 698:Generated_Source\PSoC4/Bluetooth_aios.c **** /******************************************************************************
 699:Generated_Source\PSoC4/Bluetooth_aios.c **** * Function Name: CyBle_AiossSendNotification
 700:Generated_Source\PSoC4/Bluetooth_aios.c **** ***************************************************************************//**
 701:Generated_Source\PSoC4/Bluetooth_aios.c **** * 
 702:Generated_Source\PSoC4/Bluetooth_aios.c **** *  Sends a notification with a characteristic value of the Automation Input Output
 703:Generated_Source\PSoC4/Bluetooth_aios.c **** *  Service, which is a value specified by charIndex, to the client's device.
 704:Generated_Source\PSoC4/Bluetooth_aios.c **** *
 705:Generated_Source\PSoC4/Bluetooth_aios.c **** *  On enabling notification successfully for a service characteristic it sends 
 706:Generated_Source\PSoC4/Bluetooth_aios.c **** *  out a 'Handle Value Notification' which results in 
 707:Generated_Source\PSoC4/Bluetooth_aios.c **** *  CYBLE_EVT_AIOSC_NOTIFICATION event at the GATT Client's end.
 708:Generated_Source\PSoC4/Bluetooth_aios.c **** * 
 709:Generated_Source\PSoC4/Bluetooth_aios.c **** *  \param connHandle:   The connection handle.
 710:Generated_Source\PSoC4/Bluetooth_aios.c **** *  \param charIndex:    The index of the service characteristic. Starts with 
 711:Generated_Source\PSoC4/Bluetooth_aios.c **** *                       zero.
 712:Generated_Source\PSoC4/Bluetooth_aios.c **** *  \param charInstance: The instance number of the characteristic specified by 
 713:Generated_Source\PSoC4/Bluetooth_aios.c **** *                       "charIndex".
 714:Generated_Source\PSoC4/Bluetooth_aios.c **** *  \param attrSize:     The size of the characteristic value attribute.
 715:Generated_Source\PSoC4/Bluetooth_aios.c **** *  \param attrValue:    The pointer to the characteristic value data that 
 716:Generated_Source\PSoC4/Bluetooth_aios.c **** *                       should be sent to the client's device.
 717:Generated_Source\PSoC4/Bluetooth_aios.c **** * 
 718:Generated_Source\PSoC4/Bluetooth_aios.c **** * \return
 719:Generated_Source\PSoC4/Bluetooth_aios.c **** *  A return value is of type CYBLE_API_RESULT_T.
 720:Generated_Source\PSoC4/Bluetooth_aios.c **** *   * CYBLE_ERROR_OK - The request handled successfully.
 721:Generated_Source\PSoC4/Bluetooth_aios.c **** *   * CYBLE_ERROR_INVALID_PARAMETER - Validation of the input parameter failed.
 722:Generated_Source\PSoC4/Bluetooth_aios.c **** *   * CYBLE_ERROR_INVALID_OPERATION - This operation is not permitted.
 723:Generated_Source\PSoC4/Bluetooth_aios.c **** *   * CYBLE_ERROR_INVALID_STATE - Connection with the client is not established.
 724:Generated_Source\PSoC4/Bluetooth_aios.c **** *   * CYBLE_ERROR_MEMORY_ALLOCATION_FAILED - Memory allocation failed.
 725:Generated_Source\PSoC4/Bluetooth_aios.c **** *   * CYBLE_ERROR_NTF_DISABLED - A notification is not enabled by the client.
 726:Generated_Source\PSoC4/Bluetooth_aios.c **** *   * CYBLE_ERROR_GATT_DB_INVALID_ATTR_HANDLE - An optional characteristic is
 727:Generated_Source\PSoC4/Bluetooth_aios.c **** *                                               absent.
 728:Generated_Source\PSoC4/Bluetooth_aios.c **** *
 729:Generated_Source\PSoC4/Bluetooth_aios.c **** ******************************************************************************/
 730:Generated_Source\PSoC4/Bluetooth_aios.c **** CYBLE_API_RESULT_T CyBle_AiossSendNotification(CYBLE_CONN_HANDLE_T connHandle,
 731:Generated_Source\PSoC4/Bluetooth_aios.c ****     CYBLE_AIOS_CHAR_INDEX_T charIndex, uint8 charInstance, uint8 attrSize, uint8 *attrValue)
 732:Generated_Source\PSoC4/Bluetooth_aios.c **** {
ARM GAS  C:\Windows\TEMP\ccyNncCN.s 			page 22


 452              		.loc 1 732 0
 453              		.cfi_startproc
 454              		@ args = 4, pretend = 0, frame = 24
 455              		@ frame_needed = 0, uses_anonymous_args = 0
 456              	.LVL49:
 457 0000 30B5     		push	{r4, r5, lr}
 458              		.cfi_def_cfa_offset 12
 459              		.cfi_offset 4, -12
 460              		.cfi_offset 5, -8
 461              		.cfi_offset 14, -4
 462 0002 87B0     		sub	sp, sp, #28
 463              		.cfi_def_cfa_offset 40
 464 0004 01AC     		add	r4, sp, #4
 465 0006 2080     		strh	r0, [r4]
 466 0008 1C00     		movs	r4, r3
 467              	.LVL50:
 733:Generated_Source\PSoC4/Bluetooth_aios.c ****     CYBLE_API_RESULT_T apiResult = CYBLE_ERROR_INVALID_PARAMETER;
 734:Generated_Source\PSoC4/Bluetooth_aios.c **** 
 735:Generated_Source\PSoC4/Bluetooth_aios.c ****     if((charIndex < CYBLE_AIOS_CHAR_COUNT) && (charInstance < cyBle_aiossCharInstances[charIndex]))
 468              		.loc 1 735 0
 469 000a 0229     		cmp	r1, #2
 470 000c 28D8     		bhi	.L41
 471              		.loc 1 735 0 is_stmt 0 discriminator 1
 472 000e 1C4B     		ldr	r3, .L47
 473              	.LVL51:
 474 0010 5B5C     		ldrb	r3, [r3, r1]
 475 0012 9342     		cmp	r3, r2
 476 0014 26D9     		bls	.L42
 736:Generated_Source\PSoC4/Bluetooth_aios.c ****     {
 737:Generated_Source\PSoC4/Bluetooth_aios.c ****         if((cyBle_aioss.charInfoAddr[charIndex].charInfoPtr != NULL) && 
 477              		.loc 1 737 0 is_stmt 1
 478 0016 8900     		lsls	r1, r1, #2
 479              	.LVL52:
 480 0018 1A4B     		ldr	r3, .L47+4
 481 001a 5918     		adds	r1, r3, r1
 482 001c 4D68     		ldr	r5, [r1, #4]
 483 001e 002D     		cmp	r5, #0
 484 0020 22D0     		beq	.L43
 738:Generated_Source\PSoC4/Bluetooth_aios.c ****             (cyBle_aioss.charInfoAddr[charIndex].charInfoPtr[charInstance].descrHandle[CYBLE_AIOS_C
 485              		.loc 1 738 0 discriminator 1
 486 0022 1201     		lsls	r2, r2, #4
 487              	.LVL53:
 488 0024 AD18     		adds	r5, r5, r2
 489 0026 6B88     		ldrh	r3, [r5, #2]
 737:Generated_Source\PSoC4/Bluetooth_aios.c ****             (cyBle_aioss.charInfoAddr[charIndex].charInfoPtr[charInstance].descrHandle[CYBLE_AIOS_C
 490              		.loc 1 737 0 discriminator 1
 491 0028 002B     		cmp	r3, #0
 492 002a 1FD0     		beq	.L44
 739:Generated_Source\PSoC4/Bluetooth_aios.c ****         {
 740:Generated_Source\PSoC4/Bluetooth_aios.c ****             /* Send notification if it is enabled and connected */
 741:Generated_Source\PSoC4/Bluetooth_aios.c ****             if(CyBle_GetState() != CYBLE_STATE_CONNECTED)
 493              		.loc 1 741 0
 494 002c 164A     		ldr	r2, .L47+8
 495 002e 1278     		ldrb	r2, [r2]
 496 0030 022A     		cmp	r2, #2
 497 0032 1DD1     		bne	.L45
 742:Generated_Source\PSoC4/Bluetooth_aios.c ****             {
ARM GAS  C:\Windows\TEMP\ccyNncCN.s 			page 23


 743:Generated_Source\PSoC4/Bluetooth_aios.c ****                 apiResult = CYBLE_ERROR_INVALID_STATE;
 744:Generated_Source\PSoC4/Bluetooth_aios.c ****             }
 745:Generated_Source\PSoC4/Bluetooth_aios.c ****             
 746:Generated_Source\PSoC4/Bluetooth_aios.c ****             else if(!CYBLE_IS_NOTIFICATION_ENABLED(
 498              		.loc 1 746 0
 499 0034 013B     		subs	r3, r3, #1
 500 0036 9A00     		lsls	r2, r3, #2
 501 0038 D318     		adds	r3, r2, r3
 502 003a 9A00     		lsls	r2, r3, #2
 503 003c 134B     		ldr	r3, .L47+12
 504 003e 9A18     		adds	r2, r3, r2
 505 0040 1369     		ldr	r3, [r2, #16]
 506 0042 5868     		ldr	r0, [r3, #4]
 507 0044 FFF7FEFF 		bl	CyBle_Get16ByPtr
 508              	.LVL54:
 509 0048 C307     		lsls	r3, r0, #31
 510 004a 14D5     		bpl	.L46
 511              	.LBB6:
 747:Generated_Source\PSoC4/Bluetooth_aios.c ****                 cyBle_aioss.charInfoAddr[charIndex].charInfoPtr[charInstance].descrHandle[CYBLE_AIO
 748:Generated_Source\PSoC4/Bluetooth_aios.c ****             {
 749:Generated_Source\PSoC4/Bluetooth_aios.c ****                 apiResult = CYBLE_ERROR_NTF_DISABLED;
 750:Generated_Source\PSoC4/Bluetooth_aios.c ****             }
 751:Generated_Source\PSoC4/Bluetooth_aios.c ****             else
 752:Generated_Source\PSoC4/Bluetooth_aios.c ****             {
 753:Generated_Source\PSoC4/Bluetooth_aios.c ****                 CYBLE_GATTS_HANDLE_VALUE_NTF_T ntfReqParam;
 754:Generated_Source\PSoC4/Bluetooth_aios.c **** 
 755:Generated_Source\PSoC4/Bluetooth_aios.c ****                 /* Fill all fields of write request structure ... */
 756:Generated_Source\PSoC4/Bluetooth_aios.c ****                 ntfReqParam.attrHandle = cyBle_aioss.charInfoAddr[charIndex].charInfoPtr[charInstan
 512              		.loc 1 756 0
 513 004c 2B88     		ldrh	r3, [r5]
 514 004e 03A9     		add	r1, sp, #12
 515 0050 0B81     		strh	r3, [r1, #8]
 757:Generated_Source\PSoC4/Bluetooth_aios.c ****                 ntfReqParam.value.val = attrValue;
 516              		.loc 1 757 0
 517 0052 0A9B     		ldr	r3, [sp, #40]
 518 0054 0393     		str	r3, [sp, #12]
 758:Generated_Source\PSoC4/Bluetooth_aios.c ****                 ntfReqParam.value.len = attrSize;
 519              		.loc 1 758 0
 520 0056 8C80     		strh	r4, [r1, #4]
 759:Generated_Source\PSoC4/Bluetooth_aios.c **** 
 760:Generated_Source\PSoC4/Bluetooth_aios.c ****                 /* Send notification to client using previously filled structure */
 761:Generated_Source\PSoC4/Bluetooth_aios.c ****                 apiResult = CyBle_GattsNotification(connHandle, &ntfReqParam);
 521              		.loc 1 761 0
 522 0058 0198     		ldr	r0, [sp, #4]
 523 005a FFF7FEFF 		bl	CyBle_GattsNotification
 524              	.LVL55:
 525 005e 0CE0     		b	.L40
 526              	.LVL56:
 527              	.L41:
 528              	.LBE6:
 733:Generated_Source\PSoC4/Bluetooth_aios.c **** 
 529              		.loc 1 733 0
 530 0060 0120     		movs	r0, #1
 531 0062 0AE0     		b	.L40
 532              	.LVL57:
 533              	.L42:
 534 0064 0120     		movs	r0, #1
ARM GAS  C:\Windows\TEMP\ccyNncCN.s 			page 24


 535 0066 08E0     		b	.L40
 536              	.LVL58:
 537              	.L43:
 762:Generated_Source\PSoC4/Bluetooth_aios.c ****             }
 763:Generated_Source\PSoC4/Bluetooth_aios.c ****         }
 764:Generated_Source\PSoC4/Bluetooth_aios.c ****         else
 765:Generated_Source\PSoC4/Bluetooth_aios.c ****         {
 766:Generated_Source\PSoC4/Bluetooth_aios.c ****             apiResult = CYBLE_ERROR_GATT_DB_INVALID_ATTR_HANDLE;
 538              		.loc 1 766 0
 539 0068 1320     		movs	r0, #19
 540 006a 06E0     		b	.L40
 541              	.LVL59:
 542              	.L44:
 543 006c 1320     		movs	r0, #19
 544 006e 04E0     		b	.L40
 545              	.L45:
 743:Generated_Source\PSoC4/Bluetooth_aios.c ****             }
 546              		.loc 1 743 0
 547 0070 0420     		movs	r0, #4
 548 0072 FF30     		adds	r0, r0, #255
 549 0074 01E0     		b	.L40
 550              	.L46:
 749:Generated_Source\PSoC4/Bluetooth_aios.c ****             }
 551              		.loc 1 749 0
 552 0076 8020     		movs	r0, #128
 553 0078 4000     		lsls	r0, r0, #1
 554              	.LVL60:
 555              	.L40:
 767:Generated_Source\PSoC4/Bluetooth_aios.c ****         }
 768:Generated_Source\PSoC4/Bluetooth_aios.c ****     }
 769:Generated_Source\PSoC4/Bluetooth_aios.c **** 
 770:Generated_Source\PSoC4/Bluetooth_aios.c ****     return (apiResult);
 771:Generated_Source\PSoC4/Bluetooth_aios.c **** }
 556              		.loc 1 771 0
 557 007a 07B0     		add	sp, sp, #28
 558              		@ sp needed
 559 007c 30BD     		pop	{r4, r5, pc}
 560              	.L48:
 561 007e C046     		.align	2
 562              	.L47:
 563 0080 00000000 		.word	.LANCHOR1
 564 0084 00000000 		.word	.LANCHOR2
 565 0088 00000000 		.word	cyBle_state
 566 008c 00000000 		.word	cyBle_gattDB
 567              		.cfi_endproc
 568              	.LFE9:
 569              		.size	CyBle_AiossSendNotification, .-CyBle_AiossSendNotification
 570              		.section	.text.CyBle_AiossSendIndication,"ax",%progbits
 571              		.align	2
 572              		.global	CyBle_AiossSendIndication
 573              		.code	16
 574              		.thumb_func
 575              		.type	CyBle_AiossSendIndication, %function
 576              	CyBle_AiossSendIndication:
 577              	.LFB10:
 772:Generated_Source\PSoC4/Bluetooth_aios.c **** 
 773:Generated_Source\PSoC4/Bluetooth_aios.c **** /******************************************************************************
ARM GAS  C:\Windows\TEMP\ccyNncCN.s 			page 25


 774:Generated_Source\PSoC4/Bluetooth_aios.c **** * Function Name: CyBle_AiossSendIndication
 775:Generated_Source\PSoC4/Bluetooth_aios.c **** ***************************************************************************//**
 776:Generated_Source\PSoC4/Bluetooth_aios.c **** * 
 777:Generated_Source\PSoC4/Bluetooth_aios.c **** *  Sends an indication with a characteristic value of the Automation Input Output
 778:Generated_Source\PSoC4/Bluetooth_aios.c **** *  Service, which is a value specified by charIndex, to the client's device.
 779:Generated_Source\PSoC4/Bluetooth_aios.c **** *  
 780:Generated_Source\PSoC4/Bluetooth_aios.c **** *  On enabling indication successfully it sends out a 'Handle Value Indication' 
 781:Generated_Source\PSoC4/Bluetooth_aios.c **** *  which results in CYBLE_EVT_AIOSC_INDICATION or 
 782:Generated_Source\PSoC4/Bluetooth_aios.c **** *  CYBLE_EVT_GATTC_HANDLE_VALUE_IND (if service specific callback function is
 783:Generated_Source\PSoC4/Bluetooth_aios.c **** *  not registered) event at the GATT Client's end.
 784:Generated_Source\PSoC4/Bluetooth_aios.c **** *
 785:Generated_Source\PSoC4/Bluetooth_aios.c **** *  \param connHandle:   The connection handle.
 786:Generated_Source\PSoC4/Bluetooth_aios.c **** *  \param charIndex:    The index of the service characteristic.
 787:Generated_Source\PSoC4/Bluetooth_aios.c **** *  \param charInstance: The instance number of the characteristic specified by 
 788:Generated_Source\PSoC4/Bluetooth_aios.c **** *                       "charIndex".
 789:Generated_Source\PSoC4/Bluetooth_aios.c **** *  \param attrSize:     The size of the characteristic value attribute.
 790:Generated_Source\PSoC4/Bluetooth_aios.c **** *  \param attrValue:    The pointer to the characteristic value data that 
 791:Generated_Source\PSoC4/Bluetooth_aios.c **** *                       should be sent to the client's device.
 792:Generated_Source\PSoC4/Bluetooth_aios.c **** * 
 793:Generated_Source\PSoC4/Bluetooth_aios.c **** * \return
 794:Generated_Source\PSoC4/Bluetooth_aios.c **** *  A return value is of type CYBLE_API_RESULT_T.
 795:Generated_Source\PSoC4/Bluetooth_aios.c **** *   * CYBLE_ERROR_OK - The request handled successfully.
 796:Generated_Source\PSoC4/Bluetooth_aios.c **** *   * CYBLE_ERROR_INVALID_PARAMETER - Validation of the input parameter failed.
 797:Generated_Source\PSoC4/Bluetooth_aios.c **** *   * CYBLE_ERROR_INVALID_OPERATION - This operation is not permitted.
 798:Generated_Source\PSoC4/Bluetooth_aios.c **** *   * CYBLE_ERROR_INVALID_STATE - Connection with the client is not established.
 799:Generated_Source\PSoC4/Bluetooth_aios.c **** *   * CYBLE_ERROR_MEMORY_ALLOCATION_FAILED - Memory allocation failed.
 800:Generated_Source\PSoC4/Bluetooth_aios.c **** *   * CYBLE_ERROR_IND_DISABLED - Indication is not enabled by the client.
 801:Generated_Source\PSoC4/Bluetooth_aios.c **** *   * CYBLE_ERROR_GATT_DB_INVALID_ATTR_HANDLE - An optional characteristic is
 802:Generated_Source\PSoC4/Bluetooth_aios.c **** *                                               absent.
 803:Generated_Source\PSoC4/Bluetooth_aios.c **** *
 804:Generated_Source\PSoC4/Bluetooth_aios.c **** * \events
 805:Generated_Source\PSoC4/Bluetooth_aios.c **** *  In case of successful execution (return value = CYBLE_ERROR_OK)
 806:Generated_Source\PSoC4/Bluetooth_aios.c **** *  the next events can appear: \n
 807:Generated_Source\PSoC4/Bluetooth_aios.c **** *   If the Aios service-specific callback is registered 
 808:Generated_Source\PSoC4/Bluetooth_aios.c **** *      (with CyBle_AiosRegisterAttrCallback):
 809:Generated_Source\PSoC4/Bluetooth_aios.c **** *  * CYBLE_EVT_AiosS_INDICATION_CONFIRMED -In case if the indication is
 810:Generated_Source\PSoC4/Bluetooth_aios.c **** *                                successfully delivered to the peer device.
 811:Generated_Source\PSoC4/Bluetooth_aios.c **** *  .
 812:Generated_Source\PSoC4/Bluetooth_aios.c **** *   Otherwise (if the Aios service-specific callback is not registered):
 813:Generated_Source\PSoC4/Bluetooth_aios.c **** *  * CYBLE_EVT_GATTS_HANDLE_VALUE_CNF - In case if the indication is
 814:Generated_Source\PSoC4/Bluetooth_aios.c **** *                                successfully delivered to the peer device.
 815:Generated_Source\PSoC4/Bluetooth_aios.c **** *
 816:Generated_Source\PSoC4/Bluetooth_aios.c **** ******************************************************************************/
 817:Generated_Source\PSoC4/Bluetooth_aios.c **** CYBLE_API_RESULT_T CyBle_AiossSendIndication(CYBLE_CONN_HANDLE_T connHandle,
 818:Generated_Source\PSoC4/Bluetooth_aios.c ****     CYBLE_AIOS_CHAR_INDEX_T charIndex, uint8 charInstance, uint8 attrSize, uint8 *attrValue)
 819:Generated_Source\PSoC4/Bluetooth_aios.c **** {
 578              		.loc 1 819 0
 579              		.cfi_startproc
 580              		@ args = 4, pretend = 0, frame = 24
 581              		@ frame_needed = 0, uses_anonymous_args = 0
 582              	.LVL61:
 583 0000 30B5     		push	{r4, r5, lr}
 584              		.cfi_def_cfa_offset 12
 585              		.cfi_offset 4, -12
 586              		.cfi_offset 5, -8
 587              		.cfi_offset 14, -4
 588 0002 87B0     		sub	sp, sp, #28
ARM GAS  C:\Windows\TEMP\ccyNncCN.s 			page 26


 589              		.cfi_def_cfa_offset 40
 590 0004 01AC     		add	r4, sp, #4
 591 0006 2080     		strh	r0, [r4]
 592 0008 1C00     		movs	r4, r3
 593              	.LVL62:
 820:Generated_Source\PSoC4/Bluetooth_aios.c ****     /* Store new data in database */
 821:Generated_Source\PSoC4/Bluetooth_aios.c ****     CYBLE_API_RESULT_T apiResult = CYBLE_ERROR_OK;
 822:Generated_Source\PSoC4/Bluetooth_aios.c ****     
 823:Generated_Source\PSoC4/Bluetooth_aios.c ****     /* Send indication if it is enabled and connected */
 824:Generated_Source\PSoC4/Bluetooth_aios.c ****     if(charIndex >= CYBLE_AIOS_CHAR_COUNT)
 594              		.loc 1 824 0
 595 000a 0229     		cmp	r1, #2
 596 000c 2CD8     		bhi	.L52
 825:Generated_Source\PSoC4/Bluetooth_aios.c ****     {
 826:Generated_Source\PSoC4/Bluetooth_aios.c ****         apiResult = CYBLE_ERROR_INVALID_PARAMETER;
 827:Generated_Source\PSoC4/Bluetooth_aios.c ****     }
 828:Generated_Source\PSoC4/Bluetooth_aios.c ****     else if(charInstance >= cyBle_aiossCharInstances[charIndex])
 597              		.loc 1 828 0
 598 000e 1D4B     		ldr	r3, .L57
 599              	.LVL63:
 600 0010 5B5C     		ldrb	r3, [r3, r1]
 601 0012 9342     		cmp	r3, r2
 602 0014 2AD9     		bls	.L53
 829:Generated_Source\PSoC4/Bluetooth_aios.c ****     {
 830:Generated_Source\PSoC4/Bluetooth_aios.c ****         apiResult = CYBLE_ERROR_INVALID_PARAMETER;
 831:Generated_Source\PSoC4/Bluetooth_aios.c ****     }
 832:Generated_Source\PSoC4/Bluetooth_aios.c ****     else if(CYBLE_STATE_CONNECTED != CyBle_GetState())
 603              		.loc 1 832 0
 604 0016 1C4B     		ldr	r3, .L57+4
 605 0018 1B78     		ldrb	r3, [r3]
 606 001a 022B     		cmp	r3, #2
 607 001c 28D1     		bne	.L54
 833:Generated_Source\PSoC4/Bluetooth_aios.c ****     {
 834:Generated_Source\PSoC4/Bluetooth_aios.c ****         apiResult = CYBLE_ERROR_INVALID_STATE;
 835:Generated_Source\PSoC4/Bluetooth_aios.c ****     }
 836:Generated_Source\PSoC4/Bluetooth_aios.c ****     else if(!CYBLE_IS_INDICATION_ENABLED(
 608              		.loc 1 836 0
 609 001e 8900     		lsls	r1, r1, #2
 610              	.LVL64:
 611 0020 1A4B     		ldr	r3, .L57+8
 612 0022 5918     		adds	r1, r3, r1
 613 0024 4D68     		ldr	r5, [r1, #4]
 614 0026 1201     		lsls	r2, r2, #4
 615              	.LVL65:
 616 0028 AD18     		adds	r5, r5, r2
 617 002a 6B88     		ldrh	r3, [r5, #2]
 618 002c 013B     		subs	r3, r3, #1
 619 002e 9A00     		lsls	r2, r3, #2
 620 0030 D318     		adds	r3, r2, r3
 621 0032 9A00     		lsls	r2, r3, #2
 622 0034 164B     		ldr	r3, .L57+12
 623 0036 9A18     		adds	r2, r3, r2
 624 0038 1369     		ldr	r3, [r2, #16]
 625 003a 5868     		ldr	r0, [r3, #4]
 626 003c FFF7FEFF 		bl	CyBle_Get16ByPtr
 627              	.LVL66:
 628 0040 8307     		lsls	r3, r0, #30
ARM GAS  C:\Windows\TEMP\ccyNncCN.s 			page 27


 629 0042 18D5     		bpl	.L55
 837:Generated_Source\PSoC4/Bluetooth_aios.c ****         cyBle_aioss.charInfoAddr[charIndex].charInfoPtr[charInstance].descrHandle[CYBLE_AIOS_CCCD])
 838:Generated_Source\PSoC4/Bluetooth_aios.c ****     {
 839:Generated_Source\PSoC4/Bluetooth_aios.c ****         apiResult = CYBLE_ERROR_IND_DISABLED;
 840:Generated_Source\PSoC4/Bluetooth_aios.c ****     }
 841:Generated_Source\PSoC4/Bluetooth_aios.c ****     else
 842:Generated_Source\PSoC4/Bluetooth_aios.c ****     {
 843:Generated_Source\PSoC4/Bluetooth_aios.c ****         if(cyBle_aioss.charInfoAddr[charIndex].charInfoPtr[charInstance].charHandle != CYBLE_GATT_I
 630              		.loc 1 843 0
 631 0044 2B88     		ldrh	r3, [r5]
 632 0046 002B     		cmp	r3, #0
 633 0048 18D0     		beq	.L56
 634              	.LBB7:
 844:Generated_Source\PSoC4/Bluetooth_aios.c ****         {
 845:Generated_Source\PSoC4/Bluetooth_aios.c ****             CYBLE_GATTS_HANDLE_VALUE_IND_T indReqParam;
 846:Generated_Source\PSoC4/Bluetooth_aios.c **** 
 847:Generated_Source\PSoC4/Bluetooth_aios.c ****             /* Fill all fields of write request structure ... */
 848:Generated_Source\PSoC4/Bluetooth_aios.c ****             indReqParam.attrHandle = cyBle_aioss.charInfoAddr[charIndex].charInfoPtr[charInstance].
 635              		.loc 1 848 0
 636 004a 03A9     		add	r1, sp, #12
 637 004c 0B81     		strh	r3, [r1, #8]
 849:Generated_Source\PSoC4/Bluetooth_aios.c ****             indReqParam.value.val = attrValue;
 638              		.loc 1 849 0
 639 004e 0A9B     		ldr	r3, [sp, #40]
 640 0050 0393     		str	r3, [sp, #12]
 850:Generated_Source\PSoC4/Bluetooth_aios.c ****             indReqParam.value.len = attrSize;
 641              		.loc 1 850 0
 642 0052 8C80     		strh	r4, [r1, #4]
 851:Generated_Source\PSoC4/Bluetooth_aios.c **** 
 852:Generated_Source\PSoC4/Bluetooth_aios.c ****             /* Send indication to client using previously filled structure */
 853:Generated_Source\PSoC4/Bluetooth_aios.c ****             apiResult = CyBle_GattsIndication(connHandle, &indReqParam);
 643              		.loc 1 853 0
 644 0054 0198     		ldr	r0, [sp, #4]
 645 0056 FFF7FEFF 		bl	CyBle_GattsIndication
 646              	.LVL67:
 854:Generated_Source\PSoC4/Bluetooth_aios.c ****             /* Save handle to support service specific value confirmation response from client */
 855:Generated_Source\PSoC4/Bluetooth_aios.c ****             if(apiResult == CYBLE_ERROR_OK)
 647              		.loc 1 855 0
 648 005a 0028     		cmp	r0, #0
 649 005c 0FD1     		bne	.L50
 856:Generated_Source\PSoC4/Bluetooth_aios.c ****             {
 857:Generated_Source\PSoC4/Bluetooth_aios.c ****                 cyBle_aiossReqHandle = indReqParam.attrHandle;
 650              		.loc 1 857 0
 651 005e 03AB     		add	r3, sp, #12
 652 0060 1A89     		ldrh	r2, [r3, #8]
 653 0062 0C4B     		ldr	r3, .L57+16
 654 0064 9A80     		strh	r2, [r3, #4]
 655 0066 0AE0     		b	.L50
 656              	.LVL68:
 657              	.L52:
 658              	.LBE7:
 826:Generated_Source\PSoC4/Bluetooth_aios.c ****     }
 659              		.loc 1 826 0
 660 0068 0120     		movs	r0, #1
 661 006a 08E0     		b	.L50
 662              	.LVL69:
 663              	.L53:
ARM GAS  C:\Windows\TEMP\ccyNncCN.s 			page 28


 830:Generated_Source\PSoC4/Bluetooth_aios.c ****     }
 664              		.loc 1 830 0
 665 006c 0120     		movs	r0, #1
 666 006e 06E0     		b	.L50
 667              	.L54:
 834:Generated_Source\PSoC4/Bluetooth_aios.c ****     }
 668              		.loc 1 834 0
 669 0070 0420     		movs	r0, #4
 670 0072 FF30     		adds	r0, r0, #255
 671 0074 03E0     		b	.L50
 672              	.LVL70:
 673              	.L55:
 839:Generated_Source\PSoC4/Bluetooth_aios.c ****     }
 674              		.loc 1 839 0
 675 0076 0220     		movs	r0, #2
 676 0078 FF30     		adds	r0, r0, #255
 677 007a 00E0     		b	.L50
 678              	.L56:
 858:Generated_Source\PSoC4/Bluetooth_aios.c ****             }
 859:Generated_Source\PSoC4/Bluetooth_aios.c ****         }
 860:Generated_Source\PSoC4/Bluetooth_aios.c ****         else
 861:Generated_Source\PSoC4/Bluetooth_aios.c ****         {
 862:Generated_Source\PSoC4/Bluetooth_aios.c ****             apiResult = CYBLE_ERROR_GATT_DB_INVALID_ATTR_HANDLE;
 679              		.loc 1 862 0
 680 007c 1320     		movs	r0, #19
 681              	.LVL71:
 682              	.L50:
 863:Generated_Source\PSoC4/Bluetooth_aios.c ****         }
 864:Generated_Source\PSoC4/Bluetooth_aios.c ****     }
 865:Generated_Source\PSoC4/Bluetooth_aios.c ****     return (apiResult);
 866:Generated_Source\PSoC4/Bluetooth_aios.c **** }
 683              		.loc 1 866 0
 684 007e 07B0     		add	sp, sp, #28
 685              		@ sp needed
 686 0080 30BD     		pop	{r4, r5, pc}
 687              	.L58:
 688 0082 C046     		.align	2
 689              	.L57:
 690 0084 00000000 		.word	.LANCHOR1
 691 0088 00000000 		.word	cyBle_state
 692 008c 00000000 		.word	.LANCHOR2
 693 0090 00000000 		.word	cyBle_gattDB
 694 0094 00000000 		.word	.LANCHOR0
 695              		.cfi_endproc
 696              	.LFE10:
 697              		.size	CyBle_AiossSendIndication, .-CyBle_AiossSendIndication
 698              		.section	.text.CyBle_AiossConfirmationEventHandler,"ax",%progbits
 699              		.align	2
 700              		.global	CyBle_AiossConfirmationEventHandler
 701              		.code	16
 702              		.thumb_func
 703              		.type	CyBle_AiossConfirmationEventHandler, %function
 704              	CyBle_AiossConfirmationEventHandler:
 705              	.LFB11:
 867:Generated_Source\PSoC4/Bluetooth_aios.c **** 
 868:Generated_Source\PSoC4/Bluetooth_aios.c **** /******************************************************************************
 869:Generated_Source\PSoC4/Bluetooth_aios.c **** * Function Name: CyBle_AiossConfirmationEventHandler
ARM GAS  C:\Windows\TEMP\ccyNncCN.s 			page 29


 870:Generated_Source\PSoC4/Bluetooth_aios.c **** ***************************************************************************//**
 871:Generated_Source\PSoC4/Bluetooth_aios.c **** * 
 872:Generated_Source\PSoC4/Bluetooth_aios.c **** *  Handles a Value Confirmation request event from the BLE stack.
 873:Generated_Source\PSoC4/Bluetooth_aios.c **** * 
 874:Generated_Source\PSoC4/Bluetooth_aios.c **** *  eventParam - The pointer to a structure of type CYBLE_CONN_HANDLE_T.
 875:Generated_Source\PSoC4/Bluetooth_aios.c **** *  
 876:Generated_Source\PSoC4/Bluetooth_aios.c **** ******************************************************************************/
 877:Generated_Source\PSoC4/Bluetooth_aios.c **** void CyBle_AiossConfirmationEventHandler(const CYBLE_CONN_HANDLE_T *eventParam)
 878:Generated_Source\PSoC4/Bluetooth_aios.c **** {
 706              		.loc 1 878 0
 707              		.cfi_startproc
 708              		@ args = 0, pretend = 0, frame = 16
 709              		@ frame_needed = 0, uses_anonymous_args = 0
 710              	.LVL72:
 711 0000 F0B5     		push	{r4, r5, r6, r7, lr}
 712              		.cfi_def_cfa_offset 20
 713              		.cfi_offset 4, -20
 714              		.cfi_offset 5, -16
 715              		.cfi_offset 6, -12
 716              		.cfi_offset 7, -8
 717              		.cfi_offset 14, -4
 718 0002 85B0     		sub	sp, sp, #20
 719              		.cfi_def_cfa_offset 40
 720 0004 0500     		movs	r5, r0
 721              	.LVL73:
 879:Generated_Source\PSoC4/Bluetooth_aios.c ****     CYBLE_AIOS_CHAR_INDEX_T locCharIndex;
 880:Generated_Source\PSoC4/Bluetooth_aios.c ****     CYBLE_AIOS_CHAR_VALUE_T locCharValue;
 881:Generated_Source\PSoC4/Bluetooth_aios.c ****     uint8 locCharInstance;
 882:Generated_Source\PSoC4/Bluetooth_aios.c ****     uint8 locReqHandle = 0u;
 883:Generated_Source\PSoC4/Bluetooth_aios.c **** 
 884:Generated_Source\PSoC4/Bluetooth_aios.c ****     if((CyBle_AiosApplCallback != NULL) && (cyBle_aiossReqHandle != CYBLE_GATT_INVALID_ATTR_HANDLE_
 722              		.loc 1 884 0
 723 0006 204B     		ldr	r3, .L68
 724 0008 1B68     		ldr	r3, [r3]
 725 000a 002B     		cmp	r3, #0
 726 000c 39D0     		beq	.L59
 727              		.loc 1 884 0 is_stmt 0 discriminator 1
 728 000e 1E4B     		ldr	r3, .L68
 729 0010 9B88     		ldrh	r3, [r3, #4]
 730 0012 002B     		cmp	r3, #0
 731 0014 2FD1     		bne	.L66
 732 0016 34E0     		b	.L59
 733              	.LVL74:
 734              	.L64:
 885:Generated_Source\PSoC4/Bluetooth_aios.c ****     {
 886:Generated_Source\PSoC4/Bluetooth_aios.c ****         for(locCharIndex = CYBLE_AIOS_DIGITAL; (locCharIndex < CYBLE_AIOS_CHAR_COUNT) && (locReqHan
 887:Generated_Source\PSoC4/Bluetooth_aios.c ****             locCharIndex++)
 888:Generated_Source\PSoC4/Bluetooth_aios.c ****         {
 889:Generated_Source\PSoC4/Bluetooth_aios.c ****             for(locCharInstance = 0u; (locCharInstance < cyBle_aiossCharInstances[locCharIndex]) &&
 890:Generated_Source\PSoC4/Bluetooth_aios.c ****                 locCharInstance++)
 891:Generated_Source\PSoC4/Bluetooth_aios.c ****             {
 892:Generated_Source\PSoC4/Bluetooth_aios.c ****                 if(cyBle_aiossReqHandle == cyBle_aioss.charInfoAddr[locCharIndex].charInfoPtr[locCh
 735              		.loc 1 892 0 is_stmt 1
 736 0018 9B00     		lsls	r3, r3, #2
 737 001a 1C4A     		ldr	r2, .L68+4
 738 001c D318     		adds	r3, r2, r3
 739 001e 5A68     		ldr	r2, [r3, #4]
ARM GAS  C:\Windows\TEMP\ccyNncCN.s 			page 30


 740 0020 2301     		lsls	r3, r4, #4
 741 0022 D25A     		ldrh	r2, [r2, r3]
 742 0024 184B     		ldr	r3, .L68
 743 0026 9B88     		ldrh	r3, [r3, #4]
 744 0028 9A42     		cmp	r2, r3
 745 002a 16D1     		bne	.L62
 893:Generated_Source\PSoC4/Bluetooth_aios.c ****                 {
 894:Generated_Source\PSoC4/Bluetooth_aios.c ****                     locCharValue.connHandle = *eventParam;
 746              		.loc 1 894 0
 747 002c 01AF     		add	r7, sp, #4
 748 002e 0222     		movs	r2, #2
 749 0030 2900     		movs	r1, r5
 750              	.LVL75:
 751 0032 3800     		movs	r0, r7
 752 0034 FFF7FEFF 		bl	memcpy
 753              	.LVL76:
 895:Generated_Source\PSoC4/Bluetooth_aios.c ****                     locCharValue.charIndex = locCharIndex;
 754              		.loc 1 895 0
 755 0038 BE70     		strb	r6, [r7, #2]
 896:Generated_Source\PSoC4/Bluetooth_aios.c ****                     locCharValue.charInstance = locCharInstance;
 756              		.loc 1 896 0
 757 003a FC70     		strb	r4, [r7, #3]
 897:Generated_Source\PSoC4/Bluetooth_aios.c ****                     locCharValue.value = NULL;
 758              		.loc 1 897 0
 759 003c 0022     		movs	r2, #0
 760 003e 7A60     		str	r2, [r7, #4]
 898:Generated_Source\PSoC4/Bluetooth_aios.c ****                     cyBle_eventHandlerFlag &= (uint8)~CYBLE_CALLBACK;
 761              		.loc 1 898 0
 762 0040 1349     		ldr	r1, .L68+8
 763 0042 0B78     		ldrb	r3, [r1]
 764 0044 0120     		movs	r0, #1
 765 0046 8343     		bics	r3, r0
 766 0048 0B70     		strb	r3, [r1]
 899:Generated_Source\PSoC4/Bluetooth_aios.c ****                     cyBle_aiossReqHandle = CYBLE_GATT_INVALID_ATTR_HANDLE_VALUE;
 767              		.loc 1 899 0
 768 004a 0F4B     		ldr	r3, .L68
 769 004c 9A80     		strh	r2, [r3, #4]
 900:Generated_Source\PSoC4/Bluetooth_aios.c ****                     CyBle_AiosApplCallback((uint32)CYBLE_EVT_AIOSS_INDICATION_CONFIRMED, &locCharVa
 770              		.loc 1 900 0
 771 004e 1B68     		ldr	r3, [r3]
 772 0050 3900     		movs	r1, r7
 773 0052 1820     		movs	r0, #24
 774 0054 FF30     		adds	r0, r0, #255
 775 0056 9847     		blx	r3
 776              	.LVL77:
 901:Generated_Source\PSoC4/Bluetooth_aios.c ****                     locReqHandle = 1u;
 777              		.loc 1 901 0
 778 0058 0121     		movs	r1, #1
 779              	.LVL78:
 780              	.L62:
 890:Generated_Source\PSoC4/Bluetooth_aios.c ****             {
 781              		.loc 1 890 0
 782 005a 0134     		adds	r4, r4, #1
 783              	.LVL79:
 784 005c E4B2     		uxtb	r4, r4
 785              	.LVL80:
 786 005e 00E0     		b	.L65
ARM GAS  C:\Windows\TEMP\ccyNncCN.s 			page 31


 787              	.LVL81:
 788              	.L67:
 789 0060 0024     		movs	r4, #0
 790              	.L65:
 791              	.LVL82:
 889:Generated_Source\PSoC4/Bluetooth_aios.c ****                 locCharInstance++)
 792              		.loc 1 889 0 discriminator 1
 793 0062 3300     		movs	r3, r6
 794 0064 0B4A     		ldr	r2, .L68+12
 795 0066 925D     		ldrb	r2, [r2, r6]
 796 0068 9442     		cmp	r4, r2
 797 006a 01D2     		bcs	.L63
 889:Generated_Source\PSoC4/Bluetooth_aios.c ****                 locCharInstance++)
 798              		.loc 1 889 0 is_stmt 0 discriminator 2
 799 006c 0029     		cmp	r1, #0
 800 006e D3D0     		beq	.L64
 801              	.L63:
 887:Generated_Source\PSoC4/Bluetooth_aios.c ****         {
 802              		.loc 1 887 0 is_stmt 1
 803 0070 0136     		adds	r6, r6, #1
 804              	.LVL83:
 805 0072 F6B2     		uxtb	r6, r6
 806              	.LVL84:
 807 0074 01E0     		b	.L61
 808              	.LVL85:
 809              	.L66:
 810 0076 0021     		movs	r1, #0
 811 0078 0026     		movs	r6, #0
 812              	.LVL86:
 813              	.L61:
 886:Generated_Source\PSoC4/Bluetooth_aios.c ****             locCharIndex++)
 814              		.loc 1 886 0 discriminator 1
 815 007a 022E     		cmp	r6, #2
 816 007c 01D8     		bhi	.L59
 886:Generated_Source\PSoC4/Bluetooth_aios.c ****             locCharIndex++)
 817              		.loc 1 886 0 is_stmt 0 discriminator 2
 818 007e 0029     		cmp	r1, #0
 819 0080 EED0     		beq	.L67
 820              	.LVL87:
 821              	.L59:
 902:Generated_Source\PSoC4/Bluetooth_aios.c ****                 }
 903:Generated_Source\PSoC4/Bluetooth_aios.c ****             }
 904:Generated_Source\PSoC4/Bluetooth_aios.c ****         }
 905:Generated_Source\PSoC4/Bluetooth_aios.c ****     }
 906:Generated_Source\PSoC4/Bluetooth_aios.c **** }
 822              		.loc 1 906 0 is_stmt 1
 823 0082 05B0     		add	sp, sp, #20
 824              		@ sp needed
 825              	.LVL88:
 826 0084 F0BD     		pop	{r4, r5, r6, r7, pc}
 827              	.L69:
 828 0086 C046     		.align	2
 829              	.L68:
 830 0088 00000000 		.word	.LANCHOR0
 831 008c 00000000 		.word	.LANCHOR2
 832 0090 00000000 		.word	cyBle_eventHandlerFlag
 833 0094 00000000 		.word	.LANCHOR1
ARM GAS  C:\Windows\TEMP\ccyNncCN.s 			page 32


 834              		.cfi_endproc
 835              	.LFE11:
 836              		.size	CyBle_AiossConfirmationEventHandler, .-CyBle_AiossConfirmationEventHandler
 837              		.section	.text.CyBle_AiosSetAggregateChar,"ax",%progbits
 838              		.align	2
 839              		.global	CyBle_AiosSetAggregateChar
 840              		.code	16
 841              		.thumb_func
 842              		.type	CyBle_AiosSetAggregateChar, %function
 843              	CyBle_AiosSetAggregateChar:
 844              	.LFB12:
 907:Generated_Source\PSoC4/Bluetooth_aios.c **** 
 908:Generated_Source\PSoC4/Bluetooth_aios.c **** /******************************************************************************
 909:Generated_Source\PSoC4/Bluetooth_aios.c **** * Function Name: CyBle_AiosSetAggregateChar
 910:Generated_Source\PSoC4/Bluetooth_aios.c **** ***************************************************************************//**
 911:Generated_Source\PSoC4/Bluetooth_aios.c **** *
 912:Generated_Source\PSoC4/Bluetooth_aios.c **** *  Sets the value for Aggregate characteristic. 
 913:Generated_Source\PSoC4/Bluetooth_aios.c **** *  All of the defined Digital characteristics with the Read property set be
 914:Generated_Source\PSoC4/Bluetooth_aios.c **** *  part of Aggregate (if available). The length of each of the Digital characteristics 
 915:Generated_Source\PSoC4/Bluetooth_aios.c **** *  that is part of the Aggregate is determined from the number of signals defined in the 
 916:Generated_Source\PSoC4/Bluetooth_aios.c **** *  Number of Digitals descriptor of the Digital characteristic. The Digital part byte 
 917:Generated_Source\PSoC4/Bluetooth_aios.c **** *  aligned and trailing bits (if any) set to 0. The order of the Digital characteristics 
 918:Generated_Source\PSoC4/Bluetooth_aios.c **** *  is determined by the value in the Description field of the Characteristic Presentation 
 919:Generated_Source\PSoC4/Bluetooth_aios.c **** *  Format descriptor with the lowest value first. 
 920:Generated_Source\PSoC4/Bluetooth_aios.c **** *  All of the defined Analog characteristics with Read property set part of the Aggregate
 921:Generated_Source\PSoC4/Bluetooth_aios.c **** *  (if available). The order of the Analog characteristics is determined by the value in 
 922:Generated_Source\PSoC4/Bluetooth_aios.c **** *  the Description field of the Characteristic Presentation Format descriptor with the 
 923:Generated_Source\PSoC4/Bluetooth_aios.c **** *  lowest value first. 
 924:Generated_Source\PSoC4/Bluetooth_aios.c **** *  The first analog input follows directly after the last Digital characteristic.
 925:Generated_Source\PSoC4/Bluetooth_aios.c **** * 
 926:Generated_Source\PSoC4/Bluetooth_aios.c **** * \return
 927:Generated_Source\PSoC4/Bluetooth_aios.c **** *  A return value is of type CYBLE_GATT_ERR_CODE_T.
 928:Generated_Source\PSoC4/Bluetooth_aios.c **** *  * CYBLE_GATT_ERR_NONE - The advertisement packet collected successfully.
 929:Generated_Source\PSoC4/Bluetooth_aios.c **** *  * CYBLE_GATT_ERR_INVALID_HANDLE - 'handleValuePair.attrHandle' is not valid.
 930:Generated_Source\PSoC4/Bluetooth_aios.c **** *
 931:Generated_Source\PSoC4/Bluetooth_aios.c **** ******************************************************************************/
 932:Generated_Source\PSoC4/Bluetooth_aios.c **** CYBLE_GATT_ERR_CODE_T CyBle_AiosSetAggregateChar(void)
 933:Generated_Source\PSoC4/Bluetooth_aios.c **** {
 845              		.loc 1 933 0
 846              		.cfi_startproc
 847              		@ args = 0, pretend = 0, frame = 0
 848              		@ frame_needed = 0, uses_anonymous_args = 0
 849              		@ link register save eliminated.
 850              	.LVL89:
 934:Generated_Source\PSoC4/Bluetooth_aios.c ****     CYBLE_GATT_ERR_CODE_T gattErr = CYBLE_GATT_ERR_NONE;
 935:Generated_Source\PSoC4/Bluetooth_aios.c ****     CYBLE_GATT_HANDLE_VALUE_PAIR_T locHandleValuePair;
 936:Generated_Source\PSoC4/Bluetooth_aios.c ****     CYBLE_AIOS_CHAR_INDEX_T locCharIndex;
 937:Generated_Source\PSoC4/Bluetooth_aios.c ****     uint8 locCharInstance;
 938:Generated_Source\PSoC4/Bluetooth_aios.c ****     uint8 locAttrValue[CYBLE_AIOS_CHAR_PRESENTATION_FORMAT_LEN];
 939:Generated_Source\PSoC4/Bluetooth_aios.c ****     uint8 aggregateChar[CYBLE_GATT_MTU-3];
 940:Generated_Source\PSoC4/Bluetooth_aios.c ****     uint16 currentDescriptionValue;
 941:Generated_Source\PSoC4/Bluetooth_aios.c ****     uint16 minDescriptionValue;
 942:Generated_Source\PSoC4/Bluetooth_aios.c ****     uint16 minDescriptionValueTmp = 0xFFFFu;
 943:Generated_Source\PSoC4/Bluetooth_aios.c ****     uint16 maxDescriptionValue;
 944:Generated_Source\PSoC4/Bluetooth_aios.c ****     uint16 minDescriptionNumber;
 945:Generated_Source\PSoC4/Bluetooth_aios.c ****     uint8 locCharInstanceNumber;
 946:Generated_Source\PSoC4/Bluetooth_aios.c ****     uint8 aggregateCharIndex = 0u;
ARM GAS  C:\Windows\TEMP\ccyNncCN.s 			page 33


 947:Generated_Source\PSoC4/Bluetooth_aios.c ****     uint8 aggregateDigitalBits = 0u;
 948:Generated_Source\PSoC4/Bluetooth_aios.c ****     uint8 numOfDigital;
 949:Generated_Source\PSoC4/Bluetooth_aios.c ****     uint8 i;
 950:Generated_Source\PSoC4/Bluetooth_aios.c ****     
 951:Generated_Source\PSoC4/Bluetooth_aios.c ****     for(i = 0; i < (CYBLE_GATT_MTU-3u); i++)
 851              		.loc 1 951 0
 852 0000 0023     		movs	r3, #0
 853 0002 01E0     		b	.L71
 854              	.LVL90:
 855              	.L72:
 856              		.loc 1 951 0 is_stmt 0 discriminator 3
 857 0004 0133     		adds	r3, r3, #1
 858              	.LVL91:
 859 0006 DBB2     		uxtb	r3, r3
 860              	.LVL92:
 861              	.L71:
 862              		.loc 1 951 0 discriminator 1
 863 0008 132B     		cmp	r3, #19
 864 000a FBD9     		bls	.L72
 865 000c 0023     		movs	r3, #0
 866              	.LVL93:
 867 000e 01E0     		b	.L73
 868              	.LVL94:
 869              	.L74:
 952:Generated_Source\PSoC4/Bluetooth_aios.c ****     {   
 953:Generated_Source\PSoC4/Bluetooth_aios.c ****         aggregateChar[i] = 0u;
 954:Generated_Source\PSoC4/Bluetooth_aios.c ****     }
 955:Generated_Source\PSoC4/Bluetooth_aios.c ****     
 956:Generated_Source\PSoC4/Bluetooth_aios.c ****     for(i = 0; i < CYBLE_AIOS_CHAR_PRESENTATION_FORMAT_LEN; i++)
 870              		.loc 1 956 0 is_stmt 1 discriminator 3
 871 0010 0133     		adds	r3, r3, #1
 872              	.LVL95:
 873 0012 DBB2     		uxtb	r3, r3
 874              	.LVL96:
 875              	.L73:
 876              		.loc 1 956 0 is_stmt 0 discriminator 1
 877 0014 062B     		cmp	r3, #6
 878 0016 FBD9     		bls	.L74
 879              	.LVL97:
 957:Generated_Source\PSoC4/Bluetooth_aios.c ****     {   
 958:Generated_Source\PSoC4/Bluetooth_aios.c ****         locAttrValue[i] = 0u;
 959:Generated_Source\PSoC4/Bluetooth_aios.c ****     }
 960:Generated_Source\PSoC4/Bluetooth_aios.c ****    
 961:Generated_Source\PSoC4/Bluetooth_aios.c ****     if((cyBle_aioss.charInfoAddr[CYBLE_AIOS_AGGREGATE].charInfoPtr != NULL) &&
 962:Generated_Source\PSoC4/Bluetooth_aios.c ****         (CYBLE_GATT_INVALID_ATTR_HANDLE_VALUE != cyBle_aioss.charInfoAddr[CYBLE_AIOS_AGGREGATE].cha
 963:Generated_Source\PSoC4/Bluetooth_aios.c ****     {
 964:Generated_Source\PSoC4/Bluetooth_aios.c ****         for(locCharIndex = CYBLE_AIOS_DIGITAL; (locCharIndex <= CYBLE_AIOS_ANALOG) && (gattErr == C
 965:Generated_Source\PSoC4/Bluetooth_aios.c ****                         locCharIndex++)
 966:Generated_Source\PSoC4/Bluetooth_aios.c ****         {
 967:Generated_Source\PSoC4/Bluetooth_aios.c ****             minDescriptionValue = 0u;
 968:Generated_Source\PSoC4/Bluetooth_aios.c ****             minDescriptionNumber = 0u;
 969:Generated_Source\PSoC4/Bluetooth_aios.c ****             
 970:Generated_Source\PSoC4/Bluetooth_aios.c ****             for(locCharInstanceNumber = 0u; 
 971:Generated_Source\PSoC4/Bluetooth_aios.c ****                     (locCharInstanceNumber < cyBle_aiossCharInstances[locCharIndex]) && (gattErr ==
 972:Generated_Source\PSoC4/Bluetooth_aios.c ****                             locCharInstanceNumber++)
 973:Generated_Source\PSoC4/Bluetooth_aios.c ****             {   
 974:Generated_Source\PSoC4/Bluetooth_aios.c ****                 maxDescriptionValue = CYBLE_AIOS_MAX_CHAR_DESCRIPTION_VALUE;
ARM GAS  C:\Windows\TEMP\ccyNncCN.s 			page 34


 975:Generated_Source\PSoC4/Bluetooth_aios.c ****                 
 976:Generated_Source\PSoC4/Bluetooth_aios.c ****                 for(locCharInstance = 0u; 
 977:Generated_Source\PSoC4/Bluetooth_aios.c ****                         (locCharInstance < cyBle_aiossCharInstances[locCharIndex]) && (gattErr == C
 978:Generated_Source\PSoC4/Bluetooth_aios.c ****                                 locCharInstance++)
 979:Generated_Source\PSoC4/Bluetooth_aios.c ****                 {
 980:Generated_Source\PSoC4/Bluetooth_aios.c ****                     if((cyBle_aioss.charInfoAddr[locCharIndex].charInfoPtr != NULL) &&
 981:Generated_Source\PSoC4/Bluetooth_aios.c ****                         (cyBle_aioss.charInfoAddr[locCharIndex].charInfoPtr[locCharInstance].charHa
 982:Generated_Source\PSoC4/Bluetooth_aios.c ****                                 != CYBLE_GATT_INVALID_ATTR_HANDLE_VALUE) &&
 983:Generated_Source\PSoC4/Bluetooth_aios.c ****                         (cyBle_aioss.charInfoAddr[locCharIndex].charInfoPtr[locCharInstance].descrH
 984:Generated_Source\PSoC4/Bluetooth_aios.c ****                                 != CYBLE_GATT_INVALID_ATTR_HANDLE_VALUE))
 985:Generated_Source\PSoC4/Bluetooth_aios.c ****                     {
 986:Generated_Source\PSoC4/Bluetooth_aios.c ****                         locHandleValuePair.attrHandle =
 987:Generated_Source\PSoC4/Bluetooth_aios.c ****                             cyBle_aioss.charInfoAddr[locCharIndex].charInfoPtr[locCharInstance].des
 988:Generated_Source\PSoC4/Bluetooth_aios.c ****                         locHandleValuePair.value.len = CYBLE_AIOS_CHAR_PRESENTATION_FORMAT_LEN;
 989:Generated_Source\PSoC4/Bluetooth_aios.c ****                         locHandleValuePair.value.val = locAttrValue;
 990:Generated_Source\PSoC4/Bluetooth_aios.c ****                            
 991:Generated_Source\PSoC4/Bluetooth_aios.c ****                         gattErr = CyBle_GattsReadAttributeValue(&locHandleValuePair, NULL, CYBLE_GA
 992:Generated_Source\PSoC4/Bluetooth_aios.c ****                     }
 993:Generated_Source\PSoC4/Bluetooth_aios.c ****                     else
 994:Generated_Source\PSoC4/Bluetooth_aios.c ****                     {
 995:Generated_Source\PSoC4/Bluetooth_aios.c ****                         gattErr = CYBLE_GATT_ERR_INVALID_HANDLE;
 996:Generated_Source\PSoC4/Bluetooth_aios.c ****                     }
 997:Generated_Source\PSoC4/Bluetooth_aios.c ****                    
 998:Generated_Source\PSoC4/Bluetooth_aios.c ****                     if (gattErr == CYBLE_GATT_ERR_NONE)
 999:Generated_Source\PSoC4/Bluetooth_aios.c ****                     {   
1000:Generated_Source\PSoC4/Bluetooth_aios.c ****                         currentDescriptionValue = ((uint16)(((uint16)locAttrValue[CYBLE_AIOS_CHAR_P
1001:Generated_Source\PSoC4/Bluetooth_aios.c ****                         
1002:Generated_Source\PSoC4/Bluetooth_aios.c ****                         if ((currentDescriptionValue < maxDescriptionValue) &&
1003:Generated_Source\PSoC4/Bluetooth_aios.c ****                             (currentDescriptionValue > minDescriptionValue) )
1004:Generated_Source\PSoC4/Bluetooth_aios.c ****                         {
1005:Generated_Source\PSoC4/Bluetooth_aios.c ****                             maxDescriptionValue = currentDescriptionValue;
1006:Generated_Source\PSoC4/Bluetooth_aios.c ****                             minDescriptionNumber = locCharInstance;
1007:Generated_Source\PSoC4/Bluetooth_aios.c ****                             minDescriptionValueTmp = currentDescriptionValue;
1008:Generated_Source\PSoC4/Bluetooth_aios.c ****                         }
1009:Generated_Source\PSoC4/Bluetooth_aios.c ****                     }
1010:Generated_Source\PSoC4/Bluetooth_aios.c ****                 }
1011:Generated_Source\PSoC4/Bluetooth_aios.c ****             
1012:Generated_Source\PSoC4/Bluetooth_aios.c ****                 minDescriptionValue = minDescriptionValueTmp;
1013:Generated_Source\PSoC4/Bluetooth_aios.c ****                 
1014:Generated_Source\PSoC4/Bluetooth_aios.c ****                 if (locCharIndex == CYBLE_AIOS_DIGITAL)
1015:Generated_Source\PSoC4/Bluetooth_aios.c ****                 {   
1016:Generated_Source\PSoC4/Bluetooth_aios.c ****                     /* Read descriptor CYBLE_AIOS_NUM_OF_DIGITAL_DESCR value from database */
1017:Generated_Source\PSoC4/Bluetooth_aios.c ****                     locHandleValuePair.attrHandle =
1018:Generated_Source\PSoC4/Bluetooth_aios.c ****                         cyBle_aioss.charInfoAddr[CYBLE_AIOS_DIGITAL].charInfoPtr[minDescriptionNumb
1019:Generated_Source\PSoC4/Bluetooth_aios.c ****                     locHandleValuePair.value.len = CYBLE_AIOS_NUM_OF_DIGITAL_DESCR_LEN;
1020:Generated_Source\PSoC4/Bluetooth_aios.c ****                     locHandleValuePair.value.val = &numOfDigital;
1021:Generated_Source\PSoC4/Bluetooth_aios.c ****                     
1022:Generated_Source\PSoC4/Bluetooth_aios.c ****                     gattErr = CyBle_GattsReadAttributeValue(&locHandleValuePair, NULL, CYBLE_GATT_D
1023:Generated_Source\PSoC4/Bluetooth_aios.c ****                         
1024:Generated_Source\PSoC4/Bluetooth_aios.c ****                     if (gattErr == CYBLE_GATT_ERR_NONE)    
1025:Generated_Source\PSoC4/Bluetooth_aios.c ****                     {
1026:Generated_Source\PSoC4/Bluetooth_aios.c ****                         locHandleValuePair.attrHandle =
1027:Generated_Source\PSoC4/Bluetooth_aios.c ****                             cyBle_aioss.charInfoAddr[CYBLE_AIOS_DIGITAL].charInfoPtr[minDescription
1028:Generated_Source\PSoC4/Bluetooth_aios.c ****                         locHandleValuePair.value.len = (numOfDigital / 4) + 1;
1029:Generated_Source\PSoC4/Bluetooth_aios.c ****                         locHandleValuePair.value.val = &aggregateChar[aggregateCharIndex + 1];
1030:Generated_Source\PSoC4/Bluetooth_aios.c ****                                             
1031:Generated_Source\PSoC4/Bluetooth_aios.c ****                         gattErr = CyBle_GattsReadAttributeValue(&locHandleValuePair, NULL, CYBLE_GA
ARM GAS  C:\Windows\TEMP\ccyNncCN.s 			page 35


1032:Generated_Source\PSoC4/Bluetooth_aios.c ****                         
1033:Generated_Source\PSoC4/Bluetooth_aios.c ****                         if (gattErr == CYBLE_GATT_ERR_NONE)    
1034:Generated_Source\PSoC4/Bluetooth_aios.c ****                         {    
1035:Generated_Source\PSoC4/Bluetooth_aios.c ****                             for (i = 0; i < ((numOfDigital / 4u) + 1u); i++)
1036:Generated_Source\PSoC4/Bluetooth_aios.c ****                             {
1037:Generated_Source\PSoC4/Bluetooth_aios.c ****                                 aggregateChar[aggregateCharIndex+i] |= (uint8)(aggregateChar[aggreg
1038:Generated_Source\PSoC4/Bluetooth_aios.c ****                                 aggregateChar[aggregateCharIndex + i + 1] >>= (8 - aggregateDigital
1039:Generated_Source\PSoC4/Bluetooth_aios.c ****                             }
1040:Generated_Source\PSoC4/Bluetooth_aios.c **** 
1041:Generated_Source\PSoC4/Bluetooth_aios.c ****                             aggregateCharIndex += (((aggregateDigitalBits / 2u) + numOfDigital) / 4
1042:Generated_Source\PSoC4/Bluetooth_aios.c ****                             aggregateDigitalBits = (((aggregateDigitalBits / 2u) + numOfDigital) % 
1043:Generated_Source\PSoC4/Bluetooth_aios.c ****                         }
1044:Generated_Source\PSoC4/Bluetooth_aios.c ****                     }
1045:Generated_Source\PSoC4/Bluetooth_aios.c ****                 }
1046:Generated_Source\PSoC4/Bluetooth_aios.c ****                 else if(locCharIndex == CYBLE_AIOS_ANALOG)
1047:Generated_Source\PSoC4/Bluetooth_aios.c ****                 {
1048:Generated_Source\PSoC4/Bluetooth_aios.c ****                     /* Read characteristic CYBLE_AIOS_ANALOG value from database */ 
1049:Generated_Source\PSoC4/Bluetooth_aios.c ****                     locHandleValuePair.attrHandle =
1050:Generated_Source\PSoC4/Bluetooth_aios.c ****                         cyBle_aioss.charInfoAddr[locCharIndex].charInfoPtr[minDescriptionNumber].ch
1051:Generated_Source\PSoC4/Bluetooth_aios.c ****                     locHandleValuePair.value.len = CYBLE_AIOS_ANALOG_LEN;
1052:Generated_Source\PSoC4/Bluetooth_aios.c ****                     locHandleValuePair.value.val = &aggregateChar[aggregateCharIndex];
1053:Generated_Source\PSoC4/Bluetooth_aios.c ****                                         
1054:Generated_Source\PSoC4/Bluetooth_aios.c ****                     gattErr = CyBle_GattsReadAttributeValue(&locHandleValuePair, NULL, CYBLE_GATT_D
1055:Generated_Source\PSoC4/Bluetooth_aios.c ****                     if (gattErr == CYBLE_GATT_ERR_NONE)    
1056:Generated_Source\PSoC4/Bluetooth_aios.c ****                     {
1057:Generated_Source\PSoC4/Bluetooth_aios.c ****                         aggregateCharIndex += 2u;
1058:Generated_Source\PSoC4/Bluetooth_aios.c ****                     }
1059:Generated_Source\PSoC4/Bluetooth_aios.c ****                 }
1060:Generated_Source\PSoC4/Bluetooth_aios.c ****                 else
1061:Generated_Source\PSoC4/Bluetooth_aios.c ****                 {
1062:Generated_Source\PSoC4/Bluetooth_aios.c ****                    /* Do nothing */
1063:Generated_Source\PSoC4/Bluetooth_aios.c ****                 }
1064:Generated_Source\PSoC4/Bluetooth_aios.c ****             }  
1065:Generated_Source\PSoC4/Bluetooth_aios.c ****             aggregateCharIndex++;
1066:Generated_Source\PSoC4/Bluetooth_aios.c ****         }
1067:Generated_Source\PSoC4/Bluetooth_aios.c ****         
1068:Generated_Source\PSoC4/Bluetooth_aios.c ****         if (gattErr == CYBLE_GATT_ERR_NONE)
1069:Generated_Source\PSoC4/Bluetooth_aios.c ****         {
1070:Generated_Source\PSoC4/Bluetooth_aios.c ****             locHandleValuePair.attrHandle = cyBle_aioss.charInfoAddr[CYBLE_AIOS_AGGREGATE].charInfo
1071:Generated_Source\PSoC4/Bluetooth_aios.c ****             locHandleValuePair.value.len = aggregateCharIndex-1u;
1072:Generated_Source\PSoC4/Bluetooth_aios.c ****             locHandleValuePair.value.val = aggregateChar;
1073:Generated_Source\PSoC4/Bluetooth_aios.c **** 
1074:Generated_Source\PSoC4/Bluetooth_aios.c ****             /* Store data in database */
1075:Generated_Source\PSoC4/Bluetooth_aios.c ****             gattErr = CyBle_GattsWriteAttributeValue(&locHandleValuePair, 0u, NULL, CYBLE_GATT_DB_L
1076:Generated_Source\PSoC4/Bluetooth_aios.c ****         }
1077:Generated_Source\PSoC4/Bluetooth_aios.c ****     }    
1078:Generated_Source\PSoC4/Bluetooth_aios.c ****     return gattErr;
1079:Generated_Source\PSoC4/Bluetooth_aios.c **** }
 880              		.loc 1 1079 0 is_stmt 1
 881 0018 0020     		movs	r0, #0
 882              		@ sp needed
 883 001a 7047     		bx	lr
 884              		.cfi_endproc
 885              	.LFE12:
 886              		.size	CyBle_AiosSetAggregateChar, .-CyBle_AiosSetAggregateChar
 887              		.section	.text.CyBle_AiossWriteEventHandler,"ax",%progbits
 888              		.align	2
ARM GAS  C:\Windows\TEMP\ccyNncCN.s 			page 36


 889              		.global	CyBle_AiossWriteEventHandler
 890              		.code	16
 891              		.thumb_func
 892              		.type	CyBle_AiossWriteEventHandler, %function
 893              	CyBle_AiossWriteEventHandler:
 894              	.LFB4:
 212:Generated_Source\PSoC4/Bluetooth_aios.c ****     uint8 i;
 895              		.loc 1 212 0
 896              		.cfi_startproc
 897              		@ args = 0, pretend = 0, frame = 24
 898              		@ frame_needed = 0, uses_anonymous_args = 0
 899              	.LVL98:
 900 0000 F0B5     		push	{r4, r5, r6, r7, lr}
 901              		.cfi_def_cfa_offset 20
 902              		.cfi_offset 4, -20
 903              		.cfi_offset 5, -16
 904              		.cfi_offset 6, -12
 905              		.cfi_offset 7, -8
 906              		.cfi_offset 14, -4
 907 0002 5F46     		mov	r7, fp
 908 0004 5646     		mov	r6, r10
 909 0006 4D46     		mov	r5, r9
 910 0008 4446     		mov	r4, r8
 911 000a F0B4     		push	{r4, r5, r6, r7}
 912              		.cfi_def_cfa_offset 36
 913              		.cfi_offset 8, -36
 914              		.cfi_offset 9, -32
 915              		.cfi_offset 10, -28
 916              		.cfi_offset 11, -24
 917 000c 87B0     		sub	sp, sp, #28
 918              		.cfi_def_cfa_offset 64
 919 000e 8246     		mov	r10, r0
 920              	.LVL99:
 224:Generated_Source\PSoC4/Bluetooth_aios.c ****     
 921              		.loc 1 224 0
 922 0010 8689     		ldrh	r6, [r0, #12]
 923              	.LVL100:
 226:Generated_Source\PSoC4/Bluetooth_aios.c ****     {
 924              		.loc 1 226 0
 925 0012 924B     		ldr	r3, .L110
 926 0014 1B68     		ldr	r3, [r3]
 927 0016 002B     		cmp	r3, #0
 928 0018 00D0     		beq	.LCB936
 929 001a FDE0     		b	.L102	@long jump
 930              	.LCB936:
 217:Generated_Source\PSoC4/Bluetooth_aios.c ****     CYBLE_AIOSS_CHAR_T *aiosCharInfoPtr;
 931              		.loc 1 217 0
 932 001c 0024     		movs	r4, #0
 215:Generated_Source\PSoC4/Bluetooth_aios.c ****     CYBLE_GATT_DB_ATTR_HANDLE_T tmpHandle;
 933              		.loc 1 215 0
 934 001e 0027     		movs	r7, #0
 935 0020 07E1     		b	.L77
 936              	.LVL101:
 937              	.L99:
 242:Generated_Source\PSoC4/Bluetooth_aios.c ****             {   
 938              		.loc 1 242 0
 939 0022 C846     		mov	r8, r9
ARM GAS  C:\Windows\TEMP\ccyNncCN.s 			page 37


 940 0024 4B46     		mov	r3, r9
 941 0026 9B00     		lsls	r3, r3, #2
 942 0028 8D4A     		ldr	r2, .L110+4
 943 002a D318     		adds	r3, r2, r3
 944 002c 5B68     		ldr	r3, [r3, #4]
 945 002e 002B     		cmp	r3, #0
 946 0030 00D0     		beq	.LCB955
 947 0032 E5E0     		b	.L103	@long jump
 948              	.LCB955:
 949 0034 EBE0     		b	.L79
 950              	.LVL102:
 951              	.L98:
 246:Generated_Source\PSoC4/Bluetooth_aios.c ****                     
 952              		.loc 1 246 0
 953 0036 4346     		mov	r3, r8
 954 0038 9B00     		lsls	r3, r3, #2
 955 003a 894A     		ldr	r2, .L110+4
 956 003c D318     		adds	r3, r2, r3
 957 003e 5968     		ldr	r1, [r3, #4]
 958 0040 2B01     		lsls	r3, r5, #4
 959 0042 C918     		adds	r1, r1, r3
 960              	.LVL103:
 249:Generated_Source\PSoC4/Bluetooth_aios.c ****                     {
 961              		.loc 1 249 0
 962 0044 0B88     		ldrh	r3, [r1]
 963 0046 9E42     		cmp	r6, r3
 964 0048 04D1     		bne	.L80
 251:Generated_Source\PSoC4/Bluetooth_aios.c ****                         foundItem = CYBLE_AIOS_CHARACTERISTIC_ITEM;
 965              		.loc 1 251 0
 966 004a 0722     		movs	r2, #7
 967 004c 03AB     		add	r3, sp, #12
 968 004e 1A71     		strb	r2, [r3, #4]
 969              	.LVL104:
 252:Generated_Source\PSoC4/Bluetooth_aios.c ****                     }                
 970              		.loc 1 252 0
 971 0050 0124     		movs	r4, #1
 972 0052 12E0     		b	.L81
 973              	.LVL105:
 974              	.L80:
 259:Generated_Source\PSoC4/Bluetooth_aios.c ****                         
 975              		.loc 1 259 0
 976 0054 0722     		movs	r2, #7
 977 0056 03AB     		add	r3, sp, #12
 978 0058 1A71     		strb	r2, [r3, #4]
 979              	.LVL106:
 261:Generated_Source\PSoC4/Bluetooth_aios.c ****                         {
 980              		.loc 1 261 0
 981 005a 0023     		movs	r3, #0
 982 005c 09E0     		b	.L82
 983              	.LVL107:
 984              	.L84:
 263:Generated_Source\PSoC4/Bluetooth_aios.c **** 	                        {
 985              		.loc 1 263 0
 986 005e 5A00     		lsls	r2, r3, #1
 987 0060 8A18     		adds	r2, r1, r2
 988 0062 5288     		ldrh	r2, [r2, #2]
 989 0064 9642     		cmp	r6, r2
ARM GAS  C:\Windows\TEMP\ccyNncCN.s 			page 38


 990 0066 02D1     		bne	.L83
 265:Generated_Source\PSoC4/Bluetooth_aios.c **** 		                        foundItem = CYBLE_AIOS_DESCRIPTOR_ITEM;
 991              		.loc 1 265 0
 992 0068 03AA     		add	r2, sp, #12
 993 006a 1371     		strb	r3, [r2, #4]
 994              	.LVL108:
 266:Generated_Source\PSoC4/Bluetooth_aios.c **** 	                        }
 995              		.loc 1 266 0
 996 006c 0224     		movs	r4, #2
 997              	.LVL109:
 998              	.L83:
 261:Generated_Source\PSoC4/Bluetooth_aios.c ****                         {
 999              		.loc 1 261 0 discriminator 2
 1000 006e 0133     		adds	r3, r3, #1
 1001              	.LVL110:
 1002 0070 DBB2     		uxtb	r3, r3
 1003              	.LVL111:
 1004              	.L82:
 261:Generated_Source\PSoC4/Bluetooth_aios.c ****                         {
 1005              		.loc 1 261 0 is_stmt 0 discriminator 1
 1006 0072 062B     		cmp	r3, #6
 1007 0074 01D8     		bhi	.L81
 261:Generated_Source\PSoC4/Bluetooth_aios.c ****                         {
 1008              		.loc 1 261 0 discriminator 3
 1009 0076 022C     		cmp	r4, #2
 1010 0078 F1D1     		bne	.L84
 1011              	.LVL112:
 1012              	.L81:
 272:Generated_Source\PSoC4/Bluetooth_aios.c ****                     {
 1013              		.loc 1 272 0 is_stmt 1
 1014 007a 002F     		cmp	r7, #0
 1015 007c 6FD1     		bne	.L85
 272:Generated_Source\PSoC4/Bluetooth_aios.c ****                     {
 1016              		.loc 1 272 0 is_stmt 0 discriminator 1
 1017 007e 022C     		cmp	r4, #2
 1018 0080 6DD1     		bne	.L85
 274:Generated_Source\PSoC4/Bluetooth_aios.c ****                         {
 1019              		.loc 1 274 0 is_stmt 1
 1020 0082 03AB     		add	r3, sp, #12
 1021 0084 1B79     		ldrb	r3, [r3, #4]
 1022 0086 022B     		cmp	r3, #2
 1023 0088 42D0     		beq	.L86
 1024 008a 02D8     		bhi	.L87
 1025 008c 002B     		cmp	r3, #0
 1026 008e 05D0     		beq	.L88
 1027 0090 65E0     		b	.L85
 1028              	.L87:
 1029 0092 042B     		cmp	r3, #4
 1030 0094 50D0     		beq	.L89
 1031 0096 052B     		cmp	r3, #5
 1032 0098 54D0     		beq	.L90
 1033 009a 60E0     		b	.L85
 1034              	.L88:
 278:Generated_Source\PSoC4/Bluetooth_aios.c ****                             {
 1035              		.loc 1 278 0
 1036 009c 0B88     		ldrh	r3, [r1]
 1037 009e 013B     		subs	r3, r3, #1
ARM GAS  C:\Windows\TEMP\ccyNncCN.s 			page 39


 1038 00a0 9A00     		lsls	r2, r3, #2
 1039 00a2 D318     		adds	r3, r2, r3
 1040 00a4 9A00     		lsls	r2, r3, #2
 1041 00a6 6F4B     		ldr	r3, .L110+8
 1042 00a8 9A18     		adds	r2, r3, r2
 1043 00aa 5368     		ldr	r3, [r2, #4]
 1044 00ac DA02     		lsls	r2, r3, #11
 1045 00ae 16D5     		bpl	.L91
 280:Generated_Source\PSoC4/Bluetooth_aios.c ****                                 {
 1046              		.loc 1 280 0
 1047 00b0 5346     		mov	r3, r10
 1048 00b2 5868     		ldr	r0, [r3, #4]
 1049 00b4 FFF7FEFF 		bl	CyBle_Get16ByPtr
 1050              	.LVL113:
 1051 00b8 C307     		lsls	r3, r0, #31
 1052 00ba 03D5     		bpl	.L104
 282:Generated_Source\PSoC4/Bluetooth_aios.c ****                                 }
 1053              		.loc 1 282 0
 1054 00bc 1423     		movs	r3, #20
 1055 00be FF33     		adds	r3, r3, #255
 1056 00c0 9B46     		mov	fp, r3
 1057              	.LVL114:
 1058 00c2 02E0     		b	.L92
 1059              	.LVL115:
 1060              	.L104:
 286:Generated_Source\PSoC4/Bluetooth_aios.c ****                                 }
 1061              		.loc 1 286 0
 1062 00c4 8A23     		movs	r3, #138
 1063 00c6 5B00     		lsls	r3, r3, #1
 1064 00c8 9B46     		mov	fp, r3
 1065              	.LVL116:
 1066              	.L92:
 292:Generated_Source\PSoC4/Bluetooth_aios.c ****                                 {
 1067              		.loc 1 292 0
 1068 00ca 674B     		ldr	r3, .L110+12
 1069 00cc 1B78     		ldrb	r3, [r3]
 1070 00ce 012B     		cmp	r3, #1
 1071 00d0 45D1     		bne	.L85
 294:Generated_Source\PSoC4/Bluetooth_aios.c ****                                 }
 1072              		.loc 1 294 0
 1073 00d2 664A     		ldr	r2, .L110+16
 1074 00d4 1178     		ldrb	r1, [r2]
 1075 00d6 0223     		movs	r3, #2
 1076 00d8 0B43     		orrs	r3, r1
 1077 00da 1370     		strb	r3, [r2]
 1078 00dc 3FE0     		b	.L85
 1079              	.LVL117:
 1080              	.L91:
 298:Generated_Source\PSoC4/Bluetooth_aios.c ****                             {
 1081              		.loc 1 298 0
 1082 00de 9B02     		lsls	r3, r3, #10
 1083 00e0 36D5     		bpl	.L105
 300:Generated_Source\PSoC4/Bluetooth_aios.c ****                                 {
 1084              		.loc 1 300 0
 1085 00e2 5346     		mov	r3, r10
 1086 00e4 5868     		ldr	r0, [r3, #4]
 1087 00e6 FFF7FEFF 		bl	CyBle_Get16ByPtr
ARM GAS  C:\Windows\TEMP\ccyNncCN.s 			page 40


 1088              	.LVL118:
 1089 00ea 8307     		lsls	r3, r0, #30
 1090 00ec 03D5     		bpl	.L106
 302:Generated_Source\PSoC4/Bluetooth_aios.c ****                                 }
 1091              		.loc 1 302 0
 1092 00ee 1623     		movs	r3, #22
 1093 00f0 FF33     		adds	r3, r3, #255
 1094 00f2 9B46     		mov	fp, r3
 1095              	.LVL119:
 1096 00f4 02E0     		b	.L93
 1097              	.LVL120:
 1098              	.L106:
 306:Generated_Source\PSoC4/Bluetooth_aios.c ****                                 }
 1099              		.loc 1 306 0
 1100 00f6 8B23     		movs	r3, #139
 1101 00f8 5B00     		lsls	r3, r3, #1
 1102 00fa 9B46     		mov	fp, r3
 1103              	.LVL121:
 1104              	.L93:
 312:Generated_Source\PSoC4/Bluetooth_aios.c ****                                 {
 1105              		.loc 1 312 0
 1106 00fc 5A4B     		ldr	r3, .L110+12
 1107 00fe 1B78     		ldrb	r3, [r3]
 1108 0100 012B     		cmp	r3, #1
 1109 0102 2CD1     		bne	.L85
 314:Generated_Source\PSoC4/Bluetooth_aios.c ****                                 }
 1110              		.loc 1 314 0
 1111 0104 594A     		ldr	r2, .L110+16
 1112 0106 1178     		ldrb	r1, [r2]
 1113 0108 0223     		movs	r3, #2
 1114 010a 0B43     		orrs	r3, r1
 1115 010c 1370     		strb	r3, [r2]
 1116 010e 26E0     		b	.L85
 1117              	.LVL122:
 1118              	.L86:
 325:Generated_Source\PSoC4/Bluetooth_aios.c ****                                 aiosCharInfoPtr->descrHandle[CYBLE_AIOS_CHAR_USER_DESCRIPTION_DESCR
 1119              		.loc 1 325 0
 1120 0110 CB88     		ldrh	r3, [r1, #6]
 1121 0112 013B     		subs	r3, r3, #1
 1122 0114 9900     		lsls	r1, r3, #2
 1123              	.LVL123:
 1124 0116 C918     		adds	r1, r1, r3
 1125 0118 8A00     		lsls	r2, r1, #2
 1126 011a 5249     		ldr	r1, .L110+8
 1127 011c 8A18     		adds	r2, r1, r2
 1128 011e 9189     		ldrh	r1, [r2, #12]
 327:Generated_Source\PSoC4/Bluetooth_aios.c ****                             {
 1129              		.loc 1 327 0
 1130 0120 5246     		mov	r2, r10
 1131 0122 1289     		ldrh	r2, [r2, #8]
 325:Generated_Source\PSoC4/Bluetooth_aios.c ****                                 aiosCharInfoPtr->descrHandle[CYBLE_AIOS_CHAR_USER_DESCRIPTION_DESCR
 1132              		.loc 1 325 0
 1133 0124 9142     		cmp	r1, r2
 1134 0126 15D3     		bcc	.L107
 330:Generated_Source\PSoC4/Bluetooth_aios.c ****                                     aiosCharInfoPtr->descrHandle[CYBLE_AIOS_CHAR_USER_DESCRIPTION_D
 1135              		.loc 1 330 0
 1136 0128 9900     		lsls	r1, r3, #2
ARM GAS  C:\Windows\TEMP\ccyNncCN.s 			page 41


 1137 012a CB18     		adds	r3, r1, r3
 1138 012c 9900     		lsls	r1, r3, #2
 1139 012e 4D4B     		ldr	r3, .L110+8
 1140 0130 5918     		adds	r1, r3, r1
 1141 0132 0B69     		ldr	r3, [r1, #16]
 1142 0134 1A80     		strh	r2, [r3]
 1143 0136 12E0     		b	.L85
 1144              	.LVL124:
 1145              	.L89:
 342:Generated_Source\PSoC4/Bluetooth_aios.c ****                             {
 1146              		.loc 1 342 0
 1147 0138 5346     		mov	r3, r10
 1148 013a 5B68     		ldr	r3, [r3, #4]
 1149 013c 1B78     		ldrb	r3, [r3]
 1150 013e 062B     		cmp	r3, #6
 1151 0140 0AD8     		bhi	.L108
 1152 0142 0CE0     		b	.L85
 1153              	.L90:
 350:Generated_Source\PSoC4/Bluetooth_aios.c ****                             {
 1154              		.loc 1 350 0
 1155 0144 5346     		mov	r3, r10
 1156 0146 5B68     		ldr	r3, [r3, #4]
 1157 0148 1B78     		ldrb	r3, [r3]
 1158 014a 022B     		cmp	r3, #2
 1159 014c 06D8     		bhi	.L109
 1160 014e 06E0     		b	.L85
 1161              	.L105:
 320:Generated_Source\PSoC4/Bluetooth_aios.c ****                             }
 1162              		.loc 1 320 0
 1163 0150 0627     		movs	r7, #6
 1164              	.LVL125:
 1165 0152 04E0     		b	.L85
 1166              	.LVL126:
 1167              	.L107:
 336:Generated_Source\PSoC4/Bluetooth_aios.c ****                             }
 1168              		.loc 1 336 0
 1169 0154 0D27     		movs	r7, #13
 1170              	.LVL127:
 1171 0156 02E0     		b	.L85
 1172              	.LVL128:
 1173              	.L108:
 344:Generated_Source\PSoC4/Bluetooth_aios.c ****                             }
 1174              		.loc 1 344 0
 1175 0158 8027     		movs	r7, #128
 1176              	.LVL129:
 1177 015a 00E0     		b	.L85
 1178              	.LVL130:
 1179              	.L109:
 352:Generated_Source\PSoC4/Bluetooth_aios.c ****                             }
 1180              		.loc 1 352 0
 1181 015c 8027     		movs	r7, #128
 1182              	.LVL131:
 1183              	.L85:
 362:Generated_Source\PSoC4/Bluetooth_aios.c ****                     && ( (foundItem == CYBLE_AIOS_CHARACTERISTIC_ITEM) || (foundItem == CYBLE_AIOS_
 1184              		.loc 1 362 0
 1185 015e 002F     		cmp	r7, #0
 1186 0160 4BD1     		bne	.L94
ARM GAS  C:\Windows\TEMP\ccyNncCN.s 			page 42


 363:Generated_Source\PSoC4/Bluetooth_aios.c ****                     {
 1187              		.loc 1 363 0
 1188 0162 631E     		subs	r3, r4, #1
 1189 0164 DBB2     		uxtb	r3, r3
 1190 0166 012B     		cmp	r3, #1
 1191 0168 47D8     		bhi	.L94
 365:Generated_Source\PSoC4/Bluetooth_aios.c ****                                                               &eventParam->connHandle,
 1192              		.loc 1 365 0
 1193 016a 5346     		mov	r3, r10
 1194 016c 9889     		ldrh	r0, [r3, #12]
 1195 016e 4222     		movs	r2, #66
 1196 0170 5146     		mov	r1, r10
 1197 0172 FFF7FEFF 		bl	CyBle_GattDbCheckPermission
 1198              	.LVL132:
 1199 0176 071E     		subs	r7, r0, #0
 1200              	.LVL133:
 369:Generated_Source\PSoC4/Bluetooth_aios.c ****                         {
 1201              		.loc 1 369 0
 1202 0178 39D1     		bne	.L95
 373:Generated_Source\PSoC4/Bluetooth_aios.c ****                             {
 1203              		.loc 1 373 0
 1204 017a 012C     		cmp	r4, #1
 1205 017c 14D1     		bne	.L96
 375:Generated_Source\PSoC4/Bluetooth_aios.c ****                                 wrCharReqParam.charIndex = (CYBLE_AIOS_CHAR_INDEX_T) i;
 1206              		.loc 1 375 0
 1207 017e 5346     		mov	r3, r10
 1208 0180 1B88     		ldrh	r3, [r3]
 1209 0182 6A46     		mov	r2, sp
 1210 0184 1380     		strh	r3, [r2]
 376:Generated_Source\PSoC4/Bluetooth_aios.c ****                                 wrCharReqParam.charInstance = j;
 1211              		.loc 1 376 0
 1212 0186 6B46     		mov	r3, sp
 1213 0188 4A46     		mov	r2, r9
 1214 018a 9A70     		strb	r2, [r3, #2]
 377:Generated_Source\PSoC4/Bluetooth_aios.c ****                                 wrCharReqParam.gattErrorCode = CYBLE_GATT_ERR_NONE;
 1215              		.loc 1 377 0
 1216 018c DD70     		strb	r5, [r3, #3]
 378:Generated_Source\PSoC4/Bluetooth_aios.c ****                                 wrCharReqParam.value = &eventParam->handleValPair.value;
 1217              		.loc 1 378 0
 1218 018e 0023     		movs	r3, #0
 1219 0190 6A46     		mov	r2, sp
 1220 0192 1372     		strb	r3, [r2, #8]
 379:Generated_Source\PSoC4/Bluetooth_aios.c ****                             
 1221              		.loc 1 379 0
 1222 0194 5346     		mov	r3, r10
 1223 0196 0433     		adds	r3, r3, #4
 1224 0198 0193     		str	r3, [sp, #4]
 381:Generated_Source\PSoC4/Bluetooth_aios.c ****                             }
 1225              		.loc 1 381 0
 1226 019a 304B     		ldr	r3, .L110
 1227 019c 1B68     		ldr	r3, [r3]
 1228 019e 6946     		mov	r1, sp
 1229 01a0 8C20     		movs	r0, #140
 1230              	.LVL134:
 1231 01a2 4000     		lsls	r0, r0, #1
 1232 01a4 9847     		blx	r3
 1233              	.LVL135:
ARM GAS  C:\Windows\TEMP\ccyNncCN.s 			page 43


 1234 01a6 12E0     		b	.L97
 1235              	.LVL136:
 1236              	.L96:
 383:Generated_Source\PSoC4/Bluetooth_aios.c ****                             {
 1237              		.loc 1 383 0
 1238 01a8 022C     		cmp	r4, #2
 1239 01aa 10D1     		bne	.L97
 385:Generated_Source\PSoC4/Bluetooth_aios.c ****                                 wrDescrReqParam.charIndex = (CYBLE_AIOS_CHAR_INDEX_T) i;
 1240              		.loc 1 385 0
 1241 01ac 03A9     		add	r1, sp, #12
 1242 01ae 5346     		mov	r3, r10
 1243 01b0 1B88     		ldrh	r3, [r3]
 1244 01b2 0B80     		strh	r3, [r1]
 386:Generated_Source\PSoC4/Bluetooth_aios.c ****                                 wrDescrReqParam.charInstance = j;
 1245              		.loc 1 386 0
 1246 01b4 4B46     		mov	r3, r9
 1247 01b6 8B70     		strb	r3, [r1, #2]
 387:Generated_Source\PSoC4/Bluetooth_aios.c ****                                 wrDescrReqParam.gattErrorCode = CYBLE_GATT_ERR_NONE;
 1248              		.loc 1 387 0
 1249 01b8 CD70     		strb	r5, [r1, #3]
 388:Generated_Source\PSoC4/Bluetooth_aios.c ****                                 wrDescrReqParam.value = &eventParam->handleValPair.value;
 1250              		.loc 1 388 0
 1251 01ba 0023     		movs	r3, #0
 1252 01bc 4B71     		strb	r3, [r1, #5]
 389:Generated_Source\PSoC4/Bluetooth_aios.c ****                             
 1253              		.loc 1 389 0
 1254 01be 5346     		mov	r3, r10
 1255 01c0 0433     		adds	r3, r3, #4
 1256 01c2 8B60     		str	r3, [r1, #8]
 391:Generated_Source\PSoC4/Bluetooth_aios.c ****                             }
 1257              		.loc 1 391 0
 1258 01c4 254B     		ldr	r3, .L110
 1259 01c6 1B68     		ldr	r3, [r3]
 1260 01c8 1A20     		movs	r0, #26
 1261              	.LVL137:
 1262 01ca FF30     		adds	r0, r0, #255
 1263 01cc 9847     		blx	r3
 1264              	.LVL138:
 1265              	.L97:
 399:Generated_Source\PSoC4/Bluetooth_aios.c ****                                 &eventParam->connHandle, CYBLE_GATT_DB_PEER_INITIATED);
 1266              		.loc 1 399 0
 1267 01ce 5346     		mov	r3, r10
 1268 01d0 181D     		adds	r0, r3, #4
 1269 01d2 4023     		movs	r3, #64
 1270 01d4 5246     		mov	r2, r10
 1271 01d6 0021     		movs	r1, #0
 1272 01d8 FFF7FEFF 		bl	CyBle_GattsWriteAttributeValue
 1273              	.LVL139:
 1274 01dc 0700     		movs	r7, r0
 1275              	.LVL140:
 402:Generated_Source\PSoC4/Bluetooth_aios.c ****                             {   
 1276              		.loc 1 402 0
 1277 01de 5B46     		mov	r3, fp
 1278 01e0 002B     		cmp	r3, #0
 1279 01e2 04D0     		beq	.L95
 1280              	.LVL141:
 404:Generated_Source\PSoC4/Bluetooth_aios.c ****                             }
ARM GAS  C:\Windows\TEMP\ccyNncCN.s 			page 44


 1281              		.loc 1 404 0
 1282 01e4 1D4B     		ldr	r3, .L110
 1283              	.LVL142:
 1284 01e6 1B68     		ldr	r3, [r3]
 1285 01e8 03A9     		add	r1, sp, #12
 1286 01ea 5846     		mov	r0, fp
 1287              	.LVL143:
 1288 01ec 9847     		blx	r3
 1289              	.LVL144:
 1290              	.L95:
 411:Generated_Source\PSoC4/Bluetooth_aios.c ****                         break;
 1291              		.loc 1 411 0
 1292 01ee 204A     		ldr	r2, .L110+20
 1293 01f0 1378     		ldrb	r3, [r2]
 1294 01f2 0121     		movs	r1, #1
 1295 01f4 8B43     		bics	r3, r1
 1296 01f6 1370     		strb	r3, [r2]
 412:Generated_Source\PSoC4/Bluetooth_aios.c ****                     }
 1297              		.loc 1 412 0
 1298 01f8 09E0     		b	.L79
 1299              	.L94:
 244:Generated_Source\PSoC4/Bluetooth_aios.c ****                 {
 1300              		.loc 1 244 0 discriminator 2
 1301 01fa 0135     		adds	r5, r5, #1
 1302              	.LVL145:
 1303 01fc EDB2     		uxtb	r5, r5
 1304              	.LVL146:
 1305 01fe 00E0     		b	.L78
 1306              	.LVL147:
 1307              	.L103:
 1308 0200 0025     		movs	r5, #0
 1309              	.L78:
 1310              	.LVL148:
 244:Generated_Source\PSoC4/Bluetooth_aios.c ****                 {
 1311              		.loc 1 244 0 is_stmt 0 discriminator 1
 1312 0202 1C4B     		ldr	r3, .L110+24
 1313 0204 4246     		mov	r2, r8
 1314 0206 9B5C     		ldrb	r3, [r3, r2]
 1315 0208 9D42     		cmp	r5, r3
 1316 020a 00D2     		bcs	.LCB1388
 1317 020c 13E7     		b	.L98	@long jump
 1318              	.LCB1388:
 1319              	.LVL149:
 1320              	.L79:
 235:Generated_Source\PSoC4/Bluetooth_aios.c ****         {
 1321              		.loc 1 235 0 is_stmt 1
 1322 020e 4B46     		mov	r3, r9
 1323 0210 0133     		adds	r3, r3, #1
 1324 0212 DBB2     		uxtb	r3, r3
 1325 0214 9946     		mov	r9, r3
 1326              	.LVL150:
 1327 0216 04E0     		b	.L76
 1328              	.LVL151:
 1329              	.L102:
 1330 0218 0023     		movs	r3, #0
 1331 021a 9B46     		mov	fp, r3
 1332 021c 0024     		movs	r4, #0
ARM GAS  C:\Windows\TEMP\ccyNncCN.s 			page 45


 1333 021e 0027     		movs	r7, #0
 1334 0220 9946     		mov	r9, r3
 1335              	.LVL152:
 1336              	.L76:
 234:Generated_Source\PSoC4/Bluetooth_aios.c ****             i++)
 1337              		.loc 1 234 0 discriminator 1
 1338 0222 4B46     		mov	r3, r9
 1339 0224 022B     		cmp	r3, #2
 1340 0226 04D8     		bhi	.L77
 234:Generated_Source\PSoC4/Bluetooth_aios.c ****             i++)
 1341              		.loc 1 234 0 is_stmt 0 discriminator 2
 1342 0228 002C     		cmp	r4, #0
 1343 022a 02D1     		bne	.L77
 234:Generated_Source\PSoC4/Bluetooth_aios.c ****             i++)
 1344              		.loc 1 234 0 discriminator 3
 1345 022c 002F     		cmp	r7, #0
 1346 022e 00D1     		bne	.LCB1433
 1347 0230 F7E6     		b	.L99	@long jump
 1348              	.LCB1433:
 1349              	.LVL153:
 1350              	.L77:
 419:Generated_Source\PSoC4/Bluetooth_aios.c ****     {
 1351              		.loc 1 419 0 is_stmt 1
 1352 0232 002F     		cmp	r7, #0
 1353 0234 05D0     		beq	.L100
 422:Generated_Source\PSoC4/Bluetooth_aios.c ****     }
 1354              		.loc 1 422 0
 1355 0236 0E4A     		ldr	r2, .L110+20
 1356 0238 1378     		ldrb	r3, [r2]
 1357 023a 0121     		movs	r1, #1
 1358 023c 8B43     		bics	r3, r1
 1359 023e 1370     		strb	r3, [r2]
 1360 0240 04E0     		b	.L101
 1361              	.L100:
 426:Generated_Source\PSoC4/Bluetooth_aios.c ****         {
 1362              		.loc 1 426 0
 1363 0242 012C     		cmp	r4, #1
 1364 0244 02D1     		bne	.L101
 428:Generated_Source\PSoC4/Bluetooth_aios.c ****         }
 1365              		.loc 1 428 0
 1366 0246 FFF7FEFF 		bl	CyBle_AiosSetAggregateChar
 1367              	.LVL154:
 1368 024a 0700     		movs	r7, r0
 1369              	.LVL155:
 1370              	.L101:
 433:Generated_Source\PSoC4/Bluetooth_aios.c **** 
 1371              		.loc 1 433 0
 1372 024c 3800     		movs	r0, r7
 1373 024e 07B0     		add	sp, sp, #28
 1374              		@ sp needed
 1375              	.LVL156:
 1376              	.LVL157:
 1377              	.LVL158:
 1378              	.LVL159:
 1379 0250 3CBC     		pop	{r2, r3, r4, r5}
 1380 0252 9046     		mov	r8, r2
 1381 0254 9946     		mov	r9, r3
ARM GAS  C:\Windows\TEMP\ccyNncCN.s 			page 46


 1382 0256 A246     		mov	r10, r4
 1383 0258 AB46     		mov	fp, r5
 1384 025a F0BD     		pop	{r4, r5, r6, r7, pc}
 1385              	.L111:
 1386              		.align	2
 1387              	.L110:
 1388 025c 00000000 		.word	.LANCHOR0
 1389 0260 00000000 		.word	.LANCHOR2
 1390 0264 00000000 		.word	cyBle_gattDB
 1391 0268 00000000 		.word	cyBle_peerBonding
 1392 026c 00000000 		.word	cyBle_pendingFlashWrite
 1393 0270 00000000 		.word	cyBle_eventHandlerFlag
 1394 0274 00000000 		.word	.LANCHOR1
 1395              		.cfi_endproc
 1396              	.LFE4:
 1397              		.size	CyBle_AiossWriteEventHandler, .-CyBle_AiossWriteEventHandler
 1398              		.section	.text.CyBle_AiossSetCharacteristicValue,"ax",%progbits
 1399              		.align	2
 1400              		.global	CyBle_AiossSetCharacteristicValue
 1401              		.code	16
 1402              		.thumb_func
 1403              		.type	CyBle_AiossSetCharacteristicValue, %function
 1404              	CyBle_AiossSetCharacteristicValue:
 1405              	.LFB5:
 459:Generated_Source\PSoC4/Bluetooth_aios.c ****     CYBLE_API_RESULT_T apiResult = CYBLE_ERROR_INVALID_PARAMETER;
 1406              		.loc 1 459 0
 1407              		.cfi_startproc
 1408              		@ args = 0, pretend = 0, frame = 16
 1409              		@ frame_needed = 0, uses_anonymous_args = 0
 1410              	.LVL160:
 1411 0000 10B5     		push	{r4, lr}
 1412              		.cfi_def_cfa_offset 8
 1413              		.cfi_offset 4, -8
 1414              		.cfi_offset 14, -4
 1415 0002 84B0     		sub	sp, sp, #16
 1416              		.cfi_def_cfa_offset 24
 1417              	.LVL161:
 463:Generated_Source\PSoC4/Bluetooth_aios.c ****     {
 1418              		.loc 1 463 0
 1419 0004 0228     		cmp	r0, #2
 1420 0006 1CD8     		bhi	.L116
 463:Generated_Source\PSoC4/Bluetooth_aios.c ****     {
 1421              		.loc 1 463 0 is_stmt 0 discriminator 1
 1422 0008 164C     		ldr	r4, .L122
 1423 000a 245C     		ldrb	r4, [r4, r0]
 1424 000c 8C42     		cmp	r4, r1
 1425 000e 1AD9     		bls	.L117
 471:Generated_Source\PSoC4/Bluetooth_aios.c ****             (CYBLE_GATT_INVALID_ATTR_HANDLE_VALUE !=
 1426              		.loc 1 471 0 is_stmt 1
 1427 0010 8000     		lsls	r0, r0, #2
 1428              	.LVL162:
 1429 0012 154C     		ldr	r4, .L122+4
 1430 0014 2018     		adds	r0, r4, r0
 1431 0016 4068     		ldr	r0, [r0, #4]
 1432 0018 0028     		cmp	r0, #0
 1433 001a 16D0     		beq	.L118
 473:Generated_Source\PSoC4/Bluetooth_aios.c ****         {
ARM GAS  C:\Windows\TEMP\ccyNncCN.s 			page 47


 1434              		.loc 1 473 0 discriminator 1
 1435 001c 0901     		lsls	r1, r1, #4
 1436              	.LVL163:
 1437 001e 415A     		ldrh	r1, [r0, r1]
 471:Generated_Source\PSoC4/Bluetooth_aios.c ****             (CYBLE_GATT_INVALID_ATTR_HANDLE_VALUE !=
 1438              		.loc 1 471 0 discriminator 1
 1439 0020 0029     		cmp	r1, #0
 1440 0022 14D0     		beq	.L119
 1441              	.LBB8:
 477:Generated_Source\PSoC4/Bluetooth_aios.c ****                 cyBle_aioss.charInfoAddr[charIndex].charInfoPtr[charInstance].charHandle;
 1442              		.loc 1 477 0
 1443 0024 01A8     		add	r0, sp, #4
 1444 0026 0181     		strh	r1, [r0, #8]
 479:Generated_Source\PSoC4/Bluetooth_aios.c ****             locHandleValuePair.value.val = attrValue;
 1445              		.loc 1 479 0
 1446 0028 8280     		strh	r2, [r0, #4]
 480:Generated_Source\PSoC4/Bluetooth_aios.c **** 
 1447              		.loc 1 480 0
 1448 002a 0193     		str	r3, [sp, #4]
 483:Generated_Source\PSoC4/Bluetooth_aios.c ****                 CYBLE_GATT_ERR_NONE)
 1449              		.loc 1 483 0
 1450 002c 0023     		movs	r3, #0
 1451              	.LVL164:
 1452 002e 0022     		movs	r2, #0
 1453              	.LVL165:
 1454 0030 0021     		movs	r1, #0
 1455 0032 FFF7FEFF 		bl	CyBle_GattsWriteAttributeValue
 1456              	.LVL166:
 1457 0036 0028     		cmp	r0, #0
 1458 0038 01D0     		beq	.L120
 1459              	.LBE8:
 460:Generated_Source\PSoC4/Bluetooth_aios.c **** 
 1460              		.loc 1 460 0
 1461 003a 0124     		movs	r4, #1
 1462 003c 08E0     		b	.L113
 1463              	.L120:
 1464              	.LBB9:
 486:Generated_Source\PSoC4/Bluetooth_aios.c ****             }
 1465              		.loc 1 486 0
 1466 003e 0024     		movs	r4, #0
 1467              	.LVL167:
 1468              	.LBE9:
 474:Generated_Source\PSoC4/Bluetooth_aios.c ****             CYBLE_GATT_HANDLE_VALUE_PAIR_T locHandleValuePair;
 1469              		.loc 1 474 0
 1470 0040 06E0     		b	.L113
 1471              	.LVL168:
 1472              	.L116:
 460:Generated_Source\PSoC4/Bluetooth_aios.c **** 
 1473              		.loc 1 460 0
 1474 0042 0124     		movs	r4, #1
 1475 0044 04E0     		b	.L113
 1476              	.L117:
 1477 0046 0124     		movs	r4, #1
 1478 0048 02E0     		b	.L113
 1479              	.LVL169:
 1480              	.L118:
 491:Generated_Source\PSoC4/Bluetooth_aios.c ****         }
ARM GAS  C:\Windows\TEMP\ccyNncCN.s 			page 48


 1481              		.loc 1 491 0
 1482 004a 1324     		movs	r4, #19
 1483 004c 00E0     		b	.L113
 1484              	.LVL170:
 1485              	.L119:
 1486 004e 1324     		movs	r4, #19
 1487              	.LVL171:
 1488              	.L113:
 495:Generated_Source\PSoC4/Bluetooth_aios.c ****     {   
 1489              		.loc 1 495 0
 1490 0050 002C     		cmp	r4, #0
 1491 0052 04D1     		bne	.L115
 497:Generated_Source\PSoC4/Bluetooth_aios.c ****         {   
 1492              		.loc 1 497 0
 1493 0054 FFF7FEFF 		bl	CyBle_AiosSetAggregateChar
 1494              	.LVL172:
 1495 0058 0028     		cmp	r0, #0
 1496 005a 00D0     		beq	.L115
 499:Generated_Source\PSoC4/Bluetooth_aios.c ****         }
 1497              		.loc 1 499 0
 1498 005c 1334     		adds	r4, r4, #19
 1499              	.LVL173:
 1500              	.L115:
 504:Generated_Source\PSoC4/Bluetooth_aios.c **** 
 1501              		.loc 1 504 0
 1502 005e 2000     		movs	r0, r4
 1503 0060 04B0     		add	sp, sp, #16
 1504              		@ sp needed
 1505              	.LVL174:
 1506 0062 10BD     		pop	{r4, pc}
 1507              	.L123:
 1508              		.align	2
 1509              	.L122:
 1510 0064 00000000 		.word	.LANCHOR1
 1511 0068 00000000 		.word	.LANCHOR2
 1512              		.cfi_endproc
 1513              	.LFE5:
 1514              		.size	CyBle_AiossSetCharacteristicValue, .-CyBle_AiossSetCharacteristicValue
 1515              		.global	cyBle_aioss
 1516              		.global	cyBle_aiossCharInstances
 1517              		.section	.rodata
 1518              		.align	2
 1519              		.set	.LANCHOR2,. + 0
 1520              		.type	cyBle_aioss, %object
 1521              		.size	cyBle_aioss, 16
 1522              	cyBle_aioss:
 1523 0000 1000     		.short	16
 1524 0002 0000     		.space	2
 1525 0004 00000000 		.word	0
 1526 0008 04000000 		.word	aiossCharIdx1
 1527 000c 00000000 		.word	0
 1528              		.data
 1529              		.align	2
 1530              		.set	.LANCHOR1,. + 0
 1531              		.type	cyBle_aiossCharInstances, %object
 1532              		.size	cyBle_aiossCharInstances, 3
 1533              	cyBle_aiossCharInstances:
ARM GAS  C:\Windows\TEMP\ccyNncCN.s 			page 49


 1534 0000 00       		.byte	0
 1535 0001 04       		.byte	4
 1536 0002 00       		.byte	0
 1537 0003 00       		.space	1
 1538              		.type	aiossCharIdx1, %object
 1539              		.size	aiossCharIdx1, 64
 1540              	aiossCharIdx1:
 1541 0004 1200     		.short	18
 1542 0006 1300     		.short	19
 1543 0008 1400     		.short	20
 1544 000a 1500     		.short	21
 1545 000c 1600     		.short	22
 1546 000e 1700     		.short	23
 1547 0010 1800     		.short	24
 1548 0012 1900     		.short	25
 1549 0014 1B00     		.short	27
 1550 0016 1C00     		.short	28
 1551 0018 1D00     		.short	29
 1552 001a 1E00     		.short	30
 1553 001c 1F00     		.short	31
 1554 001e 2000     		.short	32
 1555 0020 2100     		.short	33
 1556 0022 2200     		.short	34
 1557 0024 2400     		.short	36
 1558 0026 2500     		.short	37
 1559 0028 2600     		.short	38
 1560 002a 2700     		.short	39
 1561 002c 2800     		.short	40
 1562 002e 2900     		.short	41
 1563 0030 2A00     		.short	42
 1564 0032 2B00     		.short	43
 1565 0034 2D00     		.short	45
 1566 0036 2E00     		.short	46
 1567 0038 2F00     		.short	47
 1568 003a 3000     		.short	48
 1569 003c 3100     		.short	49
 1570 003e 3200     		.short	50
 1571 0040 3300     		.short	51
 1572 0042 0000     		.short	0
 1573              		.bss
 1574              		.align	2
 1575              		.set	.LANCHOR0,. + 0
 1576              		.type	CyBle_AiosApplCallback, %object
 1577              		.size	CyBle_AiosApplCallback, 4
 1578              	CyBle_AiosApplCallback:
 1579 0000 00000000 		.space	4
 1580              		.type	cyBle_aiossReqHandle, %object
 1581              		.size	cyBle_aiossReqHandle, 2
 1582              	cyBle_aiossReqHandle:
 1583 0004 0000     		.space	2
 1584              		.text
 1585              	.Letext0:
 1586              		.file 2 "Generated_Source\\PSoC4\\cytypes.h"
 1587              		.file 3 "Generated_Source\\PSoC4\\Bluetooth_Stack.h"
 1588              		.file 4 "Generated_Source\\PSoC4\\Bluetooth_StackGatt.h"
 1589              		.file 5 "Generated_Source\\PSoC4\\Bluetooth_StackGattServer.h"
 1590              		.file 6 "Generated_Source\\PSoC4\\Bluetooth_StackGattDb.h"
ARM GAS  C:\Windows\TEMP\ccyNncCN.s 			page 50


 1591              		.file 7 "Generated_Source\\PSoC4\\Bluetooth.h"
 1592              		.file 8 "Generated_Source\\PSoC4\\Bluetooth_aios.h"
 1593              		.file 9 "Generated_Source\\PSoC4\\Bluetooth_eventHandler.h"
 1594              		.file 10 "Generated_Source\\PSoC4\\Bluetooth_gatt.h"
 1595              		.section	.debug_info,"",%progbits
 1596              	.Ldebug_info0:
 1597 0000 1A190000 		.4byte	0x191a
 1598 0004 0400     		.2byte	0x4
 1599 0006 00000000 		.4byte	.Ldebug_abbrev0
 1600 000a 04       		.byte	0x4
 1601 000b 01       		.uleb128 0x1
 1602 000c CD060000 		.4byte	.LASF592
 1603 0010 0C       		.byte	0xc
 1604 0011 7A3E0000 		.4byte	.LASF593
 1605 0015 891B0000 		.4byte	.LASF594
 1606 0019 30000000 		.4byte	.Ldebug_ranges0+0x30
 1607 001d 00000000 		.4byte	0
 1608 0021 00000000 		.4byte	.Ldebug_line0
 1609 0025 02       		.uleb128 0x2
 1610 0026 01       		.byte	0x1
 1611 0027 06       		.byte	0x6
 1612 0028 4C0F0000 		.4byte	.LASF0
 1613 002c 02       		.uleb128 0x2
 1614 002d 01       		.byte	0x1
 1615 002e 08       		.byte	0x8
 1616 002f 55100000 		.4byte	.LASF1
 1617 0033 02       		.uleb128 0x2
 1618 0034 02       		.byte	0x2
 1619 0035 05       		.byte	0x5
 1620 0036 0B390000 		.4byte	.LASF2
 1621 003a 02       		.uleb128 0x2
 1622 003b 02       		.byte	0x2
 1623 003c 07       		.byte	0x7
 1624 003d D0400000 		.4byte	.LASF3
 1625 0041 02       		.uleb128 0x2
 1626 0042 04       		.byte	0x4
 1627 0043 05       		.byte	0x5
 1628 0044 F10B0000 		.4byte	.LASF4
 1629 0048 02       		.uleb128 0x2
 1630 0049 04       		.byte	0x4
 1631 004a 07       		.byte	0x7
 1632 004b F01D0000 		.4byte	.LASF5
 1633 004f 02       		.uleb128 0x2
 1634 0050 08       		.byte	0x8
 1635 0051 05       		.byte	0x5
 1636 0052 78230000 		.4byte	.LASF6
 1637 0056 02       		.uleb128 0x2
 1638 0057 08       		.byte	0x8
 1639 0058 07       		.byte	0x7
 1640 0059 9D310000 		.4byte	.LASF7
 1641 005d 03       		.uleb128 0x3
 1642 005e 04       		.byte	0x4
 1643 005f 05       		.byte	0x5
 1644 0060 696E7400 		.ascii	"int\000"
 1645 0064 02       		.uleb128 0x2
 1646 0065 04       		.byte	0x4
 1647 0066 07       		.byte	0x7
ARM GAS  C:\Windows\TEMP\ccyNncCN.s 			page 51


 1648 0067 A6280000 		.4byte	.LASF8
 1649 006b 04       		.uleb128 0x4
 1650 006c 9A380000 		.4byte	.LASF9
 1651 0070 02       		.byte	0x2
 1652 0071 FC01     		.2byte	0x1fc
 1653 0073 2C000000 		.4byte	0x2c
 1654 0077 04       		.uleb128 0x4
 1655 0078 A4440000 		.4byte	.LASF10
 1656 007c 02       		.byte	0x2
 1657 007d FD01     		.2byte	0x1fd
 1658 007f 3A000000 		.4byte	0x3a
 1659 0083 04       		.uleb128 0x4
 1660 0084 B0030000 		.4byte	.LASF11
 1661 0088 02       		.byte	0x2
 1662 0089 FE01     		.2byte	0x1fe
 1663 008b 48000000 		.4byte	0x48
 1664 008f 02       		.uleb128 0x2
 1665 0090 04       		.byte	0x4
 1666 0091 04       		.byte	0x4
 1667 0092 0F270000 		.4byte	.LASF12
 1668 0096 02       		.uleb128 0x2
 1669 0097 08       		.byte	0x8
 1670 0098 04       		.byte	0x4
 1671 0099 D7240000 		.4byte	.LASF13
 1672 009d 02       		.uleb128 0x2
 1673 009e 01       		.byte	0x1
 1674 009f 08       		.byte	0x8
 1675 00a0 CD120000 		.4byte	.LASF14
 1676 00a4 05       		.uleb128 0x5
 1677 00a5 6B000000 		.4byte	0x6b
 1678 00a9 02       		.uleb128 0x2
 1679 00aa 08       		.byte	0x8
 1680 00ab 04       		.byte	0x4
 1681 00ac 062E0000 		.4byte	.LASF15
 1682 00b0 02       		.uleb128 0x2
 1683 00b1 04       		.byte	0x4
 1684 00b2 07       		.byte	0x7
 1685 00b3 E4000000 		.4byte	.LASF16
 1686 00b7 06       		.uleb128 0x6
 1687 00b8 04       		.byte	0x4
 1688 00b9 07       		.uleb128 0x7
 1689 00ba 04       		.byte	0x4
 1690 00bb BF000000 		.4byte	0xbf
 1691 00bf 08       		.uleb128 0x8
 1692 00c0 CF000000 		.4byte	0xcf
 1693 00c4 09       		.uleb128 0x9
 1694 00c5 83000000 		.4byte	0x83
 1695 00c9 09       		.uleb128 0x9
 1696 00ca B7000000 		.4byte	0xb7
 1697 00ce 00       		.byte	0
 1698 00cf 0A       		.uleb128 0xa
 1699 00d0 01       		.byte	0x1
 1700 00d1 2C000000 		.4byte	0x2c
 1701 00d5 03       		.byte	0x3
 1702 00d6 3501     		.2byte	0x135
 1703 00d8 8D020000 		.4byte	0x28d
 1704 00dc 0B       		.uleb128 0xb
ARM GAS  C:\Windows\TEMP\ccyNncCN.s 			page 52


 1705 00dd FA130000 		.4byte	.LASF17
 1706 00e1 00       		.byte	0
 1707 00e2 0B       		.uleb128 0xb
 1708 00e3 B80C0000 		.4byte	.LASF18
 1709 00e7 01       		.byte	0x1
 1710 00e8 0B       		.uleb128 0xb
 1711 00e9 D2310000 		.4byte	.LASF19
 1712 00ed 02       		.byte	0x2
 1713 00ee 0B       		.uleb128 0xb
 1714 00ef C20F0000 		.4byte	.LASF20
 1715 00f3 03       		.byte	0x3
 1716 00f4 0B       		.uleb128 0xb
 1717 00f5 79420000 		.4byte	.LASF21
 1718 00f9 04       		.byte	0x4
 1719 00fa 0B       		.uleb128 0xb
 1720 00fb 223F0000 		.4byte	.LASF22
 1721 00ff 05       		.byte	0x5
 1722 0100 0B       		.uleb128 0xb
 1723 0101 532E0000 		.4byte	.LASF23
 1724 0105 06       		.byte	0x6
 1725 0106 0B       		.uleb128 0xb
 1726 0107 363B0000 		.4byte	.LASF24
 1727 010b 20       		.byte	0x20
 1728 010c 0B       		.uleb128 0xb
 1729 010d 85080000 		.4byte	.LASF25
 1730 0111 21       		.byte	0x21
 1731 0112 0B       		.uleb128 0xb
 1732 0113 67220000 		.4byte	.LASF26
 1733 0117 22       		.byte	0x22
 1734 0118 0B       		.uleb128 0xb
 1735 0119 352C0000 		.4byte	.LASF27
 1736 011d 23       		.byte	0x23
 1737 011e 0B       		.uleb128 0xb
 1738 011f 5F1C0000 		.4byte	.LASF28
 1739 0123 24       		.byte	0x24
 1740 0124 0B       		.uleb128 0xb
 1741 0125 C21C0000 		.4byte	.LASF29
 1742 0129 25       		.byte	0x25
 1743 012a 0B       		.uleb128 0xb
 1744 012b B8370000 		.4byte	.LASF30
 1745 012f 26       		.byte	0x26
 1746 0130 0B       		.uleb128 0xb
 1747 0131 1E030000 		.4byte	.LASF31
 1748 0135 27       		.byte	0x27
 1749 0136 0B       		.uleb128 0xb
 1750 0137 F2430000 		.4byte	.LASF32
 1751 013b 28       		.byte	0x28
 1752 013c 0B       		.uleb128 0xb
 1753 013d 6F2F0000 		.4byte	.LASF33
 1754 0141 29       		.byte	0x29
 1755 0142 0B       		.uleb128 0xb
 1756 0143 07210000 		.4byte	.LASF34
 1757 0147 2A       		.byte	0x2a
 1758 0148 0B       		.uleb128 0xb
 1759 0149 8D2B0000 		.4byte	.LASF35
 1760 014d 2B       		.byte	0x2b
 1761 014e 0B       		.uleb128 0xb
ARM GAS  C:\Windows\TEMP\ccyNncCN.s 			page 53


 1762 014f 803F0000 		.4byte	.LASF36
 1763 0153 2C       		.byte	0x2c
 1764 0154 0B       		.uleb128 0xb
 1765 0155 FA010000 		.4byte	.LASF37
 1766 0159 2D       		.byte	0x2d
 1767 015a 0B       		.uleb128 0xb
 1768 015b C2380000 		.4byte	.LASF38
 1769 015f 2E       		.byte	0x2e
 1770 0160 0B       		.uleb128 0xb
 1771 0161 DC090000 		.4byte	.LASF39
 1772 0165 2F       		.byte	0x2f
 1773 0166 0B       		.uleb128 0xb
 1774 0167 87120000 		.4byte	.LASF40
 1775 016b 30       		.byte	0x30
 1776 016c 0B       		.uleb128 0xb
 1777 016d FC250000 		.4byte	.LASF41
 1778 0171 31       		.byte	0x31
 1779 0172 0B       		.uleb128 0xb
 1780 0173 2F140000 		.4byte	.LASF42
 1781 0177 32       		.byte	0x32
 1782 0178 0B       		.uleb128 0xb
 1783 0179 2C110000 		.4byte	.LASF43
 1784 017d 33       		.byte	0x33
 1785 017e 0B       		.uleb128 0xb
 1786 017f 53110000 		.4byte	.LASF44
 1787 0183 34       		.byte	0x34
 1788 0184 0B       		.uleb128 0xb
 1789 0185 BB3C0000 		.4byte	.LASF45
 1790 0189 35       		.byte	0x35
 1791 018a 0B       		.uleb128 0xb
 1792 018b 6C090000 		.4byte	.LASF46
 1793 018f 36       		.byte	0x36
 1794 0190 0B       		.uleb128 0xb
 1795 0191 CD300000 		.4byte	.LASF47
 1796 0195 37       		.byte	0x37
 1797 0196 0B       		.uleb128 0xb
 1798 0197 173A0000 		.4byte	.LASF48
 1799 019b 40       		.byte	0x40
 1800 019c 0B       		.uleb128 0xb
 1801 019d 60030000 		.4byte	.LASF49
 1802 01a1 41       		.byte	0x41
 1803 01a2 0B       		.uleb128 0xb
 1804 01a3 CC420000 		.4byte	.LASF50
 1805 01a7 42       		.byte	0x42
 1806 01a8 0B       		.uleb128 0xb
 1807 01a9 10300000 		.4byte	.LASF51
 1808 01ad 43       		.byte	0x43
 1809 01ae 0B       		.uleb128 0xb
 1810 01af 63100000 		.4byte	.LASF52
 1811 01b3 44       		.byte	0x44
 1812 01b4 0B       		.uleb128 0xb
 1813 01b5 F70F0000 		.4byte	.LASF53
 1814 01b9 45       		.byte	0x45
 1815 01ba 0B       		.uleb128 0xb
 1816 01bb 38350000 		.4byte	.LASF54
 1817 01bf 46       		.byte	0x46
 1818 01c0 0B       		.uleb128 0xb
ARM GAS  C:\Windows\TEMP\ccyNncCN.s 			page 54


 1819 01c1 1A350000 		.4byte	.LASF55
 1820 01c5 47       		.byte	0x47
 1821 01c6 0B       		.uleb128 0xb
 1822 01c7 3B120000 		.4byte	.LASF56
 1823 01cb 48       		.byte	0x48
 1824 01cc 0B       		.uleb128 0xb
 1825 01cd B42C0000 		.4byte	.LASF57
 1826 01d1 49       		.byte	0x49
 1827 01d2 0B       		.uleb128 0xb
 1828 01d3 90140000 		.4byte	.LASF58
 1829 01d7 4A       		.byte	0x4a
 1830 01d8 0B       		.uleb128 0xb
 1831 01d9 94130000 		.4byte	.LASF59
 1832 01dd 4B       		.byte	0x4b
 1833 01de 0B       		.uleb128 0xb
 1834 01df D02B0000 		.4byte	.LASF60
 1835 01e3 4C       		.byte	0x4c
 1836 01e4 0B       		.uleb128 0xb
 1837 01e5 EE360000 		.4byte	.LASF61
 1838 01e9 4D       		.byte	0x4d
 1839 01ea 0B       		.uleb128 0xb
 1840 01eb 770B0000 		.4byte	.LASF62
 1841 01ef 4E       		.byte	0x4e
 1842 01f0 0B       		.uleb128 0xb
 1843 01f1 B3280000 		.4byte	.LASF63
 1844 01f5 4F       		.byte	0x4f
 1845 01f6 0B       		.uleb128 0xb
 1846 01f7 173B0000 		.4byte	.LASF64
 1847 01fb 50       		.byte	0x50
 1848 01fc 0B       		.uleb128 0xb
 1849 01fd F4140000 		.4byte	.LASF65
 1850 0201 51       		.byte	0x51
 1851 0202 0B       		.uleb128 0xb
 1852 0203 64080000 		.4byte	.LASF66
 1853 0207 52       		.byte	0x52
 1854 0208 0B       		.uleb128 0xb
 1855 0209 A23E0000 		.4byte	.LASF67
 1856 020d 53       		.byte	0x53
 1857 020e 0B       		.uleb128 0xb
 1858 020f 34440000 		.4byte	.LASF68
 1859 0213 54       		.byte	0x54
 1860 0214 0B       		.uleb128 0xb
 1861 0215 73060000 		.4byte	.LASF69
 1862 0219 55       		.byte	0x55
 1863 021a 0B       		.uleb128 0xb
 1864 021b 2E160000 		.4byte	.LASF70
 1865 021f 56       		.byte	0x56
 1866 0220 0B       		.uleb128 0xb
 1867 0221 BB270000 		.4byte	.LASF71
 1868 0225 57       		.byte	0x57
 1869 0226 0B       		.uleb128 0xb
 1870 0227 B3430000 		.4byte	.LASF72
 1871 022b 58       		.byte	0x58
 1872 022c 0B       		.uleb128 0xb
 1873 022d D93F0000 		.4byte	.LASF73
 1874 0231 70       		.byte	0x70
 1875 0232 0B       		.uleb128 0xb
ARM GAS  C:\Windows\TEMP\ccyNncCN.s 			page 55


 1876 0233 CA1A0000 		.4byte	.LASF74
 1877 0237 71       		.byte	0x71
 1878 0238 0B       		.uleb128 0xb
 1879 0239 A60E0000 		.4byte	.LASF75
 1880 023d 72       		.byte	0x72
 1881 023e 0B       		.uleb128 0xb
 1882 023f F93A0000 		.4byte	.LASF76
 1883 0243 73       		.byte	0x73
 1884 0244 0B       		.uleb128 0xb
 1885 0245 3F2D0000 		.4byte	.LASF77
 1886 0249 74       		.byte	0x74
 1887 024a 0B       		.uleb128 0xb
 1888 024b C9210000 		.4byte	.LASF78
 1889 024f 75       		.byte	0x75
 1890 0250 0B       		.uleb128 0xb
 1891 0251 1A120000 		.4byte	.LASF79
 1892 0255 76       		.byte	0x76
 1893 0256 0B       		.uleb128 0xb
 1894 0257 7B320000 		.4byte	.LASF80
 1895 025b 77       		.byte	0x77
 1896 025c 0B       		.uleb128 0xb
 1897 025d 97060000 		.4byte	.LASF81
 1898 0261 78       		.byte	0x78
 1899 0262 0B       		.uleb128 0xb
 1900 0263 CE0B0000 		.4byte	.LASF82
 1901 0267 79       		.byte	0x79
 1902 0268 0B       		.uleb128 0xb
 1903 0269 10430000 		.4byte	.LASF83
 1904 026d 7A       		.byte	0x7a
 1905 026e 0B       		.uleb128 0xb
 1906 026f 3F250000 		.4byte	.LASF84
 1907 0273 FA       		.byte	0xfa
 1908 0274 0B       		.uleb128 0xb
 1909 0275 E63D0000 		.4byte	.LASF85
 1910 0279 FB       		.byte	0xfb
 1911 027a 0B       		.uleb128 0xb
 1912 027b F01A0000 		.4byte	.LASF86
 1913 027f FC       		.byte	0xfc
 1914 0280 0B       		.uleb128 0xb
 1915 0281 EE2D0000 		.4byte	.LASF87
 1916 0285 FD       		.byte	0xfd
 1917 0286 0B       		.uleb128 0xb
 1918 0287 7F2B0000 		.4byte	.LASF88
 1919 028b FF       		.byte	0xff
 1920 028c 00       		.byte	0
 1921 028d 0A       		.uleb128 0xa
 1922 028e 02       		.byte	0x2
 1923 028f 3A000000 		.4byte	0x3a
 1924 0293 03       		.byte	0x3
 1925 0294 EA03     		.2byte	0x3ea
 1926 0296 6C030000 		.4byte	0x36c
 1927 029a 0B       		.uleb128 0xb
 1928 029b DB0F0000 		.4byte	.LASF89
 1929 029f 00       		.byte	0
 1930 02a0 0B       		.uleb128 0xb
 1931 02a1 A4170000 		.4byte	.LASF90
 1932 02a5 01       		.byte	0x1
ARM GAS  C:\Windows\TEMP\ccyNncCN.s 			page 56


 1933 02a6 0B       		.uleb128 0xb
 1934 02a7 5B420000 		.4byte	.LASF91
 1935 02ab 02       		.byte	0x2
 1936 02ac 0B       		.uleb128 0xb
 1937 02ad 1B190000 		.4byte	.LASF92
 1938 02b1 03       		.byte	0x3
 1939 02b2 0B       		.uleb128 0xb
 1940 02b3 3A1D0000 		.4byte	.LASF93
 1941 02b7 04       		.byte	0x4
 1942 02b8 0B       		.uleb128 0xb
 1943 02b9 96240000 		.4byte	.LASF94
 1944 02bd 05       		.byte	0x5
 1945 02be 0B       		.uleb128 0xb
 1946 02bf A23D0000 		.4byte	.LASF95
 1947 02c3 06       		.byte	0x6
 1948 02c4 0B       		.uleb128 0xb
 1949 02c5 73140000 		.4byte	.LASF96
 1950 02c9 07       		.byte	0x7
 1951 02ca 0B       		.uleb128 0xb
 1952 02cb 9B260000 		.4byte	.LASF97
 1953 02cf 08       		.byte	0x8
 1954 02d0 0B       		.uleb128 0xb
 1955 02d1 2B3C0000 		.4byte	.LASF98
 1956 02d5 09       		.byte	0x9
 1957 02d6 0B       		.uleb128 0xb
 1958 02d7 CF440000 		.4byte	.LASF99
 1959 02db 0A       		.byte	0xa
 1960 02dc 0B       		.uleb128 0xb
 1961 02dd FB080000 		.4byte	.LASF100
 1962 02e1 0B       		.byte	0xb
 1963 02e2 0B       		.uleb128 0xb
 1964 02e3 0B3F0000 		.4byte	.LASF101
 1965 02e7 0C       		.byte	0xc
 1966 02e8 0B       		.uleb128 0xb
 1967 02e9 A92A0000 		.4byte	.LASF102
 1968 02ed 0D       		.byte	0xd
 1969 02ee 0B       		.uleb128 0xb
 1970 02ef C11F0000 		.4byte	.LASF103
 1971 02f3 0E       		.byte	0xe
 1972 02f4 0B       		.uleb128 0xb
 1973 02f5 71240000 		.4byte	.LASF104
 1974 02f9 0F       		.byte	0xf
 1975 02fa 0B       		.uleb128 0xb
 1976 02fb 03060000 		.4byte	.LASF105
 1977 02ff 10       		.byte	0x10
 1978 0300 0B       		.uleb128 0xb
 1979 0301 6A260000 		.4byte	.LASF106
 1980 0305 11       		.byte	0x11
 1981 0306 0B       		.uleb128 0xb
 1982 0307 CB0C0000 		.4byte	.LASF107
 1983 030b 12       		.byte	0x12
 1984 030c 0B       		.uleb128 0xb
 1985 030d 240F0000 		.4byte	.LASF108
 1986 0311 13       		.byte	0x13
 1987 0312 0B       		.uleb128 0xb
 1988 0313 DE240000 		.4byte	.LASF109
 1989 0317 27       		.byte	0x27
ARM GAS  C:\Windows\TEMP\ccyNncCN.s 			page 57


 1990 0318 0B       		.uleb128 0xb
 1991 0319 70270000 		.4byte	.LASF110
 1992 031d 28       		.byte	0x28
 1993 031e 0B       		.uleb128 0xb
 1994 031f 31060000 		.4byte	.LASF111
 1995 0323 29       		.byte	0x29
 1996 0324 0B       		.uleb128 0xb
 1997 0325 81390000 		.4byte	.LASF112
 1998 0329 2A       		.byte	0x2a
 1999 032a 0B       		.uleb128 0xb
 2000 032b EC1E0000 		.4byte	.LASF113
 2001 032f 2B       		.byte	0x2b
 2002 0330 0B       		.uleb128 0xb
 2003 0331 41330000 		.4byte	.LASF114
 2004 0335 2C       		.byte	0x2c
 2005 0336 0B       		.uleb128 0xb
 2006 0337 78360000 		.4byte	.LASF115
 2007 033b 2D       		.byte	0x2d
 2008 033c 0B       		.uleb128 0xb
 2009 033d 88170000 		.4byte	.LASF116
 2010 0341 FE       		.byte	0xfe
 2011 0342 0B       		.uleb128 0xb
 2012 0343 971A0000 		.4byte	.LASF117
 2013 0347 FF       		.byte	0xff
 2014 0348 0C       		.uleb128 0xc
 2015 0349 742C0000 		.4byte	.LASF118
 2016 034d 0001     		.2byte	0x100
 2017 034f 0C       		.uleb128 0xc
 2018 0350 5B2C0000 		.4byte	.LASF119
 2019 0354 0101     		.2byte	0x101
 2020 0356 0C       		.uleb128 0xc
 2021 0357 D60D0000 		.4byte	.LASF120
 2022 035b 0201     		.2byte	0x102
 2023 035d 0C       		.uleb128 0xc
 2024 035e 22320000 		.4byte	.LASF121
 2025 0362 0301     		.2byte	0x103
 2026 0364 0C       		.uleb128 0xc
 2027 0365 F91C0000 		.4byte	.LASF122
 2028 0369 0401     		.2byte	0x104
 2029 036b 00       		.byte	0
 2030 036c 04       		.uleb128 0x4
 2031 036d 053E0000 		.4byte	.LASF123
 2032 0371 03       		.byte	0x3
 2033 0372 5C04     		.2byte	0x45c
 2034 0374 8D020000 		.4byte	0x28d
 2035 0378 07       		.uleb128 0x7
 2036 0379 04       		.byte	0x4
 2037 037a 6B000000 		.4byte	0x6b
 2038 037e 0D       		.uleb128 0xd
 2039 037f 6B000000 		.4byte	0x6b
 2040 0383 8E030000 		.4byte	0x38e
 2041 0387 0E       		.uleb128 0xe
 2042 0388 B0000000 		.4byte	0xb0
 2043 038c 06       		.byte	0x6
 2044 038d 00       		.byte	0
 2045 038e 0F       		.uleb128 0xf
 2046 038f 01       		.byte	0x1
ARM GAS  C:\Windows\TEMP\ccyNncCN.s 			page 58


 2047 0390 2C000000 		.4byte	0x2c
 2048 0394 04       		.byte	0x4
 2049 0395 A5       		.byte	0xa5
 2050 0396 85040000 		.4byte	0x485
 2051 039a 0B       		.uleb128 0xb
 2052 039b 9A320000 		.4byte	.LASF124
 2053 039f 00       		.byte	0
 2054 03a0 0B       		.uleb128 0xb
 2055 03a1 B4310000 		.4byte	.LASF125
 2056 03a5 01       		.byte	0x1
 2057 03a6 0B       		.uleb128 0xb
 2058 03a7 96050000 		.4byte	.LASF126
 2059 03ab 02       		.byte	0x2
 2060 03ac 0B       		.uleb128 0xb
 2061 03ad AD400000 		.4byte	.LASF127
 2062 03b1 03       		.byte	0x3
 2063 03b2 0B       		.uleb128 0xb
 2064 03b3 BB0D0000 		.4byte	.LASF128
 2065 03b7 04       		.byte	0x4
 2066 03b8 0B       		.uleb128 0xb
 2067 03b9 DF280000 		.4byte	.LASF129
 2068 03bd 05       		.byte	0x5
 2069 03be 0B       		.uleb128 0xb
 2070 03bf F2390000 		.4byte	.LASF130
 2071 03c3 06       		.byte	0x6
 2072 03c4 0B       		.uleb128 0xb
 2073 03c5 FF2C0000 		.4byte	.LASF131
 2074 03c9 07       		.byte	0x7
 2075 03ca 0B       		.uleb128 0xb
 2076 03cb 08280000 		.4byte	.LASF132
 2077 03cf 08       		.byte	0x8
 2078 03d0 0B       		.uleb128 0xb
 2079 03d1 27240000 		.4byte	.LASF133
 2080 03d5 09       		.byte	0x9
 2081 03d6 0B       		.uleb128 0xb
 2082 03d7 F32A0000 		.4byte	.LASF134
 2083 03db 0A       		.byte	0xa
 2084 03dc 0B       		.uleb128 0xb
 2085 03dd 7A150000 		.4byte	.LASF135
 2086 03e1 0B       		.byte	0xb
 2087 03e2 0B       		.uleb128 0xb
 2088 03e3 5D250000 		.4byte	.LASF136
 2089 03e7 0C       		.byte	0xc
 2090 03e8 0B       		.uleb128 0xb
 2091 03e9 E70E0000 		.4byte	.LASF137
 2092 03ed 0D       		.byte	0xd
 2093 03ee 0B       		.uleb128 0xb
 2094 03ef 11140000 		.4byte	.LASF138
 2095 03f3 0E       		.byte	0xe
 2096 03f4 0B       		.uleb128 0xb
 2097 03f5 E3400000 		.4byte	.LASF139
 2098 03f9 0F       		.byte	0xf
 2099 03fa 0B       		.uleb128 0xb
 2100 03fb DD050000 		.4byte	.LASF140
 2101 03ff 10       		.byte	0x10
 2102 0400 0B       		.uleb128 0xb
 2103 0401 B8050000 		.4byte	.LASF141
ARM GAS  C:\Windows\TEMP\ccyNncCN.s 			page 59


 2104 0405 11       		.byte	0x11
 2105 0406 0B       		.uleb128 0xb
 2106 0407 A3070000 		.4byte	.LASF142
 2107 040b 80       		.byte	0x80
 2108 040c 0B       		.uleb128 0xb
 2109 040d 20150000 		.4byte	.LASF143
 2110 0411 80       		.byte	0x80
 2111 0412 0B       		.uleb128 0xb
 2112 0413 131C0000 		.4byte	.LASF144
 2113 0417 80       		.byte	0x80
 2114 0418 0B       		.uleb128 0xb
 2115 0419 9E390000 		.4byte	.LASF145
 2116 041d 80       		.byte	0x80
 2117 041e 0B       		.uleb128 0xb
 2118 041f 7C330000 		.4byte	.LASF146
 2119 0423 80       		.byte	0x80
 2120 0424 0B       		.uleb128 0xb
 2121 0425 332A0000 		.4byte	.LASF147
 2122 0429 80       		.byte	0x80
 2123 042a 0B       		.uleb128 0xb
 2124 042b A71D0000 		.4byte	.LASF148
 2125 042f 80       		.byte	0x80
 2126 0430 0B       		.uleb128 0xb
 2127 0431 07320000 		.4byte	.LASF149
 2128 0435 80       		.byte	0x80
 2129 0436 0B       		.uleb128 0xb
 2130 0437 291A0000 		.4byte	.LASF150
 2131 043b 81       		.byte	0x81
 2132 043c 0B       		.uleb128 0xb
 2133 043d C6350000 		.4byte	.LASF151
 2134 0441 81       		.byte	0x81
 2135 0442 0B       		.uleb128 0xb
 2136 0443 8D000000 		.4byte	.LASF152
 2137 0447 81       		.byte	0x81
 2138 0448 0B       		.uleb128 0xb
 2139 0449 420D0000 		.4byte	.LASF153
 2140 044d 81       		.byte	0x81
 2141 044e 0B       		.uleb128 0xb
 2142 044f 360A0000 		.4byte	.LASF154
 2143 0453 82       		.byte	0x82
 2144 0454 0B       		.uleb128 0xb
 2145 0455 163D0000 		.4byte	.LASF155
 2146 0459 A0       		.byte	0xa0
 2147 045a 0B       		.uleb128 0xb
 2148 045b 34200000 		.4byte	.LASF156
 2149 045f A0       		.byte	0xa0
 2150 0460 0B       		.uleb128 0xb
 2151 0461 A40A0000 		.4byte	.LASF157
 2152 0465 A1       		.byte	0xa1
 2153 0466 0B       		.uleb128 0xb
 2154 0467 053C0000 		.4byte	.LASF158
 2155 046b A2       		.byte	0xa2
 2156 046c 0B       		.uleb128 0xb
 2157 046d 8F160000 		.4byte	.LASF159
 2158 0471 A3       		.byte	0xa3
 2159 0472 0B       		.uleb128 0xb
 2160 0473 101D0000 		.4byte	.LASF160
ARM GAS  C:\Windows\TEMP\ccyNncCN.s 			page 60


 2161 0477 FD       		.byte	0xfd
 2162 0478 0B       		.uleb128 0xb
 2163 0479 AB250000 		.4byte	.LASF161
 2164 047d FE       		.byte	0xfe
 2165 047e 0B       		.uleb128 0xb
 2166 047f B82D0000 		.4byte	.LASF162
 2167 0483 FF       		.byte	0xff
 2168 0484 00       		.byte	0
 2169 0485 04       		.uleb128 0x4
 2170 0486 EF3B0000 		.4byte	.LASF163
 2171 048a 04       		.byte	0x4
 2172 048b 5F01     		.2byte	0x15f
 2173 048d 8E030000 		.4byte	0x38e
 2174 0491 04       		.uleb128 0x4
 2175 0492 3C320000 		.4byte	.LASF164
 2176 0496 04       		.byte	0x4
 2177 0497 8901     		.2byte	0x189
 2178 0499 77000000 		.4byte	0x77
 2179 049d 10       		.uleb128 0x10
 2180 049e 02       		.byte	0x2
 2181 049f 04       		.byte	0x4
 2182 04a0 9301     		.2byte	0x193
 2183 04a2 C1040000 		.4byte	0x4c1
 2184 04a6 11       		.uleb128 0x11
 2185 04a7 110A0000 		.4byte	.LASF165
 2186 04ab 04       		.byte	0x4
 2187 04ac 9A01     		.2byte	0x19a
 2188 04ae 6B000000 		.4byte	0x6b
 2189 04b2 00       		.byte	0
 2190 04b3 11       		.uleb128 0x11
 2191 04b4 55420000 		.4byte	.LASF166
 2192 04b8 04       		.byte	0x4
 2193 04b9 A001     		.2byte	0x1a0
 2194 04bb 6B000000 		.4byte	0x6b
 2195 04bf 01       		.byte	0x1
 2196 04c0 00       		.byte	0
 2197 04c1 04       		.uleb128 0x4
 2198 04c2 C4080000 		.4byte	.LASF167
 2199 04c6 04       		.byte	0x4
 2200 04c7 A201     		.2byte	0x1a2
 2201 04c9 9D040000 		.4byte	0x49d
 2202 04cd 10       		.uleb128 0x10
 2203 04ce 08       		.byte	0x8
 2204 04cf 04       		.byte	0x4
 2205 04d0 BE01     		.2byte	0x1be
 2206 04d2 FE040000 		.4byte	0x4fe
 2207 04d6 12       		.uleb128 0x12
 2208 04d7 76616C00 		.ascii	"val\000"
 2209 04db 04       		.byte	0x4
 2210 04dc C101     		.2byte	0x1c1
 2211 04de 78030000 		.4byte	0x378
 2212 04e2 00       		.byte	0
 2213 04e3 12       		.uleb128 0x12
 2214 04e4 6C656E00 		.ascii	"len\000"
 2215 04e8 04       		.byte	0x4
 2216 04e9 C401     		.2byte	0x1c4
 2217 04eb 77000000 		.4byte	0x77
ARM GAS  C:\Windows\TEMP\ccyNncCN.s 			page 61


 2218 04ef 04       		.byte	0x4
 2219 04f0 11       		.uleb128 0x11
 2220 04f1 66410000 		.4byte	.LASF168
 2221 04f5 04       		.byte	0x4
 2222 04f6 CB01     		.2byte	0x1cb
 2223 04f8 77000000 		.4byte	0x77
 2224 04fc 06       		.byte	0x6
 2225 04fd 00       		.byte	0
 2226 04fe 04       		.uleb128 0x4
 2227 04ff BA060000 		.4byte	.LASF169
 2228 0503 04       		.byte	0x4
 2229 0504 CD01     		.2byte	0x1cd
 2230 0506 CD040000 		.4byte	0x4cd
 2231 050a 10       		.uleb128 0x10
 2232 050b 0C       		.byte	0xc
 2233 050c 04       		.byte	0x4
 2234 050d D001     		.2byte	0x1d0
 2235 050f 2E050000 		.4byte	0x52e
 2236 0513 11       		.uleb128 0x11
 2237 0514 AE320000 		.4byte	.LASF170
 2238 0518 04       		.byte	0x4
 2239 0519 D301     		.2byte	0x1d3
 2240 051b FE040000 		.4byte	0x4fe
 2241 051f 00       		.byte	0
 2242 0520 11       		.uleb128 0x11
 2243 0521 3D280000 		.4byte	.LASF171
 2244 0525 04       		.byte	0x4
 2245 0526 D601     		.2byte	0x1d6
 2246 0528 91040000 		.4byte	0x491
 2247 052c 08       		.byte	0x8
 2248 052d 00       		.byte	0
 2249 052e 04       		.uleb128 0x4
 2250 052f 400E0000 		.4byte	.LASF172
 2251 0533 04       		.byte	0x4
 2252 0534 D801     		.2byte	0x1d8
 2253 0536 0A050000 		.4byte	0x50a
 2254 053a 13       		.uleb128 0x13
 2255 053b 0F010000 		.4byte	.LASF173
 2256 053f 05       		.byte	0x5
 2257 0540 34       		.byte	0x34
 2258 0541 2E050000 		.4byte	0x52e
 2259 0545 13       		.uleb128 0x13
 2260 0546 88190000 		.4byte	.LASF174
 2261 054a 05       		.byte	0x5
 2262 054b 37       		.byte	0x37
 2263 054c 2E050000 		.4byte	0x52e
 2264 0550 14       		.uleb128 0x14
 2265 0551 10       		.byte	0x10
 2266 0552 05       		.byte	0x5
 2267 0553 8A       		.byte	0x8a
 2268 0554 71050000 		.4byte	0x571
 2269 0558 15       		.uleb128 0x15
 2270 0559 45340000 		.4byte	.LASF175
 2271 055d 05       		.byte	0x5
 2272 055e 8D       		.byte	0x8d
 2273 055f C1040000 		.4byte	0x4c1
 2274 0563 00       		.byte	0
ARM GAS  C:\Windows\TEMP\ccyNncCN.s 			page 62


 2275 0564 15       		.uleb128 0x15
 2276 0565 15390000 		.4byte	.LASF176
 2277 0569 05       		.byte	0x5
 2278 056a 90       		.byte	0x90
 2279 056b 2E050000 		.4byte	0x52e
 2280 056f 04       		.byte	0x4
 2281 0570 00       		.byte	0
 2282 0571 13       		.uleb128 0x13
 2283 0572 88280000 		.4byte	.LASF177
 2284 0576 05       		.byte	0x5
 2285 0577 92       		.byte	0x92
 2286 0578 50050000 		.4byte	0x550
 2287 057c 14       		.uleb128 0x14
 2288 057d 08       		.byte	0x8
 2289 057e 06       		.byte	0x6
 2290 057f CE       		.byte	0xce
 2291 0580 9D050000 		.4byte	0x59d
 2292 0584 15       		.uleb128 0x15
 2293 0585 50340000 		.4byte	.LASF178
 2294 0589 06       		.byte	0x6
 2295 058a D1       		.byte	0xd1
 2296 058b 77000000 		.4byte	0x77
 2297 058f 00       		.byte	0
 2298 0590 15       		.uleb128 0x15
 2299 0591 45380000 		.4byte	.LASF179
 2300 0595 06       		.byte	0x6
 2301 0596 D6       		.byte	0xd6
 2302 0597 B7000000 		.4byte	0xb7
 2303 059b 04       		.byte	0x4
 2304 059c 00       		.byte	0
 2305 059d 13       		.uleb128 0x13
 2306 059e 5D2D0000 		.4byte	.LASF180
 2307 05a2 06       		.byte	0x6
 2308 05a3 D8       		.byte	0xd8
 2309 05a4 7C050000 		.4byte	0x57c
 2310 05a8 14       		.uleb128 0x14
 2311 05a9 08       		.byte	0x8
 2312 05aa 06       		.byte	0x6
 2313 05ab DB       		.byte	0xdb
 2314 05ac C9050000 		.4byte	0x5c9
 2315 05b0 15       		.uleb128 0x15
 2316 05b1 F9120000 		.4byte	.LASF181
 2317 05b5 06       		.byte	0x6
 2318 05b6 DE       		.byte	0xde
 2319 05b7 77000000 		.4byte	0x77
 2320 05bb 00       		.byte	0
 2321 05bc 15       		.uleb128 0x15
 2322 05bd 3D390000 		.4byte	.LASF182
 2323 05c1 06       		.byte	0x6
 2324 05c2 E3       		.byte	0xe3
 2325 05c3 C9050000 		.4byte	0x5c9
 2326 05c7 04       		.byte	0x4
 2327 05c8 00       		.byte	0
 2328 05c9 07       		.uleb128 0x7
 2329 05ca 04       		.byte	0x4
 2330 05cb 9D050000 		.4byte	0x59d
 2331 05cf 13       		.uleb128 0x13
ARM GAS  C:\Windows\TEMP\ccyNncCN.s 			page 63


 2332 05d0 99370000 		.4byte	.LASF183
 2333 05d4 06       		.byte	0x6
 2334 05d5 E5       		.byte	0xe5
 2335 05d6 A8050000 		.4byte	0x5a8
 2336 05da 16       		.uleb128 0x16
 2337 05db 08       		.byte	0x8
 2338 05dc 06       		.byte	0x6
 2339 05dd E8       		.byte	0xe8
 2340 05de F9050000 		.4byte	0x5f9
 2341 05e2 17       		.uleb128 0x17
 2342 05e3 4E390000 		.4byte	.LASF184
 2343 05e7 06       		.byte	0x6
 2344 05e8 EF       		.byte	0xef
 2345 05e9 CF050000 		.4byte	0x5cf
 2346 05ed 17       		.uleb128 0x17
 2347 05ee 27200000 		.4byte	.LASF185
 2348 05f2 06       		.byte	0x6
 2349 05f3 F2       		.byte	0xf2
 2350 05f4 77000000 		.4byte	0x77
 2351 05f8 00       		.byte	0
 2352 05f9 13       		.uleb128 0x13
 2353 05fa 45370000 		.4byte	.LASF186
 2354 05fe 06       		.byte	0x6
 2355 05ff F4       		.byte	0xf4
 2356 0600 DA050000 		.4byte	0x5da
 2357 0604 14       		.uleb128 0x14
 2358 0605 14       		.byte	0x14
 2359 0606 06       		.byte	0x6
 2360 0607 F7       		.byte	0xf7
 2361 0608 4D060000 		.4byte	0x64d
 2362 060c 15       		.uleb128 0x15
 2363 060d 6B110000 		.4byte	.LASF187
 2364 0611 06       		.byte	0x6
 2365 0612 FA       		.byte	0xfa
 2366 0613 77000000 		.4byte	0x77
 2367 0617 00       		.byte	0
 2368 0618 11       		.uleb128 0x11
 2369 0619 5F0E0000 		.4byte	.LASF188
 2370 061d 06       		.byte	0x6
 2371 061e 0001     		.2byte	0x100
 2372 0620 77000000 		.4byte	0x77
 2373 0624 02       		.byte	0x2
 2374 0625 11       		.uleb128 0x11
 2375 0626 7E070000 		.4byte	.LASF189
 2376 062a 06       		.byte	0x6
 2377 062b 0B01     		.2byte	0x10b
 2378 062d 83000000 		.4byte	0x83
 2379 0631 04       		.byte	0x4
 2380 0632 11       		.uleb128 0x11
 2381 0633 D2280000 		.4byte	.LASF190
 2382 0637 06       		.byte	0x6
 2383 0638 0E01     		.2byte	0x10e
 2384 063a 77000000 		.4byte	0x77
 2385 063e 08       		.byte	0x8
 2386 063f 11       		.uleb128 0x11
 2387 0640 00330000 		.4byte	.LASF191
 2388 0644 06       		.byte	0x6
ARM GAS  C:\Windows\TEMP\ccyNncCN.s 			page 64


 2389 0645 1701     		.2byte	0x117
 2390 0647 F9050000 		.4byte	0x5f9
 2391 064b 0C       		.byte	0xc
 2392 064c 00       		.byte	0
 2393 064d 04       		.uleb128 0x4
 2394 064e DF160000 		.4byte	.LASF192
 2395 0652 06       		.byte	0x6
 2396 0653 1801     		.2byte	0x118
 2397 0655 04060000 		.4byte	0x604
 2398 0659 04       		.uleb128 0x4
 2399 065a 38080000 		.4byte	.LASF193
 2400 065e 07       		.byte	0x7
 2401 065f 0502     		.2byte	0x205
 2402 0661 B9000000 		.4byte	0xb9
 2403 0665 0F       		.uleb128 0xf
 2404 0666 01       		.byte	0x1
 2405 0667 2C000000 		.4byte	0x2c
 2406 066b 08       		.byte	0x8
 2407 066c 2B       		.byte	0x2b
 2408 066d 8A060000 		.4byte	0x68a
 2409 0671 0B       		.uleb128 0xb
 2410 0672 0A290000 		.4byte	.LASF194
 2411 0676 00       		.byte	0
 2412 0677 0B       		.uleb128 0xb
 2413 0678 9E030000 		.4byte	.LASF195
 2414 067c 01       		.byte	0x1
 2415 067d 0B       		.uleb128 0xb
 2416 067e AF090000 		.4byte	.LASF196
 2417 0682 02       		.byte	0x2
 2418 0683 0B       		.uleb128 0xb
 2419 0684 65290000 		.4byte	.LASF197
 2420 0688 03       		.byte	0x3
 2421 0689 00       		.byte	0
 2422 068a 13       		.uleb128 0x13
 2423 068b E72C0000 		.4byte	.LASF198
 2424 068f 08       		.byte	0x8
 2425 0690 30       		.byte	0x30
 2426 0691 65060000 		.4byte	0x665
 2427 0695 0F       		.uleb128 0xf
 2428 0696 01       		.byte	0x1
 2429 0697 2C000000 		.4byte	0x2c
 2430 069b 08       		.byte	0x8
 2431 069c 34       		.byte	0x34
 2432 069d D8060000 		.4byte	0x6d8
 2433 06a1 0B       		.uleb128 0xb
 2434 06a2 36420000 		.4byte	.LASF199
 2435 06a6 00       		.byte	0
 2436 06a7 0B       		.uleb128 0xb
 2437 06a8 831D0000 		.4byte	.LASF200
 2438 06ac 01       		.byte	0x1
 2439 06ad 0B       		.uleb128 0xb
 2440 06ae 8D2C0000 		.4byte	.LASF201
 2441 06b2 02       		.byte	0x2
 2442 06b3 0B       		.uleb128 0xb
 2443 06b4 70130000 		.4byte	.LASF202
 2444 06b8 03       		.byte	0x3
 2445 06b9 0B       		.uleb128 0xb
ARM GAS  C:\Windows\TEMP\ccyNncCN.s 			page 65


 2446 06ba 25400000 		.4byte	.LASF203
 2447 06be 04       		.byte	0x4
 2448 06bf 0B       		.uleb128 0xb
 2449 06c0 421F0000 		.4byte	.LASF204
 2450 06c4 05       		.byte	0x5
 2451 06c5 0B       		.uleb128 0xb
 2452 06c6 46420000 		.4byte	.LASF205
 2453 06ca 06       		.byte	0x6
 2454 06cb 0B       		.uleb128 0xb
 2455 06cc 541A0000 		.4byte	.LASF206
 2456 06d0 06       		.byte	0x6
 2457 06d1 0B       		.uleb128 0xb
 2458 06d2 7A430000 		.4byte	.LASF207
 2459 06d6 07       		.byte	0x7
 2460 06d7 00       		.byte	0
 2461 06d8 13       		.uleb128 0x13
 2462 06d9 973B0000 		.4byte	.LASF208
 2463 06dd 08       		.byte	0x8
 2464 06de 3E       		.byte	0x3e
 2465 06df 95060000 		.4byte	0x695
 2466 06e3 14       		.uleb128 0x14
 2467 06e4 10       		.byte	0x10
 2468 06e5 08       		.byte	0x8
 2469 06e6 43       		.byte	0x43
 2470 06e7 04070000 		.4byte	0x704
 2471 06eb 15       		.uleb128 0x15
 2472 06ec 53380000 		.4byte	.LASF209
 2473 06f0 08       		.byte	0x8
 2474 06f1 46       		.byte	0x46
 2475 06f2 91040000 		.4byte	0x491
 2476 06f6 00       		.byte	0
 2477 06f7 15       		.uleb128 0x15
 2478 06f8 050A0000 		.4byte	.LASF210
 2479 06fc 08       		.byte	0x8
 2480 06fd 49       		.byte	0x49
 2481 06fe 04070000 		.4byte	0x704
 2482 0702 02       		.byte	0x2
 2483 0703 00       		.byte	0
 2484 0704 0D       		.uleb128 0xd
 2485 0705 91040000 		.4byte	0x491
 2486 0709 14070000 		.4byte	0x714
 2487 070d 0E       		.uleb128 0xe
 2488 070e B0000000 		.4byte	0xb0
 2489 0712 06       		.byte	0x6
 2490 0713 00       		.byte	0
 2491 0714 13       		.uleb128 0x13
 2492 0715 A50C0000 		.4byte	.LASF211
 2493 0719 08       		.byte	0x8
 2494 071a 4A       		.byte	0x4a
 2495 071b E3060000 		.4byte	0x6e3
 2496 071f 14       		.uleb128 0x14
 2497 0720 04       		.byte	0x4
 2498 0721 08       		.byte	0x8
 2499 0722 4D       		.byte	0x4d
 2500 0723 34070000 		.4byte	0x734
 2501 0727 15       		.uleb128 0x15
 2502 0728 F4320000 		.4byte	.LASF212
ARM GAS  C:\Windows\TEMP\ccyNncCN.s 			page 66


 2503 072c 08       		.byte	0x8
 2504 072d 52       		.byte	0x52
 2505 072e 34070000 		.4byte	0x734
 2506 0732 00       		.byte	0
 2507 0733 00       		.byte	0
 2508 0734 07       		.uleb128 0x7
 2509 0735 04       		.byte	0x4
 2510 0736 14070000 		.4byte	0x714
 2511 073a 13       		.uleb128 0x13
 2512 073b 1A0A0000 		.4byte	.LASF213
 2513 073f 08       		.byte	0x8
 2514 0740 53       		.byte	0x53
 2515 0741 1F070000 		.4byte	0x71f
 2516 0745 14       		.uleb128 0x14
 2517 0746 10       		.byte	0x10
 2518 0747 08       		.byte	0x8
 2519 0748 56       		.byte	0x56
 2520 0749 66070000 		.4byte	0x766
 2521 074d 15       		.uleb128 0x15
 2522 074e 890D0000 		.4byte	.LASF214
 2523 0752 08       		.byte	0x8
 2524 0753 59       		.byte	0x59
 2525 0754 91040000 		.4byte	0x491
 2526 0758 00       		.byte	0
 2527 0759 15       		.uleb128 0x15
 2528 075a 13150000 		.4byte	.LASF215
 2529 075e 08       		.byte	0x8
 2530 075f 5E       		.byte	0x5e
 2531 0760 66070000 		.4byte	0x766
 2532 0764 04       		.byte	0x4
 2533 0765 00       		.byte	0
 2534 0766 0D       		.uleb128 0xd
 2535 0767 3A070000 		.4byte	0x73a
 2536 076b 76070000 		.4byte	0x776
 2537 076f 0E       		.uleb128 0xe
 2538 0770 B0000000 		.4byte	0xb0
 2539 0774 02       		.byte	0x2
 2540 0775 00       		.byte	0
 2541 0776 13       		.uleb128 0x13
 2542 0777 E7350000 		.4byte	.LASF216
 2543 077b 08       		.byte	0x8
 2544 077c 60       		.byte	0x60
 2545 077d 45070000 		.4byte	0x745
 2546 0781 14       		.uleb128 0x14
 2547 0782 0C       		.byte	0xc
 2548 0783 08       		.byte	0x8
 2549 0784 84       		.byte	0x84
 2550 0785 C6070000 		.4byte	0x7c6
 2551 0789 15       		.uleb128 0x15
 2552 078a 45340000 		.4byte	.LASF175
 2553 078e 08       		.byte	0x8
 2554 078f 86       		.byte	0x86
 2555 0790 C1040000 		.4byte	0x4c1
 2556 0794 00       		.byte	0
 2557 0795 15       		.uleb128 0x15
 2558 0796 AF010000 		.4byte	.LASF217
 2559 079a 08       		.byte	0x8
ARM GAS  C:\Windows\TEMP\ccyNncCN.s 			page 67


 2560 079b 87       		.byte	0x87
 2561 079c 8A060000 		.4byte	0x68a
 2562 07a0 02       		.byte	0x2
 2563 07a1 15       		.uleb128 0x15
 2564 07a2 ED130000 		.4byte	.LASF218
 2565 07a6 08       		.byte	0x8
 2566 07a7 88       		.byte	0x88
 2567 07a8 6B000000 		.4byte	0x6b
 2568 07ac 03       		.byte	0x3
 2569 07ad 15       		.uleb128 0x15
 2570 07ae AE320000 		.4byte	.LASF170
 2571 07b2 08       		.byte	0x8
 2572 07b3 89       		.byte	0x89
 2573 07b4 C6070000 		.4byte	0x7c6
 2574 07b8 04       		.byte	0x4
 2575 07b9 15       		.uleb128 0x15
 2576 07ba 8B220000 		.4byte	.LASF219
 2577 07be 08       		.byte	0x8
 2578 07bf 8A       		.byte	0x8a
 2579 07c0 85040000 		.4byte	0x485
 2580 07c4 08       		.byte	0x8
 2581 07c5 00       		.byte	0
 2582 07c6 07       		.uleb128 0x7
 2583 07c7 04       		.byte	0x4
 2584 07c8 FE040000 		.4byte	0x4fe
 2585 07cc 13       		.uleb128 0x13
 2586 07cd BC450000 		.4byte	.LASF220
 2587 07d1 08       		.byte	0x8
 2588 07d2 8B       		.byte	0x8b
 2589 07d3 81070000 		.4byte	0x781
 2590 07d7 14       		.uleb128 0x14
 2591 07d8 0C       		.byte	0xc
 2592 07d9 08       		.byte	0x8
 2593 07da 8E       		.byte	0x8e
 2594 07db 28080000 		.4byte	0x828
 2595 07df 15       		.uleb128 0x15
 2596 07e0 45340000 		.4byte	.LASF175
 2597 07e4 08       		.byte	0x8
 2598 07e5 90       		.byte	0x90
 2599 07e6 C1040000 		.4byte	0x4c1
 2600 07ea 00       		.byte	0
 2601 07eb 15       		.uleb128 0x15
 2602 07ec AF010000 		.4byte	.LASF217
 2603 07f0 08       		.byte	0x8
 2604 07f1 91       		.byte	0x91
 2605 07f2 8A060000 		.4byte	0x68a
 2606 07f6 02       		.byte	0x2
 2607 07f7 15       		.uleb128 0x15
 2608 07f8 ED130000 		.4byte	.LASF218
 2609 07fc 08       		.byte	0x8
 2610 07fd 92       		.byte	0x92
 2611 07fe 6B000000 		.4byte	0x6b
 2612 0802 03       		.byte	0x3
 2613 0803 15       		.uleb128 0x15
 2614 0804 32280000 		.4byte	.LASF221
 2615 0808 08       		.byte	0x8
 2616 0809 93       		.byte	0x93
ARM GAS  C:\Windows\TEMP\ccyNncCN.s 			page 68


 2617 080a D8060000 		.4byte	0x6d8
 2618 080e 04       		.byte	0x4
 2619 080f 15       		.uleb128 0x15
 2620 0810 8B220000 		.4byte	.LASF219
 2621 0814 08       		.byte	0x8
 2622 0815 94       		.byte	0x94
 2623 0816 85040000 		.4byte	0x485
 2624 081a 05       		.byte	0x5
 2625 081b 15       		.uleb128 0x15
 2626 081c AE320000 		.4byte	.LASF170
 2627 0820 08       		.byte	0x8
 2628 0821 95       		.byte	0x95
 2629 0822 C6070000 		.4byte	0x7c6
 2630 0826 08       		.byte	0x8
 2631 0827 00       		.byte	0
 2632 0828 13       		.uleb128 0x13
 2633 0829 B9260000 		.4byte	.LASF222
 2634 082d 08       		.byte	0x8
 2635 082e 96       		.byte	0x96
 2636 082f D7070000 		.4byte	0x7d7
 2637 0833 0F       		.uleb128 0xf
 2638 0834 02       		.byte	0x2
 2639 0835 3A000000 		.4byte	0x3a
 2640 0839 09       		.byte	0x9
 2641 083a B4       		.byte	0xb4
 2642 083b 9E100000 		.4byte	0x109e
 2643 083f 0C       		.uleb128 0xc
 2644 0840 862A0000 		.4byte	.LASF223
 2645 0844 0001     		.2byte	0x100
 2646 0846 0C       		.uleb128 0xc
 2647 0847 34430000 		.4byte	.LASF224
 2648 084b 0101     		.2byte	0x101
 2649 084d 0C       		.uleb128 0xc
 2650 084e 670C0000 		.4byte	.LASF225
 2651 0852 0201     		.2byte	0x102
 2652 0854 0C       		.uleb128 0xc
 2653 0855 EA420000 		.4byte	.LASF226
 2654 0859 0301     		.2byte	0x103
 2655 085b 0C       		.uleb128 0xc
 2656 085c 7A310000 		.4byte	.LASF227
 2657 0860 0401     		.2byte	0x104
 2658 0862 0C       		.uleb128 0xc
 2659 0863 7E3D0000 		.4byte	.LASF228
 2660 0867 0501     		.2byte	0x105
 2661 0869 0C       		.uleb128 0xc
 2662 086a 75110000 		.4byte	.LASF229
 2663 086e 0601     		.2byte	0x106
 2664 0870 0C       		.uleb128 0xc
 2665 0871 973A0000 		.4byte	.LASF230
 2666 0875 0701     		.2byte	0x107
 2667 0877 0C       		.uleb128 0xc
 2668 0878 87400000 		.4byte	.LASF231
 2669 087c 0801     		.2byte	0x108
 2670 087e 0C       		.uleb128 0xc
 2671 087f 4D060000 		.4byte	.LASF232
 2672 0883 0901     		.2byte	0x109
 2673 0885 0C       		.uleb128 0xc
ARM GAS  C:\Windows\TEMP\ccyNncCN.s 			page 69


 2674 0886 D9030000 		.4byte	.LASF233
 2675 088a 0A01     		.2byte	0x10a
 2676 088c 0C       		.uleb128 0xc
 2677 088d D4330000 		.4byte	.LASF234
 2678 0891 0B01     		.2byte	0x10b
 2679 0893 0C       		.uleb128 0xc
 2680 0894 BE230000 		.4byte	.LASF235
 2681 0898 0C01     		.2byte	0x10c
 2682 089a 0C       		.uleb128 0xc
 2683 089b EE2F0000 		.4byte	.LASF236
 2684 089f 0D01     		.2byte	0x10d
 2685 08a1 0C       		.uleb128 0xc
 2686 08a2 A8040000 		.4byte	.LASF237
 2687 08a6 0E01     		.2byte	0x10e
 2688 08a8 0C       		.uleb128 0xc
 2689 08a9 23130000 		.4byte	.LASF238
 2690 08ad 0F01     		.2byte	0x10f
 2691 08af 0C       		.uleb128 0xc
 2692 08b0 9C080000 		.4byte	.LASF239
 2693 08b4 1001     		.2byte	0x110
 2694 08b6 0C       		.uleb128 0xc
 2695 08b7 AE410000 		.4byte	.LASF240
 2696 08bb 1101     		.2byte	0x111
 2697 08bd 0C       		.uleb128 0xc
 2698 08be 3C3E0000 		.4byte	.LASF241
 2699 08c2 1201     		.2byte	0x112
 2700 08c4 0C       		.uleb128 0xc
 2701 08c5 C20E0000 		.4byte	.LASF242
 2702 08c9 1301     		.2byte	0x113
 2703 08cb 0C       		.uleb128 0xc
 2704 08cc 96450000 		.4byte	.LASF243
 2705 08d0 1401     		.2byte	0x114
 2706 08d2 0C       		.uleb128 0xc
 2707 08d3 58320000 		.4byte	.LASF244
 2708 08d7 1501     		.2byte	0x115
 2709 08d9 0C       		.uleb128 0xc
 2710 08da 1C0E0000 		.4byte	.LASF245
 2711 08de 1601     		.2byte	0x116
 2712 08e0 0C       		.uleb128 0xc
 2713 08e1 84300000 		.4byte	.LASF246
 2714 08e5 1701     		.2byte	0x117
 2715 08e7 0C       		.uleb128 0xc
 2716 08e8 B9330000 		.4byte	.LASF247
 2717 08ec 1801     		.2byte	0x118
 2718 08ee 0C       		.uleb128 0xc
 2719 08ef 9F3C0000 		.4byte	.LASF248
 2720 08f3 1901     		.2byte	0x119
 2721 08f5 0C       		.uleb128 0xc
 2722 08f6 23020000 		.4byte	.LASF249
 2723 08fa 1A01     		.2byte	0x11a
 2724 08fc 0C       		.uleb128 0xc
 2725 08fd D2130000 		.4byte	.LASF250
 2726 0901 1B01     		.2byte	0x11b
 2727 0903 0C       		.uleb128 0xc
 2728 0904 6C2E0000 		.4byte	.LASF251
 2729 0908 1C01     		.2byte	0x11c
 2730 090a 0C       		.uleb128 0xc
ARM GAS  C:\Windows\TEMP\ccyNncCN.s 			page 70


 2731 090b 5D390000 		.4byte	.LASF252
 2732 090f 1D01     		.2byte	0x11d
 2733 0911 0C       		.uleb128 0xc
 2734 0912 CB1B0000 		.4byte	.LASF253
 2735 0916 1E01     		.2byte	0x11e
 2736 0918 0C       		.uleb128 0xc
 2737 0919 612A0000 		.4byte	.LASF254
 2738 091d 1F01     		.2byte	0x11f
 2739 091f 0C       		.uleb128 0xc
 2740 0920 B3130000 		.4byte	.LASF255
 2741 0924 2001     		.2byte	0x120
 2742 0926 0C       		.uleb128 0xc
 2743 0927 62120000 		.4byte	.LASF256
 2744 092b 2101     		.2byte	0x121
 2745 092d 0C       		.uleb128 0xc
 2746 092e 1F340000 		.4byte	.LASF257
 2747 0932 2201     		.2byte	0x122
 2748 0934 0C       		.uleb128 0xc
 2749 0935 93410000 		.4byte	.LASF258
 2750 0939 2301     		.2byte	0x123
 2751 093b 0C       		.uleb128 0xc
 2752 093c 28380000 		.4byte	.LASF259
 2753 0940 2401     		.2byte	0x124
 2754 0942 0C       		.uleb128 0xc
 2755 0943 AB440000 		.4byte	.LASF260
 2756 0947 2501     		.2byte	0x125
 2757 0949 0C       		.uleb128 0xc
 2758 094a E4270000 		.4byte	.LASF261
 2759 094e 2601     		.2byte	0x126
 2760 0950 0C       		.uleb128 0xc
 2761 0951 DC170000 		.4byte	.LASF262
 2762 0955 2701     		.2byte	0x127
 2763 0957 0C       		.uleb128 0xc
 2764 0958 543A0000 		.4byte	.LASF263
 2765 095c 2801     		.2byte	0x128
 2766 095e 0C       		.uleb128 0xc
 2767 095f AC2B0000 		.4byte	.LASF264
 2768 0963 2901     		.2byte	0x129
 2769 0965 0C       		.uleb128 0xc
 2770 0966 0E450000 		.4byte	.LASF265
 2771 096a 2A01     		.2byte	0x12a
 2772 096c 0C       		.uleb128 0xc
 2773 096d DF3A0000 		.4byte	.LASF266
 2774 0971 2B01     		.2byte	0x12b
 2775 0973 0C       		.uleb128 0xc
 2776 0974 D6430000 		.4byte	.LASF267
 2777 0978 2C01     		.2byte	0x12c
 2778 097a 0C       		.uleb128 0xc
 2779 097b 891F0000 		.4byte	.LASF268
 2780 097f 2D01     		.2byte	0x12d
 2781 0981 0C       		.uleb128 0xc
 2782 0982 0A410000 		.4byte	.LASF269
 2783 0986 2E01     		.2byte	0x12e
 2784 0988 0C       		.uleb128 0xc
 2785 0989 73050000 		.4byte	.LASF270
 2786 098d 2F01     		.2byte	0x12f
 2787 098f 0C       		.uleb128 0xc
ARM GAS  C:\Windows\TEMP\ccyNncCN.s 			page 71


 2788 0990 02310000 		.4byte	.LASF271
 2789 0994 3001     		.2byte	0x130
 2790 0996 0C       		.uleb128 0xc
 2791 0997 58200000 		.4byte	.LASF272
 2792 099b 3101     		.2byte	0x131
 2793 099d 0C       		.uleb128 0xc
 2794 099e 5D340000 		.4byte	.LASF273
 2795 09a2 3201     		.2byte	0x132
 2796 09a4 0C       		.uleb128 0xc
 2797 09a5 342F0000 		.4byte	.LASF274
 2798 09a9 3301     		.2byte	0x133
 2799 09ab 0C       		.uleb128 0xc
 2800 09ac D83C0000 		.4byte	.LASF275
 2801 09b0 3401     		.2byte	0x134
 2802 09b2 0C       		.uleb128 0xc
 2803 09b3 9F0F0000 		.4byte	.LASF276
 2804 09b7 3501     		.2byte	0x135
 2805 09b9 0C       		.uleb128 0xc
 2806 09ba 733A0000 		.4byte	.LASF277
 2807 09be 3601     		.2byte	0x136
 2808 09c0 0C       		.uleb128 0xc
 2809 09c1 071A0000 		.4byte	.LASF278
 2810 09c5 3701     		.2byte	0x137
 2811 09c7 0C       		.uleb128 0xc
 2812 09c8 EE0C0000 		.4byte	.LASF279
 2813 09cc 3801     		.2byte	0x138
 2814 09ce 0C       		.uleb128 0xc
 2815 09cf 25040000 		.4byte	.LASF280
 2816 09d3 3901     		.2byte	0x139
 2817 09d5 0C       		.uleb128 0xc
 2818 09d6 49040000 		.4byte	.LASF281
 2819 09da 3A01     		.2byte	0x13a
 2820 09dc 0C       		.uleb128 0xc
 2821 09dd ED000000 		.4byte	.LASF282
 2822 09e1 3B01     		.2byte	0x13b
 2823 09e3 0C       		.uleb128 0xc
 2824 09e4 580F0000 		.4byte	.LASF283
 2825 09e8 3C01     		.2byte	0x13c
 2826 09ea 0C       		.uleb128 0xc
 2827 09eb 56430000 		.4byte	.LASF284
 2828 09ef 3D01     		.2byte	0x13d
 2829 09f1 0C       		.uleb128 0xc
 2830 09f2 FA070000 		.4byte	.LASF285
 2831 09f6 3E01     		.2byte	0x13e
 2832 09f8 0C       		.uleb128 0xc
 2833 09f9 7B290000 		.4byte	.LASF286
 2834 09fd 3F01     		.2byte	0x13f
 2835 09ff 0C       		.uleb128 0xc
 2836 0a00 E0370000 		.4byte	.LASF287
 2837 0a04 4001     		.2byte	0x140
 2838 0a06 0C       		.uleb128 0xc
 2839 0a07 26170000 		.4byte	.LASF288
 2840 0a0b 4101     		.2byte	0x141
 2841 0a0d 0C       		.uleb128 0xc
 2842 0a0e CE2A0000 		.4byte	.LASF289
 2843 0a12 4201     		.2byte	0x142
 2844 0a14 0C       		.uleb128 0xc
ARM GAS  C:\Windows\TEMP\ccyNncCN.s 			page 72


 2845 0a15 B1190000 		.4byte	.LASF290
 2846 0a19 4301     		.2byte	0x143
 2847 0a1b 0C       		.uleb128 0xc
 2848 0a1c 1C080000 		.4byte	.LASF291
 2849 0a20 4401     		.2byte	0x144
 2850 0a22 0C       		.uleb128 0xc
 2851 0a23 FC020000 		.4byte	.LASF292
 2852 0a27 4501     		.2byte	0x145
 2853 0a29 0C       		.uleb128 0xc
 2854 0a2a C80A0000 		.4byte	.LASF293
 2855 0a2e 4601     		.2byte	0x146
 2856 0a30 0C       		.uleb128 0xc
 2857 0a31 D0320000 		.4byte	.LASF294
 2858 0a35 4701     		.2byte	0x147
 2859 0a37 0C       		.uleb128 0xc
 2860 0a38 23390000 		.4byte	.LASF295
 2861 0a3c 4801     		.2byte	0x148
 2862 0a3e 0C       		.uleb128 0xc
 2863 0a3f 8D090000 		.4byte	.LASF296
 2864 0a43 4901     		.2byte	0x149
 2865 0a45 0C       		.uleb128 0xc
 2866 0a46 1D290000 		.4byte	.LASF297
 2867 0a4a 4A01     		.2byte	0x14a
 2868 0a4c 0C       		.uleb128 0xc
 2869 0a4d C33D0000 		.4byte	.LASF298
 2870 0a51 4B01     		.2byte	0x14b
 2871 0a53 0C       		.uleb128 0xc
 2872 0a54 B4240000 		.4byte	.LASF299
 2873 0a58 4C01     		.2byte	0x14c
 2874 0a5a 0C       		.uleb128 0xc
 2875 0a5b 183E0000 		.4byte	.LASF300
 2876 0a5f 4D01     		.2byte	0x14d
 2877 0a61 0C       		.uleb128 0xc
 2878 0a62 5C0A0000 		.4byte	.LASF301
 2879 0a66 4E01     		.2byte	0x14e
 2880 0a68 0C       		.uleb128 0xc
 2881 0a69 122E0000 		.4byte	.LASF302
 2882 0a6d 4F01     		.2byte	0x14f
 2883 0a6f 0C       		.uleb128 0xc
 2884 0a70 FF3F0000 		.4byte	.LASF303
 2885 0a74 5001     		.2byte	0x150
 2886 0a76 0C       		.uleb128 0xc
 2887 0a77 5F3E0000 		.4byte	.LASF304
 2888 0a7b 5101     		.2byte	0x151
 2889 0a7d 0C       		.uleb128 0xc
 2890 0a7e 2E010000 		.4byte	.LASF305
 2891 0a82 5201     		.2byte	0x152
 2892 0a84 0C       		.uleb128 0xc
 2893 0a85 D5390000 		.4byte	.LASF306
 2894 0a89 5301     		.2byte	0x153
 2895 0a8b 0C       		.uleb128 0xc
 2896 0a8c 30210000 		.4byte	.LASF307
 2897 0a90 5401     		.2byte	0x154
 2898 0a92 0C       		.uleb128 0xc
 2899 0a93 76380000 		.4byte	.LASF308
 2900 0a97 5501     		.2byte	0x155
 2901 0a99 0C       		.uleb128 0xc
ARM GAS  C:\Windows\TEMP\ccyNncCN.s 			page 73


 2902 0a9a 7F350000 		.4byte	.LASF309
 2903 0a9e 5601     		.2byte	0x156
 2904 0aa0 0C       		.uleb128 0xc
 2905 0aa1 A7020000 		.4byte	.LASF310
 2906 0aa5 5701     		.2byte	0x157
 2907 0aa7 0C       		.uleb128 0xc
 2908 0aa8 9D340000 		.4byte	.LASF311
 2909 0aac 5801     		.2byte	0x158
 2910 0aae 0C       		.uleb128 0xc
 2911 0aaf A5100000 		.4byte	.LASF312
 2912 0ab3 5901     		.2byte	0x159
 2913 0ab5 0C       		.uleb128 0xc
 2914 0ab6 310B0000 		.4byte	.LASF313
 2915 0aba 5A01     		.2byte	0x15a
 2916 0abc 0C       		.uleb128 0xc
 2917 0abd 0E0B0000 		.4byte	.LASF314
 2918 0ac1 5B01     		.2byte	0x15b
 2919 0ac3 0C       		.uleb128 0xc
 2920 0ac4 81100000 		.4byte	.LASF315
 2921 0ac8 5C01     		.2byte	0x15c
 2922 0aca 0C       		.uleb128 0xc
 2923 0acb C1220000 		.4byte	.LASF316
 2924 0acf 5D01     		.2byte	0x15d
 2925 0ad1 0C       		.uleb128 0xc
 2926 0ad2 ED410000 		.4byte	.LASF317
 2927 0ad6 5E01     		.2byte	0x15e
 2928 0ad8 0C       		.uleb128 0xc
 2929 0ad9 50160000 		.4byte	.LASF318
 2930 0add 5F01     		.2byte	0x15f
 2931 0adf 0C       		.uleb128 0xc
 2932 0ae0 B4320000 		.4byte	.LASF319
 2933 0ae4 6001     		.2byte	0x160
 2934 0ae6 0C       		.uleb128 0xc
 2935 0ae7 CD2C0000 		.4byte	.LASF320
 2936 0aeb 6101     		.2byte	0x161
 2937 0aed 0C       		.uleb128 0xc
 2938 0aee 62020000 		.4byte	.LASF321
 2939 0af2 6201     		.2byte	0x162
 2940 0af4 0C       		.uleb128 0xc
 2941 0af5 BA200000 		.4byte	.LASF322
 2942 0af9 6301     		.2byte	0x163
 2943 0afb 0C       		.uleb128 0xc
 2944 0afc 49010000 		.4byte	.LASF323
 2945 0b00 6401     		.2byte	0x164
 2946 0b02 0C       		.uleb128 0xc
 2947 0b03 950B0000 		.4byte	.LASF324
 2948 0b07 6501     		.2byte	0x165
 2949 0b09 0C       		.uleb128 0xc
 2950 0b0a C33E0000 		.4byte	.LASF325
 2951 0b0e 6601     		.2byte	0x166
 2952 0b10 0C       		.uleb128 0xc
 2953 0b11 63190000 		.4byte	.LASF326
 2954 0b15 6701     		.2byte	0x167
 2955 0b17 0C       		.uleb128 0xc
 2956 0b18 59180000 		.4byte	.LASF327
 2957 0b1c 6801     		.2byte	0x168
 2958 0b1e 0C       		.uleb128 0xc
ARM GAS  C:\Windows\TEMP\ccyNncCN.s 			page 74


 2959 0b1f 5B070000 		.4byte	.LASF328
 2960 0b23 6901     		.2byte	0x169
 2961 0b25 0C       		.uleb128 0xc
 2962 0b26 1F0C0000 		.4byte	.LASF329
 2963 0b2a 6A01     		.2byte	0x16a
 2964 0b2c 0C       		.uleb128 0xc
 2965 0b2d 42260000 		.4byte	.LASF330
 2966 0b31 6B01     		.2byte	0x16b
 2967 0b33 0C       		.uleb128 0xc
 2968 0b34 EA210000 		.4byte	.LASF331
 2969 0b38 6C01     		.2byte	0x16c
 2970 0b3a 0C       		.uleb128 0xc
 2971 0b3b 1B090000 		.4byte	.LASF332
 2972 0b3f 6D01     		.2byte	0x16d
 2973 0b41 0C       		.uleb128 0xc
 2974 0b42 49080000 		.4byte	.LASF333
 2975 0b46 6E01     		.2byte	0x16e
 2976 0b48 0C       		.uleb128 0xc
 2977 0b49 84020000 		.4byte	.LASF334
 2978 0b4d 6F01     		.2byte	0x16f
 2979 0b4f 0C       		.uleb128 0xc
 2980 0b50 A5210000 		.4byte	.LASF335
 2981 0b54 7001     		.2byte	0x170
 2982 0b56 0C       		.uleb128 0xc
 2983 0b57 80440000 		.4byte	.LASF336
 2984 0b5b 7101     		.2byte	0x171
 2985 0b5d 0C       		.uleb128 0xc
 2986 0b5e 271B0000 		.4byte	.LASF337
 2987 0b62 7201     		.2byte	0x172
 2988 0b64 0C       		.uleb128 0xc
 2989 0b65 7F180000 		.4byte	.LASF338
 2990 0b69 7301     		.2byte	0x173
 2991 0b6b 0C       		.uleb128 0xc
 2992 0b6c 40290000 		.4byte	.LASF339
 2993 0b70 7401     		.2byte	0x174
 2994 0b72 0C       		.uleb128 0xc
 2995 0b73 7D3B0000 		.4byte	.LASF340
 2996 0b77 7501     		.2byte	0x175
 2997 0b79 0C       		.uleb128 0xc
 2998 0b7a 25330000 		.4byte	.LASF341
 2999 0b7e 7601     		.2byte	0x176
 3000 0b80 0C       		.uleb128 0xc
 3001 0b81 86040000 		.4byte	.LASF342
 3002 0b85 7701     		.2byte	0x177
 3003 0b87 0C       		.uleb128 0xc
 3004 0b88 E4310000 		.4byte	.LASF343
 3005 0b8c 7801     		.2byte	0x178
 3006 0b8e 0C       		.uleb128 0xc
 3007 0b8f 9C150000 		.4byte	.LASF344
 3008 0b93 7901     		.2byte	0x179
 3009 0b95 0C       		.uleb128 0xc
 3010 0b96 7C200000 		.4byte	.LASF345
 3011 0b9a 7A01     		.2byte	0x17a
 3012 0b9c 0C       		.uleb128 0xc
 3013 0b9d 1D2D0000 		.4byte	.LASF346
 3014 0ba1 7B01     		.2byte	0x17b
 3015 0ba3 0C       		.uleb128 0xc
ARM GAS  C:\Windows\TEMP\ccyNncCN.s 			page 75


 3016 0ba4 08370000 		.4byte	.LASF347
 3017 0ba8 7C01     		.2byte	0x17c
 3018 0baa 0C       		.uleb128 0xc
 3019 0bab BA160000 		.4byte	.LASF348
 3020 0baf 7D01     		.2byte	0x17d
 3021 0bb1 0C       		.uleb128 0xc
 3022 0bb2 ED260000 		.4byte	.LASF349
 3023 0bb6 7E01     		.2byte	0x17e
 3024 0bb8 0C       		.uleb128 0xc
 3025 0bb9 00250000 		.4byte	.LASF350
 3026 0bbd 7F01     		.2byte	0x17f
 3027 0bbf 0C       		.uleb128 0xc
 3028 0bc0 0C2A0000 		.4byte	.LASF351
 3029 0bc4 8001     		.2byte	0x180
 3030 0bc6 0C       		.uleb128 0xc
 3031 0bc7 D4360000 		.4byte	.LASF352
 3032 0bcb 8101     		.2byte	0x181
 3033 0bcd 0C       		.uleb128 0xc
 3034 0bce D2260000 		.4byte	.LASF353
 3035 0bd2 8201     		.2byte	0x182
 3036 0bd4 0C       		.uleb128 0xc
 3037 0bd5 54270000 		.4byte	.LASF354
 3038 0bd9 8301     		.2byte	0x183
 3039 0bdb 0C       		.uleb128 0xc
 3040 0bdc C2170000 		.4byte	.LASF355
 3041 0be0 8401     		.2byte	0x184
 3042 0be2 0C       		.uleb128 0xc
 3043 0be3 670E0000 		.4byte	.LASF356
 3044 0be7 8501     		.2byte	0x185
 3045 0be9 0C       		.uleb128 0xc
 3046 0bea 313A0000 		.4byte	.LASF357
 3047 0bee 8601     		.2byte	0x186
 3048 0bf0 0C       		.uleb128 0xc
 3049 0bf1 9F1C0000 		.4byte	.LASF358
 3050 0bf5 8701     		.2byte	0x187
 3051 0bf7 0C       		.uleb128 0xc
 3052 0bf8 1E0D0000 		.4byte	.LASF359
 3053 0bfc 8801     		.2byte	0x188
 3054 0bfe 0C       		.uleb128 0xc
 3055 0bff BD3A0000 		.4byte	.LASF360
 3056 0c03 8901     		.2byte	0x189
 3057 0c05 0C       		.uleb128 0xc
 3058 0c06 59330000 		.4byte	.LASF361
 3059 0c0a 8A01     		.2byte	0x18a
 3060 0c0c 0C       		.uleb128 0xc
 3061 0c0d 48310000 		.4byte	.LASF362
 3062 0c11 8B01     		.2byte	0x18b
 3063 0c13 0C       		.uleb128 0xc
 3064 0c14 DF230000 		.4byte	.LASF363
 3065 0c18 8C01     		.2byte	0x18c
 3066 0c1a 0C       		.uleb128 0xc
 3067 0c1b CC020000 		.4byte	.LASF364
 3068 0c1f 8D01     		.2byte	0x18d
 3069 0c21 0C       		.uleb128 0xc
 3070 0c22 D42D0000 		.4byte	.LASF365
 3071 0c26 8E01     		.2byte	0x18e
 3072 0c28 0C       		.uleb128 0xc
ARM GAS  C:\Windows\TEMP\ccyNncCN.s 			page 76


 3073 0c29 D3410000 		.4byte	.LASF366
 3074 0c2d 8F01     		.2byte	0x18f
 3075 0c2f 0C       		.uleb128 0xc
 3076 0c30 FA3C0000 		.4byte	.LASF367
 3077 0c34 9001     		.2byte	0x190
 3078 0c36 0C       		.uleb128 0xc
 3079 0c37 06230000 		.4byte	.LASF368
 3080 0c3b 9101     		.2byte	0x191
 3081 0c3d 0C       		.uleb128 0xc
 3082 0c3e 7B030000 		.4byte	.LASF369
 3083 0c42 9201     		.2byte	0x192
 3084 0c44 0C       		.uleb128 0xc
 3085 0c45 50140000 		.4byte	.LASF370
 3086 0c49 9301     		.2byte	0x193
 3087 0c4b 0C       		.uleb128 0xc
 3088 0c4c D6010000 		.4byte	.LASF371
 3089 0c50 9401     		.2byte	0x194
 3090 0c52 0C       		.uleb128 0xc
 3091 0c53 4D450000 		.4byte	.LASF372
 3092 0c57 9501     		.2byte	0x195
 3093 0c59 0C       		.uleb128 0xc
 3094 0c5a 95270000 		.4byte	.LASF373
 3095 0c5e 9601     		.2byte	0x196
 3096 0c60 0C       		.uleb128 0xc
 3097 0c61 14440000 		.4byte	.LASF374
 3098 0c65 9701     		.2byte	0x197
 3099 0c67 0C       		.uleb128 0xc
 3100 0c68 32270000 		.4byte	.LASF375
 3101 0c6c 9801     		.2byte	0x198
 3102 0c6e 0C       		.uleb128 0xc
 3103 0c6f 0C0F0000 		.4byte	.LASF376
 3104 0c73 9901     		.2byte	0x199
 3105 0c75 0C       		.uleb128 0xc
 3106 0c76 DC1C0000 		.4byte	.LASF377
 3107 0c7a 9A01     		.2byte	0x19a
 3108 0c7c 0C       		.uleb128 0xc
 3109 0c7d E5190000 		.4byte	.LASF378
 3110 0c81 9B01     		.2byte	0x19b
 3111 0c83 0C       		.uleb128 0xc
 3112 0c84 890E0000 		.4byte	.LASF379
 3113 0c88 9C01     		.2byte	0x19c
 3114 0c8a 0C       		.uleb128 0xc
 3115 0c8b A3350000 		.4byte	.LASF380
 3116 0c8f 9D01     		.2byte	0x19d
 3117 0c91 0C       		.uleb128 0xc
 3118 0c92 CC1D0000 		.4byte	.LASF381
 3119 0c96 9E01     		.2byte	0x19e
 3120 0c98 0C       		.uleb128 0xc
 3121 0c99 E22E0000 		.4byte	.LASF382
 3122 0c9d 9F01     		.2byte	0x19f
 3123 0c9f 0C       		.uleb128 0xc
 3124 0ca0 2A050000 		.4byte	.LASF383
 3125 0ca4 A001     		.2byte	0x1a0
 3126 0ca6 0C       		.uleb128 0xc
 3127 0ca7 90110000 		.4byte	.LASF384
 3128 0cab A101     		.2byte	0x1a1
 3129 0cad 0C       		.uleb128 0xc
ARM GAS  C:\Windows\TEMP\ccyNncCN.s 			page 77


 3130 0cae 2E300000 		.4byte	.LASF385
 3131 0cb2 A201     		.2byte	0x1a2
 3132 0cb4 0C       		.uleb128 0xc
 3133 0cb5 CB190000 		.4byte	.LASF386
 3134 0cb9 A301     		.2byte	0x1a3
 3135 0cbb 0C       		.uleb128 0xc
 3136 0cbc A5220000 		.4byte	.LASF387
 3137 0cc0 A401     		.2byte	0x1a4
 3138 0cc2 0C       		.uleb128 0xc
 3139 0cc3 4F240000 		.4byte	.LASF388
 3140 0cc7 A501     		.2byte	0x1a5
 3141 0cc9 0C       		.uleb128 0xc
 3142 0cca 5A3B0000 		.4byte	.LASF389
 3143 0cce A601     		.2byte	0x1a6
 3144 0cd0 0C       		.uleb128 0xc
 3145 0cd1 4A170000 		.4byte	.LASF390
 3146 0cd5 A701     		.2byte	0x1a7
 3147 0cd7 0C       		.uleb128 0xc
 3148 0cd8 5C2B0000 		.4byte	.LASF391
 3149 0cdc A801     		.2byte	0x1a8
 3150 0cde 0C       		.uleb128 0xc
 3151 0cdf 6A160000 		.4byte	.LASF392
 3152 0ce3 A901     		.2byte	0x1a9
 3153 0ce5 0C       		.uleb128 0xc
 3154 0ce6 EF1B0000 		.4byte	.LASF393
 3155 0cea AA01     		.2byte	0x1aa
 3156 0cec 0C       		.uleb128 0xc
 3157 0ced F9450000 		.4byte	.LASF394
 3158 0cf1 AB01     		.2byte	0x1ab
 3159 0cf3 0C       		.uleb128 0xc
 3160 0cf4 372E0000 		.4byte	.LASF395
 3161 0cf8 AC01     		.2byte	0x1ac
 3162 0cfa 0C       		.uleb128 0xc
 3163 0cfb 122F0000 		.4byte	.LASF396
 3164 0cff AD01     		.2byte	0x1ad
 3165 0d01 0C       		.uleb128 0xc
 3166 0d02 D8080000 		.4byte	.LASF397
 3167 0d06 AE01     		.2byte	0x1ae
 3168 0d08 0C       		.uleb128 0xc
 3169 0d09 40190000 		.4byte	.LASF398
 3170 0d0d AF01     		.2byte	0x1af
 3171 0d0f 0C       		.uleb128 0xc
 3172 0d10 54360000 		.4byte	.LASF399
 3173 0d14 B001     		.2byte	0x1b0
 3174 0d16 0C       		.uleb128 0xc
 3175 0d17 970D0000 		.4byte	.LASF400
 3176 0d1b B101     		.2byte	0x1b1
 3177 0d1d 0C       		.uleb128 0xc
 3178 0d1e 68000000 		.4byte	.LASF401
 3179 0d22 B201     		.2byte	0x1b2
 3180 0d24 0C       		.uleb128 0xc
 3181 0d25 403C0000 		.4byte	.LASF402
 3182 0d29 B301     		.2byte	0x1b3
 3183 0d2b 0C       		.uleb128 0xc
 3184 0d2c AE140000 		.4byte	.LASF403
 3185 0d30 B401     		.2byte	0x1b4
 3186 0d32 0C       		.uleb128 0xc
ARM GAS  C:\Windows\TEMP\ccyNncCN.s 			page 78


 3187 0d33 72450000 		.4byte	.LASF404
 3188 0d37 B501     		.2byte	0x1b5
 3189 0d39 0C       		.uleb128 0xc
 3190 0d3a EA1F0000 		.4byte	.LASF405
 3191 0d3e B601     		.2byte	0x1b6
 3192 0d40 0C       		.uleb128 0xc
 3193 0d41 5C230000 		.4byte	.LASF406
 3194 0d45 B701     		.2byte	0x1b7
 3195 0d47 0C       		.uleb128 0xc
 3196 0d48 33450000 		.4byte	.LASF407
 3197 0d4c B801     		.2byte	0x1b8
 3198 0d4e 0C       		.uleb128 0xc
 3199 0d4f A0380000 		.4byte	.LASF408
 3200 0d53 B901     		.2byte	0x1b9
 3201 0d55 0C       		.uleb128 0xc
 3202 0d56 162B0000 		.4byte	.LASF409
 3203 0d5a BA01     		.2byte	0x1ba
 3204 0d5c 0C       		.uleb128 0xc
 3205 0d5d 7B2D0000 		.4byte	.LASF410
 3206 0d61 BB01     		.2byte	0x1bb
 3207 0d63 0C       		.uleb128 0xc
 3208 0d64 5C3F0000 		.4byte	.LASF411
 3209 0d68 BC01     		.2byte	0x1bc
 3210 0d6a 0C       		.uleb128 0xc
 3211 0d6b 551E0000 		.4byte	.LASF412
 3212 0d6f BD01     		.2byte	0x1bd
 3213 0d71 0C       		.uleb128 0xc
 3214 0d72 52090000 		.4byte	.LASF413
 3215 0d76 BE01     		.2byte	0x1be
 3216 0d78 0C       		.uleb128 0xc
 3217 0d79 F8110000 		.4byte	.LASF414
 3218 0d7d BF01     		.2byte	0x1bf
 3219 0d7f 0C       		.uleb128 0xc
 3220 0d80 55440000 		.4byte	.LASF415
 3221 0d84 C001     		.2byte	0x1c0
 3222 0d86 0C       		.uleb128 0xc
 3223 0d87 660D0000 		.4byte	.LASF416
 3224 0d8b C101     		.2byte	0x1c1
 3225 0d8d 0C       		.uleb128 0xc
 3226 0d8e 241E0000 		.4byte	.LASF417
 3227 0d92 C201     		.2byte	0x1c2
 3228 0d94 0C       		.uleb128 0xc
 3229 0d95 E2220000 		.4byte	.LASF418
 3230 0d99 C301     		.2byte	0x1c3
 3231 0d9b 0C       		.uleb128 0xc
 3232 0d9c 3E3F0000 		.4byte	.LASF419
 3233 0da0 C401     		.2byte	0x1c4
 3234 0da2 0C       		.uleb128 0xc
 3235 0da3 D23B0000 		.4byte	.LASF420
 3236 0da7 C501     		.2byte	0x1c5
 3237 0da9 0C       		.uleb128 0xc
 3238 0daa FD180000 		.4byte	.LASF421
 3239 0dae C601     		.2byte	0x1c6
 3240 0db0 0C       		.uleb128 0xc
 3241 0db1 20260000 		.4byte	.LASF422
 3242 0db5 C701     		.2byte	0x1c7
 3243 0db7 0C       		.uleb128 0xc
ARM GAS  C:\Windows\TEMP\ccyNncCN.s 			page 79


 3244 0db8 3D030000 		.4byte	.LASF423
 3245 0dbc C801     		.2byte	0x1c8
 3246 0dbe 0C       		.uleb128 0xc
 3247 0dbf FD330000 		.4byte	.LASF424
 3248 0dc3 C901     		.2byte	0x1c9
 3249 0dc5 0C       		.uleb128 0xc
 3250 0dc6 63040000 		.4byte	.LASF425
 3251 0dca CA01     		.2byte	0x1ca
 3252 0dcc 0C       		.uleb128 0xc
 3253 0dcd A9300000 		.4byte	.LASF426
 3254 0dd1 CB01     		.2byte	0x1cb
 3255 0dd3 0C       		.uleb128 0xc
 3256 0dd4 530B0000 		.4byte	.LASF427
 3257 0dd8 CC01     		.2byte	0x1cc
 3258 0dda 0C       		.uleb128 0xc
 3259 0ddb FA0B0000 		.4byte	.LASF428
 3260 0ddf CD01     		.2byte	0x1cd
 3261 0de1 0C       		.uleb128 0xc
 3262 0de2 A2360000 		.4byte	.LASF429
 3263 0de6 CE01     		.2byte	0x1ce
 3264 0de8 0C       		.uleb128 0xc
 3265 0de9 89070000 		.4byte	.LASF430
 3266 0ded CF01     		.2byte	0x1cf
 3267 0def 0C       		.uleb128 0xc
 3268 0df0 09330000 		.4byte	.LASF431
 3269 0df4 D001     		.2byte	0x1d0
 3270 0df6 0C       		.uleb128 0xc
 3271 0df7 26310000 		.4byte	.LASF432
 3272 0dfb D101     		.2byte	0x1d1
 3273 0dfd 0C       		.uleb128 0xc
 3274 0dfe A71A0000 		.4byte	.LASF433
 3275 0e02 D201     		.2byte	0x1d2
 3276 0e04 0C       		.uleb128 0xc
 3277 0e05 2D410000 		.4byte	.LASF434
 3278 0e09 D301     		.2byte	0x1d3
 3279 0e0b 0C       		.uleb128 0xc
 3280 0e0c D8250000 		.4byte	.LASF435
 3281 0e10 D401     		.2byte	0x1d4
 3282 0e12 0C       		.uleb128 0xc
 3283 0e13 AE2F0000 		.4byte	.LASF436
 3284 0e17 D501     		.2byte	0x1d5
 3285 0e19 0C       		.uleb128 0xc
 3286 0e1a F0160000 		.4byte	.LASF437
 3287 0e1e D601     		.2byte	0x1d6
 3288 0e20 0C       		.uleb128 0xc
 3289 0e21 9E290000 		.4byte	.LASF438
 3290 0e25 D701     		.2byte	0x1d7
 3291 0e27 0C       		.uleb128 0xc
 3292 0e28 03240000 		.4byte	.LASF439
 3293 0e2c D801     		.2byte	0x1d8
 3294 0e2e 0C       		.uleb128 0xc
 3295 0e2f 623C0000 		.4byte	.LASF440
 3296 0e33 D901     		.2byte	0x1d9
 3297 0e35 0C       		.uleb128 0xc
 3298 0e36 05220000 		.4byte	.LASF441
 3299 0e3a DA01     		.2byte	0x1da
 3300 0e3c 0C       		.uleb128 0xc
ARM GAS  C:\Windows\TEMP\ccyNncCN.s 			page 80


 3301 0e3d D3150000 		.4byte	.LASF442
 3302 0e41 DB01     		.2byte	0x1db
 3303 0e43 0C       		.uleb128 0xc
 3304 0e44 B7030000 		.4byte	.LASF443
 3305 0e48 DC01     		.2byte	0x1dc
 3306 0e4a 0C       		.uleb128 0xc
 3307 0e4b 9C330000 		.4byte	.LASF444
 3308 0e4f DD01     		.2byte	0x1dd
 3309 0e51 0C       		.uleb128 0xc
 3310 0e52 810A0000 		.4byte	.LASF445
 3311 0e56 DE01     		.2byte	0x1de
 3312 0e58 0C       		.uleb128 0xc
 3313 0e59 EB0A0000 		.4byte	.LASF446
 3314 0e5d DF01     		.2byte	0x1df
 3315 0e5f 0C       		.uleb128 0xc
 3316 0e60 731E0000 		.4byte	.LASF447
 3317 0e64 E001     		.2byte	0x1e0
 3318 0e66 0C       		.uleb128 0xc
 3319 0e67 411C0000 		.4byte	.LASF448
 3320 0e6b E101     		.2byte	0x1e1
 3321 0e6d 0C       		.uleb128 0xc
 3322 0e6e AA1E0000 		.4byte	.LASF449
 3323 0e72 E201     		.2byte	0x1e2
 3324 0e74 0C       		.uleb128 0xc
 3325 0e75 59350000 		.4byte	.LASF450
 3326 0e79 E301     		.2byte	0x1e3
 3327 0e7b 0C       		.uleb128 0xc
 3328 0e7c 9F200000 		.4byte	.LASF451
 3329 0e80 E401     		.2byte	0x1e4
 3330 0e82 0C       		.uleb128 0xc
 3331 0e83 CF1E0000 		.4byte	.LASF452
 3332 0e87 E501     		.2byte	0x1e5
 3333 0e89 0C       		.uleb128 0xc
 3334 0e8a D7070000 		.4byte	.LASF453
 3335 0e8e E601     		.2byte	0x1e6
 3336 0e90 0C       		.uleb128 0xc
 3337 0e91 7B1C0000 		.4byte	.LASF454
 3338 0e95 E701     		.2byte	0x1e7
 3339 0e97 0C       		.uleb128 0xc
 3340 0e98 E6380000 		.4byte	.LASF455
 3341 0e9c E801     		.2byte	0x1e8
 3342 0e9e 0C       		.uleb128 0xc
 3343 0e9f 82340000 		.4byte	.LASF456
 3344 0ea3 E901     		.2byte	0x1e9
 3345 0ea5 0C       		.uleb128 0xc
 3346 0ea6 4B130000 		.4byte	.LASF457
 3347 0eaa EA01     		.2byte	0x1ea
 3348 0eac 0C       		.uleb128 0xc
 3349 0ead 631F0000 		.4byte	.LASF458
 3350 0eb1 EB01     		.2byte	0x1eb
 3351 0eb3 0C       		.uleb128 0xc
 3352 0eb4 C1000000 		.4byte	.LASF459
 3353 0eb8 EC01     		.2byte	0x1ec
 3354 0eba 0C       		.uleb128 0xc
 3355 0ebb 20220000 		.4byte	.LASF460
 3356 0ebf ED01     		.2byte	0x1ed
 3357 0ec1 0C       		.uleb128 0xc
ARM GAS  C:\Windows\TEMP\ccyNncCN.s 			page 81


 3358 0ec2 C1290000 		.4byte	.LASF461
 3359 0ec6 EE01     		.2byte	0x1ee
 3360 0ec8 0C       		.uleb128 0xc
 3361 0ec9 4B000000 		.4byte	.LASF462
 3362 0ecd EF01     		.2byte	0x1ef
 3363 0ecf 0C       		.uleb128 0xc
 3364 0ed0 EB040000 		.4byte	.LASF463
 3365 0ed4 F001     		.2byte	0x1f0
 3366 0ed6 0C       		.uleb128 0xc
 3367 0ed7 661B0000 		.4byte	.LASF464
 3368 0edb F101     		.2byte	0x1f1
 3369 0edd 0C       		.uleb128 0xc
 3370 0ede DD200000 		.4byte	.LASF465
 3371 0ee2 F201     		.2byte	0x1f2
 3372 0ee4 0C       		.uleb128 0xc
 3373 0ee5 6C010000 		.4byte	.LASF466
 3374 0ee9 F301     		.2byte	0x1f3
 3375 0eeb 0C       		.uleb128 0xc
 3376 0eec 28230000 		.4byte	.LASF467
 3377 0ef0 F401     		.2byte	0x1f4
 3378 0ef2 0C       		.uleb128 0xc
 3379 0ef3 5E380000 		.4byte	.LASF468
 3380 0ef7 F501     		.2byte	0x1f5
 3381 0ef9 0C       		.uleb128 0xc
 3382 0efa E9440000 		.4byte	.LASF469
 3383 0efe F601     		.2byte	0x1f6
 3384 0f00 0C       		.uleb128 0xc
 3385 0f01 5D1D0000 		.4byte	.LASF470
 3386 0f05 F701     		.2byte	0x1f7
 3387 0f07 0C       		.uleb128 0xc
 3388 0f08 32100000 		.4byte	.LASF471
 3389 0f0c F801     		.2byte	0x1f8
 3390 0f0e 0C       		.uleb128 0xc
 3391 0f0f A3180000 		.4byte	.LASF472
 3392 0f13 F901     		.2byte	0x1f9
 3393 0f15 0C       		.uleb128 0xc
 3394 0f16 AD2E0000 		.4byte	.LASF473
 3395 0f1a FA01     		.2byte	0x1fa
 3396 0f1c 0C       		.uleb128 0xc
 3397 0f1d D0040000 		.4byte	.LASF474
 3398 0f21 FB01     		.2byte	0x1fb
 3399 0f23 0C       		.uleb128 0xc
 3400 0f24 7C370000 		.4byte	.LASF475
 3401 0f28 FC01     		.2byte	0x1fc
 3402 0f2a 0C       		.uleb128 0xc
 3403 0f2b CA100000 		.4byte	.LASF476
 3404 0f2f FD01     		.2byte	0x1fd
 3405 0f31 0C       		.uleb128 0xc
 3406 0f32 44220000 		.4byte	.LASF477
 3407 0f36 FE01     		.2byte	0x1fe
 3408 0f38 0C       		.uleb128 0xc
 3409 0f39 01180000 		.4byte	.LASF478
 3410 0f3d FF01     		.2byte	0x1ff
 3411 0f3f 0C       		.uleb128 0xc
 3412 0f40 E73E0000 		.4byte	.LASF479
 3413 0f44 0002     		.2byte	0x200
 3414 0f46 0C       		.uleb128 0xc
ARM GAS  C:\Windows\TEMP\ccyNncCN.s 			page 82


 3415 0f47 00040000 		.4byte	.LASF480
 3416 0f4b 0102     		.2byte	0x201
 3417 0f4d 0C       		.uleb128 0xc
 3418 0f4e 90010000 		.4byte	.LASF481
 3419 0f52 0202     		.2byte	0x202
 3420 0f54 0C       		.uleb128 0xc
 3421 0f55 D1140000 		.4byte	.LASF482
 3422 0f59 0302     		.2byte	0x203
 3423 0f5b 0C       		.uleb128 0xc
 3424 0f5c D3110000 		.4byte	.LASF483
 3425 0f60 0402     		.2byte	0x204
 3426 0f62 0C       		.uleb128 0xc
 3427 0f63 E6290000 		.4byte	.LASF484
 3428 0f67 0502     		.2byte	0x205
 3429 0f69 0C       		.uleb128 0xc
 3430 0f6a 3F3D0000 		.4byte	.LASF485
 3431 0f6e 0602     		.2byte	0x206
 3432 0f70 0C       		.uleb128 0xc
 3433 0f71 15270000 		.4byte	.LASF486
 3434 0f75 0702     		.2byte	0x207
 3435 0f77 0C       		.uleb128 0xc
 3436 0f78 30360000 		.4byte	.LASF487
 3437 0f7c 0802     		.2byte	0x208
 3438 0f7e 0C       		.uleb128 0xc
 3439 0f7f A8120000 		.4byte	.LASF488
 3440 0f83 0902     		.2byte	0x209
 3441 0f85 0C       		.uleb128 0xc
 3442 0f86 4F050000 		.4byte	.LASF489
 3443 0f8a 0A02     		.2byte	0x20a
 3444 0f8c 0C       		.uleb128 0xc
 3445 0f8d 0B360000 		.4byte	.LASF490
 3446 0f91 0B02     		.2byte	0x20b
 3447 0f93 0C       		.uleb128 0xc
 3448 0f94 07130000 		.4byte	.LASF491
 3449 0f98 0C02     		.2byte	0x20c
 3450 0f9a 0C       		.uleb128 0xc
 3451 0f9b 9C230000 		.4byte	.LASF492
 3452 0f9f 0D02     		.2byte	0x20d
 3453 0fa1 0C       		.uleb128 0xc
 3454 0fa2 C1340000 		.4byte	.LASF493
 3455 0fa6 0E02     		.2byte	0x20e
 3456 0fa8 0C       		.uleb128 0xc
 3457 0fa9 35180000 		.4byte	.LASF494
 3458 0fad 0F02     		.2byte	0x20f
 3459 0faf 0C       		.uleb128 0xc
 3460 0fb0 B03B0000 		.4byte	.LASF495
 3461 0fb4 1002     		.2byte	0x210
 3462 0fb6 0C       		.uleb128 0xc
 3463 0fb7 ED150000 		.4byte	.LASF496
 3464 0fbb 1102     		.2byte	0x211
 3465 0fbd 0C       		.uleb128 0xc
 3466 0fbe 430C0000 		.4byte	.LASF497
 3467 0fc2 1202     		.2byte	0x212
 3468 0fc4 0C       		.uleb128 0xc
 3469 0fc5 60300000 		.4byte	.LASF498
 3470 0fc9 1302     		.2byte	0x213
 3471 0fcb 0C       		.uleb128 0xc
ARM GAS  C:\Windows\TEMP\ccyNncCN.s 			page 83


 3472 0fcc 021B0000 		.4byte	.LASF499
 3473 0fd0 1402     		.2byte	0x214
 3474 0fd2 0C       		.uleb128 0xc
 3475 0fd3 030E0000 		.4byte	.LASF500
 3476 0fd7 1502     		.2byte	0x215
 3477 0fd9 0C       		.uleb128 0xc
 3478 0fda 4C1B0000 		.4byte	.LASF501
 3479 0fde 1602     		.2byte	0x216
 3480 0fe0 0C       		.uleb128 0xc
 3481 0fe1 38090000 		.4byte	.LASF502
 3482 0fe5 1702     		.2byte	0x217
 3483 0fe7 0C       		.uleb128 0xc
 3484 0fe8 48280000 		.4byte	.LASF503
 3485 0fec 1802     		.2byte	0x218
 3486 0fee 0C       		.uleb128 0xc
 3487 0fef 29000000 		.4byte	.LASF504
 3488 0ff3 1902     		.2byte	0x219
 3489 0ff5 0C       		.uleb128 0xc
 3490 0ff6 EA2B0000 		.4byte	.LASF505
 3491 0ffa 1A02     		.2byte	0x21a
 3492 0ffc 0C       		.uleb128 0xc
 3493 0ffd 7C3C0000 		.4byte	.LASF506
 3494 1001 1B02     		.2byte	0x21b
 3495 1003 0C       		.uleb128 0xc
 3496 1004 06050000 		.4byte	.LASF507
 3497 1008 1C02     		.2byte	0x21c
 3498 100a 0C       		.uleb128 0xc
 3499 100b FC340000 		.4byte	.LASF508
 3500 100f 1D02     		.2byte	0x21d
 3501 1011 0C       		.uleb128 0xc
 3502 1012 86250000 		.4byte	.LASF509
 3503 1016 1E02     		.2byte	0x21e
 3504 1018 0C       		.uleb128 0xc
 3505 1019 A6420000 		.4byte	.LASF510
 3506 101d 1F02     		.2byte	0x21f
 3507 101f 0C       		.uleb128 0xc
 3508 1020 1F1F0000 		.4byte	.LASF511
 3509 1024 2002     		.2byte	0x220
 3510 1026 0C       		.uleb128 0xc
 3511 1027 08110000 		.4byte	.LASF512
 3512 102b 2102     		.2byte	0x221
 3513 102d 0C       		.uleb128 0xc
 3514 102e D4450000 		.4byte	.LASF513
 3515 1032 2202     		.2byte	0x222
 3516 1034 0C       		.uleb128 0xc
 3517 1035 E2180000 		.4byte	.LASF514
 3518 1039 2302     		.2byte	0x223
 3519 103b 0C       		.uleb128 0xc
 3520 103c B9010000 		.4byte	.LASF515
 3521 1040 2402     		.2byte	0x224
 3522 1042 0C       		.uleb128 0xc
 3523 1043 1A2C0000 		.4byte	.LASF516
 3524 1047 2502     		.2byte	0x225
 3525 1049 0C       		.uleb128 0xc
 3526 104a 64280000 		.4byte	.LASF517
 3527 104e 2602     		.2byte	0x226
 3528 1050 0C       		.uleb128 0xc
ARM GAS  C:\Windows\TEMP\ccyNncCN.s 			page 84


 3529 1051 741A0000 		.4byte	.LASF518
 3530 1055 2702     		.2byte	0x227
 3531 1057 0C       		.uleb128 0xc
 3532 1058 04380000 		.4byte	.LASF519
 3533 105c 2802     		.2byte	0x228
 3534 105e 0C       		.uleb128 0xc
 3535 105f A43F0000 		.4byte	.LASF520
 3536 1063 2902     		.2byte	0x229
 3537 1065 0C       		.uleb128 0xc
 3538 1066 40020000 		.4byte	.LASF521
 3539 106a 2A02     		.2byte	0x22a
 3540 106c 0C       		.uleb128 0xc
 3541 106d 392B0000 		.4byte	.LASF522
 3542 1071 2B02     		.2byte	0x22b
 3543 1073 0C       		.uleb128 0xc
 3544 1074 56150000 		.4byte	.LASF523
 3545 1078 2C02     		.2byte	0x22c
 3546 107a 0C       		.uleb128 0xc
 3547 107b 6E170000 		.4byte	.LASF524
 3548 107f 2D02     		.2byte	0x22d
 3549 1081 0C       		.uleb128 0xc
 3550 1082 91430000 		.4byte	.LASF525
 3551 1086 2E02     		.2byte	0x22e
 3552 1088 0C       		.uleb128 0xc
 3553 1089 E5100000 		.4byte	.LASF526
 3554 108d 2F02     		.2byte	0x22f
 3555 108f 0C       		.uleb128 0xc
 3556 1090 7B0F0000 		.4byte	.LASF527
 3557 1094 3002     		.2byte	0x230
 3558 1096 0C       		.uleb128 0xc
 3559 1097 9E2D0000 		.4byte	.LASF528
 3560 109b 00E0     		.2byte	0xe000
 3561 109d 00       		.byte	0
 3562 109e 0A       		.uleb128 0xa
 3563 109f 01       		.byte	0x1
 3564 10a0 2C000000 		.4byte	0x2c
 3565 10a4 09       		.byte	0x9
 3566 10a5 A808     		.2byte	0x8a8
 3567 10a7 CA100000 		.4byte	0x10ca
 3568 10ab 0B       		.uleb128 0xb
 3569 10ac 1E100000 		.4byte	.LASF529
 3570 10b0 00       		.byte	0
 3571 10b1 0B       		.uleb128 0xb
 3572 10b2 82210000 		.4byte	.LASF530
 3573 10b6 01       		.byte	0x1
 3574 10b7 0B       		.uleb128 0xb
 3575 10b8 50410000 		.4byte	.LASF531
 3576 10bc 02       		.byte	0x2
 3577 10bd 0B       		.uleb128 0xb
 3578 10be C4090000 		.4byte	.LASF532
 3579 10c2 03       		.byte	0x3
 3580 10c3 0B       		.uleb128 0xb
 3581 10c4 2C370000 		.4byte	.LASF533
 3582 10c8 04       		.byte	0x4
 3583 10c9 00       		.byte	0
 3584 10ca 04       		.uleb128 0x4
 3585 10cb 6C310000 		.4byte	.LASF534
ARM GAS  C:\Windows\TEMP\ccyNncCN.s 			page 85


 3586 10cf 09       		.byte	0x9
 3587 10d0 B608     		.2byte	0x8b6
 3588 10d2 9E100000 		.4byte	0x109e
 3589 10d6 18       		.uleb128 0x18
 3590 10d7 5D370000 		.4byte	.LASF595
 3591 10db 01       		.byte	0x1
 3592 10dc 83       		.byte	0x83
 3593 10dd 00000000 		.4byte	.LFB2
 3594 10e1 02000000 		.4byte	.LFE2-.LFB2
 3595 10e5 01       		.uleb128 0x1
 3596 10e6 9C       		.byte	0x9c
 3597 10e7 19       		.uleb128 0x19
 3598 10e8 502F0000 		.4byte	.LASF547
 3599 10ec 01       		.byte	0x1
 3600 10ed B7       		.byte	0xb7
 3601 10ee 00000000 		.4byte	.LFB3
 3602 10f2 0C000000 		.4byte	.LFE3-.LFB3
 3603 10f6 01       		.uleb128 0x1
 3604 10f7 9C       		.byte	0x9c
 3605 10f8 0A110000 		.4byte	0x110a
 3606 10fc 1A       		.uleb128 0x1a
 3607 10fd 110D0000 		.4byte	.LASF535
 3608 1101 01       		.byte	0x1
 3609 1102 B7       		.byte	0xb7
 3610 1103 59060000 		.4byte	0x659
 3611 1107 01       		.uleb128 0x1
 3612 1108 50       		.byte	0x50
 3613 1109 00       		.byte	0
 3614 110a 1B       		.uleb128 0x1b
 3615 110b 021E0000 		.4byte	.LASF540
 3616 110f 01       		.byte	0x1
 3617 1110 1102     		.2byte	0x211
 3618 1112 6C030000 		.4byte	0x36c
 3619 1116 00000000 		.4byte	.LFB6
 3620 111a 74000000 		.4byte	.LFE6-.LFB6
 3621 111e 01       		.uleb128 0x1
 3622 111f 9C       		.byte	0x9c
 3623 1120 A8110000 		.4byte	0x11a8
 3624 1124 1C       		.uleb128 0x1c
 3625 1125 AF010000 		.4byte	.LASF217
 3626 1129 01       		.byte	0x1
 3627 112a 1102     		.2byte	0x211
 3628 112c 8A060000 		.4byte	0x68a
 3629 1130 00000000 		.4byte	.LLST0
 3630 1134 1C       		.uleb128 0x1c
 3631 1135 ED130000 		.4byte	.LASF218
 3632 1139 01       		.byte	0x1
 3633 113a 1202     		.2byte	0x212
 3634 113c 6B000000 		.4byte	0x6b
 3635 1140 53000000 		.4byte	.LLST1
 3636 1144 1C       		.uleb128 0x1c
 3637 1145 B1160000 		.4byte	.LASF536
 3638 1149 01       		.byte	0x1
 3639 114a 1202     		.2byte	0x212
 3640 114c 6B000000 		.4byte	0x6b
 3641 1150 8D000000 		.4byte	.LLST2
 3642 1154 1C       		.uleb128 0x1c
ARM GAS  C:\Windows\TEMP\ccyNncCN.s 			page 86


 3643 1155 A7190000 		.4byte	.LASF537
 3644 1159 01       		.byte	0x1
 3645 115a 1202     		.2byte	0x212
 3646 115c 78030000 		.4byte	0x378
 3647 1160 C7000000 		.4byte	.LLST3
 3648 1164 1D       		.uleb128 0x1d
 3649 1165 F5350000 		.4byte	.LASF538
 3650 1169 01       		.byte	0x1
 3651 116a 1402     		.2byte	0x214
 3652 116c 6C030000 		.4byte	0x36c
 3653 1170 01010000 		.4byte	.LLST4
 3654 1174 1E       		.uleb128 0x1e
 3655 1175 26000000 		.4byte	.LBB2
 3656 1179 2A000000 		.4byte	.LBE2-.LBB2
 3657 117d 1F       		.uleb128 0x1f
 3658 117e 971E0000 		.4byte	.LASF539
 3659 1182 01       		.byte	0x1
 3660 1183 2002     		.2byte	0x220
 3661 1185 2E050000 		.4byte	0x52e
 3662 1189 02       		.uleb128 0x2
 3663 118a 91       		.byte	0x91
 3664 118b 64       		.sleb128 -28
 3665 118c 20       		.uleb128 0x20
 3666 118d 38000000 		.4byte	.LVL6
 3667 1191 CD180000 		.4byte	0x18cd
 3668 1195 21       		.uleb128 0x21
 3669 1196 01       		.uleb128 0x1
 3670 1197 50       		.byte	0x50
 3671 1198 02       		.uleb128 0x2
 3672 1199 91       		.byte	0x91
 3673 119a 64       		.sleb128 -28
 3674 119b 21       		.uleb128 0x21
 3675 119c 01       		.uleb128 0x1
 3676 119d 51       		.byte	0x51
 3677 119e 01       		.uleb128 0x1
 3678 119f 30       		.byte	0x30
 3679 11a0 21       		.uleb128 0x21
 3680 11a1 01       		.uleb128 0x1
 3681 11a2 52       		.byte	0x52
 3682 11a3 01       		.uleb128 0x1
 3683 11a4 30       		.byte	0x30
 3684 11a5 00       		.byte	0
 3685 11a6 00       		.byte	0
 3686 11a7 00       		.byte	0
 3687 11a8 1B       		.uleb128 0x1b
 3688 11a9 0F420000 		.4byte	.LASF541
 3689 11ad 01       		.byte	0x1
 3690 11ae 5102     		.2byte	0x251
 3691 11b0 6C030000 		.4byte	0x36c
 3692 11b4 00000000 		.4byte	.LFB7
 3693 11b8 90000000 		.4byte	.LFE7-.LFB7
 3694 11bc 01       		.uleb128 0x1
 3695 11bd 9C       		.byte	0x9c
 3696 11be 55120000 		.4byte	0x1255
 3697 11c2 1C       		.uleb128 0x1c
 3698 11c3 AF010000 		.4byte	.LASF217
 3699 11c7 01       		.byte	0x1
ARM GAS  C:\Windows\TEMP\ccyNncCN.s 			page 87


 3700 11c8 5102     		.2byte	0x251
 3701 11ca 8A060000 		.4byte	0x68a
 3702 11ce 38010000 		.4byte	.LLST5
 3703 11d2 1C       		.uleb128 0x1c
 3704 11d3 ED130000 		.4byte	.LASF218
 3705 11d7 01       		.byte	0x1
 3706 11d8 5202     		.2byte	0x252
 3707 11da 6B000000 		.4byte	0x6b
 3708 11de A4010000 		.4byte	.LLST6
 3709 11e2 1C       		.uleb128 0x1c
 3710 11e3 32280000 		.4byte	.LASF221
 3711 11e7 01       		.byte	0x1
 3712 11e8 5202     		.2byte	0x252
 3713 11ea D8060000 		.4byte	0x6d8
 3714 11ee DE010000 		.4byte	.LLST7
 3715 11f2 1C       		.uleb128 0x1c
 3716 11f3 B1160000 		.4byte	.LASF536
 3717 11f7 01       		.byte	0x1
 3718 11f8 5202     		.2byte	0x252
 3719 11fa 6B000000 		.4byte	0x6b
 3720 11fe 18020000 		.4byte	.LLST8
 3721 1202 22       		.uleb128 0x22
 3722 1203 A7190000 		.4byte	.LASF537
 3723 1207 01       		.byte	0x1
 3724 1208 5202     		.2byte	0x252
 3725 120a 78030000 		.4byte	0x378
 3726 120e 02       		.uleb128 0x2
 3727 120f 91       		.byte	0x91
 3728 1210 00       		.sleb128 0
 3729 1211 1D       		.uleb128 0x1d
 3730 1212 F5350000 		.4byte	.LASF538
 3731 1216 01       		.byte	0x1
 3732 1217 5502     		.2byte	0x255
 3733 1219 6C030000 		.4byte	0x36c
 3734 121d 52020000 		.4byte	.LLST9
 3735 1221 1E       		.uleb128 0x1e
 3736 1222 36000000 		.4byte	.LBB3
 3737 1226 30000000 		.4byte	.LBE3-.LBB3
 3738 122a 1F       		.uleb128 0x1f
 3739 122b 971E0000 		.4byte	.LASF539
 3740 122f 01       		.byte	0x1
 3741 1230 6302     		.2byte	0x263
 3742 1232 2E050000 		.4byte	0x52e
 3743 1236 02       		.uleb128 0x2
 3744 1237 91       		.byte	0x91
 3745 1238 64       		.sleb128 -28
 3746 1239 20       		.uleb128 0x20
 3747 123a 4A000000 		.4byte	.LVL21
 3748 123e CD180000 		.4byte	0x18cd
 3749 1242 21       		.uleb128 0x21
 3750 1243 01       		.uleb128 0x1
 3751 1244 50       		.byte	0x50
 3752 1245 02       		.uleb128 0x2
 3753 1246 91       		.byte	0x91
 3754 1247 64       		.sleb128 -28
 3755 1248 21       		.uleb128 0x21
 3756 1249 01       		.uleb128 0x1
ARM GAS  C:\Windows\TEMP\ccyNncCN.s 			page 88


 3757 124a 51       		.byte	0x51
 3758 124b 01       		.uleb128 0x1
 3759 124c 30       		.byte	0x30
 3760 124d 21       		.uleb128 0x21
 3761 124e 01       		.uleb128 0x1
 3762 124f 52       		.byte	0x52
 3763 1250 01       		.uleb128 0x1
 3764 1251 30       		.byte	0x30
 3765 1252 00       		.byte	0
 3766 1253 00       		.byte	0
 3767 1254 00       		.byte	0
 3768 1255 1B       		.uleb128 0x1b
 3769 1256 D2120000 		.4byte	.LASF542
 3770 125a 01       		.byte	0x1
 3771 125b 9402     		.2byte	0x294
 3772 125d 6C030000 		.4byte	0x36c
 3773 1261 00000000 		.4byte	.LFB8
 3774 1265 78000000 		.4byte	.LFE8-.LFB8
 3775 1269 01       		.uleb128 0x1
 3776 126a 9C       		.byte	0x9c
 3777 126b 03130000 		.4byte	0x1303
 3778 126f 1C       		.uleb128 0x1c
 3779 1270 AF010000 		.4byte	.LASF217
 3780 1274 01       		.byte	0x1
 3781 1275 9402     		.2byte	0x294
 3782 1277 8A060000 		.4byte	0x68a
 3783 127b 89020000 		.4byte	.LLST10
 3784 127f 1C       		.uleb128 0x1c
 3785 1280 ED130000 		.4byte	.LASF218
 3786 1284 01       		.byte	0x1
 3787 1285 9502     		.2byte	0x295
 3788 1287 6B000000 		.4byte	0x6b
 3789 128b F5020000 		.4byte	.LLST11
 3790 128f 1C       		.uleb128 0x1c
 3791 1290 32280000 		.4byte	.LASF221
 3792 1294 01       		.byte	0x1
 3793 1295 9502     		.2byte	0x295
 3794 1297 D8060000 		.4byte	0x6d8
 3795 129b 2F030000 		.4byte	.LLST12
 3796 129f 1C       		.uleb128 0x1c
 3797 12a0 B1160000 		.4byte	.LASF536
 3798 12a4 01       		.byte	0x1
 3799 12a5 9502     		.2byte	0x295
 3800 12a7 6B000000 		.4byte	0x6b
 3801 12ab 69030000 		.4byte	.LLST13
 3802 12af 22       		.uleb128 0x22
 3803 12b0 A7190000 		.4byte	.LASF537
 3804 12b4 01       		.byte	0x1
 3805 12b5 9502     		.2byte	0x295
 3806 12b7 78030000 		.4byte	0x378
 3807 12bb 02       		.uleb128 0x2
 3808 12bc 91       		.byte	0x91
 3809 12bd 00       		.sleb128 0
 3810 12be 1D       		.uleb128 0x1d
 3811 12bf F5350000 		.4byte	.LASF538
 3812 12c3 01       		.byte	0x1
 3813 12c4 9702     		.2byte	0x297
ARM GAS  C:\Windows\TEMP\ccyNncCN.s 			page 89


 3814 12c6 6C030000 		.4byte	0x36c
 3815 12ca A3030000 		.4byte	.LLST14
 3816 12ce 23       		.uleb128 0x23
 3817 12cf 00000000 		.4byte	.Ldebug_ranges0+0
 3818 12d3 1F       		.uleb128 0x1f
 3819 12d4 971E0000 		.4byte	.LASF539
 3820 12d8 01       		.byte	0x1
 3821 12d9 A502     		.2byte	0x2a5
 3822 12db 2E050000 		.4byte	0x52e
 3823 12df 02       		.uleb128 0x2
 3824 12e0 91       		.byte	0x91
 3825 12e1 6C       		.sleb128 -20
 3826 12e2 20       		.uleb128 0x20
 3827 12e3 48000000 		.4byte	.LVL38
 3828 12e7 D9180000 		.4byte	0x18d9
 3829 12eb 21       		.uleb128 0x21
 3830 12ec 01       		.uleb128 0x1
 3831 12ed 50       		.byte	0x50
 3832 12ee 02       		.uleb128 0x2
 3833 12ef 91       		.byte	0x91
 3834 12f0 6C       		.sleb128 -20
 3835 12f1 21       		.uleb128 0x21
 3836 12f2 01       		.uleb128 0x1
 3837 12f3 51       		.byte	0x51
 3838 12f4 01       		.uleb128 0x1
 3839 12f5 30       		.byte	0x30
 3840 12f6 21       		.uleb128 0x21
 3841 12f7 01       		.uleb128 0x1
 3842 12f8 52       		.byte	0x52
 3843 12f9 01       		.uleb128 0x1
 3844 12fa 30       		.byte	0x30
 3845 12fb 21       		.uleb128 0x21
 3846 12fc 01       		.uleb128 0x1
 3847 12fd 53       		.byte	0x53
 3848 12fe 01       		.uleb128 0x1
 3849 12ff 30       		.byte	0x30
 3850 1300 00       		.byte	0
 3851 1301 00       		.byte	0
 3852 1302 00       		.byte	0
 3853 1303 1B       		.uleb128 0x1b
 3854 1304 890C0000 		.4byte	.LASF543
 3855 1308 01       		.byte	0x1
 3856 1309 DA02     		.2byte	0x2da
 3857 130b 6C030000 		.4byte	0x36c
 3858 130f 00000000 		.4byte	.LFB9
 3859 1313 90000000 		.4byte	.LFE9-.LFB9
 3860 1317 01       		.uleb128 0x1
 3861 1318 9C       		.byte	0x9c
 3862 1319 B2130000 		.4byte	0x13b2
 3863 131d 22       		.uleb128 0x22
 3864 131e 45340000 		.4byte	.LASF175
 3865 1322 01       		.byte	0x1
 3866 1323 DA02     		.2byte	0x2da
 3867 1325 C1040000 		.4byte	0x4c1
 3868 1329 02       		.uleb128 0x2
 3869 132a 91       		.byte	0x91
 3870 132b 5C       		.sleb128 -36
ARM GAS  C:\Windows\TEMP\ccyNncCN.s 			page 90


 3871 132c 1C       		.uleb128 0x1c
 3872 132d AF010000 		.4byte	.LASF217
 3873 1331 01       		.byte	0x1
 3874 1332 DB02     		.2byte	0x2db
 3875 1334 8A060000 		.4byte	0x68a
 3876 1338 DA030000 		.4byte	.LLST15
 3877 133c 1C       		.uleb128 0x1c
 3878 133d ED130000 		.4byte	.LASF218
 3879 1341 01       		.byte	0x1
 3880 1342 DB02     		.2byte	0x2db
 3881 1344 6B000000 		.4byte	0x6b
 3882 1348 14040000 		.4byte	.LLST16
 3883 134c 1C       		.uleb128 0x1c
 3884 134d B1160000 		.4byte	.LASF536
 3885 1351 01       		.byte	0x1
 3886 1352 DB02     		.2byte	0x2db
 3887 1354 6B000000 		.4byte	0x6b
 3888 1358 4E040000 		.4byte	.LLST17
 3889 135c 22       		.uleb128 0x22
 3890 135d A7190000 		.4byte	.LASF537
 3891 1361 01       		.byte	0x1
 3892 1362 DB02     		.2byte	0x2db
 3893 1364 78030000 		.4byte	0x378
 3894 1368 02       		.uleb128 0x2
 3895 1369 91       		.byte	0x91
 3896 136a 00       		.sleb128 0
 3897 136b 1D       		.uleb128 0x1d
 3898 136c F5350000 		.4byte	.LASF538
 3899 1370 01       		.byte	0x1
 3900 1371 DD02     		.2byte	0x2dd
 3901 1373 6C030000 		.4byte	0x36c
 3902 1377 88040000 		.4byte	.LLST18
 3903 137b 24       		.uleb128 0x24
 3904 137c 4C000000 		.4byte	.LBB6
 3905 1380 14000000 		.4byte	.LBE6-.LBB6
 3906 1384 A8130000 		.4byte	0x13a8
 3907 1388 1F       		.uleb128 0x1f
 3908 1389 062F0000 		.4byte	.LASF544
 3909 138d 01       		.byte	0x1
 3910 138e F102     		.2byte	0x2f1
 3911 1390 3A050000 		.4byte	0x53a
 3912 1394 02       		.uleb128 0x2
 3913 1395 91       		.byte	0x91
 3914 1396 64       		.sleb128 -28
 3915 1397 20       		.uleb128 0x20
 3916 1398 5E000000 		.4byte	.LVL55
 3917 139c E5180000 		.4byte	0x18e5
 3918 13a0 21       		.uleb128 0x21
 3919 13a1 01       		.uleb128 0x1
 3920 13a2 51       		.byte	0x51
 3921 13a3 02       		.uleb128 0x2
 3922 13a4 91       		.byte	0x91
 3923 13a5 64       		.sleb128 -28
 3924 13a6 00       		.byte	0
 3925 13a7 00       		.byte	0
 3926 13a8 25       		.uleb128 0x25
 3927 13a9 48000000 		.4byte	.LVL54
ARM GAS  C:\Windows\TEMP\ccyNncCN.s 			page 91


 3928 13ad F0180000 		.4byte	0x18f0
 3929 13b1 00       		.byte	0
 3930 13b2 1B       		.uleb128 0x1b
 3931 13b3 68210000 		.4byte	.LASF545
 3932 13b7 01       		.byte	0x1
 3933 13b8 3103     		.2byte	0x331
 3934 13ba 6C030000 		.4byte	0x36c
 3935 13be 00000000 		.4byte	.LFB10
 3936 13c2 98000000 		.4byte	.LFE10-.LFB10
 3937 13c6 01       		.uleb128 0x1
 3938 13c7 9C       		.byte	0x9c
 3939 13c8 61140000 		.4byte	0x1461
 3940 13cc 22       		.uleb128 0x22
 3941 13cd 45340000 		.4byte	.LASF175
 3942 13d1 01       		.byte	0x1
 3943 13d2 3103     		.2byte	0x331
 3944 13d4 C1040000 		.4byte	0x4c1
 3945 13d8 02       		.uleb128 0x2
 3946 13d9 91       		.byte	0x91
 3947 13da 5C       		.sleb128 -36
 3948 13db 1C       		.uleb128 0x1c
 3949 13dc AF010000 		.4byte	.LASF217
 3950 13e0 01       		.byte	0x1
 3951 13e1 3203     		.2byte	0x332
 3952 13e3 8A060000 		.4byte	0x68a
 3953 13e7 BE040000 		.4byte	.LLST19
 3954 13eb 1C       		.uleb128 0x1c
 3955 13ec ED130000 		.4byte	.LASF218
 3956 13f0 01       		.byte	0x1
 3957 13f1 3203     		.2byte	0x332
 3958 13f3 6B000000 		.4byte	0x6b
 3959 13f7 F8040000 		.4byte	.LLST20
 3960 13fb 1C       		.uleb128 0x1c
 3961 13fc B1160000 		.4byte	.LASF536
 3962 1400 01       		.byte	0x1
 3963 1401 3203     		.2byte	0x332
 3964 1403 6B000000 		.4byte	0x6b
 3965 1407 32050000 		.4byte	.LLST21
 3966 140b 22       		.uleb128 0x22
 3967 140c A7190000 		.4byte	.LASF537
 3968 1410 01       		.byte	0x1
 3969 1411 3203     		.2byte	0x332
 3970 1413 78030000 		.4byte	0x378
 3971 1417 02       		.uleb128 0x2
 3972 1418 91       		.byte	0x91
 3973 1419 00       		.sleb128 0
 3974 141a 1D       		.uleb128 0x1d
 3975 141b F5350000 		.4byte	.LASF538
 3976 141f 01       		.byte	0x1
 3977 1420 3503     		.2byte	0x335
 3978 1422 6C030000 		.4byte	0x36c
 3979 1426 6C050000 		.4byte	.LLST22
 3980 142a 24       		.uleb128 0x24
 3981 142b 4A000000 		.4byte	.LBB7
 3982 142f 1E000000 		.4byte	.LBE7-.LBB7
 3983 1433 57140000 		.4byte	0x1457
 3984 1437 1F       		.uleb128 0x1f
ARM GAS  C:\Windows\TEMP\ccyNncCN.s 			page 92


 3985 1438 70410000 		.4byte	.LASF546
 3986 143c 01       		.byte	0x1
 3987 143d 4D03     		.2byte	0x34d
 3988 143f 45050000 		.4byte	0x545
 3989 1443 02       		.uleb128 0x2
 3990 1444 91       		.byte	0x91
 3991 1445 64       		.sleb128 -28
 3992 1446 20       		.uleb128 0x20
 3993 1447 5A000000 		.4byte	.LVL67
 3994 144b FC180000 		.4byte	0x18fc
 3995 144f 21       		.uleb128 0x21
 3996 1450 01       		.uleb128 0x1
 3997 1451 51       		.byte	0x51
 3998 1452 02       		.uleb128 0x2
 3999 1453 91       		.byte	0x91
 4000 1454 64       		.sleb128 -28
 4001 1455 00       		.byte	0
 4002 1456 00       		.byte	0
 4003 1457 25       		.uleb128 0x25
 4004 1458 40000000 		.4byte	.LVL66
 4005 145c F0180000 		.4byte	0x18f0
 4006 1460 00       		.byte	0
 4007 1461 26       		.uleb128 0x26
 4008 1462 5B400000 		.4byte	.LASF548
 4009 1466 01       		.byte	0x1
 4010 1467 6D03     		.2byte	0x36d
 4011 1469 00000000 		.4byte	.LFB11
 4012 146d 98000000 		.4byte	.LFE11-.LFB11
 4013 1471 01       		.uleb128 0x1
 4014 1472 9C       		.byte	0x9c
 4015 1473 F9140000 		.4byte	0x14f9
 4016 1477 1C       		.uleb128 0x1c
 4017 1478 F1020000 		.4byte	.LASF549
 4018 147c 01       		.byte	0x1
 4019 147d 6D03     		.2byte	0x36d
 4020 147f F9140000 		.4byte	0x14f9
 4021 1483 A2050000 		.4byte	.LLST23
 4022 1487 1D       		.uleb128 0x1d
 4023 1488 53300000 		.4byte	.LASF550
 4024 148c 01       		.byte	0x1
 4025 148d 6F03     		.2byte	0x36f
 4026 148f 8A060000 		.4byte	0x68a
 4027 1493 E4050000 		.4byte	.LLST24
 4028 1497 1F       		.uleb128 0x1f
 4029 1498 EA0F0000 		.4byte	.LASF551
 4030 149c 01       		.byte	0x1
 4031 149d 7003     		.2byte	0x370
 4032 149f CC070000 		.4byte	0x7cc
 4033 14a3 02       		.uleb128 0x2
 4034 14a4 91       		.byte	0x91
 4035 14a5 5C       		.sleb128 -36
 4036 14a6 1D       		.uleb128 0x1d
 4037 14a7 6C370000 		.4byte	.LASF552
 4038 14ab 01       		.byte	0x1
 4039 14ac 7103     		.2byte	0x371
 4040 14ae 6B000000 		.4byte	0x6b
 4041 14b2 0D060000 		.4byte	.LLST25
ARM GAS  C:\Windows\TEMP\ccyNncCN.s 			page 93


 4042 14b6 1D       		.uleb128 0x1d
 4043 14b7 A02E0000 		.4byte	.LASF553
 4044 14bb 01       		.byte	0x1
 4045 14bc 7203     		.2byte	0x372
 4046 14be 6B000000 		.4byte	0x6b
 4047 14c2 36060000 		.4byte	.LLST26
 4048 14c6 27       		.uleb128 0x27
 4049 14c7 38000000 		.4byte	.LVL76
 4050 14cb 08190000 		.4byte	0x1908
 4051 14cf E5140000 		.4byte	0x14e5
 4052 14d3 21       		.uleb128 0x21
 4053 14d4 01       		.uleb128 0x1
 4054 14d5 50       		.byte	0x50
 4055 14d6 02       		.uleb128 0x2
 4056 14d7 77       		.byte	0x77
 4057 14d8 00       		.sleb128 0
 4058 14d9 21       		.uleb128 0x21
 4059 14da 01       		.uleb128 0x1
 4060 14db 51       		.byte	0x51
 4061 14dc 02       		.uleb128 0x2
 4062 14dd 75       		.byte	0x75
 4063 14de 00       		.sleb128 0
 4064 14df 21       		.uleb128 0x21
 4065 14e0 01       		.uleb128 0x1
 4066 14e1 52       		.byte	0x52
 4067 14e2 01       		.uleb128 0x1
 4068 14e3 32       		.byte	0x32
 4069 14e4 00       		.byte	0
 4070 14e5 28       		.uleb128 0x28
 4071 14e6 58000000 		.4byte	.LVL77
 4072 14ea 21       		.uleb128 0x21
 4073 14eb 01       		.uleb128 0x1
 4074 14ec 50       		.byte	0x50
 4075 14ed 03       		.uleb128 0x3
 4076 14ee 0A       		.byte	0xa
 4077 14ef 1701     		.2byte	0x117
 4078 14f1 21       		.uleb128 0x21
 4079 14f2 01       		.uleb128 0x1
 4080 14f3 51       		.byte	0x51
 4081 14f4 02       		.uleb128 0x2
 4082 14f5 77       		.byte	0x77
 4083 14f6 00       		.sleb128 0
 4084 14f7 00       		.byte	0
 4085 14f8 00       		.byte	0
 4086 14f9 07       		.uleb128 0x7
 4087 14fa 04       		.byte	0x4
 4088 14fb FF140000 		.4byte	0x14ff
 4089 14ff 29       		.uleb128 0x29
 4090 1500 C1040000 		.4byte	0x4c1
 4091 1504 1B       		.uleb128 0x1b
 4092 1505 C7180000 		.4byte	.LASF554
 4093 1509 01       		.byte	0x1
 4094 150a A403     		.2byte	0x3a4
 4095 150c 85040000 		.4byte	0x485
 4096 1510 00000000 		.4byte	.LFB12
 4097 1514 1C000000 		.4byte	.LFE12-.LFB12
 4098 1518 01       		.uleb128 0x1
ARM GAS  C:\Windows\TEMP\ccyNncCN.s 			page 94


 4099 1519 9C       		.byte	0x9c
 4100 151a E5150000 		.4byte	0x15e5
 4101 151e 2A       		.uleb128 0x2a
 4102 151f 7F400000 		.4byte	.LASF555
 4103 1523 01       		.byte	0x1
 4104 1524 A603     		.2byte	0x3a6
 4105 1526 85040000 		.4byte	0x485
 4106 152a 00       		.byte	0
 4107 152b 2B       		.uleb128 0x2b
 4108 152c 971E0000 		.4byte	.LASF539
 4109 1530 01       		.byte	0x1
 4110 1531 A703     		.2byte	0x3a7
 4111 1533 2E050000 		.4byte	0x52e
 4112 1537 2B       		.uleb128 0x2b
 4113 1538 53300000 		.4byte	.LASF550
 4114 153c 01       		.byte	0x1
 4115 153d A803     		.2byte	0x3a8
 4116 153f 8A060000 		.4byte	0x68a
 4117 1543 2B       		.uleb128 0x2b
 4118 1544 6C370000 		.4byte	.LASF552
 4119 1548 01       		.byte	0x1
 4120 1549 A903     		.2byte	0x3a9
 4121 154b 6B000000 		.4byte	0x6b
 4122 154f 2B       		.uleb128 0x2b
 4123 1550 D52E0000 		.4byte	.LASF556
 4124 1554 01       		.byte	0x1
 4125 1555 AA03     		.2byte	0x3aa
 4126 1557 7E030000 		.4byte	0x37e
 4127 155b 2B       		.uleb128 0x2b
 4128 155c 471E0000 		.4byte	.LASF557
 4129 1560 01       		.byte	0x1
 4130 1561 AB03     		.2byte	0x3ab
 4131 1563 E5150000 		.4byte	0x15e5
 4132 1567 2B       		.uleb128 0x2b
 4133 1568 BC360000 		.4byte	.LASF558
 4134 156c 01       		.byte	0x1
 4135 156d AC03     		.2byte	0x3ac
 4136 156f 77000000 		.4byte	0x77
 4137 1573 2B       		.uleb128 0x2b
 4138 1574 47400000 		.4byte	.LASF559
 4139 1578 01       		.byte	0x1
 4140 1579 AD03     		.2byte	0x3ad
 4141 157b 77000000 		.4byte	0x77
 4142 157f 2C       		.uleb128 0x2c
 4143 1580 7C410000 		.4byte	.LASF560
 4144 1584 01       		.byte	0x1
 4145 1585 AE03     		.2byte	0x3ae
 4146 1587 77000000 		.4byte	0x77
 4147 158b 7F       		.sleb128 -1
 4148 158c 2B       		.uleb128 0x2b
 4149 158d 12170000 		.4byte	.LASF561
 4150 1591 01       		.byte	0x1
 4151 1592 AF03     		.2byte	0x3af
 4152 1594 77000000 		.4byte	0x77
 4153 1598 2B       		.uleb128 0x2b
 4154 1599 53210000 		.4byte	.LASF562
 4155 159d 01       		.byte	0x1
ARM GAS  C:\Windows\TEMP\ccyNncCN.s 			page 95


 4156 159e B003     		.2byte	0x3b0
 4157 15a0 77000000 		.4byte	0x77
 4158 15a4 2B       		.uleb128 0x2b
 4159 15a5 AB1F0000 		.4byte	.LASF563
 4160 15a9 01       		.byte	0x1
 4161 15aa B103     		.2byte	0x3b1
 4162 15ac 6B000000 		.4byte	0x6b
 4163 15b0 2A       		.uleb128 0x2a
 4164 15b1 C0150000 		.4byte	.LASF564
 4165 15b5 01       		.byte	0x1
 4166 15b6 B203     		.2byte	0x3b2
 4167 15b8 6B000000 		.4byte	0x6b
 4168 15bc 00       		.byte	0
 4169 15bd 2A       		.uleb128 0x2a
 4170 15be B90B0000 		.4byte	.LASF565
 4171 15c2 01       		.byte	0x1
 4172 15c3 B303     		.2byte	0x3b3
 4173 15c5 6B000000 		.4byte	0x6b
 4174 15c9 00       		.byte	0
 4175 15ca 2B       		.uleb128 0x2b
 4176 15cb 0D2C0000 		.4byte	.LASF566
 4177 15cf 01       		.byte	0x1
 4178 15d0 B403     		.2byte	0x3b4
 4179 15d2 6B000000 		.4byte	0x6b
 4180 15d6 2D       		.uleb128 0x2d
 4181 15d7 6900     		.ascii	"i\000"
 4182 15d9 01       		.byte	0x1
 4183 15da B503     		.2byte	0x3b5
 4184 15dc 6B000000 		.4byte	0x6b
 4185 15e0 83060000 		.4byte	.LLST27
 4186 15e4 00       		.byte	0
 4187 15e5 0D       		.uleb128 0xd
 4188 15e6 6B000000 		.4byte	0x6b
 4189 15ea F5150000 		.4byte	0x15f5
 4190 15ee 0E       		.uleb128 0xe
 4191 15ef B0000000 		.4byte	0xb0
 4192 15f3 13       		.byte	0x13
 4193 15f4 00       		.byte	0
 4194 15f5 2E       		.uleb128 0x2e
 4195 15f6 D12F0000 		.4byte	.LASF567
 4196 15fa 01       		.byte	0x1
 4197 15fb D3       		.byte	0xd3
 4198 15fc 85040000 		.4byte	0x485
 4199 1600 00000000 		.4byte	.LFB4
 4200 1604 78020000 		.4byte	.LFE4-.LFB4
 4201 1608 01       		.uleb128 0x1
 4202 1609 9C       		.byte	0x9c
 4203 160a 4C170000 		.4byte	0x174c
 4204 160e 2F       		.uleb128 0x2f
 4205 160f F1020000 		.4byte	.LASF549
 4206 1613 01       		.byte	0x1
 4207 1614 D3       		.byte	0xd3
 4208 1615 4C170000 		.4byte	0x174c
 4209 1619 C3060000 		.4byte	.LLST28
 4210 161d 30       		.uleb128 0x30
 4211 161e 6900     		.ascii	"i\000"
 4212 1620 01       		.byte	0x1
ARM GAS  C:\Windows\TEMP\ccyNncCN.s 			page 96


 4213 1621 D5       		.byte	0xd5
 4214 1622 6B000000 		.4byte	0x6b
 4215 1626 05070000 		.4byte	.LLST29
 4216 162a 30       		.uleb128 0x30
 4217 162b 6A00     		.ascii	"j\000"
 4218 162d 01       		.byte	0x1
 4219 162e D6       		.byte	0xd6
 4220 162f 6B000000 		.4byte	0x6b
 4221 1633 23070000 		.4byte	.LLST30
 4222 1637 31       		.uleb128 0x31
 4223 1638 7F400000 		.4byte	.LASF555
 4224 163c 01       		.byte	0x1
 4225 163d D7       		.byte	0xd7
 4226 163e 85040000 		.4byte	0x485
 4227 1642 4C070000 		.4byte	.LLST31
 4228 1646 31       		.uleb128 0x31
 4229 1647 9B210000 		.4byte	.LASF568
 4230 164b 01       		.byte	0x1
 4231 164c D8       		.byte	0xd8
 4232 164d 91040000 		.4byte	0x491
 4233 1651 E5070000 		.4byte	.LLST32
 4234 1655 31       		.uleb128 0x31
 4235 1656 F90D0000 		.4byte	.LASF569
 4236 165a 01       		.byte	0x1
 4237 165b D9       		.byte	0xd9
 4238 165c 6B000000 		.4byte	0x6b
 4239 1660 F8070000 		.4byte	.LLST33
 4240 1664 31       		.uleb128 0x31
 4241 1665 25180000 		.4byte	.LASF570
 4242 1669 01       		.byte	0x1
 4243 166a DA       		.byte	0xda
 4244 166b 34070000 		.4byte	0x734
 4245 166f 5C080000 		.4byte	.LLST34
 4246 1673 32       		.uleb128 0x32
 4247 1674 C93F0000 		.4byte	.LASF571
 4248 1678 01       		.byte	0x1
 4249 1679 DB       		.byte	0xdb
 4250 167a 28080000 		.4byte	0x828
 4251 167e 02       		.uleb128 0x2
 4252 167f 91       		.byte	0x91
 4253 1680 4C       		.sleb128 -52
 4254 1681 31       		.uleb128 0x31
 4255 1682 01210000 		.4byte	.LASF572
 4256 1686 01       		.byte	0x1
 4257 1687 DC       		.byte	0xdc
 4258 1688 83000000 		.4byte	0x83
 4259 168c 3D090000 		.4byte	.LLST35
 4260 1690 32       		.uleb128 0x32
 4261 1691 4D230000 		.4byte	.LASF573
 4262 1695 01       		.byte	0x1
 4263 1696 DD       		.byte	0xdd
 4264 1697 CC070000 		.4byte	0x7cc
 4265 169b 02       		.uleb128 0x2
 4266 169c 91       		.byte	0x91
 4267 169d 40       		.sleb128 -64
 4268 169e 31       		.uleb128 0x31
 4269 169f F5330000 		.4byte	.LASF574
ARM GAS  C:\Windows\TEMP\ccyNncCN.s 			page 97


 4270 16a3 01       		.byte	0x1
 4271 16a4 DE       		.byte	0xde
 4272 16a5 6B000000 		.4byte	0x6b
 4273 16a9 9F090000 		.4byte	.LLST36
 4274 16ad 25       		.uleb128 0x25
 4275 16ae B8000000 		.4byte	.LVL113
 4276 16b2 F0180000 		.4byte	0x18f0
 4277 16b6 25       		.uleb128 0x25
 4278 16b7 EA000000 		.4byte	.LVL118
 4279 16bb F0180000 		.4byte	0x18f0
 4280 16bf 27       		.uleb128 0x27
 4281 16c0 76010000 		.4byte	.LVL132
 4282 16c4 11190000 		.4byte	0x1911
 4283 16c8 D9160000 		.4byte	0x16d9
 4284 16cc 21       		.uleb128 0x21
 4285 16cd 01       		.uleb128 0x1
 4286 16ce 51       		.byte	0x51
 4287 16cf 02       		.uleb128 0x2
 4288 16d0 7A       		.byte	0x7a
 4289 16d1 00       		.sleb128 0
 4290 16d2 21       		.uleb128 0x21
 4291 16d3 01       		.uleb128 0x1
 4292 16d4 52       		.byte	0x52
 4293 16d5 02       		.uleb128 0x2
 4294 16d6 08       		.byte	0x8
 4295 16d7 42       		.byte	0x42
 4296 16d8 00       		.byte	0
 4297 16d9 33       		.uleb128 0x33
 4298 16da A6010000 		.4byte	.LVL135
 4299 16de F0160000 		.4byte	0x16f0
 4300 16e2 21       		.uleb128 0x21
 4301 16e3 01       		.uleb128 0x1
 4302 16e4 50       		.byte	0x50
 4303 16e5 03       		.uleb128 0x3
 4304 16e6 0A       		.byte	0xa
 4305 16e7 1801     		.2byte	0x118
 4306 16e9 21       		.uleb128 0x21
 4307 16ea 01       		.uleb128 0x1
 4308 16eb 51       		.byte	0x51
 4309 16ec 02       		.uleb128 0x2
 4310 16ed 7D       		.byte	0x7d
 4311 16ee 00       		.sleb128 0
 4312 16ef 00       		.byte	0
 4313 16f0 33       		.uleb128 0x33
 4314 16f1 CE010000 		.4byte	.LVL138
 4315 16f5 07170000 		.4byte	0x1707
 4316 16f9 21       		.uleb128 0x21
 4317 16fa 01       		.uleb128 0x1
 4318 16fb 50       		.byte	0x50
 4319 16fc 03       		.uleb128 0x3
 4320 16fd 0A       		.byte	0xa
 4321 16fe 1901     		.2byte	0x119
 4322 1700 21       		.uleb128 0x21
 4323 1701 01       		.uleb128 0x1
 4324 1702 51       		.byte	0x51
 4325 1703 02       		.uleb128 0x2
 4326 1704 91       		.byte	0x91
ARM GAS  C:\Windows\TEMP\ccyNncCN.s 			page 98


 4327 1705 4C       		.sleb128 -52
 4328 1706 00       		.byte	0
 4329 1707 27       		.uleb128 0x27
 4330 1708 DC010000 		.4byte	.LVL139
 4331 170c D9180000 		.4byte	0x18d9
 4332 1710 2C170000 		.4byte	0x172c
 4333 1714 21       		.uleb128 0x21
 4334 1715 01       		.uleb128 0x1
 4335 1716 50       		.byte	0x50
 4336 1717 02       		.uleb128 0x2
 4337 1718 7A       		.byte	0x7a
 4338 1719 04       		.sleb128 4
 4339 171a 21       		.uleb128 0x21
 4340 171b 01       		.uleb128 0x1
 4341 171c 51       		.byte	0x51
 4342 171d 01       		.uleb128 0x1
 4343 171e 30       		.byte	0x30
 4344 171f 21       		.uleb128 0x21
 4345 1720 01       		.uleb128 0x1
 4346 1721 52       		.byte	0x52
 4347 1722 02       		.uleb128 0x2
 4348 1723 7A       		.byte	0x7a
 4349 1724 00       		.sleb128 0
 4350 1725 21       		.uleb128 0x21
 4351 1726 01       		.uleb128 0x1
 4352 1727 53       		.byte	0x53
 4353 1728 02       		.uleb128 0x2
 4354 1729 08       		.byte	0x8
 4355 172a 40       		.byte	0x40
 4356 172b 00       		.byte	0
 4357 172c 33       		.uleb128 0x33
 4358 172d EE010000 		.4byte	.LVL144
 4359 1731 42170000 		.4byte	0x1742
 4360 1735 21       		.uleb128 0x21
 4361 1736 01       		.uleb128 0x1
 4362 1737 50       		.byte	0x50
 4363 1738 02       		.uleb128 0x2
 4364 1739 7B       		.byte	0x7b
 4365 173a 00       		.sleb128 0
 4366 173b 21       		.uleb128 0x21
 4367 173c 01       		.uleb128 0x1
 4368 173d 51       		.byte	0x51
 4369 173e 02       		.uleb128 0x2
 4370 173f 91       		.byte	0x91
 4371 1740 4C       		.sleb128 -52
 4372 1741 00       		.byte	0
 4373 1742 25       		.uleb128 0x25
 4374 1743 4A020000 		.4byte	.LVL154
 4375 1747 04150000 		.4byte	0x1504
 4376 174b 00       		.byte	0
 4377 174c 07       		.uleb128 0x7
 4378 174d 04       		.byte	0x4
 4379 174e 71050000 		.4byte	0x571
 4380 1752 1B       		.uleb128 0x1b
 4381 1753 8C2F0000 		.4byte	.LASF575
 4382 1757 01       		.byte	0x1
 4383 1758 C901     		.2byte	0x1c9
ARM GAS  C:\Windows\TEMP\ccyNncCN.s 			page 99


 4384 175a 6C030000 		.4byte	0x36c
 4385 175e 00000000 		.4byte	.LFB5
 4386 1762 6C000000 		.4byte	.LFE5-.LFB5
 4387 1766 01       		.uleb128 0x1
 4388 1767 9C       		.byte	0x9c
 4389 1768 FE170000 		.4byte	0x17fe
 4390 176c 1C       		.uleb128 0x1c
 4391 176d AF010000 		.4byte	.LASF217
 4392 1771 01       		.byte	0x1
 4393 1772 C901     		.2byte	0x1c9
 4394 1774 8A060000 		.4byte	0x68a
 4395 1778 C9090000 		.4byte	.LLST37
 4396 177c 1C       		.uleb128 0x1c
 4397 177d ED130000 		.4byte	.LASF218
 4398 1781 01       		.byte	0x1
 4399 1782 CA01     		.2byte	0x1ca
 4400 1784 6B000000 		.4byte	0x6b
 4401 1788 030A0000 		.4byte	.LLST38
 4402 178c 1C       		.uleb128 0x1c
 4403 178d B1160000 		.4byte	.LASF536
 4404 1791 01       		.byte	0x1
 4405 1792 CA01     		.2byte	0x1ca
 4406 1794 6B000000 		.4byte	0x6b
 4407 1798 3D0A0000 		.4byte	.LLST39
 4408 179c 1C       		.uleb128 0x1c
 4409 179d A7190000 		.4byte	.LASF537
 4410 17a1 01       		.byte	0x1
 4411 17a2 CA01     		.2byte	0x1ca
 4412 17a4 78030000 		.4byte	0x378
 4413 17a8 770A0000 		.4byte	.LLST40
 4414 17ac 1D       		.uleb128 0x1d
 4415 17ad F5350000 		.4byte	.LASF538
 4416 17b1 01       		.byte	0x1
 4417 17b2 CC01     		.2byte	0x1cc
 4418 17b4 6C030000 		.4byte	0x36c
 4419 17b8 BD0A0000 		.4byte	.LLST41
 4420 17bc 34       		.uleb128 0x34
 4421 17bd 18000000 		.4byte	.Ldebug_ranges0+0x18
 4422 17c1 F4170000 		.4byte	0x17f4
 4423 17c5 1F       		.uleb128 0x1f
 4424 17c6 971E0000 		.4byte	.LASF539
 4425 17ca 01       		.byte	0x1
 4426 17cb DB01     		.2byte	0x1db
 4427 17cd 2E050000 		.4byte	0x52e
 4428 17d1 02       		.uleb128 0x2
 4429 17d2 91       		.byte	0x91
 4430 17d3 6C       		.sleb128 -20
 4431 17d4 20       		.uleb128 0x20
 4432 17d5 36000000 		.4byte	.LVL166
 4433 17d9 D9180000 		.4byte	0x18d9
 4434 17dd 21       		.uleb128 0x21
 4435 17de 01       		.uleb128 0x1
 4436 17df 50       		.byte	0x50
 4437 17e0 02       		.uleb128 0x2
 4438 17e1 91       		.byte	0x91
 4439 17e2 6C       		.sleb128 -20
 4440 17e3 21       		.uleb128 0x21
ARM GAS  C:\Windows\TEMP\ccyNncCN.s 			page 100


 4441 17e4 01       		.uleb128 0x1
 4442 17e5 51       		.byte	0x51
 4443 17e6 01       		.uleb128 0x1
 4444 17e7 30       		.byte	0x30
 4445 17e8 21       		.uleb128 0x21
 4446 17e9 01       		.uleb128 0x1
 4447 17ea 52       		.byte	0x52
 4448 17eb 01       		.uleb128 0x1
 4449 17ec 30       		.byte	0x30
 4450 17ed 21       		.uleb128 0x21
 4451 17ee 01       		.uleb128 0x1
 4452 17ef 53       		.byte	0x53
 4453 17f0 01       		.uleb128 0x1
 4454 17f1 30       		.byte	0x30
 4455 17f2 00       		.byte	0
 4456 17f3 00       		.byte	0
 4457 17f4 25       		.uleb128 0x25
 4458 17f5 58000000 		.4byte	.LVL172
 4459 17f9 04150000 		.4byte	0x1504
 4460 17fd 00       		.byte	0
 4461 17fe 0D       		.uleb128 0xd
 4462 17ff 14070000 		.4byte	0x714
 4463 1803 0E180000 		.4byte	0x180e
 4464 1807 0E       		.uleb128 0xe
 4465 1808 B0000000 		.4byte	0xb0
 4466 180c 03       		.byte	0x3
 4467 180d 00       		.byte	0
 4468 180e 32       		.uleb128 0x32
 4469 180f 19200000 		.4byte	.LASF576
 4470 1813 01       		.byte	0x1
 4471 1814 17       		.byte	0x17
 4472 1815 FE170000 		.4byte	0x17fe
 4473 1819 05       		.uleb128 0x5
 4474 181a 03       		.byte	0x3
 4475 181b 04000000 		.4byte	aiossCharIdx1
 4476 181f 32       		.uleb128 0x32
 4477 1820 04200000 		.4byte	.LASF577
 4478 1824 01       		.byte	0x1
 4479 1825 69       		.byte	0x69
 4480 1826 91040000 		.4byte	0x491
 4481 182a 05       		.uleb128 0x5
 4482 182b 03       		.byte	0x3
 4483 182c 04000000 		.4byte	cyBle_aiossReqHandle
 4484 1830 32       		.uleb128 0x32
 4485 1831 00000000 		.4byte	.LASF578
 4486 1835 01       		.byte	0x1
 4487 1836 7A       		.byte	0x7a
 4488 1837 59060000 		.4byte	0x659
 4489 183b 05       		.uleb128 0x5
 4490 183c 03       		.byte	0x3
 4491 183d 00000000 		.4byte	CyBle_AiosApplCallback
 4492 1841 35       		.uleb128 0x35
 4493 1842 673D0000 		.4byte	.LASF579
 4494 1846 07       		.byte	0x7
 4495 1847 A502     		.2byte	0x2a5
 4496 1849 A4000000 		.4byte	0xa4
 4497 184d 35       		.uleb128 0x35
ARM GAS  C:\Windows\TEMP\ccyNncCN.s 			page 101


 4498 184e E4340000 		.4byte	.LASF580
 4499 1852 07       		.byte	0x7
 4500 1853 C402     		.2byte	0x2c4
 4501 1855 6B000000 		.4byte	0x6b
 4502 1859 35       		.uleb128 0x35
 4503 185a 17000000 		.4byte	.LASF581
 4504 185e 07       		.byte	0x7
 4505 185f CA02     		.2byte	0x2ca
 4506 1861 6B000000 		.4byte	0x6b
 4507 1865 0D       		.uleb128 0xd
 4508 1866 75180000 		.4byte	0x1875
 4509 186a 75180000 		.4byte	0x1875
 4510 186e 0E       		.uleb128 0xe
 4511 186f B0000000 		.4byte	0xb0
 4512 1873 32       		.byte	0x32
 4513 1874 00       		.byte	0
 4514 1875 29       		.uleb128 0x29
 4515 1876 4D060000 		.4byte	0x64d
 4516 187a 36       		.uleb128 0x36
 4517 187b 8E260000 		.4byte	.LASF582
 4518 187f 0A       		.byte	0xa
 4519 1880 E9       		.byte	0xe9
 4520 1881 85180000 		.4byte	0x1885
 4521 1885 29       		.uleb128 0x29
 4522 1886 65180000 		.4byte	0x1865
 4523 188a 37       		.uleb128 0x37
 4524 188b 99220000 		.4byte	.LASF583
 4525 188f 01       		.byte	0x1
 4526 1890 57       		.byte	0x57
 4527 1891 9B180000 		.4byte	0x189b
 4528 1895 05       		.uleb128 0x5
 4529 1896 03       		.byte	0x3
 4530 1897 00000000 		.4byte	cyBle_aioss
 4531 189b 29       		.uleb128 0x29
 4532 189c 76070000 		.4byte	0x776
 4533 18a0 0D       		.uleb128 0xd
 4534 18a1 6B000000 		.4byte	0x6b
 4535 18a5 B0180000 		.4byte	0x18b0
 4536 18a9 0E       		.uleb128 0xe
 4537 18aa B0000000 		.4byte	0xb0
 4538 18ae 02       		.byte	0x2
 4539 18af 00       		.byte	0
 4540 18b0 37       		.uleb128 0x37
 4541 18b1 A8000000 		.4byte	.LASF584
 4542 18b5 01       		.byte	0x1
 4543 18b6 53       		.byte	0x53
 4544 18b7 A0180000 		.4byte	0x18a0
 4545 18bb 05       		.uleb128 0x5
 4546 18bc 03       		.byte	0x3
 4547 18bd 00000000 		.4byte	cyBle_aiossCharInstances
 4548 18c1 35       		.uleb128 0x35
 4549 18c2 FF350000 		.4byte	.LASF585
 4550 18c6 09       		.byte	0x9
 4551 18c7 160B     		.2byte	0xb16
 4552 18c9 CA100000 		.4byte	0x10ca
 4553 18cd 38       		.uleb128 0x38
 4554 18ce 10160000 		.4byte	.LASF586
ARM GAS  C:\Windows\TEMP\ccyNncCN.s 			page 102


 4555 18d2 10160000 		.4byte	.LASF586
 4556 18d6 06       		.byte	0x6
 4557 18d7 B501     		.2byte	0x1b5
 4558 18d9 38       		.uleb128 0x38
 4559 18da B4110000 		.4byte	.LASF587
 4560 18de B4110000 		.4byte	.LASF587
 4561 18e2 06       		.byte	0x6
 4562 18e3 8401     		.2byte	0x184
 4563 18e5 39       		.uleb128 0x39
 4564 18e6 8E420000 		.4byte	.LASF588
 4565 18ea 8E420000 		.4byte	.LASF588
 4566 18ee 05       		.byte	0x5
 4567 18ef F2       		.byte	0xf2
 4568 18f0 38       		.uleb128 0x38
 4569 18f1 8F2E0000 		.4byte	.LASF589
 4570 18f5 8F2E0000 		.4byte	.LASF589
 4571 18f9 07       		.byte	0x7
 4572 18fa 6402     		.2byte	0x264
 4573 18fc 38       		.uleb128 0x38
 4574 18fd 86230000 		.4byte	.LASF590
 4575 1901 86230000 		.4byte	.LASF590
 4576 1905 05       		.byte	0x5
 4577 1906 1A01     		.2byte	0x11a
 4578 1908 3A       		.uleb128 0x3a
 4579 1909 BC3D0000 		.4byte	.LASF596
 4580 190d BC3D0000 		.4byte	.LASF596
 4581 1911 38       		.uleb128 0x38
 4582 1912 23250000 		.4byte	.LASF591
 4583 1916 23250000 		.4byte	.LASF591
 4584 191a 06       		.byte	0x6
 4585 191b 1A02     		.2byte	0x21a
 4586 191d 00       		.byte	0
 4587              		.section	.debug_abbrev,"",%progbits
 4588              	.Ldebug_abbrev0:
 4589 0000 01       		.uleb128 0x1
 4590 0001 11       		.uleb128 0x11
 4591 0002 01       		.byte	0x1
 4592 0003 25       		.uleb128 0x25
 4593 0004 0E       		.uleb128 0xe
 4594 0005 13       		.uleb128 0x13
 4595 0006 0B       		.uleb128 0xb
 4596 0007 03       		.uleb128 0x3
 4597 0008 0E       		.uleb128 0xe
 4598 0009 1B       		.uleb128 0x1b
 4599 000a 0E       		.uleb128 0xe
 4600 000b 55       		.uleb128 0x55
 4601 000c 17       		.uleb128 0x17
 4602 000d 11       		.uleb128 0x11
 4603 000e 01       		.uleb128 0x1
 4604 000f 10       		.uleb128 0x10
 4605 0010 17       		.uleb128 0x17
 4606 0011 00       		.byte	0
 4607 0012 00       		.byte	0
 4608 0013 02       		.uleb128 0x2
 4609 0014 24       		.uleb128 0x24
 4610 0015 00       		.byte	0
 4611 0016 0B       		.uleb128 0xb
ARM GAS  C:\Windows\TEMP\ccyNncCN.s 			page 103


 4612 0017 0B       		.uleb128 0xb
 4613 0018 3E       		.uleb128 0x3e
 4614 0019 0B       		.uleb128 0xb
 4615 001a 03       		.uleb128 0x3
 4616 001b 0E       		.uleb128 0xe
 4617 001c 00       		.byte	0
 4618 001d 00       		.byte	0
 4619 001e 03       		.uleb128 0x3
 4620 001f 24       		.uleb128 0x24
 4621 0020 00       		.byte	0
 4622 0021 0B       		.uleb128 0xb
 4623 0022 0B       		.uleb128 0xb
 4624 0023 3E       		.uleb128 0x3e
 4625 0024 0B       		.uleb128 0xb
 4626 0025 03       		.uleb128 0x3
 4627 0026 08       		.uleb128 0x8
 4628 0027 00       		.byte	0
 4629 0028 00       		.byte	0
 4630 0029 04       		.uleb128 0x4
 4631 002a 16       		.uleb128 0x16
 4632 002b 00       		.byte	0
 4633 002c 03       		.uleb128 0x3
 4634 002d 0E       		.uleb128 0xe
 4635 002e 3A       		.uleb128 0x3a
 4636 002f 0B       		.uleb128 0xb
 4637 0030 3B       		.uleb128 0x3b
 4638 0031 05       		.uleb128 0x5
 4639 0032 49       		.uleb128 0x49
 4640 0033 13       		.uleb128 0x13
 4641 0034 00       		.byte	0
 4642 0035 00       		.byte	0
 4643 0036 05       		.uleb128 0x5
 4644 0037 35       		.uleb128 0x35
 4645 0038 00       		.byte	0
 4646 0039 49       		.uleb128 0x49
 4647 003a 13       		.uleb128 0x13
 4648 003b 00       		.byte	0
 4649 003c 00       		.byte	0
 4650 003d 06       		.uleb128 0x6
 4651 003e 0F       		.uleb128 0xf
 4652 003f 00       		.byte	0
 4653 0040 0B       		.uleb128 0xb
 4654 0041 0B       		.uleb128 0xb
 4655 0042 00       		.byte	0
 4656 0043 00       		.byte	0
 4657 0044 07       		.uleb128 0x7
 4658 0045 0F       		.uleb128 0xf
 4659 0046 00       		.byte	0
 4660 0047 0B       		.uleb128 0xb
 4661 0048 0B       		.uleb128 0xb
 4662 0049 49       		.uleb128 0x49
 4663 004a 13       		.uleb128 0x13
 4664 004b 00       		.byte	0
 4665 004c 00       		.byte	0
 4666 004d 08       		.uleb128 0x8
 4667 004e 15       		.uleb128 0x15
 4668 004f 01       		.byte	0x1
ARM GAS  C:\Windows\TEMP\ccyNncCN.s 			page 104


 4669 0050 27       		.uleb128 0x27
 4670 0051 19       		.uleb128 0x19
 4671 0052 01       		.uleb128 0x1
 4672 0053 13       		.uleb128 0x13
 4673 0054 00       		.byte	0
 4674 0055 00       		.byte	0
 4675 0056 09       		.uleb128 0x9
 4676 0057 05       		.uleb128 0x5
 4677 0058 00       		.byte	0
 4678 0059 49       		.uleb128 0x49
 4679 005a 13       		.uleb128 0x13
 4680 005b 00       		.byte	0
 4681 005c 00       		.byte	0
 4682 005d 0A       		.uleb128 0xa
 4683 005e 04       		.uleb128 0x4
 4684 005f 01       		.byte	0x1
 4685 0060 0B       		.uleb128 0xb
 4686 0061 0B       		.uleb128 0xb
 4687 0062 49       		.uleb128 0x49
 4688 0063 13       		.uleb128 0x13
 4689 0064 3A       		.uleb128 0x3a
 4690 0065 0B       		.uleb128 0xb
 4691 0066 3B       		.uleb128 0x3b
 4692 0067 05       		.uleb128 0x5
 4693 0068 01       		.uleb128 0x1
 4694 0069 13       		.uleb128 0x13
 4695 006a 00       		.byte	0
 4696 006b 00       		.byte	0
 4697 006c 0B       		.uleb128 0xb
 4698 006d 28       		.uleb128 0x28
 4699 006e 00       		.byte	0
 4700 006f 03       		.uleb128 0x3
 4701 0070 0E       		.uleb128 0xe
 4702 0071 1C       		.uleb128 0x1c
 4703 0072 0B       		.uleb128 0xb
 4704 0073 00       		.byte	0
 4705 0074 00       		.byte	0
 4706 0075 0C       		.uleb128 0xc
 4707 0076 28       		.uleb128 0x28
 4708 0077 00       		.byte	0
 4709 0078 03       		.uleb128 0x3
 4710 0079 0E       		.uleb128 0xe
 4711 007a 1C       		.uleb128 0x1c
 4712 007b 05       		.uleb128 0x5
 4713 007c 00       		.byte	0
 4714 007d 00       		.byte	0
 4715 007e 0D       		.uleb128 0xd
 4716 007f 01       		.uleb128 0x1
 4717 0080 01       		.byte	0x1
 4718 0081 49       		.uleb128 0x49
 4719 0082 13       		.uleb128 0x13
 4720 0083 01       		.uleb128 0x1
 4721 0084 13       		.uleb128 0x13
 4722 0085 00       		.byte	0
 4723 0086 00       		.byte	0
 4724 0087 0E       		.uleb128 0xe
 4725 0088 21       		.uleb128 0x21
ARM GAS  C:\Windows\TEMP\ccyNncCN.s 			page 105


 4726 0089 00       		.byte	0
 4727 008a 49       		.uleb128 0x49
 4728 008b 13       		.uleb128 0x13
 4729 008c 2F       		.uleb128 0x2f
 4730 008d 0B       		.uleb128 0xb
 4731 008e 00       		.byte	0
 4732 008f 00       		.byte	0
 4733 0090 0F       		.uleb128 0xf
 4734 0091 04       		.uleb128 0x4
 4735 0092 01       		.byte	0x1
 4736 0093 0B       		.uleb128 0xb
 4737 0094 0B       		.uleb128 0xb
 4738 0095 49       		.uleb128 0x49
 4739 0096 13       		.uleb128 0x13
 4740 0097 3A       		.uleb128 0x3a
 4741 0098 0B       		.uleb128 0xb
 4742 0099 3B       		.uleb128 0x3b
 4743 009a 0B       		.uleb128 0xb
 4744 009b 01       		.uleb128 0x1
 4745 009c 13       		.uleb128 0x13
 4746 009d 00       		.byte	0
 4747 009e 00       		.byte	0
 4748 009f 10       		.uleb128 0x10
 4749 00a0 13       		.uleb128 0x13
 4750 00a1 01       		.byte	0x1
 4751 00a2 0B       		.uleb128 0xb
 4752 00a3 0B       		.uleb128 0xb
 4753 00a4 3A       		.uleb128 0x3a
 4754 00a5 0B       		.uleb128 0xb
 4755 00a6 3B       		.uleb128 0x3b
 4756 00a7 05       		.uleb128 0x5
 4757 00a8 01       		.uleb128 0x1
 4758 00a9 13       		.uleb128 0x13
 4759 00aa 00       		.byte	0
 4760 00ab 00       		.byte	0
 4761 00ac 11       		.uleb128 0x11
 4762 00ad 0D       		.uleb128 0xd
 4763 00ae 00       		.byte	0
 4764 00af 03       		.uleb128 0x3
 4765 00b0 0E       		.uleb128 0xe
 4766 00b1 3A       		.uleb128 0x3a
 4767 00b2 0B       		.uleb128 0xb
 4768 00b3 3B       		.uleb128 0x3b
 4769 00b4 05       		.uleb128 0x5
 4770 00b5 49       		.uleb128 0x49
 4771 00b6 13       		.uleb128 0x13
 4772 00b7 38       		.uleb128 0x38
 4773 00b8 0B       		.uleb128 0xb
 4774 00b9 00       		.byte	0
 4775 00ba 00       		.byte	0
 4776 00bb 12       		.uleb128 0x12
 4777 00bc 0D       		.uleb128 0xd
 4778 00bd 00       		.byte	0
 4779 00be 03       		.uleb128 0x3
 4780 00bf 08       		.uleb128 0x8
 4781 00c0 3A       		.uleb128 0x3a
 4782 00c1 0B       		.uleb128 0xb
ARM GAS  C:\Windows\TEMP\ccyNncCN.s 			page 106


 4783 00c2 3B       		.uleb128 0x3b
 4784 00c3 05       		.uleb128 0x5
 4785 00c4 49       		.uleb128 0x49
 4786 00c5 13       		.uleb128 0x13
 4787 00c6 38       		.uleb128 0x38
 4788 00c7 0B       		.uleb128 0xb
 4789 00c8 00       		.byte	0
 4790 00c9 00       		.byte	0
 4791 00ca 13       		.uleb128 0x13
 4792 00cb 16       		.uleb128 0x16
 4793 00cc 00       		.byte	0
 4794 00cd 03       		.uleb128 0x3
 4795 00ce 0E       		.uleb128 0xe
 4796 00cf 3A       		.uleb128 0x3a
 4797 00d0 0B       		.uleb128 0xb
 4798 00d1 3B       		.uleb128 0x3b
 4799 00d2 0B       		.uleb128 0xb
 4800 00d3 49       		.uleb128 0x49
 4801 00d4 13       		.uleb128 0x13
 4802 00d5 00       		.byte	0
 4803 00d6 00       		.byte	0
 4804 00d7 14       		.uleb128 0x14
 4805 00d8 13       		.uleb128 0x13
 4806 00d9 01       		.byte	0x1
 4807 00da 0B       		.uleb128 0xb
 4808 00db 0B       		.uleb128 0xb
 4809 00dc 3A       		.uleb128 0x3a
 4810 00dd 0B       		.uleb128 0xb
 4811 00de 3B       		.uleb128 0x3b
 4812 00df 0B       		.uleb128 0xb
 4813 00e0 01       		.uleb128 0x1
 4814 00e1 13       		.uleb128 0x13
 4815 00e2 00       		.byte	0
 4816 00e3 00       		.byte	0
 4817 00e4 15       		.uleb128 0x15
 4818 00e5 0D       		.uleb128 0xd
 4819 00e6 00       		.byte	0
 4820 00e7 03       		.uleb128 0x3
 4821 00e8 0E       		.uleb128 0xe
 4822 00e9 3A       		.uleb128 0x3a
 4823 00ea 0B       		.uleb128 0xb
 4824 00eb 3B       		.uleb128 0x3b
 4825 00ec 0B       		.uleb128 0xb
 4826 00ed 49       		.uleb128 0x49
 4827 00ee 13       		.uleb128 0x13
 4828 00ef 38       		.uleb128 0x38
 4829 00f0 0B       		.uleb128 0xb
 4830 00f1 00       		.byte	0
 4831 00f2 00       		.byte	0
 4832 00f3 16       		.uleb128 0x16
 4833 00f4 17       		.uleb128 0x17
 4834 00f5 01       		.byte	0x1
 4835 00f6 0B       		.uleb128 0xb
 4836 00f7 0B       		.uleb128 0xb
 4837 00f8 3A       		.uleb128 0x3a
 4838 00f9 0B       		.uleb128 0xb
 4839 00fa 3B       		.uleb128 0x3b
ARM GAS  C:\Windows\TEMP\ccyNncCN.s 			page 107


 4840 00fb 0B       		.uleb128 0xb
 4841 00fc 01       		.uleb128 0x1
 4842 00fd 13       		.uleb128 0x13
 4843 00fe 00       		.byte	0
 4844 00ff 00       		.byte	0
 4845 0100 17       		.uleb128 0x17
 4846 0101 0D       		.uleb128 0xd
 4847 0102 00       		.byte	0
 4848 0103 03       		.uleb128 0x3
 4849 0104 0E       		.uleb128 0xe
 4850 0105 3A       		.uleb128 0x3a
 4851 0106 0B       		.uleb128 0xb
 4852 0107 3B       		.uleb128 0x3b
 4853 0108 0B       		.uleb128 0xb
 4854 0109 49       		.uleb128 0x49
 4855 010a 13       		.uleb128 0x13
 4856 010b 00       		.byte	0
 4857 010c 00       		.byte	0
 4858 010d 18       		.uleb128 0x18
 4859 010e 2E       		.uleb128 0x2e
 4860 010f 00       		.byte	0
 4861 0110 3F       		.uleb128 0x3f
 4862 0111 19       		.uleb128 0x19
 4863 0112 03       		.uleb128 0x3
 4864 0113 0E       		.uleb128 0xe
 4865 0114 3A       		.uleb128 0x3a
 4866 0115 0B       		.uleb128 0xb
 4867 0116 3B       		.uleb128 0x3b
 4868 0117 0B       		.uleb128 0xb
 4869 0118 27       		.uleb128 0x27
 4870 0119 19       		.uleb128 0x19
 4871 011a 11       		.uleb128 0x11
 4872 011b 01       		.uleb128 0x1
 4873 011c 12       		.uleb128 0x12
 4874 011d 06       		.uleb128 0x6
 4875 011e 40       		.uleb128 0x40
 4876 011f 18       		.uleb128 0x18
 4877 0120 9742     		.uleb128 0x2117
 4878 0122 19       		.uleb128 0x19
 4879 0123 00       		.byte	0
 4880 0124 00       		.byte	0
 4881 0125 19       		.uleb128 0x19
 4882 0126 2E       		.uleb128 0x2e
 4883 0127 01       		.byte	0x1
 4884 0128 3F       		.uleb128 0x3f
 4885 0129 19       		.uleb128 0x19
 4886 012a 03       		.uleb128 0x3
 4887 012b 0E       		.uleb128 0xe
 4888 012c 3A       		.uleb128 0x3a
 4889 012d 0B       		.uleb128 0xb
 4890 012e 3B       		.uleb128 0x3b
 4891 012f 0B       		.uleb128 0xb
 4892 0130 27       		.uleb128 0x27
 4893 0131 19       		.uleb128 0x19
 4894 0132 11       		.uleb128 0x11
 4895 0133 01       		.uleb128 0x1
 4896 0134 12       		.uleb128 0x12
ARM GAS  C:\Windows\TEMP\ccyNncCN.s 			page 108


 4897 0135 06       		.uleb128 0x6
 4898 0136 40       		.uleb128 0x40
 4899 0137 18       		.uleb128 0x18
 4900 0138 9742     		.uleb128 0x2117
 4901 013a 19       		.uleb128 0x19
 4902 013b 01       		.uleb128 0x1
 4903 013c 13       		.uleb128 0x13
 4904 013d 00       		.byte	0
 4905 013e 00       		.byte	0
 4906 013f 1A       		.uleb128 0x1a
 4907 0140 05       		.uleb128 0x5
 4908 0141 00       		.byte	0
 4909 0142 03       		.uleb128 0x3
 4910 0143 0E       		.uleb128 0xe
 4911 0144 3A       		.uleb128 0x3a
 4912 0145 0B       		.uleb128 0xb
 4913 0146 3B       		.uleb128 0x3b
 4914 0147 0B       		.uleb128 0xb
 4915 0148 49       		.uleb128 0x49
 4916 0149 13       		.uleb128 0x13
 4917 014a 02       		.uleb128 0x2
 4918 014b 18       		.uleb128 0x18
 4919 014c 00       		.byte	0
 4920 014d 00       		.byte	0
 4921 014e 1B       		.uleb128 0x1b
 4922 014f 2E       		.uleb128 0x2e
 4923 0150 01       		.byte	0x1
 4924 0151 3F       		.uleb128 0x3f
 4925 0152 19       		.uleb128 0x19
 4926 0153 03       		.uleb128 0x3
 4927 0154 0E       		.uleb128 0xe
 4928 0155 3A       		.uleb128 0x3a
 4929 0156 0B       		.uleb128 0xb
 4930 0157 3B       		.uleb128 0x3b
 4931 0158 05       		.uleb128 0x5
 4932 0159 27       		.uleb128 0x27
 4933 015a 19       		.uleb128 0x19
 4934 015b 49       		.uleb128 0x49
 4935 015c 13       		.uleb128 0x13
 4936 015d 11       		.uleb128 0x11
 4937 015e 01       		.uleb128 0x1
 4938 015f 12       		.uleb128 0x12
 4939 0160 06       		.uleb128 0x6
 4940 0161 40       		.uleb128 0x40
 4941 0162 18       		.uleb128 0x18
 4942 0163 9742     		.uleb128 0x2117
 4943 0165 19       		.uleb128 0x19
 4944 0166 01       		.uleb128 0x1
 4945 0167 13       		.uleb128 0x13
 4946 0168 00       		.byte	0
 4947 0169 00       		.byte	0
 4948 016a 1C       		.uleb128 0x1c
 4949 016b 05       		.uleb128 0x5
 4950 016c 00       		.byte	0
 4951 016d 03       		.uleb128 0x3
 4952 016e 0E       		.uleb128 0xe
 4953 016f 3A       		.uleb128 0x3a
ARM GAS  C:\Windows\TEMP\ccyNncCN.s 			page 109


 4954 0170 0B       		.uleb128 0xb
 4955 0171 3B       		.uleb128 0x3b
 4956 0172 05       		.uleb128 0x5
 4957 0173 49       		.uleb128 0x49
 4958 0174 13       		.uleb128 0x13
 4959 0175 02       		.uleb128 0x2
 4960 0176 17       		.uleb128 0x17
 4961 0177 00       		.byte	0
 4962 0178 00       		.byte	0
 4963 0179 1D       		.uleb128 0x1d
 4964 017a 34       		.uleb128 0x34
 4965 017b 00       		.byte	0
 4966 017c 03       		.uleb128 0x3
 4967 017d 0E       		.uleb128 0xe
 4968 017e 3A       		.uleb128 0x3a
 4969 017f 0B       		.uleb128 0xb
 4970 0180 3B       		.uleb128 0x3b
 4971 0181 05       		.uleb128 0x5
 4972 0182 49       		.uleb128 0x49
 4973 0183 13       		.uleb128 0x13
 4974 0184 02       		.uleb128 0x2
 4975 0185 17       		.uleb128 0x17
 4976 0186 00       		.byte	0
 4977 0187 00       		.byte	0
 4978 0188 1E       		.uleb128 0x1e
 4979 0189 0B       		.uleb128 0xb
 4980 018a 01       		.byte	0x1
 4981 018b 11       		.uleb128 0x11
 4982 018c 01       		.uleb128 0x1
 4983 018d 12       		.uleb128 0x12
 4984 018e 06       		.uleb128 0x6
 4985 018f 00       		.byte	0
 4986 0190 00       		.byte	0
 4987 0191 1F       		.uleb128 0x1f
 4988 0192 34       		.uleb128 0x34
 4989 0193 00       		.byte	0
 4990 0194 03       		.uleb128 0x3
 4991 0195 0E       		.uleb128 0xe
 4992 0196 3A       		.uleb128 0x3a
 4993 0197 0B       		.uleb128 0xb
 4994 0198 3B       		.uleb128 0x3b
 4995 0199 05       		.uleb128 0x5
 4996 019a 49       		.uleb128 0x49
 4997 019b 13       		.uleb128 0x13
 4998 019c 02       		.uleb128 0x2
 4999 019d 18       		.uleb128 0x18
 5000 019e 00       		.byte	0
 5001 019f 00       		.byte	0
 5002 01a0 20       		.uleb128 0x20
 5003 01a1 898201   		.uleb128 0x4109
 5004 01a4 01       		.byte	0x1
 5005 01a5 11       		.uleb128 0x11
 5006 01a6 01       		.uleb128 0x1
 5007 01a7 31       		.uleb128 0x31
 5008 01a8 13       		.uleb128 0x13
 5009 01a9 00       		.byte	0
 5010 01aa 00       		.byte	0
ARM GAS  C:\Windows\TEMP\ccyNncCN.s 			page 110


 5011 01ab 21       		.uleb128 0x21
 5012 01ac 8A8201   		.uleb128 0x410a
 5013 01af 00       		.byte	0
 5014 01b0 02       		.uleb128 0x2
 5015 01b1 18       		.uleb128 0x18
 5016 01b2 9142     		.uleb128 0x2111
 5017 01b4 18       		.uleb128 0x18
 5018 01b5 00       		.byte	0
 5019 01b6 00       		.byte	0
 5020 01b7 22       		.uleb128 0x22
 5021 01b8 05       		.uleb128 0x5
 5022 01b9 00       		.byte	0
 5023 01ba 03       		.uleb128 0x3
 5024 01bb 0E       		.uleb128 0xe
 5025 01bc 3A       		.uleb128 0x3a
 5026 01bd 0B       		.uleb128 0xb
 5027 01be 3B       		.uleb128 0x3b
 5028 01bf 05       		.uleb128 0x5
 5029 01c0 49       		.uleb128 0x49
 5030 01c1 13       		.uleb128 0x13
 5031 01c2 02       		.uleb128 0x2
 5032 01c3 18       		.uleb128 0x18
 5033 01c4 00       		.byte	0
 5034 01c5 00       		.byte	0
 5035 01c6 23       		.uleb128 0x23
 5036 01c7 0B       		.uleb128 0xb
 5037 01c8 01       		.byte	0x1
 5038 01c9 55       		.uleb128 0x55
 5039 01ca 17       		.uleb128 0x17
 5040 01cb 00       		.byte	0
 5041 01cc 00       		.byte	0
 5042 01cd 24       		.uleb128 0x24
 5043 01ce 0B       		.uleb128 0xb
 5044 01cf 01       		.byte	0x1
 5045 01d0 11       		.uleb128 0x11
 5046 01d1 01       		.uleb128 0x1
 5047 01d2 12       		.uleb128 0x12
 5048 01d3 06       		.uleb128 0x6
 5049 01d4 01       		.uleb128 0x1
 5050 01d5 13       		.uleb128 0x13
 5051 01d6 00       		.byte	0
 5052 01d7 00       		.byte	0
 5053 01d8 25       		.uleb128 0x25
 5054 01d9 898201   		.uleb128 0x4109
 5055 01dc 00       		.byte	0
 5056 01dd 11       		.uleb128 0x11
 5057 01de 01       		.uleb128 0x1
 5058 01df 31       		.uleb128 0x31
 5059 01e0 13       		.uleb128 0x13
 5060 01e1 00       		.byte	0
 5061 01e2 00       		.byte	0
 5062 01e3 26       		.uleb128 0x26
 5063 01e4 2E       		.uleb128 0x2e
 5064 01e5 01       		.byte	0x1
 5065 01e6 3F       		.uleb128 0x3f
 5066 01e7 19       		.uleb128 0x19
 5067 01e8 03       		.uleb128 0x3
ARM GAS  C:\Windows\TEMP\ccyNncCN.s 			page 111


 5068 01e9 0E       		.uleb128 0xe
 5069 01ea 3A       		.uleb128 0x3a
 5070 01eb 0B       		.uleb128 0xb
 5071 01ec 3B       		.uleb128 0x3b
 5072 01ed 05       		.uleb128 0x5
 5073 01ee 27       		.uleb128 0x27
 5074 01ef 19       		.uleb128 0x19
 5075 01f0 11       		.uleb128 0x11
 5076 01f1 01       		.uleb128 0x1
 5077 01f2 12       		.uleb128 0x12
 5078 01f3 06       		.uleb128 0x6
 5079 01f4 40       		.uleb128 0x40
 5080 01f5 18       		.uleb128 0x18
 5081 01f6 9742     		.uleb128 0x2117
 5082 01f8 19       		.uleb128 0x19
 5083 01f9 01       		.uleb128 0x1
 5084 01fa 13       		.uleb128 0x13
 5085 01fb 00       		.byte	0
 5086 01fc 00       		.byte	0
 5087 01fd 27       		.uleb128 0x27
 5088 01fe 898201   		.uleb128 0x4109
 5089 0201 01       		.byte	0x1
 5090 0202 11       		.uleb128 0x11
 5091 0203 01       		.uleb128 0x1
 5092 0204 31       		.uleb128 0x31
 5093 0205 13       		.uleb128 0x13
 5094 0206 01       		.uleb128 0x1
 5095 0207 13       		.uleb128 0x13
 5096 0208 00       		.byte	0
 5097 0209 00       		.byte	0
 5098 020a 28       		.uleb128 0x28
 5099 020b 898201   		.uleb128 0x4109
 5100 020e 01       		.byte	0x1
 5101 020f 11       		.uleb128 0x11
 5102 0210 01       		.uleb128 0x1
 5103 0211 00       		.byte	0
 5104 0212 00       		.byte	0
 5105 0213 29       		.uleb128 0x29
 5106 0214 26       		.uleb128 0x26
 5107 0215 00       		.byte	0
 5108 0216 49       		.uleb128 0x49
 5109 0217 13       		.uleb128 0x13
 5110 0218 00       		.byte	0
 5111 0219 00       		.byte	0
 5112 021a 2A       		.uleb128 0x2a
 5113 021b 34       		.uleb128 0x34
 5114 021c 00       		.byte	0
 5115 021d 03       		.uleb128 0x3
 5116 021e 0E       		.uleb128 0xe
 5117 021f 3A       		.uleb128 0x3a
 5118 0220 0B       		.uleb128 0xb
 5119 0221 3B       		.uleb128 0x3b
 5120 0222 05       		.uleb128 0x5
 5121 0223 49       		.uleb128 0x49
 5122 0224 13       		.uleb128 0x13
 5123 0225 1C       		.uleb128 0x1c
 5124 0226 0B       		.uleb128 0xb
ARM GAS  C:\Windows\TEMP\ccyNncCN.s 			page 112


 5125 0227 00       		.byte	0
 5126 0228 00       		.byte	0
 5127 0229 2B       		.uleb128 0x2b
 5128 022a 34       		.uleb128 0x34
 5129 022b 00       		.byte	0
 5130 022c 03       		.uleb128 0x3
 5131 022d 0E       		.uleb128 0xe
 5132 022e 3A       		.uleb128 0x3a
 5133 022f 0B       		.uleb128 0xb
 5134 0230 3B       		.uleb128 0x3b
 5135 0231 05       		.uleb128 0x5
 5136 0232 49       		.uleb128 0x49
 5137 0233 13       		.uleb128 0x13
 5138 0234 00       		.byte	0
 5139 0235 00       		.byte	0
 5140 0236 2C       		.uleb128 0x2c
 5141 0237 34       		.uleb128 0x34
 5142 0238 00       		.byte	0
 5143 0239 03       		.uleb128 0x3
 5144 023a 0E       		.uleb128 0xe
 5145 023b 3A       		.uleb128 0x3a
 5146 023c 0B       		.uleb128 0xb
 5147 023d 3B       		.uleb128 0x3b
 5148 023e 05       		.uleb128 0x5
 5149 023f 49       		.uleb128 0x49
 5150 0240 13       		.uleb128 0x13
 5151 0241 1C       		.uleb128 0x1c
 5152 0242 0D       		.uleb128 0xd
 5153 0243 00       		.byte	0
 5154 0244 00       		.byte	0
 5155 0245 2D       		.uleb128 0x2d
 5156 0246 34       		.uleb128 0x34
 5157 0247 00       		.byte	0
 5158 0248 03       		.uleb128 0x3
 5159 0249 08       		.uleb128 0x8
 5160 024a 3A       		.uleb128 0x3a
 5161 024b 0B       		.uleb128 0xb
 5162 024c 3B       		.uleb128 0x3b
 5163 024d 05       		.uleb128 0x5
 5164 024e 49       		.uleb128 0x49
 5165 024f 13       		.uleb128 0x13
 5166 0250 02       		.uleb128 0x2
 5167 0251 17       		.uleb128 0x17
 5168 0252 00       		.byte	0
 5169 0253 00       		.byte	0
 5170 0254 2E       		.uleb128 0x2e
 5171 0255 2E       		.uleb128 0x2e
 5172 0256 01       		.byte	0x1
 5173 0257 3F       		.uleb128 0x3f
 5174 0258 19       		.uleb128 0x19
 5175 0259 03       		.uleb128 0x3
 5176 025a 0E       		.uleb128 0xe
 5177 025b 3A       		.uleb128 0x3a
 5178 025c 0B       		.uleb128 0xb
 5179 025d 3B       		.uleb128 0x3b
 5180 025e 0B       		.uleb128 0xb
 5181 025f 27       		.uleb128 0x27
ARM GAS  C:\Windows\TEMP\ccyNncCN.s 			page 113


 5182 0260 19       		.uleb128 0x19
 5183 0261 49       		.uleb128 0x49
 5184 0262 13       		.uleb128 0x13
 5185 0263 11       		.uleb128 0x11
 5186 0264 01       		.uleb128 0x1
 5187 0265 12       		.uleb128 0x12
 5188 0266 06       		.uleb128 0x6
 5189 0267 40       		.uleb128 0x40
 5190 0268 18       		.uleb128 0x18
 5191 0269 9742     		.uleb128 0x2117
 5192 026b 19       		.uleb128 0x19
 5193 026c 01       		.uleb128 0x1
 5194 026d 13       		.uleb128 0x13
 5195 026e 00       		.byte	0
 5196 026f 00       		.byte	0
 5197 0270 2F       		.uleb128 0x2f
 5198 0271 05       		.uleb128 0x5
 5199 0272 00       		.byte	0
 5200 0273 03       		.uleb128 0x3
 5201 0274 0E       		.uleb128 0xe
 5202 0275 3A       		.uleb128 0x3a
 5203 0276 0B       		.uleb128 0xb
 5204 0277 3B       		.uleb128 0x3b
 5205 0278 0B       		.uleb128 0xb
 5206 0279 49       		.uleb128 0x49
 5207 027a 13       		.uleb128 0x13
 5208 027b 02       		.uleb128 0x2
 5209 027c 17       		.uleb128 0x17
 5210 027d 00       		.byte	0
 5211 027e 00       		.byte	0
 5212 027f 30       		.uleb128 0x30
 5213 0280 34       		.uleb128 0x34
 5214 0281 00       		.byte	0
 5215 0282 03       		.uleb128 0x3
 5216 0283 08       		.uleb128 0x8
 5217 0284 3A       		.uleb128 0x3a
 5218 0285 0B       		.uleb128 0xb
 5219 0286 3B       		.uleb128 0x3b
 5220 0287 0B       		.uleb128 0xb
 5221 0288 49       		.uleb128 0x49
 5222 0289 13       		.uleb128 0x13
 5223 028a 02       		.uleb128 0x2
 5224 028b 17       		.uleb128 0x17
 5225 028c 00       		.byte	0
 5226 028d 00       		.byte	0
 5227 028e 31       		.uleb128 0x31
 5228 028f 34       		.uleb128 0x34
 5229 0290 00       		.byte	0
 5230 0291 03       		.uleb128 0x3
 5231 0292 0E       		.uleb128 0xe
 5232 0293 3A       		.uleb128 0x3a
 5233 0294 0B       		.uleb128 0xb
 5234 0295 3B       		.uleb128 0x3b
 5235 0296 0B       		.uleb128 0xb
 5236 0297 49       		.uleb128 0x49
 5237 0298 13       		.uleb128 0x13
 5238 0299 02       		.uleb128 0x2
ARM GAS  C:\Windows\TEMP\ccyNncCN.s 			page 114


 5239 029a 17       		.uleb128 0x17
 5240 029b 00       		.byte	0
 5241 029c 00       		.byte	0
 5242 029d 32       		.uleb128 0x32
 5243 029e 34       		.uleb128 0x34
 5244 029f 00       		.byte	0
 5245 02a0 03       		.uleb128 0x3
 5246 02a1 0E       		.uleb128 0xe
 5247 02a2 3A       		.uleb128 0x3a
 5248 02a3 0B       		.uleb128 0xb
 5249 02a4 3B       		.uleb128 0x3b
 5250 02a5 0B       		.uleb128 0xb
 5251 02a6 49       		.uleb128 0x49
 5252 02a7 13       		.uleb128 0x13
 5253 02a8 02       		.uleb128 0x2
 5254 02a9 18       		.uleb128 0x18
 5255 02aa 00       		.byte	0
 5256 02ab 00       		.byte	0
 5257 02ac 33       		.uleb128 0x33
 5258 02ad 898201   		.uleb128 0x4109
 5259 02b0 01       		.byte	0x1
 5260 02b1 11       		.uleb128 0x11
 5261 02b2 01       		.uleb128 0x1
 5262 02b3 01       		.uleb128 0x1
 5263 02b4 13       		.uleb128 0x13
 5264 02b5 00       		.byte	0
 5265 02b6 00       		.byte	0
 5266 02b7 34       		.uleb128 0x34
 5267 02b8 0B       		.uleb128 0xb
 5268 02b9 01       		.byte	0x1
 5269 02ba 55       		.uleb128 0x55
 5270 02bb 17       		.uleb128 0x17
 5271 02bc 01       		.uleb128 0x1
 5272 02bd 13       		.uleb128 0x13
 5273 02be 00       		.byte	0
 5274 02bf 00       		.byte	0
 5275 02c0 35       		.uleb128 0x35
 5276 02c1 34       		.uleb128 0x34
 5277 02c2 00       		.byte	0
 5278 02c3 03       		.uleb128 0x3
 5279 02c4 0E       		.uleb128 0xe
 5280 02c5 3A       		.uleb128 0x3a
 5281 02c6 0B       		.uleb128 0xb
 5282 02c7 3B       		.uleb128 0x3b
 5283 02c8 05       		.uleb128 0x5
 5284 02c9 49       		.uleb128 0x49
 5285 02ca 13       		.uleb128 0x13
 5286 02cb 3F       		.uleb128 0x3f
 5287 02cc 19       		.uleb128 0x19
 5288 02cd 3C       		.uleb128 0x3c
 5289 02ce 19       		.uleb128 0x19
 5290 02cf 00       		.byte	0
 5291 02d0 00       		.byte	0
 5292 02d1 36       		.uleb128 0x36
 5293 02d2 34       		.uleb128 0x34
 5294 02d3 00       		.byte	0
 5295 02d4 03       		.uleb128 0x3
ARM GAS  C:\Windows\TEMP\ccyNncCN.s 			page 115


 5296 02d5 0E       		.uleb128 0xe
 5297 02d6 3A       		.uleb128 0x3a
 5298 02d7 0B       		.uleb128 0xb
 5299 02d8 3B       		.uleb128 0x3b
 5300 02d9 0B       		.uleb128 0xb
 5301 02da 49       		.uleb128 0x49
 5302 02db 13       		.uleb128 0x13
 5303 02dc 3F       		.uleb128 0x3f
 5304 02dd 19       		.uleb128 0x19
 5305 02de 3C       		.uleb128 0x3c
 5306 02df 19       		.uleb128 0x19
 5307 02e0 00       		.byte	0
 5308 02e1 00       		.byte	0
 5309 02e2 37       		.uleb128 0x37
 5310 02e3 34       		.uleb128 0x34
 5311 02e4 00       		.byte	0
 5312 02e5 03       		.uleb128 0x3
 5313 02e6 0E       		.uleb128 0xe
 5314 02e7 3A       		.uleb128 0x3a
 5315 02e8 0B       		.uleb128 0xb
 5316 02e9 3B       		.uleb128 0x3b
 5317 02ea 0B       		.uleb128 0xb
 5318 02eb 49       		.uleb128 0x49
 5319 02ec 13       		.uleb128 0x13
 5320 02ed 3F       		.uleb128 0x3f
 5321 02ee 19       		.uleb128 0x19
 5322 02ef 02       		.uleb128 0x2
 5323 02f0 18       		.uleb128 0x18
 5324 02f1 00       		.byte	0
 5325 02f2 00       		.byte	0
 5326 02f3 38       		.uleb128 0x38
 5327 02f4 2E       		.uleb128 0x2e
 5328 02f5 00       		.byte	0
 5329 02f6 3F       		.uleb128 0x3f
 5330 02f7 19       		.uleb128 0x19
 5331 02f8 3C       		.uleb128 0x3c
 5332 02f9 19       		.uleb128 0x19
 5333 02fa 6E       		.uleb128 0x6e
 5334 02fb 0E       		.uleb128 0xe
 5335 02fc 03       		.uleb128 0x3
 5336 02fd 0E       		.uleb128 0xe
 5337 02fe 3A       		.uleb128 0x3a
 5338 02ff 0B       		.uleb128 0xb
 5339 0300 3B       		.uleb128 0x3b
 5340 0301 05       		.uleb128 0x5
 5341 0302 00       		.byte	0
 5342 0303 00       		.byte	0
 5343 0304 39       		.uleb128 0x39
 5344 0305 2E       		.uleb128 0x2e
 5345 0306 00       		.byte	0
 5346 0307 3F       		.uleb128 0x3f
 5347 0308 19       		.uleb128 0x19
 5348 0309 3C       		.uleb128 0x3c
 5349 030a 19       		.uleb128 0x19
 5350 030b 6E       		.uleb128 0x6e
 5351 030c 0E       		.uleb128 0xe
 5352 030d 03       		.uleb128 0x3
ARM GAS  C:\Windows\TEMP\ccyNncCN.s 			page 116


 5353 030e 0E       		.uleb128 0xe
 5354 030f 3A       		.uleb128 0x3a
 5355 0310 0B       		.uleb128 0xb
 5356 0311 3B       		.uleb128 0x3b
 5357 0312 0B       		.uleb128 0xb
 5358 0313 00       		.byte	0
 5359 0314 00       		.byte	0
 5360 0315 3A       		.uleb128 0x3a
 5361 0316 2E       		.uleb128 0x2e
 5362 0317 00       		.byte	0
 5363 0318 3F       		.uleb128 0x3f
 5364 0319 19       		.uleb128 0x19
 5365 031a 3C       		.uleb128 0x3c
 5366 031b 19       		.uleb128 0x19
 5367 031c 6E       		.uleb128 0x6e
 5368 031d 0E       		.uleb128 0xe
 5369 031e 03       		.uleb128 0x3
 5370 031f 0E       		.uleb128 0xe
 5371 0320 00       		.byte	0
 5372 0321 00       		.byte	0
 5373 0322 00       		.byte	0
 5374              		.section	.debug_loc,"",%progbits
 5375              	.Ldebug_loc0:
 5376              	.LLST0:
 5377 0000 00000000 		.4byte	.LVL1
 5378 0004 12000000 		.4byte	.LVL3
 5379 0008 0100     		.2byte	0x1
 5380 000a 50       		.byte	0x50
 5381 000b 12000000 		.4byte	.LVL3
 5382 000f 54000000 		.4byte	.LVL9
 5383 0013 0400     		.2byte	0x4
 5384 0015 F3       		.byte	0xf3
 5385 0016 01       		.uleb128 0x1
 5386 0017 50       		.byte	0x50
 5387 0018 9F       		.byte	0x9f
 5388 0019 54000000 		.4byte	.LVL9
 5389 001d 56000000 		.4byte	.LVL10
 5390 0021 0100     		.2byte	0x1
 5391 0023 50       		.byte	0x50
 5392 0024 56000000 		.4byte	.LVL10
 5393 0028 58000000 		.4byte	.LVL11
 5394 002c 0400     		.2byte	0x4
 5395 002e F3       		.byte	0xf3
 5396 002f 01       		.uleb128 0x1
 5397 0030 50       		.byte	0x50
 5398 0031 9F       		.byte	0x9f
 5399 0032 58000000 		.4byte	.LVL11
 5400 0036 5A000000 		.4byte	.LVL12
 5401 003a 0100     		.2byte	0x1
 5402 003c 50       		.byte	0x50
 5403 003d 5A000000 		.4byte	.LVL12
 5404 0041 74000000 		.4byte	.LFE6
 5405 0045 0400     		.2byte	0x4
 5406 0047 F3       		.byte	0xf3
 5407 0048 01       		.uleb128 0x1
 5408 0049 50       		.byte	0x50
 5409 004a 9F       		.byte	0x9f
ARM GAS  C:\Windows\TEMP\ccyNncCN.s 			page 117


 5410 004b 00000000 		.4byte	0
 5411 004f 00000000 		.4byte	0
 5412              	.LLST1:
 5413 0053 00000000 		.4byte	.LVL1
 5414 0057 1E000000 		.4byte	.LVL4
 5415 005b 0100     		.2byte	0x1
 5416 005d 51       		.byte	0x51
 5417 005e 1E000000 		.4byte	.LVL4
 5418 0062 54000000 		.4byte	.LVL9
 5419 0066 0400     		.2byte	0x4
 5420 0068 F3       		.byte	0xf3
 5421 0069 01       		.uleb128 0x1
 5422 006a 51       		.byte	0x51
 5423 006b 9F       		.byte	0x9f
 5424 006c 54000000 		.4byte	.LVL9
 5425 0070 60000000 		.4byte	.LVL13
 5426 0074 0100     		.2byte	0x1
 5427 0076 51       		.byte	0x51
 5428 0077 60000000 		.4byte	.LVL13
 5429 007b 74000000 		.4byte	.LFE6
 5430 007f 0400     		.2byte	0x4
 5431 0081 F3       		.byte	0xf3
 5432 0082 01       		.uleb128 0x1
 5433 0083 51       		.byte	0x51
 5434 0084 9F       		.byte	0x9f
 5435 0085 00000000 		.4byte	0
 5436 0089 00000000 		.4byte	0
 5437              	.LLST2:
 5438 008d 00000000 		.4byte	.LVL1
 5439 0091 32000000 		.4byte	.LVL5
 5440 0095 0100     		.2byte	0x1
 5441 0097 52       		.byte	0x52
 5442 0098 32000000 		.4byte	.LVL5
 5443 009c 54000000 		.4byte	.LVL9
 5444 00a0 0400     		.2byte	0x4
 5445 00a2 F3       		.byte	0xf3
 5446 00a3 01       		.uleb128 0x1
 5447 00a4 52       		.byte	0x52
 5448 00a5 9F       		.byte	0x9f
 5449 00a6 54000000 		.4byte	.LVL9
 5450 00aa 62000000 		.4byte	.LVL14
 5451 00ae 0100     		.2byte	0x1
 5452 00b0 52       		.byte	0x52
 5453 00b1 62000000 		.4byte	.LVL14
 5454 00b5 74000000 		.4byte	.LFE6
 5455 00b9 0400     		.2byte	0x4
 5456 00bb F3       		.byte	0xf3
 5457 00bc 01       		.uleb128 0x1
 5458 00bd 52       		.byte	0x52
 5459 00be 9F       		.byte	0x9f
 5460 00bf 00000000 		.4byte	0
 5461 00c3 00000000 		.4byte	0
 5462              	.LLST3:
 5463 00c7 00000000 		.4byte	.LVL1
 5464 00cb 37000000 		.4byte	.LVL6-1
 5465 00cf 0100     		.2byte	0x1
 5466 00d1 53       		.byte	0x53
ARM GAS  C:\Windows\TEMP\ccyNncCN.s 			page 118


 5467 00d2 37000000 		.4byte	.LVL6-1
 5468 00d6 54000000 		.4byte	.LVL9
 5469 00da 0400     		.2byte	0x4
 5470 00dc F3       		.byte	0xf3
 5471 00dd 01       		.uleb128 0x1
 5472 00de 53       		.byte	0x53
 5473 00df 9F       		.byte	0x9f
 5474 00e0 54000000 		.4byte	.LVL9
 5475 00e4 62000000 		.4byte	.LVL14
 5476 00e8 0100     		.2byte	0x1
 5477 00ea 53       		.byte	0x53
 5478 00eb 62000000 		.4byte	.LVL14
 5479 00ef 74000000 		.4byte	.LFE6
 5480 00f3 0400     		.2byte	0x4
 5481 00f5 F3       		.byte	0xf3
 5482 00f6 01       		.uleb128 0x1
 5483 00f7 53       		.byte	0x53
 5484 00f8 9F       		.byte	0x9f
 5485 00f9 00000000 		.4byte	0
 5486 00fd 00000000 		.4byte	0
 5487              	.LLST4:
 5488 0101 04000000 		.4byte	.LVL2
 5489 0105 3C000000 		.4byte	.LVL7
 5490 0109 0200     		.2byte	0x2
 5491 010b 31       		.byte	0x31
 5492 010c 9F       		.byte	0x9f
 5493 010d 3C000000 		.4byte	.LVL7
 5494 0111 50000000 		.4byte	.LVL8
 5495 0115 0200     		.2byte	0x2
 5496 0117 30       		.byte	0x30
 5497 0118 9F       		.byte	0x9f
 5498 0119 50000000 		.4byte	.LVL8
 5499 011d 62000000 		.4byte	.LVL14
 5500 0121 0200     		.2byte	0x2
 5501 0123 31       		.byte	0x31
 5502 0124 9F       		.byte	0x9f
 5503 0125 62000000 		.4byte	.LVL14
 5504 0129 74000000 		.4byte	.LFE6
 5505 012d 0100     		.2byte	0x1
 5506 012f 50       		.byte	0x50
 5507 0130 00000000 		.4byte	0
 5508 0134 00000000 		.4byte	0
 5509              	.LLST5:
 5510 0138 00000000 		.4byte	.LVL15
 5511 013c 18000000 		.4byte	.LVL18
 5512 0140 0100     		.2byte	0x1
 5513 0142 50       		.byte	0x50
 5514 0143 18000000 		.4byte	.LVL18
 5515 0147 6A000000 		.4byte	.LVL24
 5516 014b 0400     		.2byte	0x4
 5517 014d F3       		.byte	0xf3
 5518 014e 01       		.uleb128 0x1
 5519 014f 50       		.byte	0x50
 5520 0150 9F       		.byte	0x9f
 5521 0151 6A000000 		.4byte	.LVL24
 5522 0155 6C000000 		.4byte	.LVL25
 5523 0159 0100     		.2byte	0x1
ARM GAS  C:\Windows\TEMP\ccyNncCN.s 			page 119


 5524 015b 50       		.byte	0x50
 5525 015c 6C000000 		.4byte	.LVL25
 5526 0160 6E000000 		.4byte	.LVL26
 5527 0164 0400     		.2byte	0x4
 5528 0166 F3       		.byte	0xf3
 5529 0167 01       		.uleb128 0x1
 5530 0168 50       		.byte	0x50
 5531 0169 9F       		.byte	0x9f
 5532 016a 6E000000 		.4byte	.LVL26
 5533 016e 70000000 		.4byte	.LVL27
 5534 0172 0100     		.2byte	0x1
 5535 0174 50       		.byte	0x50
 5536 0175 70000000 		.4byte	.LVL27
 5537 0179 72000000 		.4byte	.LVL28
 5538 017d 0400     		.2byte	0x4
 5539 017f F3       		.byte	0xf3
 5540 0180 01       		.uleb128 0x1
 5541 0181 50       		.byte	0x50
 5542 0182 9F       		.byte	0x9f
 5543 0183 72000000 		.4byte	.LVL28
 5544 0187 74000000 		.4byte	.LVL29
 5545 018b 0100     		.2byte	0x1
 5546 018d 50       		.byte	0x50
 5547 018e 74000000 		.4byte	.LVL29
 5548 0192 90000000 		.4byte	.LFE7
 5549 0196 0400     		.2byte	0x4
 5550 0198 F3       		.byte	0xf3
 5551 0199 01       		.uleb128 0x1
 5552 019a 50       		.byte	0x50
 5553 019b 9F       		.byte	0x9f
 5554 019c 00000000 		.4byte	0
 5555 01a0 00000000 		.4byte	0
 5556              	.LLST6:
 5557 01a4 00000000 		.4byte	.LVL15
 5558 01a8 24000000 		.4byte	.LVL19
 5559 01ac 0100     		.2byte	0x1
 5560 01ae 51       		.byte	0x51
 5561 01af 24000000 		.4byte	.LVL19
 5562 01b3 6A000000 		.4byte	.LVL24
 5563 01b7 0400     		.2byte	0x4
 5564 01b9 F3       		.byte	0xf3
 5565 01ba 01       		.uleb128 0x1
 5566 01bb 51       		.byte	0x51
 5567 01bc 9F       		.byte	0x9f
 5568 01bd 6A000000 		.4byte	.LVL24
 5569 01c1 7A000000 		.4byte	.LVL30
 5570 01c5 0100     		.2byte	0x1
 5571 01c7 51       		.byte	0x51
 5572 01c8 7A000000 		.4byte	.LVL30
 5573 01cc 90000000 		.4byte	.LFE7
 5574 01d0 0400     		.2byte	0x4
 5575 01d2 F3       		.byte	0xf3
 5576 01d3 01       		.uleb128 0x1
 5577 01d4 51       		.byte	0x51
 5578 01d5 9F       		.byte	0x9f
 5579 01d6 00000000 		.4byte	0
 5580 01da 00000000 		.4byte	0
ARM GAS  C:\Windows\TEMP\ccyNncCN.s 			page 120


 5581              	.LLST7:
 5582 01de 00000000 		.4byte	.LVL15
 5583 01e2 0C000000 		.4byte	.LVL17
 5584 01e6 0100     		.2byte	0x1
 5585 01e8 52       		.byte	0x52
 5586 01e9 0C000000 		.4byte	.LVL17
 5587 01ed 6A000000 		.4byte	.LVL24
 5588 01f1 0400     		.2byte	0x4
 5589 01f3 F3       		.byte	0xf3
 5590 01f4 01       		.uleb128 0x1
 5591 01f5 52       		.byte	0x52
 5592 01f6 9F       		.byte	0x9f
 5593 01f7 6A000000 		.4byte	.LVL24
 5594 01fb 6E000000 		.4byte	.LVL26
 5595 01ff 0100     		.2byte	0x1
 5596 0201 52       		.byte	0x52
 5597 0202 6E000000 		.4byte	.LVL26
 5598 0206 90000000 		.4byte	.LFE7
 5599 020a 0400     		.2byte	0x4
 5600 020c F3       		.byte	0xf3
 5601 020d 01       		.uleb128 0x1
 5602 020e 52       		.byte	0x52
 5603 020f 9F       		.byte	0x9f
 5604 0210 00000000 		.4byte	0
 5605 0214 00000000 		.4byte	0
 5606              	.LLST8:
 5607 0218 00000000 		.4byte	.LVL15
 5608 021c 40000000 		.4byte	.LVL20
 5609 0220 0100     		.2byte	0x1
 5610 0222 53       		.byte	0x53
 5611 0223 40000000 		.4byte	.LVL20
 5612 0227 6A000000 		.4byte	.LVL24
 5613 022b 0400     		.2byte	0x4
 5614 022d F3       		.byte	0xf3
 5615 022e 01       		.uleb128 0x1
 5616 022f 53       		.byte	0x53
 5617 0230 9F       		.byte	0x9f
 5618 0231 6A000000 		.4byte	.LVL24
 5619 0235 80000000 		.4byte	.LVL31
 5620 0239 0100     		.2byte	0x1
 5621 023b 53       		.byte	0x53
 5622 023c 80000000 		.4byte	.LVL31
 5623 0240 90000000 		.4byte	.LFE7
 5624 0244 0400     		.2byte	0x4
 5625 0246 F3       		.byte	0xf3
 5626 0247 01       		.uleb128 0x1
 5627 0248 53       		.byte	0x53
 5628 0249 9F       		.byte	0x9f
 5629 024a 00000000 		.4byte	0
 5630 024e 00000000 		.4byte	0
 5631              	.LLST9:
 5632 0252 06000000 		.4byte	.LVL16
 5633 0256 4E000000 		.4byte	.LVL22
 5634 025a 0200     		.2byte	0x2
 5635 025c 31       		.byte	0x31
 5636 025d 9F       		.byte	0x9f
 5637 025e 4E000000 		.4byte	.LVL22
ARM GAS  C:\Windows\TEMP\ccyNncCN.s 			page 121


 5638 0262 66000000 		.4byte	.LVL23
 5639 0266 0200     		.2byte	0x2
 5640 0268 30       		.byte	0x30
 5641 0269 9F       		.byte	0x9f
 5642 026a 66000000 		.4byte	.LVL23
 5643 026e 80000000 		.4byte	.LVL31
 5644 0272 0200     		.2byte	0x2
 5645 0274 31       		.byte	0x31
 5646 0275 9F       		.byte	0x9f
 5647 0276 80000000 		.4byte	.LVL31
 5648 027a 90000000 		.4byte	.LFE7
 5649 027e 0100     		.2byte	0x1
 5650 0280 50       		.byte	0x50
 5651 0281 00000000 		.4byte	0
 5652 0285 00000000 		.4byte	0
 5653              	.LLST10:
 5654 0289 00000000 		.4byte	.LVL32
 5655 028d 16000000 		.4byte	.LVL34
 5656 0291 0100     		.2byte	0x1
 5657 0293 50       		.byte	0x50
 5658 0294 16000000 		.4byte	.LVL34
 5659 0298 54000000 		.4byte	.LVL40
 5660 029c 0400     		.2byte	0x4
 5661 029e F3       		.byte	0xf3
 5662 029f 01       		.uleb128 0x1
 5663 02a0 50       		.byte	0x50
 5664 02a1 9F       		.byte	0x9f
 5665 02a2 54000000 		.4byte	.LVL40
 5666 02a6 56000000 		.4byte	.LVL41
 5667 02aa 0100     		.2byte	0x1
 5668 02ac 50       		.byte	0x50
 5669 02ad 56000000 		.4byte	.LVL41
 5670 02b1 58000000 		.4byte	.LVL42
 5671 02b5 0400     		.2byte	0x4
 5672 02b7 F3       		.byte	0xf3
 5673 02b8 01       		.uleb128 0x1
 5674 02b9 50       		.byte	0x50
 5675 02ba 9F       		.byte	0x9f
 5676 02bb 58000000 		.4byte	.LVL42
 5677 02bf 5A000000 		.4byte	.LVL43
 5678 02c3 0100     		.2byte	0x1
 5679 02c5 50       		.byte	0x50
 5680 02c6 5A000000 		.4byte	.LVL43
 5681 02ca 5C000000 		.4byte	.LVL44
 5682 02ce 0400     		.2byte	0x4
 5683 02d0 F3       		.byte	0xf3
 5684 02d1 01       		.uleb128 0x1
 5685 02d2 50       		.byte	0x50
 5686 02d3 9F       		.byte	0x9f
 5687 02d4 5C000000 		.4byte	.LVL44
 5688 02d8 5E000000 		.4byte	.LVL45
 5689 02dc 0100     		.2byte	0x1
 5690 02de 50       		.byte	0x50
 5691 02df 5E000000 		.4byte	.LVL45
 5692 02e3 78000000 		.4byte	.LFE8
 5693 02e7 0400     		.2byte	0x4
 5694 02e9 F3       		.byte	0xf3
ARM GAS  C:\Windows\TEMP\ccyNncCN.s 			page 122


 5695 02ea 01       		.uleb128 0x1
 5696 02eb 50       		.byte	0x50
 5697 02ec 9F       		.byte	0x9f
 5698 02ed 00000000 		.4byte	0
 5699 02f1 00000000 		.4byte	0
 5700              	.LLST11:
 5701 02f5 00000000 		.4byte	.LVL32
 5702 02f9 22000000 		.4byte	.LVL35
 5703 02fd 0100     		.2byte	0x1
 5704 02ff 51       		.byte	0x51
 5705 0300 22000000 		.4byte	.LVL35
 5706 0304 54000000 		.4byte	.LVL40
 5707 0308 0400     		.2byte	0x4
 5708 030a F3       		.byte	0xf3
 5709 030b 01       		.uleb128 0x1
 5710 030c 51       		.byte	0x51
 5711 030d 9F       		.byte	0x9f
 5712 030e 54000000 		.4byte	.LVL40
 5713 0312 64000000 		.4byte	.LVL46
 5714 0316 0100     		.2byte	0x1
 5715 0318 51       		.byte	0x51
 5716 0319 64000000 		.4byte	.LVL46
 5717 031d 78000000 		.4byte	.LFE8
 5718 0321 0400     		.2byte	0x4
 5719 0323 F3       		.byte	0xf3
 5720 0324 01       		.uleb128 0x1
 5721 0325 51       		.byte	0x51
 5722 0326 9F       		.byte	0x9f
 5723 0327 00000000 		.4byte	0
 5724 032b 00000000 		.4byte	0
 5725              	.LLST12:
 5726 032f 00000000 		.4byte	.LVL32
 5727 0333 2C000000 		.4byte	.LVL36
 5728 0337 0100     		.2byte	0x1
 5729 0339 52       		.byte	0x52
 5730 033a 2C000000 		.4byte	.LVL36
 5731 033e 54000000 		.4byte	.LVL40
 5732 0342 0400     		.2byte	0x4
 5733 0344 F3       		.byte	0xf3
 5734 0345 01       		.uleb128 0x1
 5735 0346 52       		.byte	0x52
 5736 0347 9F       		.byte	0x9f
 5737 0348 54000000 		.4byte	.LVL40
 5738 034c 68000000 		.4byte	.LVL47
 5739 0350 0100     		.2byte	0x1
 5740 0352 52       		.byte	0x52
 5741 0353 68000000 		.4byte	.LVL47
 5742 0357 78000000 		.4byte	.LFE8
 5743 035b 0400     		.2byte	0x4
 5744 035d F3       		.byte	0xf3
 5745 035e 01       		.uleb128 0x1
 5746 035f 52       		.byte	0x52
 5747 0360 9F       		.byte	0x9f
 5748 0361 00000000 		.4byte	0
 5749 0365 00000000 		.4byte	0
 5750              	.LLST13:
 5751 0369 00000000 		.4byte	.LVL32
ARM GAS  C:\Windows\TEMP\ccyNncCN.s 			page 123


 5752 036d 3C000000 		.4byte	.LVL37
 5753 0371 0100     		.2byte	0x1
 5754 0373 53       		.byte	0x53
 5755 0374 3C000000 		.4byte	.LVL37
 5756 0378 54000000 		.4byte	.LVL40
 5757 037c 0400     		.2byte	0x4
 5758 037e F3       		.byte	0xf3
 5759 037f 01       		.uleb128 0x1
 5760 0380 53       		.byte	0x53
 5761 0381 9F       		.byte	0x9f
 5762 0382 54000000 		.4byte	.LVL40
 5763 0386 6A000000 		.4byte	.LVL48
 5764 038a 0100     		.2byte	0x1
 5765 038c 53       		.byte	0x53
 5766 038d 6A000000 		.4byte	.LVL48
 5767 0391 78000000 		.4byte	.LFE8
 5768 0395 0400     		.2byte	0x4
 5769 0397 F3       		.byte	0xf3
 5770 0398 01       		.uleb128 0x1
 5771 0399 53       		.byte	0x53
 5772 039a 9F       		.byte	0x9f
 5773 039b 00000000 		.4byte	0
 5774 039f 00000000 		.4byte	0
 5775              	.LLST14:
 5776 03a3 04000000 		.4byte	.LVL33
 5777 03a7 52000000 		.4byte	.LVL39
 5778 03ab 0200     		.2byte	0x2
 5779 03ad 31       		.byte	0x31
 5780 03ae 9F       		.byte	0x9f
 5781 03af 52000000 		.4byte	.LVL39
 5782 03b3 54000000 		.4byte	.LVL40
 5783 03b7 0200     		.2byte	0x2
 5784 03b9 30       		.byte	0x30
 5785 03ba 9F       		.byte	0x9f
 5786 03bb 54000000 		.4byte	.LVL40
 5787 03bf 6A000000 		.4byte	.LVL48
 5788 03c3 0200     		.2byte	0x2
 5789 03c5 31       		.byte	0x31
 5790 03c6 9F       		.byte	0x9f
 5791 03c7 6A000000 		.4byte	.LVL48
 5792 03cb 78000000 		.4byte	.LFE8
 5793 03cf 0100     		.2byte	0x1
 5794 03d1 50       		.byte	0x50
 5795 03d2 00000000 		.4byte	0
 5796 03d6 00000000 		.4byte	0
 5797              	.LLST15:
 5798 03da 00000000 		.4byte	.LVL49
 5799 03de 18000000 		.4byte	.LVL52
 5800 03e2 0100     		.2byte	0x1
 5801 03e4 51       		.byte	0x51
 5802 03e5 18000000 		.4byte	.LVL52
 5803 03e9 60000000 		.4byte	.LVL56
 5804 03ed 0400     		.2byte	0x4
 5805 03ef F3       		.byte	0xf3
 5806 03f0 01       		.uleb128 0x1
 5807 03f1 51       		.byte	0x51
 5808 03f2 9F       		.byte	0x9f
ARM GAS  C:\Windows\TEMP\ccyNncCN.s 			page 124


 5809 03f3 60000000 		.4byte	.LVL56
 5810 03f7 68000000 		.4byte	.LVL58
 5811 03fb 0100     		.2byte	0x1
 5812 03fd 51       		.byte	0x51
 5813 03fe 68000000 		.4byte	.LVL58
 5814 0402 90000000 		.4byte	.LFE9
 5815 0406 0400     		.2byte	0x4
 5816 0408 F3       		.byte	0xf3
 5817 0409 01       		.uleb128 0x1
 5818 040a 51       		.byte	0x51
 5819 040b 9F       		.byte	0x9f
 5820 040c 00000000 		.4byte	0
 5821 0410 00000000 		.4byte	0
 5822              	.LLST16:
 5823 0414 00000000 		.4byte	.LVL49
 5824 0418 24000000 		.4byte	.LVL53
 5825 041c 0100     		.2byte	0x1
 5826 041e 52       		.byte	0x52
 5827 041f 24000000 		.4byte	.LVL53
 5828 0423 60000000 		.4byte	.LVL56
 5829 0427 0400     		.2byte	0x4
 5830 0429 F3       		.byte	0xf3
 5831 042a 01       		.uleb128 0x1
 5832 042b 52       		.byte	0x52
 5833 042c 9F       		.byte	0x9f
 5834 042d 60000000 		.4byte	.LVL56
 5835 0431 6C000000 		.4byte	.LVL59
 5836 0435 0100     		.2byte	0x1
 5837 0437 52       		.byte	0x52
 5838 0438 6C000000 		.4byte	.LVL59
 5839 043c 90000000 		.4byte	.LFE9
 5840 0440 0400     		.2byte	0x4
 5841 0442 F3       		.byte	0xf3
 5842 0443 01       		.uleb128 0x1
 5843 0444 52       		.byte	0x52
 5844 0445 9F       		.byte	0x9f
 5845 0446 00000000 		.4byte	0
 5846 044a 00000000 		.4byte	0
 5847              	.LLST17:
 5848 044e 00000000 		.4byte	.LVL49
 5849 0452 10000000 		.4byte	.LVL51
 5850 0456 0100     		.2byte	0x1
 5851 0458 53       		.byte	0x53
 5852 0459 10000000 		.4byte	.LVL51
 5853 045d 60000000 		.4byte	.LVL56
 5854 0461 0400     		.2byte	0x4
 5855 0463 F3       		.byte	0xf3
 5856 0464 01       		.uleb128 0x1
 5857 0465 53       		.byte	0x53
 5858 0466 9F       		.byte	0x9f
 5859 0467 60000000 		.4byte	.LVL56
 5860 046b 64000000 		.4byte	.LVL57
 5861 046f 0100     		.2byte	0x1
 5862 0471 53       		.byte	0x53
 5863 0472 64000000 		.4byte	.LVL57
 5864 0476 90000000 		.4byte	.LFE9
 5865 047a 0400     		.2byte	0x4
ARM GAS  C:\Windows\TEMP\ccyNncCN.s 			page 125


 5866 047c F3       		.byte	0xf3
 5867 047d 01       		.uleb128 0x1
 5868 047e 53       		.byte	0x53
 5869 047f 9F       		.byte	0x9f
 5870 0480 00000000 		.4byte	0
 5871 0484 00000000 		.4byte	0
 5872              	.LLST18:
 5873 0488 0A000000 		.4byte	.LVL50
 5874 048c 5E000000 		.4byte	.LVL55
 5875 0490 0200     		.2byte	0x2
 5876 0492 31       		.byte	0x31
 5877 0493 9F       		.byte	0x9f
 5878 0494 5E000000 		.4byte	.LVL55
 5879 0498 60000000 		.4byte	.LVL56
 5880 049c 0100     		.2byte	0x1
 5881 049e 50       		.byte	0x50
 5882 049f 60000000 		.4byte	.LVL56
 5883 04a3 7A000000 		.4byte	.LVL60
 5884 04a7 0200     		.2byte	0x2
 5885 04a9 31       		.byte	0x31
 5886 04aa 9F       		.byte	0x9f
 5887 04ab 7A000000 		.4byte	.LVL60
 5888 04af 90000000 		.4byte	.LFE9
 5889 04b3 0100     		.2byte	0x1
 5890 04b5 50       		.byte	0x50
 5891 04b6 00000000 		.4byte	0
 5892 04ba 00000000 		.4byte	0
 5893              	.LLST19:
 5894 04be 00000000 		.4byte	.LVL61
 5895 04c2 20000000 		.4byte	.LVL64
 5896 04c6 0100     		.2byte	0x1
 5897 04c8 51       		.byte	0x51
 5898 04c9 20000000 		.4byte	.LVL64
 5899 04cd 68000000 		.4byte	.LVL68
 5900 04d1 0400     		.2byte	0x4
 5901 04d3 F3       		.byte	0xf3
 5902 04d4 01       		.uleb128 0x1
 5903 04d5 51       		.byte	0x51
 5904 04d6 9F       		.byte	0x9f
 5905 04d7 68000000 		.4byte	.LVL68
 5906 04db 76000000 		.4byte	.LVL70
 5907 04df 0100     		.2byte	0x1
 5908 04e1 51       		.byte	0x51
 5909 04e2 76000000 		.4byte	.LVL70
 5910 04e6 98000000 		.4byte	.LFE10
 5911 04ea 0400     		.2byte	0x4
 5912 04ec F3       		.byte	0xf3
 5913 04ed 01       		.uleb128 0x1
 5914 04ee 51       		.byte	0x51
 5915 04ef 9F       		.byte	0x9f
 5916 04f0 00000000 		.4byte	0
 5917 04f4 00000000 		.4byte	0
 5918              	.LLST20:
 5919 04f8 00000000 		.4byte	.LVL61
 5920 04fc 28000000 		.4byte	.LVL65
 5921 0500 0100     		.2byte	0x1
 5922 0502 52       		.byte	0x52
ARM GAS  C:\Windows\TEMP\ccyNncCN.s 			page 126


 5923 0503 28000000 		.4byte	.LVL65
 5924 0507 68000000 		.4byte	.LVL68
 5925 050b 0400     		.2byte	0x4
 5926 050d F3       		.byte	0xf3
 5927 050e 01       		.uleb128 0x1
 5928 050f 52       		.byte	0x52
 5929 0510 9F       		.byte	0x9f
 5930 0511 68000000 		.4byte	.LVL68
 5931 0515 76000000 		.4byte	.LVL70
 5932 0519 0100     		.2byte	0x1
 5933 051b 52       		.byte	0x52
 5934 051c 76000000 		.4byte	.LVL70
 5935 0520 98000000 		.4byte	.LFE10
 5936 0524 0400     		.2byte	0x4
 5937 0526 F3       		.byte	0xf3
 5938 0527 01       		.uleb128 0x1
 5939 0528 52       		.byte	0x52
 5940 0529 9F       		.byte	0x9f
 5941 052a 00000000 		.4byte	0
 5942 052e 00000000 		.4byte	0
 5943              	.LLST21:
 5944 0532 00000000 		.4byte	.LVL61
 5945 0536 10000000 		.4byte	.LVL63
 5946 053a 0100     		.2byte	0x1
 5947 053c 53       		.byte	0x53
 5948 053d 10000000 		.4byte	.LVL63
 5949 0541 68000000 		.4byte	.LVL68
 5950 0545 0400     		.2byte	0x4
 5951 0547 F3       		.byte	0xf3
 5952 0548 01       		.uleb128 0x1
 5953 0549 53       		.byte	0x53
 5954 054a 9F       		.byte	0x9f
 5955 054b 68000000 		.4byte	.LVL68
 5956 054f 6C000000 		.4byte	.LVL69
 5957 0553 0100     		.2byte	0x1
 5958 0555 53       		.byte	0x53
 5959 0556 6C000000 		.4byte	.LVL69
 5960 055a 98000000 		.4byte	.LFE10
 5961 055e 0400     		.2byte	0x4
 5962 0560 F3       		.byte	0xf3
 5963 0561 01       		.uleb128 0x1
 5964 0562 53       		.byte	0x53
 5965 0563 9F       		.byte	0x9f
 5966 0564 00000000 		.4byte	0
 5967 0568 00000000 		.4byte	0
 5968              	.LLST22:
 5969 056c 0A000000 		.4byte	.LVL62
 5970 0570 5A000000 		.4byte	.LVL67
 5971 0574 0200     		.2byte	0x2
 5972 0576 30       		.byte	0x30
 5973 0577 9F       		.byte	0x9f
 5974 0578 5A000000 		.4byte	.LVL67
 5975 057c 68000000 		.4byte	.LVL68
 5976 0580 0100     		.2byte	0x1
 5977 0582 50       		.byte	0x50
 5978 0583 68000000 		.4byte	.LVL68
 5979 0587 7E000000 		.4byte	.LVL71
ARM GAS  C:\Windows\TEMP\ccyNncCN.s 			page 127


 5980 058b 0200     		.2byte	0x2
 5981 058d 30       		.byte	0x30
 5982 058e 9F       		.byte	0x9f
 5983 058f 7E000000 		.4byte	.LVL71
 5984 0593 98000000 		.4byte	.LFE10
 5985 0597 0100     		.2byte	0x1
 5986 0599 50       		.byte	0x50
 5987 059a 00000000 		.4byte	0
 5988 059e 00000000 		.4byte	0
 5989              	.LLST23:
 5990 05a2 00000000 		.4byte	.LVL72
 5991 05a6 18000000 		.4byte	.LVL74
 5992 05aa 0100     		.2byte	0x1
 5993 05ac 50       		.byte	0x50
 5994 05ad 18000000 		.4byte	.LVL74
 5995 05b1 76000000 		.4byte	.LVL85
 5996 05b5 0100     		.2byte	0x1
 5997 05b7 55       		.byte	0x55
 5998 05b8 76000000 		.4byte	.LVL85
 5999 05bc 7A000000 		.4byte	.LVL86
 6000 05c0 0100     		.2byte	0x1
 6001 05c2 50       		.byte	0x50
 6002 05c3 7A000000 		.4byte	.LVL86
 6003 05c7 84000000 		.4byte	.LVL88
 6004 05cb 0100     		.2byte	0x1
 6005 05cd 55       		.byte	0x55
 6006 05ce 84000000 		.4byte	.LVL88
 6007 05d2 98000000 		.4byte	.LFE11
 6008 05d6 0400     		.2byte	0x4
 6009 05d8 F3       		.byte	0xf3
 6010 05d9 01       		.uleb128 0x1
 6011 05da 50       		.byte	0x50
 6012 05db 9F       		.byte	0x9f
 6013 05dc 00000000 		.4byte	0
 6014 05e0 00000000 		.4byte	0
 6015              	.LLST24:
 6016 05e4 18000000 		.4byte	.LVL74
 6017 05e8 72000000 		.4byte	.LVL83
 6018 05ec 0100     		.2byte	0x1
 6019 05ee 56       		.byte	0x56
 6020 05ef 74000000 		.4byte	.LVL84
 6021 05f3 76000000 		.4byte	.LVL85
 6022 05f7 0100     		.2byte	0x1
 6023 05f9 56       		.byte	0x56
 6024 05fa 7A000000 		.4byte	.LVL86
 6025 05fe 82000000 		.4byte	.LVL87
 6026 0602 0100     		.2byte	0x1
 6027 0604 56       		.byte	0x56
 6028 0605 00000000 		.4byte	0
 6029 0609 00000000 		.4byte	0
 6030              	.LLST25:
 6031 060d 18000000 		.4byte	.LVL74
 6032 0611 5C000000 		.4byte	.LVL79
 6033 0615 0100     		.2byte	0x1
 6034 0617 54       		.byte	0x54
 6035 0618 5E000000 		.4byte	.LVL80
 6036 061c 60000000 		.4byte	.LVL81
ARM GAS  C:\Windows\TEMP\ccyNncCN.s 			page 128


 6037 0620 0100     		.2byte	0x1
 6038 0622 54       		.byte	0x54
 6039 0623 62000000 		.4byte	.LVL82
 6040 0627 76000000 		.4byte	.LVL85
 6041 062b 0100     		.2byte	0x1
 6042 062d 54       		.byte	0x54
 6043 062e 00000000 		.4byte	0
 6044 0632 00000000 		.4byte	0
 6045              	.LLST26:
 6046 0636 06000000 		.4byte	.LVL73
 6047 063a 18000000 		.4byte	.LVL74
 6048 063e 0200     		.2byte	0x2
 6049 0640 30       		.byte	0x30
 6050 0641 9F       		.byte	0x9f
 6051 0642 18000000 		.4byte	.LVL74
 6052 0646 32000000 		.4byte	.LVL75
 6053 064a 0100     		.2byte	0x1
 6054 064c 51       		.byte	0x51
 6055 064d 58000000 		.4byte	.LVL77
 6056 0651 5A000000 		.4byte	.LVL78
 6057 0655 0200     		.2byte	0x2
 6058 0657 31       		.byte	0x31
 6059 0658 9F       		.byte	0x9f
 6060 0659 5A000000 		.4byte	.LVL78
 6061 065d 76000000 		.4byte	.LVL85
 6062 0661 0100     		.2byte	0x1
 6063 0663 51       		.byte	0x51
 6064 0664 76000000 		.4byte	.LVL85
 6065 0668 7A000000 		.4byte	.LVL86
 6066 066c 0200     		.2byte	0x2
 6067 066e 30       		.byte	0x30
 6068 066f 9F       		.byte	0x9f
 6069 0670 7A000000 		.4byte	.LVL86
 6070 0674 82000000 		.4byte	.LVL87
 6071 0678 0100     		.2byte	0x1
 6072 067a 51       		.byte	0x51
 6073 067b 00000000 		.4byte	0
 6074 067f 00000000 		.4byte	0
 6075              	.LLST27:
 6076 0683 00000000 		.4byte	.LVL89
 6077 0687 04000000 		.4byte	.LVL90
 6078 068b 0200     		.2byte	0x2
 6079 068d 30       		.byte	0x30
 6080 068e 9F       		.byte	0x9f
 6081 068f 04000000 		.4byte	.LVL90
 6082 0693 06000000 		.4byte	.LVL91
 6083 0697 0100     		.2byte	0x1
 6084 0699 53       		.byte	0x53
 6085 069a 08000000 		.4byte	.LVL92
 6086 069e 0E000000 		.4byte	.LVL93
 6087 06a2 0100     		.2byte	0x1
 6088 06a4 53       		.byte	0x53
 6089 06a5 10000000 		.4byte	.LVL94
 6090 06a9 12000000 		.4byte	.LVL95
 6091 06ad 0100     		.2byte	0x1
 6092 06af 53       		.byte	0x53
 6093 06b0 14000000 		.4byte	.LVL96
ARM GAS  C:\Windows\TEMP\ccyNncCN.s 			page 129


 6094 06b4 1C000000 		.4byte	.LFE12
 6095 06b8 0100     		.2byte	0x1
 6096 06ba 53       		.byte	0x53
 6097 06bb 00000000 		.4byte	0
 6098 06bf 00000000 		.4byte	0
 6099              	.LLST28:
 6100 06c3 00000000 		.4byte	.LVL98
 6101 06c7 22000000 		.4byte	.LVL101
 6102 06cb 0100     		.2byte	0x1
 6103 06cd 50       		.byte	0x50
 6104 06ce 22000000 		.4byte	.LVL101
 6105 06d2 18020000 		.4byte	.LVL151
 6106 06d6 0100     		.2byte	0x1
 6107 06d8 5A       		.byte	0x5a
 6108 06d9 18020000 		.4byte	.LVL151
 6109 06dd 22020000 		.4byte	.LVL152
 6110 06e1 0100     		.2byte	0x1
 6111 06e3 50       		.byte	0x50
 6112 06e4 22020000 		.4byte	.LVL152
 6113 06e8 50020000 		.4byte	.LVL159
 6114 06ec 0100     		.2byte	0x1
 6115 06ee 5A       		.byte	0x5a
 6116 06ef 50020000 		.4byte	.LVL159
 6117 06f3 78020000 		.4byte	.LFE4
 6118 06f7 0400     		.2byte	0x4
 6119 06f9 F3       		.byte	0xf3
 6120 06fa 01       		.uleb128 0x1
 6121 06fb 50       		.byte	0x50
 6122 06fc 9F       		.byte	0x9f
 6123 06fd 00000000 		.4byte	0
 6124 0701 00000000 		.4byte	0
 6125              	.LLST29:
 6126 0705 22000000 		.4byte	.LVL101
 6127 0709 18020000 		.4byte	.LVL151
 6128 070d 0100     		.2byte	0x1
 6129 070f 59       		.byte	0x59
 6130 0710 22020000 		.4byte	.LVL152
 6131 0714 32020000 		.4byte	.LVL153
 6132 0718 0100     		.2byte	0x1
 6133 071a 59       		.byte	0x59
 6134 071b 00000000 		.4byte	0
 6135 071f 00000000 		.4byte	0
 6136              	.LLST30:
 6137 0723 36000000 		.4byte	.LVL102
 6138 0727 FC010000 		.4byte	.LVL145
 6139 072b 0100     		.2byte	0x1
 6140 072d 55       		.byte	0x55
 6141 072e FE010000 		.4byte	.LVL146
 6142 0732 00020000 		.4byte	.LVL147
 6143 0736 0100     		.2byte	0x1
 6144 0738 55       		.byte	0x55
 6145 0739 02020000 		.4byte	.LVL148
 6146 073d 0E020000 		.4byte	.LVL149
 6147 0741 0100     		.2byte	0x1
 6148 0743 55       		.byte	0x55
 6149 0744 00000000 		.4byte	0
 6150 0748 00000000 		.4byte	0
ARM GAS  C:\Windows\TEMP\ccyNncCN.s 			page 130


 6151              	.LLST31:
 6152 074c 10000000 		.4byte	.LVL99
 6153 0750 22000000 		.4byte	.LVL101
 6154 0754 0200     		.2byte	0x2
 6155 0756 30       		.byte	0x30
 6156 0757 9F       		.byte	0x9f
 6157 0758 22000000 		.4byte	.LVL101
 6158 075c 52010000 		.4byte	.LVL125
 6159 0760 0100     		.2byte	0x1
 6160 0762 57       		.byte	0x57
 6161 0763 54010000 		.4byte	.LVL126
 6162 0767 56010000 		.4byte	.LVL127
 6163 076b 0100     		.2byte	0x1
 6164 076d 57       		.byte	0x57
 6165 076e 58010000 		.4byte	.LVL128
 6166 0772 5A010000 		.4byte	.LVL129
 6167 0776 0100     		.2byte	0x1
 6168 0778 57       		.byte	0x57
 6169 0779 5C010000 		.4byte	.LVL130
 6170 077d 78010000 		.4byte	.LVL133
 6171 0781 0100     		.2byte	0x1
 6172 0783 57       		.byte	0x57
 6173 0784 78010000 		.4byte	.LVL133
 6174 0788 A2010000 		.4byte	.LVL134
 6175 078c 0100     		.2byte	0x1
 6176 078e 50       		.byte	0x50
 6177 078f A2010000 		.4byte	.LVL134
 6178 0793 A8010000 		.4byte	.LVL136
 6179 0797 0100     		.2byte	0x1
 6180 0799 57       		.byte	0x57
 6181 079a A8010000 		.4byte	.LVL136
 6182 079e CA010000 		.4byte	.LVL137
 6183 07a2 0100     		.2byte	0x1
 6184 07a4 50       		.byte	0x50
 6185 07a5 CA010000 		.4byte	.LVL137
 6186 07a9 DE010000 		.4byte	.LVL140
 6187 07ad 0100     		.2byte	0x1
 6188 07af 57       		.byte	0x57
 6189 07b0 DE010000 		.4byte	.LVL140
 6190 07b4 EC010000 		.4byte	.LVL143
 6191 07b8 0100     		.2byte	0x1
 6192 07ba 50       		.byte	0x50
 6193 07bb EC010000 		.4byte	.LVL143
 6194 07bf 18020000 		.4byte	.LVL151
 6195 07c3 0100     		.2byte	0x1
 6196 07c5 57       		.byte	0x57
 6197 07c6 18020000 		.4byte	.LVL151
 6198 07ca 22020000 		.4byte	.LVL152
 6199 07ce 0200     		.2byte	0x2
 6200 07d0 30       		.byte	0x30
 6201 07d1 9F       		.byte	0x9f
 6202 07d2 22020000 		.4byte	.LVL152
 6203 07d6 50020000 		.4byte	.LVL158
 6204 07da 0100     		.2byte	0x1
 6205 07dc 57       		.byte	0x57
 6206 07dd 00000000 		.4byte	0
 6207 07e1 00000000 		.4byte	0
ARM GAS  C:\Windows\TEMP\ccyNncCN.s 			page 131


 6208              	.LLST32:
 6209 07e5 12000000 		.4byte	.LVL100
 6210 07e9 50020000 		.4byte	.LVL157
 6211 07ed 0100     		.2byte	0x1
 6212 07ef 56       		.byte	0x56
 6213 07f0 00000000 		.4byte	0
 6214 07f4 00000000 		.4byte	0
 6215              	.LLST33:
 6216 07f8 10000000 		.4byte	.LVL99
 6217 07fc 22000000 		.4byte	.LVL101
 6218 0800 0200     		.2byte	0x2
 6219 0802 30       		.byte	0x30
 6220 0803 9F       		.byte	0x9f
 6221 0804 22000000 		.4byte	.LVL101
 6222 0808 50000000 		.4byte	.LVL104
 6223 080c 0100     		.2byte	0x1
 6224 080e 54       		.byte	0x54
 6225 080f 50000000 		.4byte	.LVL104
 6226 0813 54000000 		.4byte	.LVL105
 6227 0817 0200     		.2byte	0x2
 6228 0819 31       		.byte	0x31
 6229 081a 9F       		.byte	0x9f
 6230 081b 54000000 		.4byte	.LVL105
 6231 081f 6C000000 		.4byte	.LVL108
 6232 0823 0100     		.2byte	0x1
 6233 0825 54       		.byte	0x54
 6234 0826 6C000000 		.4byte	.LVL108
 6235 082a 6E000000 		.4byte	.LVL109
 6236 082e 0200     		.2byte	0x2
 6237 0830 32       		.byte	0x32
 6238 0831 9F       		.byte	0x9f
 6239 0832 6E000000 		.4byte	.LVL109
 6240 0836 18020000 		.4byte	.LVL151
 6241 083a 0100     		.2byte	0x1
 6242 083c 54       		.byte	0x54
 6243 083d 18020000 		.4byte	.LVL151
 6244 0841 22020000 		.4byte	.LVL152
 6245 0845 0200     		.2byte	0x2
 6246 0847 30       		.byte	0x30
 6247 0848 9F       		.byte	0x9f
 6248 0849 22020000 		.4byte	.LVL152
 6249 084d 50020000 		.4byte	.LVL156
 6250 0851 0100     		.2byte	0x1
 6251 0853 54       		.byte	0x54
 6252 0854 00000000 		.4byte	0
 6253 0858 00000000 		.4byte	0
 6254              	.LLST34:
 6255 085c 44000000 		.4byte	.LVL103
 6256 0860 B7000000 		.4byte	.LVL113-1
 6257 0864 0100     		.2byte	0x1
 6258 0866 51       		.byte	0x51
 6259 0867 B7000000 		.4byte	.LVL113-1
 6260 086b DE000000 		.4byte	.LVL117
 6261 086f 1100     		.2byte	0x11
 6262 0871 75       		.byte	0x75
 6263 0872 00       		.sleb128 0
 6264 0873 34       		.byte	0x34
ARM GAS  C:\Windows\TEMP\ccyNncCN.s 			page 132


 6265 0874 24       		.byte	0x24
 6266 0875 78       		.byte	0x78
 6267 0876 00       		.sleb128 0
 6268 0877 32       		.byte	0x32
 6269 0878 24       		.byte	0x24
 6270 0879 03       		.byte	0x3
 6271 087a 04000000 		.4byte	.LANCHOR2+4
 6272 087e 22       		.byte	0x22
 6273 087f 06       		.byte	0x6
 6274 0880 22       		.byte	0x22
 6275 0881 9F       		.byte	0x9f
 6276 0882 DE000000 		.4byte	.LVL117
 6277 0886 E9000000 		.4byte	.LVL118-1
 6278 088a 0100     		.2byte	0x1
 6279 088c 51       		.byte	0x51
 6280 088d E9000000 		.4byte	.LVL118-1
 6281 0891 10010000 		.4byte	.LVL122
 6282 0895 1100     		.2byte	0x11
 6283 0897 75       		.byte	0x75
 6284 0898 00       		.sleb128 0
 6285 0899 34       		.byte	0x34
 6286 089a 24       		.byte	0x24
 6287 089b 78       		.byte	0x78
 6288 089c 00       		.sleb128 0
 6289 089d 32       		.byte	0x32
 6290 089e 24       		.byte	0x24
 6291 089f 03       		.byte	0x3
 6292 08a0 04000000 		.4byte	.LANCHOR2+4
 6293 08a4 22       		.byte	0x22
 6294 08a5 06       		.byte	0x6
 6295 08a6 22       		.byte	0x22
 6296 08a7 9F       		.byte	0x9f
 6297 08a8 10010000 		.4byte	.LVL122
 6298 08ac 16010000 		.4byte	.LVL123
 6299 08b0 0100     		.2byte	0x1
 6300 08b2 51       		.byte	0x51
 6301 08b3 16010000 		.4byte	.LVL123
 6302 08b7 38010000 		.4byte	.LVL124
 6303 08bb 1100     		.2byte	0x11
 6304 08bd 75       		.byte	0x75
 6305 08be 00       		.sleb128 0
 6306 08bf 34       		.byte	0x34
 6307 08c0 24       		.byte	0x24
 6308 08c1 78       		.byte	0x78
 6309 08c2 00       		.sleb128 0
 6310 08c3 32       		.byte	0x32
 6311 08c4 24       		.byte	0x24
 6312 08c5 03       		.byte	0x3
 6313 08c6 04000000 		.4byte	.LANCHOR2+4
 6314 08ca 22       		.byte	0x22
 6315 08cb 06       		.byte	0x6
 6316 08cc 22       		.byte	0x22
 6317 08cd 9F       		.byte	0x9f
 6318 08ce 38010000 		.4byte	.LVL124
 6319 08d2 54010000 		.4byte	.LVL126
 6320 08d6 0100     		.2byte	0x1
 6321 08d8 51       		.byte	0x51
ARM GAS  C:\Windows\TEMP\ccyNncCN.s 			page 133


 6322 08d9 54010000 		.4byte	.LVL126
 6323 08dd 58010000 		.4byte	.LVL128
 6324 08e1 1100     		.2byte	0x11
 6325 08e3 75       		.byte	0x75
 6326 08e4 00       		.sleb128 0
 6327 08e5 34       		.byte	0x34
 6328 08e6 24       		.byte	0x24
 6329 08e7 78       		.byte	0x78
 6330 08e8 00       		.sleb128 0
 6331 08e9 32       		.byte	0x32
 6332 08ea 24       		.byte	0x24
 6333 08eb 03       		.byte	0x3
 6334 08ec 04000000 		.4byte	.LANCHOR2+4
 6335 08f0 22       		.byte	0x22
 6336 08f1 06       		.byte	0x6
 6337 08f2 22       		.byte	0x22
 6338 08f3 9F       		.byte	0x9f
 6339 08f4 58010000 		.4byte	.LVL128
 6340 08f8 5E010000 		.4byte	.LVL131
 6341 08fc 0100     		.2byte	0x1
 6342 08fe 51       		.byte	0x51
 6343 08ff 5E010000 		.4byte	.LVL131
 6344 0903 FC010000 		.4byte	.LVL145
 6345 0907 1100     		.2byte	0x11
 6346 0909 75       		.byte	0x75
 6347 090a 00       		.sleb128 0
 6348 090b 34       		.byte	0x34
 6349 090c 24       		.byte	0x24
 6350 090d 78       		.byte	0x78
 6351 090e 00       		.sleb128 0
 6352 090f 32       		.byte	0x32
 6353 0910 24       		.byte	0x24
 6354 0911 03       		.byte	0x3
 6355 0912 04000000 		.4byte	.LANCHOR2+4
 6356 0916 22       		.byte	0x22
 6357 0917 06       		.byte	0x6
 6358 0918 22       		.byte	0x22
 6359 0919 9F       		.byte	0x9f
 6360 091a FC010000 		.4byte	.LVL145
 6361 091e FE010000 		.4byte	.LVL146
 6362 0922 1100     		.2byte	0x11
 6363 0924 75       		.byte	0x75
 6364 0925 7F       		.sleb128 -1
 6365 0926 34       		.byte	0x34
 6366 0927 24       		.byte	0x24
 6367 0928 78       		.byte	0x78
 6368 0929 00       		.sleb128 0
 6369 092a 32       		.byte	0x32
 6370 092b 24       		.byte	0x24
 6371 092c 03       		.byte	0x3
 6372 092d 04000000 		.4byte	.LANCHOR2+4
 6373 0931 22       		.byte	0x22
 6374 0932 06       		.byte	0x6
 6375 0933 22       		.byte	0x22
 6376 0934 9F       		.byte	0x9f
 6377 0935 00000000 		.4byte	0
 6378 0939 00000000 		.4byte	0
ARM GAS  C:\Windows\TEMP\ccyNncCN.s 			page 134


 6379              	.LLST35:
 6380 093d 10000000 		.4byte	.LVL99
 6381 0941 22000000 		.4byte	.LVL101
 6382 0945 0200     		.2byte	0x2
 6383 0947 30       		.byte	0x30
 6384 0948 9F       		.byte	0x9f
 6385 0949 22000000 		.4byte	.LVL101
 6386 094d C2000000 		.4byte	.LVL114
 6387 0951 0100     		.2byte	0x1
 6388 0953 5B       		.byte	0x5b
 6389 0954 C4000000 		.4byte	.LVL115
 6390 0958 F4000000 		.4byte	.LVL119
 6391 095c 0100     		.2byte	0x1
 6392 095e 5B       		.byte	0x5b
 6393 095f F6000000 		.4byte	.LVL120
 6394 0963 E4010000 		.4byte	.LVL141
 6395 0967 0100     		.2byte	0x1
 6396 0969 5B       		.byte	0x5b
 6397 096a E4010000 		.4byte	.LVL141
 6398 096e E6010000 		.4byte	.LVL142
 6399 0972 0100     		.2byte	0x1
 6400 0974 53       		.byte	0x53
 6401 0975 E6010000 		.4byte	.LVL142
 6402 0979 18020000 		.4byte	.LVL151
 6403 097d 0100     		.2byte	0x1
 6404 097f 5B       		.byte	0x5b
 6405 0980 18020000 		.4byte	.LVL151
 6406 0984 22020000 		.4byte	.LVL152
 6407 0988 0200     		.2byte	0x2
 6408 098a 30       		.byte	0x30
 6409 098b 9F       		.byte	0x9f
 6410 098c 22020000 		.4byte	.LVL152
 6411 0990 32020000 		.4byte	.LVL153
 6412 0994 0100     		.2byte	0x1
 6413 0996 5B       		.byte	0x5b
 6414 0997 00000000 		.4byte	0
 6415 099b 00000000 		.4byte	0
 6416              	.LLST36:
 6417 099f 5A000000 		.4byte	.LVL106
 6418 09a3 5E000000 		.4byte	.LVL107
 6419 09a7 0200     		.2byte	0x2
 6420 09a9 30       		.byte	0x30
 6421 09aa 9F       		.byte	0x9f
 6422 09ab 5E000000 		.4byte	.LVL107
 6423 09af 70000000 		.4byte	.LVL110
 6424 09b3 0100     		.2byte	0x1
 6425 09b5 53       		.byte	0x53
 6426 09b6 72000000 		.4byte	.LVL111
 6427 09ba 7A000000 		.4byte	.LVL112
 6428 09be 0100     		.2byte	0x1
 6429 09c0 53       		.byte	0x53
 6430 09c1 00000000 		.4byte	0
 6431 09c5 00000000 		.4byte	0
 6432              	.LLST37:
 6433 09c9 00000000 		.4byte	.LVL160
 6434 09cd 12000000 		.4byte	.LVL162
 6435 09d1 0100     		.2byte	0x1
ARM GAS  C:\Windows\TEMP\ccyNncCN.s 			page 135


 6436 09d3 50       		.byte	0x50
 6437 09d4 12000000 		.4byte	.LVL162
 6438 09d8 42000000 		.4byte	.LVL168
 6439 09dc 0400     		.2byte	0x4
 6440 09de F3       		.byte	0xf3
 6441 09df 01       		.uleb128 0x1
 6442 09e0 50       		.byte	0x50
 6443 09e1 9F       		.byte	0x9f
 6444 09e2 42000000 		.4byte	.LVL168
 6445 09e6 4A000000 		.4byte	.LVL169
 6446 09ea 0100     		.2byte	0x1
 6447 09ec 50       		.byte	0x50
 6448 09ed 4A000000 		.4byte	.LVL169
 6449 09f1 6C000000 		.4byte	.LFE5
 6450 09f5 0400     		.2byte	0x4
 6451 09f7 F3       		.byte	0xf3
 6452 09f8 01       		.uleb128 0x1
 6453 09f9 50       		.byte	0x50
 6454 09fa 9F       		.byte	0x9f
 6455 09fb 00000000 		.4byte	0
 6456 09ff 00000000 		.4byte	0
 6457              	.LLST38:
 6458 0a03 00000000 		.4byte	.LVL160
 6459 0a07 1E000000 		.4byte	.LVL163
 6460 0a0b 0100     		.2byte	0x1
 6461 0a0d 51       		.byte	0x51
 6462 0a0e 1E000000 		.4byte	.LVL163
 6463 0a12 42000000 		.4byte	.LVL168
 6464 0a16 0400     		.2byte	0x4
 6465 0a18 F3       		.byte	0xf3
 6466 0a19 01       		.uleb128 0x1
 6467 0a1a 51       		.byte	0x51
 6468 0a1b 9F       		.byte	0x9f
 6469 0a1c 42000000 		.4byte	.LVL168
 6470 0a20 4E000000 		.4byte	.LVL170
 6471 0a24 0100     		.2byte	0x1
 6472 0a26 51       		.byte	0x51
 6473 0a27 4E000000 		.4byte	.LVL170
 6474 0a2b 6C000000 		.4byte	.LFE5
 6475 0a2f 0400     		.2byte	0x4
 6476 0a31 F3       		.byte	0xf3
 6477 0a32 01       		.uleb128 0x1
 6478 0a33 51       		.byte	0x51
 6479 0a34 9F       		.byte	0x9f
 6480 0a35 00000000 		.4byte	0
 6481 0a39 00000000 		.4byte	0
 6482              	.LLST39:
 6483 0a3d 00000000 		.4byte	.LVL160
 6484 0a41 30000000 		.4byte	.LVL165
 6485 0a45 0100     		.2byte	0x1
 6486 0a47 52       		.byte	0x52
 6487 0a48 30000000 		.4byte	.LVL165
 6488 0a4c 42000000 		.4byte	.LVL168
 6489 0a50 0400     		.2byte	0x4
 6490 0a52 F3       		.byte	0xf3
 6491 0a53 01       		.uleb128 0x1
 6492 0a54 52       		.byte	0x52
ARM GAS  C:\Windows\TEMP\ccyNncCN.s 			page 136


 6493 0a55 9F       		.byte	0x9f
 6494 0a56 42000000 		.4byte	.LVL168
 6495 0a5a 50000000 		.4byte	.LVL171
 6496 0a5e 0100     		.2byte	0x1
 6497 0a60 52       		.byte	0x52
 6498 0a61 50000000 		.4byte	.LVL171
 6499 0a65 6C000000 		.4byte	.LFE5
 6500 0a69 0400     		.2byte	0x4
 6501 0a6b F3       		.byte	0xf3
 6502 0a6c 01       		.uleb128 0x1
 6503 0a6d 52       		.byte	0x52
 6504 0a6e 9F       		.byte	0x9f
 6505 0a6f 00000000 		.4byte	0
 6506 0a73 00000000 		.4byte	0
 6507              	.LLST40:
 6508 0a77 00000000 		.4byte	.LVL160
 6509 0a7b 2E000000 		.4byte	.LVL164
 6510 0a7f 0100     		.2byte	0x1
 6511 0a81 53       		.byte	0x53
 6512 0a82 2E000000 		.4byte	.LVL164
 6513 0a86 35000000 		.4byte	.LVL166-1
 6514 0a8a 0200     		.2byte	0x2
 6515 0a8c 70       		.byte	0x70
 6516 0a8d 00       		.sleb128 0
 6517 0a8e 35000000 		.4byte	.LVL166-1
 6518 0a92 42000000 		.4byte	.LVL168
 6519 0a96 0400     		.2byte	0x4
 6520 0a98 F3       		.byte	0xf3
 6521 0a99 01       		.uleb128 0x1
 6522 0a9a 53       		.byte	0x53
 6523 0a9b 9F       		.byte	0x9f
 6524 0a9c 42000000 		.4byte	.LVL168
 6525 0aa0 50000000 		.4byte	.LVL171
 6526 0aa4 0100     		.2byte	0x1
 6527 0aa6 53       		.byte	0x53
 6528 0aa7 50000000 		.4byte	.LVL171
 6529 0aab 6C000000 		.4byte	.LFE5
 6530 0aaf 0400     		.2byte	0x4
 6531 0ab1 F3       		.byte	0xf3
 6532 0ab2 01       		.uleb128 0x1
 6533 0ab3 53       		.byte	0x53
 6534 0ab4 9F       		.byte	0x9f
 6535 0ab5 00000000 		.4byte	0
 6536 0ab9 00000000 		.4byte	0
 6537              	.LLST41:
 6538 0abd 04000000 		.4byte	.LVL161
 6539 0ac1 40000000 		.4byte	.LVL167
 6540 0ac5 0200     		.2byte	0x2
 6541 0ac7 31       		.byte	0x31
 6542 0ac8 9F       		.byte	0x9f
 6543 0ac9 40000000 		.4byte	.LVL167
 6544 0acd 42000000 		.4byte	.LVL168
 6545 0ad1 0200     		.2byte	0x2
 6546 0ad3 30       		.byte	0x30
 6547 0ad4 9F       		.byte	0x9f
 6548 0ad5 42000000 		.4byte	.LVL168
 6549 0ad9 50000000 		.4byte	.LVL171
ARM GAS  C:\Windows\TEMP\ccyNncCN.s 			page 137


 6550 0add 0200     		.2byte	0x2
 6551 0adf 31       		.byte	0x31
 6552 0ae0 9F       		.byte	0x9f
 6553 0ae1 50000000 		.4byte	.LVL171
 6554 0ae5 62000000 		.4byte	.LVL174
 6555 0ae9 0100     		.2byte	0x1
 6556 0aeb 54       		.byte	0x54
 6557 0aec 00000000 		.4byte	0
 6558 0af0 00000000 		.4byte	0
 6559              		.section	.debug_aranges,"",%progbits
 6560 0000 6C000000 		.4byte	0x6c
 6561 0004 0200     		.2byte	0x2
 6562 0006 00000000 		.4byte	.Ldebug_info0
 6563 000a 04       		.byte	0x4
 6564 000b 00       		.byte	0
 6565 000c 0000     		.2byte	0
 6566 000e 0000     		.2byte	0
 6567 0010 00000000 		.4byte	.LFB2
 6568 0014 02000000 		.4byte	.LFE2-.LFB2
 6569 0018 00000000 		.4byte	.LFB3
 6570 001c 0C000000 		.4byte	.LFE3-.LFB3
 6571 0020 00000000 		.4byte	.LFB6
 6572 0024 74000000 		.4byte	.LFE6-.LFB6
 6573 0028 00000000 		.4byte	.LFB7
 6574 002c 90000000 		.4byte	.LFE7-.LFB7
 6575 0030 00000000 		.4byte	.LFB8
 6576 0034 78000000 		.4byte	.LFE8-.LFB8
 6577 0038 00000000 		.4byte	.LFB9
 6578 003c 90000000 		.4byte	.LFE9-.LFB9
 6579 0040 00000000 		.4byte	.LFB10
 6580 0044 98000000 		.4byte	.LFE10-.LFB10
 6581 0048 00000000 		.4byte	.LFB11
 6582 004c 98000000 		.4byte	.LFE11-.LFB11
 6583 0050 00000000 		.4byte	.LFB12
 6584 0054 1C000000 		.4byte	.LFE12-.LFB12
 6585 0058 00000000 		.4byte	.LFB4
 6586 005c 78020000 		.4byte	.LFE4-.LFB4
 6587 0060 00000000 		.4byte	.LFB5
 6588 0064 6C000000 		.4byte	.LFE5-.LFB5
 6589 0068 00000000 		.4byte	0
 6590 006c 00000000 		.4byte	0
 6591              		.section	.debug_ranges,"",%progbits
 6592              	.Ldebug_ranges0:
 6593 0000 34000000 		.4byte	.LBB4
 6594 0004 4C000000 		.4byte	.LBE4
 6595 0008 50000000 		.4byte	.LBB5
 6596 000c 52000000 		.4byte	.LBE5
 6597 0010 00000000 		.4byte	0
 6598 0014 00000000 		.4byte	0
 6599 0018 24000000 		.4byte	.LBB8
 6600 001c 3A000000 		.4byte	.LBE8
 6601 0020 3E000000 		.4byte	.LBB9
 6602 0024 40000000 		.4byte	.LBE9
 6603 0028 00000000 		.4byte	0
 6604 002c 00000000 		.4byte	0
 6605 0030 00000000 		.4byte	.LFB2
 6606 0034 02000000 		.4byte	.LFE2
ARM GAS  C:\Windows\TEMP\ccyNncCN.s 			page 138


 6607 0038 00000000 		.4byte	.LFB3
 6608 003c 0C000000 		.4byte	.LFE3
 6609 0040 00000000 		.4byte	.LFB6
 6610 0044 74000000 		.4byte	.LFE6
 6611 0048 00000000 		.4byte	.LFB7
 6612 004c 90000000 		.4byte	.LFE7
 6613 0050 00000000 		.4byte	.LFB8
 6614 0054 78000000 		.4byte	.LFE8
 6615 0058 00000000 		.4byte	.LFB9
 6616 005c 90000000 		.4byte	.LFE9
 6617 0060 00000000 		.4byte	.LFB10
 6618 0064 98000000 		.4byte	.LFE10
 6619 0068 00000000 		.4byte	.LFB11
 6620 006c 98000000 		.4byte	.LFE11
 6621 0070 00000000 		.4byte	.LFB12
 6622 0074 1C000000 		.4byte	.LFE12
 6623 0078 00000000 		.4byte	.LFB4
 6624 007c 78020000 		.4byte	.LFE4
 6625 0080 00000000 		.4byte	.LFB5
 6626 0084 6C000000 		.4byte	.LFE5
 6627 0088 00000000 		.4byte	0
 6628 008c 00000000 		.4byte	0
 6629              		.section	.debug_line,"",%progbits
 6630              	.Ldebug_line0:
 6631 0000 89030000 		.section	.debug_str,"MS",%progbits,1
 6631      02000601 
 6631      00000201 
 6631      FB0E0D00 
 6631      01010101 
 6632              	.LASF578:
 6633 0000 4379426C 		.ascii	"CyBle_AiosApplCallback\000"
 6633      655F4169 
 6633      6F734170 
 6633      706C4361 
 6633      6C6C6261 
 6634              	.LASF581:
 6635 0017 6379426C 		.ascii	"cyBle_peerBonding\000"
 6635      655F7065 
 6635      6572426F 
 6635      6E64696E 
 6635      6700
 6636              	.LASF504:
 6637 0029 4359424C 		.ascii	"CYBLE_EVT_UDSC_READ_CHAR_RESPONSE\000"
 6637      455F4556 
 6637      545F5544 
 6637      53435F52 
 6637      4541445F 
 6638              	.LASF462:
 6639 004b 4359424C 		.ascii	"CYBLE_EVT_PLXSC_NOTIFICATION\000"
 6639      455F4556 
 6639      545F504C 
 6639      5853435F 
 6639      4E4F5449 
 6640              	.LASF401:
 6641 0068 4359424C 		.ascii	"CYBLE_EVT_HTSS_NOTIFICATION_DISABLED\000"
 6641      455F4556 
 6641      545F4854 
ARM GAS  C:\Windows\TEMP\ccyNncCN.s 			page 139


 6641      53535F4E 
 6641      4F544946 
 6642              	.LASF152:
 6643 008d 4359424C 		.ascii	"CYBLE_GATT_ERR_INVALID_CRC\000"
 6643      455F4741 
 6643      54545F45 
 6643      52525F49 
 6643      4E56414C 
 6644              	.LASF584:
 6645 00a8 6379426C 		.ascii	"cyBle_aiossCharInstances\000"
 6645      655F6169 
 6645      6F737343 
 6645      68617249 
 6645      6E737461 
 6646              	.LASF459:
 6647 00c1 4359424C 		.ascii	"CYBLE_EVT_PLXSS_INDICATION_ENABLED\000"
 6647      455F4556 
 6647      545F504C 
 6647      5853535F 
 6647      494E4449 
 6648              	.LASF16:
 6649 00e4 73697A65 		.ascii	"sizetype\000"
 6649      74797065 
 6649      00
 6650              	.LASF282:
 6651 00ed 4359424C 		.ascii	"CYBLE_EVT_BCSC_READ_CHAR_RESPONSE\000"
 6651      455F4556 
 6651      545F4243 
 6651      53435F52 
 6651      4541445F 
 6652              	.LASF173:
 6653 010f 4359424C 		.ascii	"CYBLE_GATTS_HANDLE_VALUE_NTF_T\000"
 6653      455F4741 
 6653      5454535F 
 6653      48414E44 
 6653      4C455F56 
 6654              	.LASF305:
 6655 012e 4359424C 		.ascii	"CYBLE_EVT_CGMSC_INDICATION\000"
 6655      455F4556 
 6655      545F4347 
 6655      4D53435F 
 6655      494E4449 
 6656              	.LASF323:
 6657 0149 4359424C 		.ascii	"CYBLE_EVT_CPSC_READ_DESCR_RESPONSE\000"
 6657      455F4556 
 6657      545F4350 
 6657      53435F52 
 6657      4541445F 
 6658              	.LASF466:
 6659 016c 4359424C 		.ascii	"CYBLE_EVT_PLXSC_READ_DESCR_RESPONSE\000"
 6659      455F4556 
 6659      545F504C 
 6659      5853435F 
 6659      52454144 
 6660              	.LASF481:
 6661 0190 4359424C 		.ascii	"CYBLE_EVT_RTUSS_WRITE_CHAR_CMD\000"
 6661      455F4556 
ARM GAS  C:\Windows\TEMP\ccyNncCN.s 			page 140


 6661      545F5254 
 6661      5553535F 
 6661      57524954 
 6662              	.LASF217:
 6663 01af 63686172 		.ascii	"charIndex\000"
 6663      496E6465 
 6663      7800
 6664              	.LASF515:
 6665 01b9 4359424C 		.ascii	"CYBLE_EVT_WPTSC_NOTIFICATION\000"
 6665      455F4556 
 6665      545F5750 
 6665      5453435F 
 6665      4E4F5449 
 6666              	.LASF371:
 6667 01d6 4359424C 		.ascii	"CYBLE_EVT_GLSC_WRITE_DESCR_RESPONSE\000"
 6667      455F4556 
 6667      545F474C 
 6667      53435F57 
 6667      52495445 
 6668              	.LASF37:
 6669 01fa 4359424C 		.ascii	"CYBLE_EVT_GAP_NUMERIC_COMPARISON_REQUEST\000"
 6669      455F4556 
 6669      545F4741 
 6669      505F4E55 
 6669      4D455249 
 6670              	.LASF249:
 6671 0223 4359424C 		.ascii	"CYBLE_EVT_AIOSC_NOTIFICATION\000"
 6671      455F4556 
 6671      545F4149 
 6671      4F53435F 
 6671      4E4F5449 
 6672              	.LASF521:
 6673 0240 4359424C 		.ascii	"CYBLE_EVT_WSSS_INDICATION_ENABLED\000"
 6673      455F4556 
 6673      545F5753 
 6673      53535F49 
 6673      4E444943 
 6674              	.LASF321:
 6675 0262 4359424C 		.ascii	"CYBLE_EVT_CPSC_READ_CHAR_RESPONSE\000"
 6675      455F4556 
 6675      545F4350 
 6675      53435F52 
 6675      4541445F 
 6676              	.LASF334:
 6677 0284 4359424C 		.ascii	"CYBLE_EVT_CSCSC_READ_CHAR_RESPONSE\000"
 6677      455F4556 
 6677      545F4353 
 6677      4353435F 
 6677      52454144 
 6678              	.LASF310:
 6679 02a7 4359424C 		.ascii	"CYBLE_EVT_CGMSC_WRITE_DESCR_RESPONSE\000"
 6679      455F4556 
 6679      545F4347 
 6679      4D53435F 
 6679      57524954 
 6680              	.LASF364:
 6681 02cc 4359424C 		.ascii	"CYBLE_EVT_GLSS_NOTIFICATION_DISABLED\000"
ARM GAS  C:\Windows\TEMP\ccyNncCN.s 			page 141


 6681      455F4556 
 6681      545F474C 
 6681      53535F4E 
 6681      4F544946 
 6682              	.LASF549:
 6683 02f1 6576656E 		.ascii	"eventParam\000"
 6683      74506172 
 6683      616D00
 6684              	.LASF292:
 6685 02fc 4359424C 		.ascii	"CYBLE_EVT_BLSC_READ_CHAR_RESPONSE\000"
 6685      455F4556 
 6685      545F424C 
 6685      53435F52 
 6685      4541445F 
 6686              	.LASF31:
 6687 031e 4359424C 		.ascii	"CYBLE_EVT_GAP_DEVICE_CONNECTED\000"
 6687      455F4556 
 6687      545F4741 
 6687      505F4445 
 6687      56494345 
 6688              	.LASF423:
 6689 033d 4359424C 		.ascii	"CYBLE_EVT_LLSC_WRITE_CHAR_RESPONSE\000"
 6689      455F4556 
 6689      545F4C4C 
 6689      53435F57 
 6689      52495445 
 6690              	.LASF49:
 6691 0360 4359424C 		.ascii	"CYBLE_EVT_GATT_CONNECT_IND\000"
 6691      455F4556 
 6691      545F4741 
 6691      54545F43 
 6691      4F4E4E45 
 6692              	.LASF369:
 6693 037b 4359424C 		.ascii	"CYBLE_EVT_GLSC_WRITE_CHAR_RESPONSE\000"
 6693      455F4556 
 6693      545F474C 
 6693      53435F57 
 6693      52495445 
 6694              	.LASF195:
 6695 039e 4359424C 		.ascii	"CYBLE_AIOS_ANALOG\000"
 6695      455F4149 
 6695      4F535F41 
 6695      4E414C4F 
 6695      4700
 6696              	.LASF11:
 6697 03b0 75696E74 		.ascii	"uint32\000"
 6697      333200
 6698              	.LASF443:
 6699 03b7 4359424C 		.ascii	"CYBLE_EVT_OTSC_READ_CHAR_RESPONSE\000"
 6699      455F4556 
 6699      545F4F54 
 6699      53435F52 
 6699      4541445F 
 6700              	.LASF233:
 6701 03d9 4359424C 		.ascii	"CYBLE_EVT_GATTC_DESCR_DISCOVERY_FAILED\000"
 6701      455F4556 
 6701      545F4741 
ARM GAS  C:\Windows\TEMP\ccyNncCN.s 			page 142


 6701      5454435F 
 6701      44455343 
 6702              	.LASF480:
 6703 0400 4359424C 		.ascii	"CYBLE_EVT_RSCSC_WRITE_DESCR_RESPONSE\000"
 6703      455F4556 
 6703      545F5253 
 6703      4353435F 
 6703      57524954 
 6704              	.LASF280:
 6705 0425 4359424C 		.ascii	"CYBLE_EVT_BCSS_INDICATION_CONFIRMED\000"
 6705      455F4556 
 6705      545F4243 
 6705      53535F49 
 6705      4E444943 
 6706              	.LASF281:
 6707 0449 4359424C 		.ascii	"CYBLE_EVT_BCSC_INDICATION\000"
 6707      455F4556 
 6707      545F4243 
 6707      53435F49 
 6707      4E444943 
 6708              	.LASF425:
 6709 0463 4359424C 		.ascii	"CYBLE_EVT_LNSS_INDICATION_DISABLED\000"
 6709      455F4556 
 6709      545F4C4E 
 6709      53535F49 
 6709      4E444943 
 6710              	.LASF342:
 6711 0486 4359424C 		.ascii	"CYBLE_EVT_CTSC_READ_CHAR_RESPONSE\000"
 6711      455F4556 
 6711      545F4354 
 6711      53435F52 
 6711      4541445F 
 6712              	.LASF237:
 6713 04a8 4359424C 		.ascii	"CYBLE_EVT_GATTC_SRVC_DISCOVERY_COMPLETE\000"
 6713      455F4556 
 6713      545F4741 
 6713      5454435F 
 6713      53525643 
 6714              	.LASF474:
 6715 04d0 4359424C 		.ascii	"CYBLE_EVT_RSCSS_CHAR_WRITE\000"
 6715      455F4556 
 6715      545F5253 
 6715      4353535F 
 6715      43484152 
 6716              	.LASF463:
 6717 04eb 4359424C 		.ascii	"CYBLE_EVT_PLXSC_INDICATION\000"
 6717      455F4556 
 6717      545F504C 
 6717      5853435F 
 6717      494E4449 
 6718              	.LASF507:
 6719 0506 4359424C 		.ascii	"CYBLE_EVT_UDSC_WRITE_DESCR_RESPONSE\000"
 6719      455F4556 
 6719      545F5544 
 6719      53435F57 
 6719      52495445 
 6720              	.LASF383:
ARM GAS  C:\Windows\TEMP\ccyNncCN.s 			page 143


 6721 052a 4359424C 		.ascii	"CYBLE_EVT_HIDSC_WRITE_DESCR_RESPONSE\000"
 6721      455F4556 
 6721      545F4849 
 6721      4453435F 
 6721      57524954 
 6722              	.LASF489:
 6723 054f 4359424C 		.ascii	"CYBLE_EVT_TPSS_NOTIFICATION_ENABLED\000"
 6723      455F4556 
 6723      545F5450 
 6723      53535F4E 
 6723      4F544946 
 6724              	.LASF270:
 6725 0573 4359424C 		.ascii	"CYBLE_EVT_ANSC_READ_DESCR_RESPONSE\000"
 6725      455F4556 
 6725      545F414E 
 6725      53435F52 
 6725      4541445F 
 6726              	.LASF126:
 6727 0596 4359424C 		.ascii	"CYBLE_GATT_ERR_READ_NOT_PERMITTED\000"
 6727      455F4741 
 6727      54545F45 
 6727      52525F52 
 6727      4541445F 
 6728              	.LASF141:
 6729 05b8 4359424C 		.ascii	"CYBLE_GATT_ERR_INSUFFICIENT_RESOURCE\000"
 6729      455F4741 
 6729      54545F45 
 6729      52525F49 
 6729      4E535546 
 6730              	.LASF140:
 6731 05dd 4359424C 		.ascii	"CYBLE_GATT_ERR_UNSUPPORTED_GROUP_TYPE\000"
 6731      455F4741 
 6731      54545F45 
 6731      52525F55 
 6731      4E535550 
 6732              	.LASF105:
 6733 0603 4359424C 		.ascii	"CYBLE_ERROR_L2CAP_CONNECTION_ENTITY_NOT_FOUND\000"
 6733      455F4552 
 6733      524F525F 
 6733      4C324341 
 6733      505F434F 
 6734              	.LASF111:
 6735 0631 4359424C 		.ascii	"CYBLE_ERROR_MIC_AUTH_FAILED\000"
 6735      455F4552 
 6735      524F525F 
 6735      4D49435F 
 6735      41555448 
 6736              	.LASF232:
 6737 064d 4359424C 		.ascii	"CYBLE_EVT_GATTC_CHAR_DISCOVERY_FAILED\000"
 6737      455F4556 
 6737      545F4741 
 6737      5454435F 
 6737      43484152 
 6738              	.LASF69:
 6739 0673 4359424C 		.ascii	"CYBLE_EVT_GATTS_DATA_SIGNED_CMD_REQ\000"
 6739      455F4556 
 6739      545F4741 
ARM GAS  C:\Windows\TEMP\ccyNncCN.s 			page 144


 6739      5454535F 
 6739      44415441 
 6740              	.LASF81:
 6741 0697 4359424C 		.ascii	"CYBLE_EVT_L2CAP_CBFC_RX_CREDIT_IND\000"
 6741      455F4556 
 6741      545F4C32 
 6741      4341505F 
 6741      43424643 
 6742              	.LASF169:
 6743 06ba 4359424C 		.ascii	"CYBLE_GATT_VALUE_T\000"
 6743      455F4741 
 6743      54545F56 
 6743      414C5545 
 6743      5F5400
 6744              	.LASF592:
 6745 06cd 474E5520 		.ascii	"GNU C11 5.4.1 20160609 (release) [ARM/embedded-5-br"
 6745      43313120 
 6745      352E342E 
 6745      31203230 
 6745      31363036 
 6746 0700 616E6368 		.ascii	"anch revision 237715] -mcpu=cortex-m0 -mthumb -g -O"
 6746      20726576 
 6746      6973696F 
 6746      6E203233 
 6746      37373135 
 6747 0733 67202D66 		.ascii	"g -ffunction-sections -ffat-lto-objects\000"
 6747      66756E63 
 6747      74696F6E 
 6747      2D736563 
 6747      74696F6E 
 6748              	.LASF328:
 6749 075b 4359424C 		.ascii	"CYBLE_EVT_CSCSS_INDICATION_ENABLED\000"
 6749      455F4556 
 6749      545F4353 
 6749      4353535F 
 6749      494E4449 
 6750              	.LASF189:
 6751 077e 7065726D 		.ascii	"permission\000"
 6751      69737369 
 6751      6F6E00
 6752              	.LASF430:
 6753 0789 4359424C 		.ascii	"CYBLE_EVT_LNSC_INDICATION\000"
 6753      455F4556 
 6753      545F4C4E 
 6753      53435F49 
 6753      4E444943 
 6754              	.LASF142:
 6755 07a3 4359424C 		.ascii	"CYBLE_GATT_ERR_TRIGGER_CODITION_VALUE_NOT_SUPPORTED"
 6755      455F4741 
 6755      54545F45 
 6755      52525F54 
 6755      52494747 
 6756 07d6 00       		.ascii	"\000"
 6757              	.LASF453:
 6758 07d7 4359424C 		.ascii	"CYBLE_EVT_PASSC_READ_CHAR_RESPONSE\000"
 6758      455F4556 
 6758      545F5041 
ARM GAS  C:\Windows\TEMP\ccyNncCN.s 			page 145


 6758      5353435F 
 6758      52454144 
 6759              	.LASF285:
 6760 07fa 4359424C 		.ascii	"CYBLE_EVT_BLSS_INDICATION_ENABLED\000"
 6760      455F4556 
 6760      545F424C 
 6760      53535F49 
 6760      4E444943 
 6761              	.LASF291:
 6762 081c 4359424C 		.ascii	"CYBLE_EVT_BLSC_NOTIFICATION\000"
 6762      455F4556 
 6762      545F424C 
 6762      53435F4E 
 6762      4F544946 
 6763              	.LASF193:
 6764 0838 4359424C 		.ascii	"CYBLE_CALLBACK_T\000"
 6764      455F4341 
 6764      4C4C4241 
 6764      434B5F54 
 6764      00
 6765              	.LASF333:
 6766 0849 4359424C 		.ascii	"CYBLE_EVT_CSCSC_INDICATION\000"
 6766      455F4556 
 6766      545F4353 
 6766      4353435F 
 6766      494E4449 
 6767              	.LASF66:
 6768 0864 4359424C 		.ascii	"CYBLE_EVT_GATTC_HANDLE_VALUE_NTF\000"
 6768      455F4556 
 6768      545F4741 
 6768      5454435F 
 6768      48414E44 
 6769              	.LASF25:
 6770 0885 4359424C 		.ascii	"CYBLE_EVT_GAP_AUTH_REQ\000"
 6770      455F4556 
 6770      545F4741 
 6770      505F4155 
 6770      54485F52 
 6771              	.LASF239:
 6772 089c 4359424C 		.ascii	"CYBLE_EVT_GATTC_CHAR_DISCOVERY_COMPLETE\000"
 6772      455F4556 
 6772      545F4741 
 6772      5454435F 
 6772      43484152 
 6773              	.LASF167:
 6774 08c4 4359424C 		.ascii	"CYBLE_CONN_HANDLE_T\000"
 6774      455F434F 
 6774      4E4E5F48 
 6774      414E444C 
 6774      455F5400 
 6775              	.LASF397:
 6776 08d8 4359424C 		.ascii	"CYBLE_EVT_HRSC_WRITE_CHAR_RESPONSE\000"
 6776      455F4556 
 6776      545F4852 
 6776      53435F57 
 6776      52495445 
 6777              	.LASF100:
ARM GAS  C:\Windows\TEMP\ccyNncCN.s 			page 146


 6778 08fb 4359424C 		.ascii	"CYBLE_ERROR_BT_ON_NOT_COMPLETED\000"
 6778      455F4552 
 6778      524F525F 
 6778      42545F4F 
 6778      4E5F4E4F 
 6779              	.LASF332:
 6780 091b 4359424C 		.ascii	"CYBLE_EVT_CSCSC_NOTIFICATION\000"
 6780      455F4556 
 6780      545F4353 
 6780      4353435F 
 6780      4E4F5449 
 6781              	.LASF502:
 6782 0938 4359424C 		.ascii	"CYBLE_EVT_UDSC_INDICATION\000"
 6782      455F4556 
 6782      545F5544 
 6782      53435F49 
 6782      4E444943 
 6783              	.LASF413:
 6784 0952 4359424C 		.ascii	"CYBLE_EVT_IPSS_WRITE_CHAR\000"
 6784      455F4556 
 6784      545F4950 
 6784      53535F57 
 6784      52495445 
 6785              	.LASF46:
 6786 096c 4359424C 		.ascii	"CYBLE_EVT_GAP_AUTH_REQ_REPLY_ERR\000"
 6786      455F4556 
 6786      545F4741 
 6786      505F4155 
 6786      54485F52 
 6787              	.LASF296:
 6788 098d 4359424C 		.ascii	"CYBLE_EVT_BMSC_READ_CHAR_RESPONSE\000"
 6788      455F4556 
 6788      545F424D 
 6788      53435F52 
 6788      4541445F 
 6789              	.LASF196:
 6790 09af 4359424C 		.ascii	"CYBLE_AIOS_AGGREGATE\000"
 6790      455F4149 
 6790      4F535F41 
 6790      47475245 
 6790      47415445 
 6791              	.LASF532:
 6792 09c4 4359424C 		.ascii	"CYBLE_STATE_ADVERTISING\000"
 6792      455F5354 
 6792      4154455F 
 6792      41445645 
 6792      52544953 
 6793              	.LASF39:
 6794 09dc 4359424C 		.ascii	"CYBLE_EVT_GAP_OOB_GENERATED_NOTIFICATION\000"
 6794      455F4556 
 6794      545F4741 
 6794      505F4F4F 
 6794      425F4745 
 6795              	.LASF210:
 6796 0a05 64657363 		.ascii	"descrHandle\000"
 6796      7248616E 
 6796      646C6500 
ARM GAS  C:\Windows\TEMP\ccyNncCN.s 			page 147


 6797              	.LASF165:
 6798 0a11 62644861 		.ascii	"bdHandle\000"
 6798      6E646C65 
 6798      00
 6799              	.LASF213:
 6800 0a1a 4359424C 		.ascii	"CYBLE_AIOSS_CHAR_INFO_PTR_T\000"
 6800      455F4149 
 6800      4F53535F 
 6800      43484152 
 6800      5F494E46 
 6801              	.LASF154:
 6802 0a36 4359424C 		.ascii	"CYBLE_GATTS_ERR_NETWORK_NOT_AVAILABLE\000"
 6802      455F4741 
 6802      5454535F 
 6802      4552525F 
 6802      4E455457 
 6803              	.LASF301:
 6804 0a5c 4359424C 		.ascii	"CYBLE_EVT_CGMSS_INDICATION_CONFIRMED\000"
 6804      455F4556 
 6804      545F4347 
 6804      4D53535F 
 6804      494E4449 
 6805              	.LASF445:
 6806 0a81 4359424C 		.ascii	"CYBLE_EVT_OTSC_WRITE_CHAR_RESPONSE\000"
 6806      455F4556 
 6806      545F4F54 
 6806      53435F57 
 6806      52495445 
 6807              	.LASF157:
 6808 0aa4 4359424C 		.ascii	"CYBLE_GATT_ERR_ANCS_INVALID_COMMAND\000"
 6808      455F4741 
 6808      54545F45 
 6808      52525F41 
 6808      4E43535F 
 6809              	.LASF293:
 6810 0ac8 4359424C 		.ascii	"CYBLE_EVT_BLSC_READ_DESCR_RESPONSE\000"
 6810      455F4556 
 6810      545F424C 
 6810      53435F52 
 6810      4541445F 
 6811              	.LASF446:
 6812 0aeb 4359424C 		.ascii	"CYBLE_EVT_OTSC_READ_DESCR_RESPONSE\000"
 6812      455F4556 
 6812      545F4F54 
 6812      53435F52 
 6812      4541445F 
 6813              	.LASF314:
 6814 0b0e 4359424C 		.ascii	"CYBLE_EVT_CPSS_INDICATION_DISABLED\000"
 6814      455F4556 
 6814      545F4350 
 6814      53535F49 
 6814      4E444943 
 6815              	.LASF313:
 6816 0b31 4359424C 		.ascii	"CYBLE_EVT_CPSS_INDICATION_ENABLED\000"
 6816      455F4556 
 6816      545F4350 
 6816      53535F49 
ARM GAS  C:\Windows\TEMP\ccyNncCN.s 			page 148


 6816      4E444943 
 6817              	.LASF427:
 6818 0b53 4359424C 		.ascii	"CYBLE_EVT_LNSS_NOTIFICATION_ENABLED\000"
 6818      455F4556 
 6818      545F4C4E 
 6818      53535F4E 
 6818      4F544946 
 6819              	.LASF62:
 6820 0b77 4359424C 		.ascii	"CYBLE_EVT_GATTS_WRITE_CMD_REQ\000"
 6820      455F4556 
 6820      545F4741 
 6820      5454535F 
 6820      57524954 
 6821              	.LASF324:
 6822 0b95 4359424C 		.ascii	"CYBLE_EVT_CPSC_WRITE_DESCR_RESPONSE\000"
 6822      455F4556 
 6822      545F4350 
 6822      53435F57 
 6822      52495445 
 6823              	.LASF565:
 6824 0bb9 61676772 		.ascii	"aggregateDigitalBits\000"
 6824      65676174 
 6824      65446967 
 6824      6974616C 
 6824      42697473 
 6825              	.LASF82:
 6826 0bce 4359424C 		.ascii	"CYBLE_EVT_L2CAP_CBFC_TX_CREDIT_IND\000"
 6826      455F4556 
 6826      545F4C32 
 6826      4341505F 
 6826      43424643 
 6827              	.LASF4:
 6828 0bf1 6C6F6E67 		.ascii	"long int\000"
 6828      20696E74 
 6828      00
 6829              	.LASF428:
 6830 0bfa 4359424C 		.ascii	"CYBLE_EVT_LNSS_NOTIFICATION_DISABLED\000"
 6830      455F4556 
 6830      545F4C4E 
 6830      53535F4E 
 6830      4F544946 
 6831              	.LASF329:
 6832 0c1f 4359424C 		.ascii	"CYBLE_EVT_CSCSS_INDICATION_DISABLED\000"
 6832      455F4556 
 6832      545F4353 
 6832      4353535F 
 6832      494E4449 
 6833              	.LASF497:
 6834 0c43 4359424C 		.ascii	"CYBLE_EVT_UDSS_INDICATION_CONFIRMED\000"
 6834      455F4556 
 6834      545F5544 
 6834      53535F49 
 6834      4E444943 
 6835              	.LASF225:
 6836 0c67 4359424C 		.ascii	"CYBLE_LONG_TERM_KEY_REQUEST_REPLY\000"
 6836      455F4C4F 
 6836      4E475F54 
ARM GAS  C:\Windows\TEMP\ccyNncCN.s 			page 149


 6836      45524D5F 
 6836      4B45595F 
 6837              	.LASF543:
 6838 0c89 4379426C 		.ascii	"CyBle_AiossSendNotification\000"
 6838      655F4169 
 6838      6F737353 
 6838      656E644E 
 6838      6F746966 
 6839              	.LASF211:
 6840 0ca5 4359424C 		.ascii	"CYBLE_AIOSS_CHAR_T\000"
 6840      455F4149 
 6840      4F53535F 
 6840      43484152 
 6840      5F5400
 6841              	.LASF18:
 6842 0cb8 4359424C 		.ascii	"CYBLE_EVT_STACK_ON\000"
 6842      455F4556 
 6842      545F5354 
 6842      41434B5F 
 6842      4F4E00
 6843              	.LASF107:
 6844 0ccb 4359424C 		.ascii	"CYBLE_ERROR_L2CAP_PSM_NOT_IN_RANGE\000"
 6844      455F4552 
 6844      524F525F 
 6844      4C324341 
 6844      505F5053 
 6845              	.LASF279:
 6846 0cee 4359424C 		.ascii	"CYBLE_EVT_BCSS_INDICATION_DISABLED\000"
 6846      455F4556 
 6846      545F4243 
 6846      53535F49 
 6846      4E444943 
 6847              	.LASF535:
 6848 0d11 63616C6C 		.ascii	"callbackFunc\000"
 6848      6261636B 
 6848      46756E63 
 6848      00
 6849              	.LASF359:
 6850 0d1e 4359424C 		.ascii	"CYBLE_EVT_ESSC_WRITE_DESCR_RESPONSE\000"
 6850      455F4556 
 6850      545F4553 
 6850      53435F57 
 6850      52495445 
 6851              	.LASF153:
 6852 0d42 4359424C 		.ascii	"CYBLE_GATTS_ERR_HPS_INVALID_REQUEST\000"
 6852      455F4741 
 6852      5454535F 
 6852      4552525F 
 6852      4850535F 
 6853              	.LASF416:
 6854 0d66 4359424C 		.ascii	"CYBLE_EVT_IPSC_WRITE_CHAR_RESPONSE\000"
 6854      455F4556 
 6854      545F4950 
 6854      53435F57 
 6854      52495445 
 6855              	.LASF214:
 6856 0d89 73657276 		.ascii	"serviceHandle\000"
ARM GAS  C:\Windows\TEMP\ccyNncCN.s 			page 150


 6856      69636548 
 6856      616E646C 
 6856      6500
 6857              	.LASF400:
 6858 0d97 4359424C 		.ascii	"CYBLE_EVT_HTSS_NOTIFICATION_ENABLED\000"
 6858      455F4556 
 6858      545F4854 
 6858      53535F4E 
 6858      4F544946 
 6859              	.LASF128:
 6860 0dbb 4359424C 		.ascii	"CYBLE_GATT_ERR_INVALID_PDU\000"
 6860      455F4741 
 6860      54545F45 
 6860      52525F49 
 6860      4E56414C 
 6861              	.LASF120:
 6862 0dd6 4359424C 		.ascii	"CYBLE_ERROR_CHAR_IS_NOT_DISCOVERED\000"
 6862      455F4552 
 6862      524F525F 
 6862      43484152 
 6862      5F49535F 
 6863              	.LASF569:
 6864 0df9 666F756E 		.ascii	"foundItem\000"
 6864      64497465 
 6864      6D00
 6865              	.LASF500:
 6866 0e03 4359424C 		.ascii	"CYBLE_EVT_UDSS_READ_CHAR\000"
 6866      455F4556 
 6866      545F5544 
 6866      53535F52 
 6866      4541445F 
 6867              	.LASF245:
 6868 0e1c 4359424C 		.ascii	"CYBLE_EVT_AIOSS_INDICATION_DISABLED\000"
 6868      455F4556 
 6868      545F4149 
 6868      4F53535F 
 6868      494E4449 
 6869              	.LASF172:
 6870 0e40 4359424C 		.ascii	"CYBLE_GATT_HANDLE_VALUE_PAIR_T\000"
 6870      455F4741 
 6870      54545F48 
 6870      414E444C 
 6870      455F5641 
 6871              	.LASF188:
 6872 0e5f 61747454 		.ascii	"attType\000"
 6872      79706500 
 6873              	.LASF356:
 6874 0e67 4359424C 		.ascii	"CYBLE_EVT_ESSC_READ_CHAR_RESPONSE\000"
 6874      455F4556 
 6874      545F4553 
 6874      53435F52 
 6874      4541445F 
 6875              	.LASF379:
 6876 0e89 4359424C 		.ascii	"CYBLE_EVT_HIDSC_NOTIFICATION\000"
 6876      455F4556 
 6876      545F4849 
 6876      4453435F 
ARM GAS  C:\Windows\TEMP\ccyNncCN.s 			page 151


 6876      4E4F5449 
 6877              	.LASF75:
 6878 0ea6 4359424C 		.ascii	"CYBLE_EVT_L2CAP_COMMAND_REJ\000"
 6878      455F4556 
 6878      545F4C32 
 6878      4341505F 
 6878      434F4D4D 
 6879              	.LASF242:
 6880 0ec2 4359424C 		.ascii	"CYBLE_EVT_AIOSS_NOTIFICATION_ENABLED\000"
 6880      455F4556 
 6880      545F4149 
 6880      4F53535F 
 6880      4E4F5449 
 6881              	.LASF137:
 6882 0ee7 4359424C 		.ascii	"CYBLE_GATT_ERR_INVALID_ATTRIBUTE_LEN\000"
 6882      455F4741 
 6882      54545F45 
 6882      52525F49 
 6882      4E56414C 
 6883              	.LASF376:
 6884 0f0c 4359424C 		.ascii	"CYBLE_EVT_HIDSS_SUSPEND\000"
 6884      455F4556 
 6884      545F4849 
 6884      4453535F 
 6884      53555350 
 6885              	.LASF108:
 6886 0f24 4359424C 		.ascii	"CYBLE_ERROR_GATT_DB_INVALID_ATTR_HANDLE\000"
 6886      455F4552 
 6886      524F525F 
 6886      47415454 
 6886      5F44425F 
 6887              	.LASF0:
 6888 0f4c 7369676E 		.ascii	"signed char\000"
 6888      65642063 
 6888      68617200 
 6889              	.LASF283:
 6890 0f58 4359424C 		.ascii	"CYBLE_EVT_BCSC_READ_DESCR_RESPONSE\000"
 6890      455F4556 
 6890      545F4243 
 6890      53435F52 
 6890      4541445F 
 6891              	.LASF527:
 6892 0f7b 4359424C 		.ascii	"CYBLE_EVT_WSSC_WRITE_DESCR_RESPONSE\000"
 6892      455F4556 
 6892      545F5753 
 6892      53435F57 
 6892      52495445 
 6893              	.LASF276:
 6894 0f9f 4359424C 		.ascii	"CYBLE_EVT_BASC_READ_DESCR_RESPONSE\000"
 6894      455F4556 
 6894      545F4241 
 6894      53435F52 
 6894      4541445F 
 6895              	.LASF20:
 6896 0fc2 4359424C 		.ascii	"CYBLE_EVT_HARDWARE_ERROR\000"
 6896      455F4556 
 6896      545F4841 
ARM GAS  C:\Windows\TEMP\ccyNncCN.s 			page 152


 6896      52445741 
 6896      52455F45 
 6897              	.LASF89:
 6898 0fdb 4359424C 		.ascii	"CYBLE_ERROR_OK\000"
 6898      455F4552 
 6898      524F525F 
 6898      4F4B00
 6899              	.LASF551:
 6900 0fea 6C6F6343 		.ascii	"locCharValue\000"
 6900      68617256 
 6900      616C7565 
 6900      00
 6901              	.LASF53:
 6902 0ff7 4359424C 		.ascii	"CYBLE_EVT_GATTC_READ_BY_GROUP_TYPE_RSP\000"
 6902      455F4556 
 6902      545F4741 
 6902      5454435F 
 6902      52454144 
 6903              	.LASF529:
 6904 101e 4359424C 		.ascii	"CYBLE_STATE_STOPPED\000"
 6904      455F5354 
 6904      4154455F 
 6904      53544F50 
 6904      50454400 
 6905              	.LASF471:
 6906 1032 4359424C 		.ascii	"CYBLE_EVT_RSCSS_INDICATION_ENABLED\000"
 6906      455F4556 
 6906      545F5253 
 6906      4353535F 
 6906      494E4449 
 6907              	.LASF1:
 6908 1055 756E7369 		.ascii	"unsigned char\000"
 6908      676E6564 
 6908      20636861 
 6908      7200
 6909              	.LASF52:
 6910 1063 4359424C 		.ascii	"CYBLE_EVT_GATTC_XCHNG_MTU_RSP\000"
 6910      455F4556 
 6910      545F4741 
 6910      5454435F 
 6910      5843484E 
 6911              	.LASF315:
 6912 1081 4359424C 		.ascii	"CYBLE_EVT_CPSS_INDICATION_CONFIRMED\000"
 6912      455F4556 
 6912      545F4350 
 6912      53535F49 
 6912      4E444943 
 6913              	.LASF312:
 6914 10a5 4359424C 		.ascii	"CYBLE_EVT_CPSS_NOTIFICATION_DISABLED\000"
 6914      455F4556 
 6914      545F4350 
 6914      53535F4E 
 6914      4F544946 
 6915              	.LASF476:
 6916 10ca 4359424C 		.ascii	"CYBLE_EVT_RSCSC_INDICATION\000"
 6916      455F4556 
 6916      545F5253 
ARM GAS  C:\Windows\TEMP\ccyNncCN.s 			page 153


 6916      4353435F 
 6916      494E4449 
 6917              	.LASF526:
 6918 10e5 4359424C 		.ascii	"CYBLE_EVT_WSSC_READ_DESCR_RESPONSE\000"
 6918      455F4556 
 6918      545F5753 
 6918      53435F52 
 6918      4541445F 
 6919              	.LASF512:
 6920 1108 4359424C 		.ascii	"CYBLE_EVT_WPTSS_INDICATION_DISABLED\000"
 6920      455F4556 
 6920      545F5750 
 6920      5453535F 
 6920      494E4449 
 6921              	.LASF43:
 6922 112c 4359424C 		.ascii	"CYBLE_EVT_GAP_SMP_NEGOTIATED_AUTH_INFO\000"
 6922      455F4556 
 6922      545F4741 
 6922      505F534D 
 6922      505F4E45 
 6923              	.LASF44:
 6924 1153 4359424C 		.ascii	"CYBLE_EVT_GAP_CONN_ESTB\000"
 6924      455F4556 
 6924      545F4741 
 6924      505F434F 
 6924      4E4E5F45 
 6925              	.LASF187:
 6926 116b 61747448 		.ascii	"attHandle\000"
 6926      616E646C 
 6926      6500
 6927              	.LASF229:
 6928 1175 4359424C 		.ascii	"CYBLE_EVT_GATTC_INDICATION\000"
 6928      455F4556 
 6928      545F4741 
 6928      5454435F 
 6928      494E4449 
 6929              	.LASF384:
 6930 1190 4359424C 		.ascii	"CYBLE_EVT_HPSS_NOTIFICATION_ENABLED\000"
 6930      455F4556 
 6930      545F4850 
 6930      53535F4E 
 6930      4F544946 
 6931              	.LASF587:
 6932 11b4 4379426C 		.ascii	"CyBle_GattsWriteAttributeValue\000"
 6932      655F4761 
 6932      74747357 
 6932      72697465 
 6932      41747472 
 6933              	.LASF483:
 6934 11d3 4359424C 		.ascii	"CYBLE_EVT_SCPSS_NOTIFICATION_ENABLED\000"
 6934      455F4556 
 6934      545F5343 
 6934      5053535F 
 6934      4E4F5449 
 6935              	.LASF414:
 6936 11f8 4359424C 		.ascii	"CYBLE_EVT_IPSC_READ_CHAR_RESPONSE\000"
 6936      455F4556 
ARM GAS  C:\Windows\TEMP\ccyNncCN.s 			page 154


 6936      545F4950 
 6936      53435F52 
 6936      4541445F 
 6937              	.LASF79:
 6938 121a 4359424C 		.ascii	"CYBLE_EVT_L2CAP_CBFC_DISCONN_CNF\000"
 6938      455F4556 
 6938      545F4C32 
 6938      4341505F 
 6938      43424643 
 6939              	.LASF56:
 6940 123b 4359424C 		.ascii	"CYBLE_EVT_GATTC_FIND_BY_TYPE_VALUE_RSP\000"
 6940      455F4556 
 6940      545F4741 
 6940      5454435F 
 6940      46494E44 
 6941              	.LASF256:
 6942 1262 4359424C 		.ascii	"CYBLE_EVT_ANCSS_NOTIFICATION_ENABLED\000"
 6942      455F4556 
 6942      545F414E 
 6942      4353535F 
 6942      4E4F5449 
 6943              	.LASF40:
 6944 1287 4359424C 		.ascii	"CYBLE_EVT_GAP_DATA_LENGTH_CHANGE\000"
 6944      455F4556 
 6944      545F4741 
 6944      505F4441 
 6944      54415F4C 
 6945              	.LASF488:
 6946 12a8 4359424C 		.ascii	"CYBLE_EVT_SCPSC_WRITE_DESCR_RESPONSE\000"
 6946      455F4556 
 6946      545F5343 
 6946      5053435F 
 6946      57524954 
 6947              	.LASF14:
 6948 12cd 63686172 		.ascii	"char\000"
 6948      00
 6949              	.LASF542:
 6950 12d2 4379426C 		.ascii	"CyBle_AiossSetCharacteristicDescriptor\000"
 6950      655F4169 
 6950      6F737353 
 6950      65744368 
 6950      61726163 
 6951              	.LASF181:
 6952 12f9 6D617841 		.ascii	"maxAttrLength\000"
 6952      7474724C 
 6952      656E6774 
 6952      6800
 6953              	.LASF491:
 6954 1307 4359424C 		.ascii	"CYBLE_EVT_TPSC_NOTIFICATION\000"
 6954      455F4556 
 6954      545F5450 
 6954      53435F4E 
 6954      4F544946 
 6955              	.LASF238:
 6956 1323 4359424C 		.ascii	"CYBLE_EVT_GATTC_INCL_DISCOVERY_COMPLETE\000"
 6956      455F4556 
 6956      545F4741 
ARM GAS  C:\Windows\TEMP\ccyNncCN.s 			page 155


 6956      5454435F 
 6956      494E434C 
 6957              	.LASF457:
 6958 134b 4359424C 		.ascii	"CYBLE_EVT_PLXSS_NOTIFICATION_ENABLED\000"
 6958      455F4556 
 6958      545F504C 
 6958      5853535F 
 6958      4E4F5449 
 6959              	.LASF202:
 6960 1370 4359424C 		.ascii	"CYBLE_AIOS_CHAR_EXTENDED_PROPERTIES\000"
 6960      455F4149 
 6960      4F535F43 
 6960      4841525F 
 6960      45585445 
 6961              	.LASF59:
 6962 1394 4359424C 		.ascii	"CYBLE_EVT_GATTC_READ_MULTI_RSP\000"
 6962      455F4556 
 6962      545F4741 
 6962      5454435F 
 6962      52454144 
 6963              	.LASF255:
 6964 13b3 4359424C 		.ascii	"CYBLE_EVT_AIOSC_ERROR_RESPONSE\000"
 6964      455F4556 
 6964      545F4149 
 6964      4F53435F 
 6964      4552524F 
 6965              	.LASF250:
 6966 13d2 4359424C 		.ascii	"CYBLE_EVT_AIOSC_INDICATION\000"
 6966      455F4556 
 6966      545F4149 
 6966      4F53435F 
 6966      494E4449 
 6967              	.LASF218:
 6968 13ed 63686172 		.ascii	"charInstance\000"
 6968      496E7374 
 6968      616E6365 
 6968      00
 6969              	.LASF17:
 6970 13fa 4359424C 		.ascii	"CYBLE_EVT_HOST_INVALID\000"
 6970      455F4556 
 6970      545F484F 
 6970      53545F49 
 6970      4E56414C 
 6971              	.LASF138:
 6972 1411 4359424C 		.ascii	"CYBLE_GATT_ERR_UNLIKELY_ERROR\000"
 6972      455F4741 
 6972      54545F45 
 6972      52525F55 
 6972      4E4C494B 
 6973              	.LASF42:
 6974 142f 4359424C 		.ascii	"CYBLE_EVT_GAPC_DIRECT_ADV_REPORT\000"
 6974      455F4556 
 6974      545F4741 
 6974      50435F44 
 6974      49524543 
 6975              	.LASF370:
 6976 1450 4359424C 		.ascii	"CYBLE_EVT_GLSC_READ_DESCR_RESPONSE\000"
ARM GAS  C:\Windows\TEMP\ccyNncCN.s 			page 156


 6976      455F4556 
 6976      545F474C 
 6976      53435F52 
 6976      4541445F 
 6977              	.LASF96:
 6978 1473 4359424C 		.ascii	"CYBLE_ERROR_NO_DEVICE_ENTITY\000"
 6978      455F4552 
 6978      524F525F 
 6978      4E4F5F44 
 6978      45564943 
 6979              	.LASF58:
 6980 1490 4359424C 		.ascii	"CYBLE_EVT_GATTC_READ_BLOB_RSP\000"
 6980      455F4556 
 6980      545F4741 
 6980      5454435F 
 6980      52454144 
 6981              	.LASF403:
 6982 14ae 4359424C 		.ascii	"CYBLE_EVT_HTSS_INDICATION_DISABLED\000"
 6982      455F4556 
 6982      545F4854 
 6982      53535F49 
 6982      4E444943 
 6983              	.LASF482:
 6984 14d1 4359424C 		.ascii	"CYBLE_EVT_RTUSC_READ_CHAR_RESPONSE\000"
 6984      455F4556 
 6984      545F5254 
 6984      5553435F 
 6984      52454144 
 6985              	.LASF65:
 6986 14f4 4359424C 		.ascii	"CYBLE_EVT_GATTC_EXEC_WRITE_RSP\000"
 6986      455F4556 
 6986      545F4741 
 6986      5454435F 
 6986      45584543 
 6987              	.LASF215:
 6988 1513 63686172 		.ascii	"charInfoAddr\000"
 6988      496E666F 
 6988      41646472 
 6988      00
 6989              	.LASF143:
 6990 1520 4359424C 		.ascii	"CYBLE_GATT_ERR_HEART_RATE_CONTROL_POINT_NOT_SUPPORT"
 6990      455F4741 
 6990      54545F45 
 6990      52525F48 
 6990      45415254 
 6991 1553 454400   		.ascii	"ED\000"
 6992              	.LASF523:
 6993 1556 4359424C 		.ascii	"CYBLE_EVT_WSSS_INDICATION_CONFIRMED\000"
 6993      455F4556 
 6993      545F5753 
 6993      53535F49 
 6993      4E444943 
 6994              	.LASF135:
 6995 157a 4359424C 		.ascii	"CYBLE_GATT_ERR_ATTRIBUTE_NOT_LONG\000"
 6995      455F4741 
 6995      54545F45 
 6995      52525F41 
ARM GAS  C:\Windows\TEMP\ccyNncCN.s 			page 157


 6995      54545249 
 6996              	.LASF344:
 6997 159c 4359424C 		.ascii	"CYBLE_EVT_CTSC_WRITE_DESCR_RESPONSE\000"
 6997      455F4556 
 6997      545F4354 
 6997      53435F57 
 6997      52495445 
 6998              	.LASF564:
 6999 15c0 61676772 		.ascii	"aggregateCharIndex\000"
 6999      65676174 
 6999      65436861 
 6999      72496E64 
 6999      657800
 7000              	.LASF442:
 7001 15d3 4359424C 		.ascii	"CYBLE_EVT_OTSC_INDICATION\000"
 7001      455F4556 
 7001      545F4F54 
 7001      53435F49 
 7001      4E444943 
 7002              	.LASF496:
 7003 15ed 4359424C 		.ascii	"CYBLE_EVT_UDSS_INDICATION_DISABLED\000"
 7003      455F4556 
 7003      545F5544 
 7003      53535F49 
 7003      4E444943 
 7004              	.LASF586:
 7005 1610 4379426C 		.ascii	"CyBle_GattsReadAttributeValue\000"
 7005      655F4761 
 7005      74747352 
 7005      65616441 
 7005      74747269 
 7006              	.LASF70:
 7007 162e 4359424C 		.ascii	"CYBLE_EVT_GATTC_STOP_CMD_COMPLETE\000"
 7007      455F4556 
 7007      545F4741 
 7007      5454435F 
 7007      53544F50 
 7008              	.LASF318:
 7009 1650 4359424C 		.ascii	"CYBLE_EVT_CPSS_CHAR_WRITE\000"
 7009      455F4556 
 7009      545F4350 
 7009      53535F43 
 7009      4841525F 
 7010              	.LASF392:
 7011 166a 4359424C 		.ascii	"CYBLE_EVT_HRSS_ENERGY_EXPENDED_RESET\000"
 7011      455F4556 
 7011      545F4852 
 7011      53535F45 
 7011      4E455247 
 7012              	.LASF159:
 7013 168f 4359424C 		.ascii	"CYBLE_GATT_ERR_ANCS_ACTION_FAILED\000"
 7013      455F4741 
 7013      54545F45 
 7013      52525F41 
 7013      4E43535F 
 7014              	.LASF536:
 7015 16b1 61747472 		.ascii	"attrSize\000"
ARM GAS  C:\Windows\TEMP\ccyNncCN.s 			page 158


 7015      53697A65 
 7015      00
 7016              	.LASF348:
 7017 16ba 4359424C 		.ascii	"CYBLE_EVT_ESSS_NOTIFICATION_DISABLED\000"
 7017      455F4556 
 7017      545F4553 
 7017      53535F4E 
 7017      4F544946 
 7018              	.LASF192:
 7019 16df 4359424C 		.ascii	"CYBLE_GATTS_DB_T\000"
 7019      455F4741 
 7019      5454535F 
 7019      44425F54 
 7019      00
 7020              	.LASF437:
 7021 16f0 4359424C 		.ascii	"CYBLE_EVT_OTSS_INDICATION_ENABLED\000"
 7021      455F4556 
 7021      545F4F54 
 7021      53535F49 
 7021      4E444943 
 7022              	.LASF561:
 7023 1712 6D617844 		.ascii	"maxDescriptionValue\000"
 7023      65736372 
 7023      69707469 
 7023      6F6E5661 
 7023      6C756500 
 7024              	.LASF288:
 7025 1726 4359424C 		.ascii	"CYBLE_EVT_BLSS_NOTIFICATION_ENABLED\000"
 7025      455F4556 
 7025      545F424C 
 7025      53535F4E 
 7025      4F544946 
 7026              	.LASF390:
 7027 174a 4359424C 		.ascii	"CYBLE_EVT_HPSC_WRITE_DESCR_RESPONSE\000"
 7027      455F4556 
 7027      545F4850 
 7027      53435F57 
 7027      52495445 
 7028              	.LASF524:
 7029 176e 4359424C 		.ascii	"CYBLE_EVT_WSSC_INDICATION\000"
 7029      455F4556 
 7029      545F5753 
 7029      53435F49 
 7029      4E444943 
 7030              	.LASF116:
 7031 1788 4359424C 		.ascii	"CYBLE_ERROR_CONTROLLER_BUSY\000"
 7031      455F4552 
 7031      524F525F 
 7031      434F4E54 
 7031      524F4C4C 
 7032              	.LASF90:
 7033 17a4 4359424C 		.ascii	"CYBLE_ERROR_INVALID_PARAMETER\000"
 7033      455F4552 
 7033      524F525F 
 7033      494E5641 
 7033      4C49445F 
 7034              	.LASF355:
ARM GAS  C:\Windows\TEMP\ccyNncCN.s 			page 159


 7035 17c2 4359424C 		.ascii	"CYBLE_EVT_ESSC_INDICATION\000"
 7035      455F4556 
 7035      545F4553 
 7035      53435F49 
 7035      4E444943 
 7036              	.LASF262:
 7037 17dc 4359424C 		.ascii	"CYBLE_EVT_ANCSC_WRITE_DESCR_RESPONSE\000"
 7037      455F4556 
 7037      545F414E 
 7037      4353435F 
 7037      57524954 
 7038              	.LASF478:
 7039 1801 4359424C 		.ascii	"CYBLE_EVT_RSCSC_WRITE_CHAR_RESPONSE\000"
 7039      455F4556 
 7039      545F5253 
 7039      4353435F 
 7039      57524954 
 7040              	.LASF570:
 7041 1825 61696F73 		.ascii	"aiosCharInfoPtr\000"
 7041      43686172 
 7041      496E666F 
 7041      50747200 
 7042              	.LASF494:
 7043 1835 4359424C 		.ascii	"CYBLE_EVT_TPSC_WRITE_DESCR_RESPONSE\000"
 7043      455F4556 
 7043      545F5450 
 7043      53435F57 
 7043      52495445 
 7044              	.LASF327:
 7045 1859 4359424C 		.ascii	"CYBLE_EVT_CSCSS_NOTIFICATION_DISABLED\000"
 7045      455F4556 
 7045      545F4353 
 7045      4353535F 
 7045      4E4F5449 
 7046              	.LASF338:
 7047 187f 4359424C 		.ascii	"CYBLE_EVT_CTSS_NOTIFICATION_ENABLED\000"
 7047      455F4556 
 7047      545F4354 
 7047      53535F4E 
 7047      4F544946 
 7048              	.LASF472:
 7049 18a3 4359424C 		.ascii	"CYBLE_EVT_RSCSS_INDICATION_DISABLED\000"
 7049      455F4556 
 7049      545F5253 
 7049      4353535F 
 7049      494E4449 
 7050              	.LASF554:
 7051 18c7 4379426C 		.ascii	"CyBle_AiosSetAggregateChar\000"
 7051      655F4169 
 7051      6F735365 
 7051      74416767 
 7051      72656761 
 7052              	.LASF514:
 7053 18e2 4359424C 		.ascii	"CYBLE_EVT_WPTSS_WRITE_CHAR\000"
 7053      455F4556 
 7053      545F5750 
 7053      5453535F 
ARM GAS  C:\Windows\TEMP\ccyNncCN.s 			page 160


 7053      57524954 
 7054              	.LASF421:
 7055 18fd 4359424C 		.ascii	"CYBLE_EVT_LLSS_WRITE_CHAR_REQ\000"
 7055      455F4556 
 7055      545F4C4C 
 7055      53535F57 
 7055      52495445 
 7056              	.LASF92:
 7057 191b 4359424C 		.ascii	"CYBLE_ERROR_MEMORY_ALLOCATION_FAILED\000"
 7057      455F4552 
 7057      524F525F 
 7057      4D454D4F 
 7057      52595F41 
 7058              	.LASF398:
 7059 1940 4359424C 		.ascii	"CYBLE_EVT_HRSC_READ_DESCR_RESPONSE\000"
 7059      455F4556 
 7059      545F4852 
 7059      53435F52 
 7059      4541445F 
 7060              	.LASF326:
 7061 1963 4359424C 		.ascii	"CYBLE_EVT_CSCSS_NOTIFICATION_ENABLED\000"
 7061      455F4556 
 7061      545F4353 
 7061      4353535F 
 7061      4E4F5449 
 7062              	.LASF174:
 7063 1988 4359424C 		.ascii	"CYBLE_GATTS_HANDLE_VALUE_IND_T\000"
 7063      455F4741 
 7063      5454535F 
 7063      48414E44 
 7063      4C455F56 
 7064              	.LASF537:
 7065 19a7 61747472 		.ascii	"attrValue\000"
 7065      56616C75 
 7065      6500
 7066              	.LASF290:
 7067 19b1 4359424C 		.ascii	"CYBLE_EVT_BLSC_INDICATION\000"
 7067      455F4556 
 7067      545F424C 
 7067      53435F49 
 7067      4E444943 
 7068              	.LASF386:
 7069 19cb 4359424C 		.ascii	"CYBLE_EVT_HPSS_CHAR_WRITE\000"
 7069      455F4556 
 7069      545F4850 
 7069      53535F43 
 7069      4841525F 
 7070              	.LASF378:
 7071 19e5 4359424C 		.ascii	"CYBLE_EVT_HIDSS_REPORT_CHAR_WRITE\000"
 7071      455F4556 
 7071      545F4849 
 7071      4453535F 
 7071      5245504F 
 7072              	.LASF278:
 7073 1a07 4359424C 		.ascii	"CYBLE_EVT_BCSS_INDICATION_ENABLED\000"
 7073      455F4556 
 7073      545F4243 
ARM GAS  C:\Windows\TEMP\ccyNncCN.s 			page 161


 7073      53535F49 
 7073      4E444943 
 7074              	.LASF150:
 7075 1a29 4359424C 		.ascii	"CYBLE_GATTS_ERR_CCCD_IMPROPERLY_CONFIGURED\000"
 7075      455F4741 
 7075      5454535F 
 7075      4552525F 
 7075      43434344 
 7076              	.LASF206:
 7077 1a54 4359424C 		.ascii	"CYBLE_AIOS_NUM_OF_DIGITAL_DESCR\000"
 7077      455F4149 
 7077      4F535F4E 
 7077      554D5F4F 
 7077      465F4449 
 7078              	.LASF518:
 7079 1a74 4359424C 		.ascii	"CYBLE_EVT_WPTSC_READ_CHAR_RESPONSE\000"
 7079      455F4556 
 7079      545F5750 
 7079      5453435F 
 7079      52454144 
 7080              	.LASF117:
 7081 1a97 4359424C 		.ascii	"CYBLE_ERROR_MAX\000"
 7081      455F4552 
 7081      524F525F 
 7081      4D415800 
 7082              	.LASF433:
 7083 1aa7 4359424C 		.ascii	"CYBLE_EVT_LNSC_WRITE_CHAR_RESPONSE\000"
 7083      455F4556 
 7083      545F4C4E 
 7083      53435F57 
 7083      52495445 
 7084              	.LASF74:
 7085 1aca 4359424C 		.ascii	"CYBLE_EVT_L2CAP_CONN_PARAM_UPDATE_RSP\000"
 7085      455F4556 
 7085      545F4C32 
 7085      4341505F 
 7085      434F4E4E 
 7086              	.LASF86:
 7087 1af0 4359424C 		.ascii	"CYBLE_EVT_HCI_PKT\000"
 7087      455F4556 
 7087      545F4843 
 7087      495F504B 
 7087      5400
 7088              	.LASF499:
 7089 1b02 4359424C 		.ascii	"CYBLE_EVT_UDSS_NOTIFICATION_DISABLED\000"
 7089      455F4556 
 7089      545F5544 
 7089      53535F4E 
 7089      4F544946 
 7090              	.LASF337:
 7091 1b27 4359424C 		.ascii	"CYBLE_EVT_CSCSC_WRITE_DESCR_RESPONSE\000"
 7091      455F4556 
 7091      545F4353 
 7091      4353435F 
 7091      57524954 
 7092              	.LASF501:
 7093 1b4c 4359424C 		.ascii	"CYBLE_EVT_UDSS_WRITE_CHAR\000"
ARM GAS  C:\Windows\TEMP\ccyNncCN.s 			page 162


 7093      455F4556 
 7093      545F5544 
 7093      53535F57 
 7093      52495445 
 7094              	.LASF464:
 7095 1b66 4359424C 		.ascii	"CYBLE_EVT_PLXSC_READ_CHAR_RESPONSE\000"
 7095      455F4556 
 7095      545F504C 
 7095      5853435F 
 7095      52454144 
 7096              	.LASF594:
 7097 1b89 433A5C55 		.ascii	"C:\\Users\\Oleg\\Documents\\Programming\\POK\\Cyber"
 7097      73657273 
 7097      5C4F6C65 
 7097      675C446F 
 7097      63756D65 
 7098 1bb6 506F6E67 		.ascii	"Pong\\CyberPong.cydsn\000"
 7098      5C437962 
 7098      6572506F 
 7098      6E672E63 
 7098      7964736E 
 7099              	.LASF253:
 7100 1bcb 4359424C 		.ascii	"CYBLE_EVT_AIOSC_READ_DESCR_RESPONSE\000"
 7100      455F4556 
 7100      545F4149 
 7100      4F53435F 
 7100      52454144 
 7101              	.LASF393:
 7102 1bef 4359424C 		.ascii	"CYBLE_EVT_HRSS_NOTIFICATION_ENABLED\000"
 7102      455F4556 
 7102      545F4852 
 7102      53535F4E 
 7102      4F544946 
 7103              	.LASF144:
 7104 1c13 4359424C 		.ascii	"CYBLE_GATT_ERR_USER_DATA_ACCESS_NOT_PERMITTED\000"
 7104      455F4741 
 7104      54545F45 
 7104      52525F55 
 7104      5345525F 
 7105              	.LASF448:
 7106 1c41 4359424C 		.ascii	"CYBLE_EVT_OTSC_ERROR_RESPONSE\000"
 7106      455F4556 
 7106      545F4F54 
 7106      53435F45 
 7106      52524F52 
 7107              	.LASF28:
 7108 1c5f 4359424C 		.ascii	"CYBLE_EVT_GAP_AUTH_COMPLETE\000"
 7108      455F4556 
 7108      545F4741 
 7108      505F4155 
 7108      54485F43 
 7109              	.LASF454:
 7110 1c7b 4359424C 		.ascii	"CYBLE_EVT_PASSC_READ_DESCR_RESPONSE\000"
 7110      455F4556 
 7110      545F5041 
 7110      5353435F 
 7110      52454144 
ARM GAS  C:\Windows\TEMP\ccyNncCN.s 			page 163


 7111              	.LASF358:
 7112 1c9f 4359424C 		.ascii	"CYBLE_EVT_ESSC_READ_DESCR_RESPONSE\000"
 7112      455F4556 
 7112      545F4553 
 7112      53435F52 
 7112      4541445F 
 7113              	.LASF29:
 7114 1cc2 4359424C 		.ascii	"CYBLE_EVT_GAP_AUTH_FAILED\000"
 7114      455F4556 
 7114      545F4741 
 7114      505F4155 
 7114      54485F46 
 7115              	.LASF377:
 7116 1cdc 4359424C 		.ascii	"CYBLE_EVT_HIDSS_EXIT_SUSPEND\000"
 7116      455F4556 
 7116      545F4849 
 7116      4453535F 
 7116      45584954 
 7117              	.LASF122:
 7118 1cf9 4359424C 		.ascii	"CYBLE_ERROR_STACK_BUSY\000"
 7118      455F4552 
 7118      524F525F 
 7118      53544143 
 7118      4B5F4255 
 7119              	.LASF160:
 7120 1d10 4359424C 		.ascii	"CYBLE_GATT_ERR_CCCD_IMPROPERLY_CONFIGURED\000"
 7120      455F4741 
 7120      54545F45 
 7120      52525F43 
 7120      4343445F 
 7121              	.LASF93:
 7122 1d3a 4359424C 		.ascii	"CYBLE_ERROR_INSUFFICIENT_RESOURCES\000"
 7122      455F4552 
 7122      524F525F 
 7122      494E5355 
 7122      46464943 
 7123              	.LASF470:
 7124 1d5d 4359424C 		.ascii	"CYBLE_EVT_RSCSS_NOTIFICATION_DISABLED\000"
 7124      455F4556 
 7124      545F5253 
 7124      4353535F 
 7124      4E4F5449 
 7125              	.LASF200:
 7126 1d83 4359424C 		.ascii	"CYBLE_AIOS_CHAR_PRESENTATION_FORMAT\000"
 7126      455F4149 
 7126      4F535F43 
 7126      4841525F 
 7126      50524553 
 7127              	.LASF148:
 7128 1da7 4359424C 		.ascii	"CYBLE_GATT_ERR_OP_CODE_NOT_SUPPORTED\000"
 7128      455F4741 
 7128      54545F45 
 7128      52525F4F 
 7128      505F434F 
 7129              	.LASF381:
 7130 1dcc 4359424C 		.ascii	"CYBLE_EVT_HIDSC_WRITE_CHAR_RESPONSE\000"
 7130      455F4556 
ARM GAS  C:\Windows\TEMP\ccyNncCN.s 			page 164


 7130      545F4849 
 7130      4453435F 
 7130      57524954 
 7131              	.LASF5:
 7132 1df0 6C6F6E67 		.ascii	"long unsigned int\000"
 7132      20756E73 
 7132      69676E65 
 7132      6420696E 
 7132      7400
 7133              	.LASF540:
 7134 1e02 4379426C 		.ascii	"CyBle_AiossGetCharacteristicValue\000"
 7134      655F4169 
 7134      6F737347 
 7134      65744368 
 7134      61726163 
 7135              	.LASF417:
 7136 1e24 4359424C 		.ascii	"CYBLE_EVT_IPSC_READ_DESCR_RESPONSE\000"
 7136      455F4556 
 7136      545F4950 
 7136      53435F52 
 7136      4541445F 
 7137              	.LASF557:
 7138 1e47 61676772 		.ascii	"aggregateChar\000"
 7138      65676174 
 7138      65436861 
 7138      7200
 7139              	.LASF412:
 7140 1e55 4359424C 		.ascii	"CYBLE_EVT_IASS_WRITE_CHAR_CMD\000"
 7140      455F4556 
 7140      545F4941 
 7140      53535F57 
 7140      52495445 
 7141              	.LASF447:
 7142 1e73 4359424C 		.ascii	"CYBLE_EVT_OTSC_WRITE_DESCR_RESPONSE\000"
 7142      455F4556 
 7142      545F4F54 
 7142      53435F57 
 7142      52495445 
 7143              	.LASF539:
 7144 1e97 6C6F6348 		.ascii	"locHandleValuePair\000"
 7144      616E646C 
 7144      6556616C 
 7144      75655061 
 7144      697200
 7145              	.LASF449:
 7146 1eaa 4359424C 		.ascii	"CYBLE_EVT_PASSS_NOTIFICATION_ENABLED\000"
 7146      455F4556 
 7146      545F5041 
 7146      5353535F 
 7146      4E4F5449 
 7147              	.LASF452:
 7148 1ecf 4359424C 		.ascii	"CYBLE_EVT_PASSC_NOTIFICATION\000"
 7148      455F4556 
 7148      545F5041 
 7148      5353435F 
 7148      4E4F5449 
 7149              	.LASF113:
ARM GAS  C:\Windows\TEMP\ccyNncCN.s 			page 165


 7150 1eec 4359424C 		.ascii	"CYBLE_ERROR_UNSUPPORTED_FEATURE_OR_PARAMETER_VALUE\000"
 7150      455F4552 
 7150      524F525F 
 7150      554E5355 
 7150      50504F52 
 7151              	.LASF511:
 7152 1f1f 4359424C 		.ascii	"CYBLE_EVT_WPTSS_INDICATION_ENABLED\000"
 7152      455F4556 
 7152      545F5750 
 7152      5453535F 
 7152      494E4449 
 7153              	.LASF204:
 7154 1f42 4359424C 		.ascii	"CYBLE_AIOS_TIME_TRIGGER_SETTINGS\000"
 7154      455F4149 
 7154      4F535F54 
 7154      494D455F 
 7154      54524947 
 7155              	.LASF458:
 7156 1f63 4359424C 		.ascii	"CYBLE_EVT_PLXSS_NOTIFICATION_DISABLED\000"
 7156      455F4556 
 7156      545F504C 
 7156      5853535F 
 7156      4E4F5449 
 7157              	.LASF268:
 7158 1f89 4359424C 		.ascii	"CYBLE_EVT_ANSC_READ_CHAR_RESPONSE\000"
 7158      455F4556 
 7158      545F414E 
 7158      53435F52 
 7158      4541445F 
 7159              	.LASF563:
 7160 1fab 6C6F6343 		.ascii	"locCharInstanceNumber\000"
 7160      68617249 
 7160      6E737461 
 7160      6E63654E 
 7160      756D6265 
 7161              	.LASF103:
 7162 1fc1 4359424C 		.ascii	"CYBLE_ERROR_L2CAP_PSM_ALREADY_REGISTERED\000"
 7162      455F4552 
 7162      524F525F 
 7162      4C324341 
 7162      505F5053 
 7163              	.LASF405:
 7164 1fea 4359424C 		.ascii	"CYBLE_EVT_HTSS_CHAR_WRITE\000"
 7164      455F4556 
 7164      545F4854 
 7164      53535F43 
 7164      4841525F 
 7165              	.LASF577:
 7166 2004 6379426C 		.ascii	"cyBle_aiossReqHandle\000"
 7166      655F6169 
 7166      6F737352 
 7166      65714861 
 7166      6E646C65 
 7167              	.LASF576:
 7168 2019 61696F73 		.ascii	"aiossCharIdx1\000"
 7168      73436861 
 7168      72496478 
ARM GAS  C:\Windows\TEMP\ccyNncCN.s 			page 166


 7168      3100
 7169              	.LASF185:
 7170 2027 61747456 		.ascii	"attValueUuid\000"
 7170      616C7565 
 7170      55756964 
 7170      00
 7171              	.LASF156:
 7172 2034 4359424C 		.ascii	"CYBLE_GATT_ERR_ANCS_UNKNOWN_COMMAND\000"
 7172      455F4741 
 7172      54545F45 
 7172      52525F41 
 7172      4E43535F 
 7173              	.LASF272:
 7174 2058 4359424C 		.ascii	"CYBLE_EVT_BASS_NOTIFICATION_ENABLED\000"
 7174      455F4556 
 7174      545F4241 
 7174      53535F4E 
 7174      4F544946 
 7175              	.LASF345:
 7176 207c 4359424C 		.ascii	"CYBLE_EVT_CTSC_WRITE_CHAR_RESPONSE\000"
 7176      455F4556 
 7176      545F4354 
 7176      53435F57 
 7176      52495445 
 7177              	.LASF451:
 7178 209f 4359424C 		.ascii	"CYBLE_EVT_PASSS_WRITE_CHAR\000"
 7178      455F4556 
 7178      545F5041 
 7178      5353535F 
 7178      57524954 
 7179              	.LASF322:
 7180 20ba 4359424C 		.ascii	"CYBLE_EVT_CPSC_WRITE_CHAR_RESPONSE\000"
 7180      455F4556 
 7180      545F4350 
 7180      53435F57 
 7180      52495445 
 7181              	.LASF465:
 7182 20dd 4359424C 		.ascii	"CYBLE_EVT_PLXSC_WRITE_CHAR_RESPONSE\000"
 7182      455F4556 
 7182      545F504C 
 7182      5853435F 
 7182      57524954 
 7183              	.LASF572:
 7184 2101 6576656E 		.ascii	"event\000"
 7184      7400
 7185              	.LASF34:
 7186 2107 4359424C 		.ascii	"CYBLE_EVT_GAP_CONNECTION_UPDATE_COMPLETE\000"
 7186      455F4556 
 7186      545F4741 
 7186      505F434F 
 7186      4E4E4543 
 7187              	.LASF307:
 7188 2130 4359424C 		.ascii	"CYBLE_EVT_CGMSC_READ_CHAR_RESPONSE\000"
 7188      455F4556 
 7188      545F4347 
 7188      4D53435F 
 7188      52454144 
ARM GAS  C:\Windows\TEMP\ccyNncCN.s 			page 167


 7189              	.LASF562:
 7190 2153 6D696E44 		.ascii	"minDescriptionNumber\000"
 7190      65736372 
 7190      69707469 
 7190      6F6E4E75 
 7190      6D626572 
 7191              	.LASF545:
 7192 2168 4379426C 		.ascii	"CyBle_AiossSendIndication\000"
 7192      655F4169 
 7192      6F737353 
 7192      656E6449 
 7192      6E646963 
 7193              	.LASF530:
 7194 2182 4359424C 		.ascii	"CYBLE_STATE_INITIALIZING\000"
 7194      455F5354 
 7194      4154455F 
 7194      494E4954 
 7194      49414C49 
 7195              	.LASF568:
 7196 219b 746D7048 		.ascii	"tmpHandle\000"
 7196      616E646C 
 7196      6500
 7197              	.LASF335:
 7198 21a5 4359424C 		.ascii	"CYBLE_EVT_CSCSC_WRITE_CHAR_RESPONSE\000"
 7198      455F4556 
 7198      545F4353 
 7198      4353435F 
 7198      57524954 
 7199              	.LASF78:
 7200 21c9 4359424C 		.ascii	"CYBLE_EVT_L2CAP_CBFC_DISCONN_IND\000"
 7200      455F4556 
 7200      545F4C32 
 7200      4341505F 
 7200      43424643 
 7201              	.LASF331:
 7202 21ea 4359424C 		.ascii	"CYBLE_EVT_CSCSS_CHAR_WRITE\000"
 7202      455F4556 
 7202      545F4353 
 7202      4353535F 
 7202      43484152 
 7203              	.LASF441:
 7204 2205 4359424C 		.ascii	"CYBLE_EVT_OTSS_WRITE_DESCR\000"
 7204      455F4556 
 7204      545F4F54 
 7204      53535F57 
 7204      52495445 
 7205              	.LASF460:
 7206 2220 4359424C 		.ascii	"CYBLE_EVT_PLXSS_INDICATION_DISABLED\000"
 7206      455F4556 
 7206      545F504C 
 7206      5853535F 
 7206      494E4449 
 7207              	.LASF477:
 7208 2244 4359424C 		.ascii	"CYBLE_EVT_RSCSC_READ_CHAR_RESPONSE\000"
 7208      455F4556 
 7208      545F5253 
 7208      4353435F 
ARM GAS  C:\Windows\TEMP\ccyNncCN.s 			page 168


 7208      52454144 
 7209              	.LASF26:
 7210 2267 4359424C 		.ascii	"CYBLE_EVT_GAP_PASSKEY_ENTRY_REQUEST\000"
 7210      455F4556 
 7210      545F4741 
 7210      505F5041 
 7210      53534B45 
 7211              	.LASF219:
 7212 228b 67617474 		.ascii	"gattErrorCode\000"
 7212      4572726F 
 7212      72436F64 
 7212      6500
 7213              	.LASF583:
 7214 2299 6379426C 		.ascii	"cyBle_aioss\000"
 7214      655F6169 
 7214      6F737300 
 7215              	.LASF387:
 7216 22a5 4359424C 		.ascii	"CYBLE_EVT_HPSC_NOTIFICATION\000"
 7216      455F4556 
 7216      545F4850 
 7216      53435F4E 
 7216      4F544946 
 7217              	.LASF316:
 7218 22c1 4359424C 		.ascii	"CYBLE_EVT_CPSS_BROADCAST_ENABLED\000"
 7218      455F4556 
 7218      545F4350 
 7218      53535F42 
 7218      524F4144 
 7219              	.LASF418:
 7220 22e2 4359424C 		.ascii	"CYBLE_EVT_IPSC_WRITE_DESCR_RESPONSE\000"
 7220      455F4556 
 7220      545F4950 
 7220      53435F57 
 7220      52495445 
 7221              	.LASF368:
 7222 2306 4359424C 		.ascii	"CYBLE_EVT_GLSC_READ_CHAR_RESPONSE\000"
 7222      455F4556 
 7222      545F474C 
 7222      53435F52 
 7222      4541445F 
 7223              	.LASF467:
 7224 2328 4359424C 		.ascii	"CYBLE_EVT_PLXSC_WRITE_DESCR_RESPONSE\000"
 7224      455F4556 
 7224      545F504C 
 7224      5853435F 
 7224      57524954 
 7225              	.LASF573:
 7226 234d 77724368 		.ascii	"wrCharReqParam\000"
 7226      61725265 
 7226      71506172 
 7226      616D00
 7227              	.LASF406:
 7228 235c 4359424C 		.ascii	"CYBLE_EVT_HTSC_NOTIFICATION\000"
 7228      455F4556 
 7228      545F4854 
 7228      53435F4E 
 7228      4F544946 
ARM GAS  C:\Windows\TEMP\ccyNncCN.s 			page 169


 7229              	.LASF6:
 7230 2378 6C6F6E67 		.ascii	"long long int\000"
 7230      206C6F6E 
 7230      6720696E 
 7230      7400
 7231              	.LASF590:
 7232 2386 4379426C 		.ascii	"CyBle_GattsIndication\000"
 7232      655F4761 
 7232      74747349 
 7232      6E646963 
 7232      6174696F 
 7233              	.LASF492:
 7234 239c 4359424C 		.ascii	"CYBLE_EVT_TPSC_READ_CHAR_RESPONSE\000"
 7234      455F4556 
 7234      545F5450 
 7234      53435F52 
 7234      4541445F 
 7235              	.LASF235:
 7236 23be 4359424C 		.ascii	"CYBLE_EVT_GATTC_CHAR_DUPLICATION\000"
 7236      455F4556 
 7236      545F4741 
 7236      5454435F 
 7236      43484152 
 7237              	.LASF363:
 7238 23df 4359424C 		.ascii	"CYBLE_EVT_GLSS_NOTIFICATION_ENABLED\000"
 7238      455F4556 
 7238      545F474C 
 7238      53535F4E 
 7238      4F544946 
 7239              	.LASF439:
 7240 2403 4359424C 		.ascii	"CYBLE_EVT_OTSS_INDICATION_CONFIRMED\000"
 7240      455F4556 
 7240      545F4F54 
 7240      53535F49 
 7240      4E444943 
 7241              	.LASF133:
 7242 2427 4359424C 		.ascii	"CYBLE_GATT_ERR_PREPARE_WRITE_QUEUE_FULL\000"
 7242      455F4741 
 7242      54545F45 
 7242      52525F50 
 7242      52455041 
 7243              	.LASF388:
 7244 244f 4359424C 		.ascii	"CYBLE_EVT_HPSC_READ_CHAR_RESPONSE\000"
 7244      455F4556 
 7244      545F4850 
 7244      53435F52 
 7244      4541445F 
 7245              	.LASF104:
 7246 2471 4359424C 		.ascii	"CYBLE_ERROR_L2CAP_PSM_NOT_REGISTERED\000"
 7246      455F4552 
 7246      524F525F 
 7246      4C324341 
 7246      505F5053 
 7247              	.LASF94:
 7248 2496 4359424C 		.ascii	"CYBLE_ERROR_OOB_NOT_AVAILABLE\000"
 7248      455F4552 
 7248      524F525F 
ARM GAS  C:\Windows\TEMP\ccyNncCN.s 			page 170


 7248      4F4F425F 
 7248      4E4F545F 
 7249              	.LASF299:
 7250 24b4 4359424C 		.ascii	"CYBLE_EVT_CGMSS_INDICATION_ENABLED\000"
 7250      455F4556 
 7250      545F4347 
 7250      4D53535F 
 7250      494E4449 
 7251              	.LASF13:
 7252 24d7 646F7562 		.ascii	"double\000"
 7252      6C6500
 7253              	.LASF109:
 7254 24de 4359424C 		.ascii	"CYBLE_ERROR_DEVICE_ALREADY_EXISTS\000"
 7254      455F4552 
 7254      524F525F 
 7254      44455649 
 7254      43455F41 
 7255              	.LASF350:
 7256 2500 4359424C 		.ascii	"CYBLE_EVT_ESSS_INDICATION_DISABLED\000"
 7256      455F4556 
 7256      545F4553 
 7256      53535F49 
 7256      4E444943 
 7257              	.LASF591:
 7258 2523 4379426C 		.ascii	"CyBle_GattDbCheckPermission\000"
 7258      655F4761 
 7258      74744462 
 7258      43686563 
 7258      6B506572 
 7259              	.LASF84:
 7260 253f 4359424C 		.ascii	"CYBLE_EVT_PENDING_FLASH_WRITE\000"
 7260      455F4556 
 7260      545F5045 
 7260      4E44494E 
 7260      475F464C 
 7261              	.LASF136:
 7262 255d 4359424C 		.ascii	"CYBLE_GATT_ERR_INSUFFICIENT_ENC_KEY_SIZE\000"
 7262      455F4741 
 7262      54545F45 
 7262      52525F49 
 7262      4E535546 
 7263              	.LASF509:
 7264 2586 4359424C 		.ascii	"CYBLE_EVT_WPTSS_NOTIFICATION_ENABLED\000"
 7264      455F4556 
 7264      545F5750 
 7264      5453535F 
 7264      4E4F5449 
 7265              	.LASF161:
 7266 25ab 4359424C 		.ascii	"CYBLE_GATT_ERR_PROCEDURE_ALREADY_IN_PROGRESS\000"
 7266      455F4741 
 7266      54545F45 
 7266      52525F50 
 7266      524F4345 
 7267              	.LASF435:
 7268 25d8 4359424C 		.ascii	"CYBLE_EVT_LNSC_WRITE_DESCR_RESPONSE\000"
 7268      455F4556 
 7268      545F4C4E 
ARM GAS  C:\Windows\TEMP\ccyNncCN.s 			page 171


 7268      53435F57 
 7268      52495445 
 7269              	.LASF41:
 7270 25fc 4359424C 		.ascii	"CYBLE_EVT_GAP_ENHANCE_CONN_COMPLETE\000"
 7270      455F4556 
 7270      545F4741 
 7270      505F454E 
 7270      48414E43 
 7271              	.LASF422:
 7272 2620 4359424C 		.ascii	"CYBLE_EVT_LLSC_READ_CHAR_RESPONSE\000"
 7272      455F4556 
 7272      545F4C4C 
 7272      53435F52 
 7272      4541445F 
 7273              	.LASF330:
 7274 2642 4359424C 		.ascii	"CYBLE_EVT_CSCSS_INDICATION_CONFIRMATION\000"
 7274      455F4556 
 7274      545F4353 
 7274      4353535F 
 7274      494E4449 
 7275              	.LASF106:
 7276 266a 4359424C 		.ascii	"CYBLE_ERROR_L2CAP_CHANNEL_NOT_FOUND\000"
 7276      455F4552 
 7276      524F525F 
 7276      4C324341 
 7276      505F4348 
 7277              	.LASF582:
 7278 268e 6379426C 		.ascii	"cyBle_gattDB\000"
 7278      655F6761 
 7278      74744442 
 7278      00
 7279              	.LASF97:
 7280 269b 4359424C 		.ascii	"CYBLE_ERROR_REPEATED_ATTEMPTS\000"
 7280      455F4552 
 7280      524F525F 
 7280      52455045 
 7280      41544544 
 7281              	.LASF222:
 7282 26b9 4359424C 		.ascii	"CYBLE_AIOS_DESCR_VALUE_T\000"
 7282      455F4149 
 7282      4F535F44 
 7282      45534352 
 7282      5F56414C 
 7283              	.LASF353:
 7284 26d2 4359424C 		.ascii	"CYBLE_EVT_ESSS_DESCR_WRITE\000"
 7284      455F4556 
 7284      545F4553 
 7284      53535F44 
 7284      45534352 
 7285              	.LASF349:
 7286 26ed 4359424C 		.ascii	"CYBLE_EVT_ESSS_INDICATION_ENABLED\000"
 7286      455F4556 
 7286      545F4553 
 7286      53535F49 
 7286      4E444943 
 7287              	.LASF12:
 7288 270f 666C6F61 		.ascii	"float\000"
ARM GAS  C:\Windows\TEMP\ccyNncCN.s 			page 172


 7288      7400
 7289              	.LASF486:
 7290 2715 4359424C 		.ascii	"CYBLE_EVT_SCPSC_NOTIFICATION\000"
 7290      455F4556 
 7290      545F5343 
 7290      5053435F 
 7290      4E4F5449 
 7291              	.LASF375:
 7292 2732 4359424C 		.ascii	"CYBLE_EVT_HIDSS_REPORT_MODE_ENTER\000"
 7292      455F4556 
 7292      545F4849 
 7292      4453535F 
 7292      5245504F 
 7293              	.LASF354:
 7294 2754 4359424C 		.ascii	"CYBLE_EVT_ESSC_NOTIFICATION\000"
 7294      455F4556 
 7294      545F4553 
 7294      53435F4E 
 7294      4F544946 
 7295              	.LASF110:
 7296 2770 4359424C 		.ascii	"CYBLE_ERROR_FLASH_WRITE_NOT_PERMITED\000"
 7296      455F4552 
 7296      524F525F 
 7296      464C4153 
 7296      485F5752 
 7297              	.LASF373:
 7298 2795 4359424C 		.ascii	"CYBLE_EVT_HIDSS_NOTIFICATION_DISABLED\000"
 7298      455F4556 
 7298      545F4849 
 7298      4453535F 
 7298      4E4F5449 
 7299              	.LASF71:
 7300 27bb 4359424C 		.ascii	"CYBLE_EVT_GATTS_READ_CHAR_VAL_ACCESS_REQ\000"
 7300      455F4556 
 7300      545F4741 
 7300      5454535F 
 7300      52454144 
 7301              	.LASF261:
 7302 27e4 4359424C 		.ascii	"CYBLE_EVT_ANCSC_READ_DESCR_RESPONSE\000"
 7302      455F4556 
 7302      545F414E 
 7302      4353435F 
 7302      52454144 
 7303              	.LASF132:
 7304 2808 4359424C 		.ascii	"CYBLE_GATT_ERR_INSUFFICIENT_AUTHORIZATION\000"
 7304      455F4741 
 7304      54545F45 
 7304      52525F49 
 7304      4E535546 
 7305              	.LASF221:
 7306 2832 64657363 		.ascii	"descrIndex\000"
 7306      72496E64 
 7306      657800
 7307              	.LASF171:
 7308 283d 61747472 		.ascii	"attrHandle\000"
 7308      48616E64 
 7308      6C6500
ARM GAS  C:\Windows\TEMP\ccyNncCN.s 			page 173


 7309              	.LASF503:
 7310 2848 4359424C 		.ascii	"CYBLE_EVT_UDSC_NOTIFICATION\000"
 7310      455F4556 
 7310      545F5544 
 7310      53435F4E 
 7310      4F544946 
 7311              	.LASF517:
 7312 2864 4359424C 		.ascii	"CYBLE_EVT_WPTSC_WRITE_CHAR_RESPONSE\000"
 7312      455F4556 
 7312      545F5750 
 7312      5453435F 
 7312      57524954 
 7313              	.LASF177:
 7314 2888 4359424C 		.ascii	"CYBLE_GATTS_WRITE_REQ_PARAM_T\000"
 7314      455F4741 
 7314      5454535F 
 7314      57524954 
 7314      455F5245 
 7315              	.LASF8:
 7316 28a6 756E7369 		.ascii	"unsigned int\000"
 7316      676E6564 
 7316      20696E74 
 7316      00
 7317              	.LASF63:
 7318 28b3 4359424C 		.ascii	"CYBLE_EVT_GATTS_PREP_WRITE_REQ\000"
 7318      455F4556 
 7318      545F4741 
 7318      5454535F 
 7318      50524550 
 7319              	.LASF190:
 7320 28d2 61747445 		.ascii	"attEndHandle\000"
 7320      6E644861 
 7320      6E646C65 
 7320      00
 7321              	.LASF129:
 7322 28df 4359424C 		.ascii	"CYBLE_GATT_ERR_INSUFFICIENT_AUTHENTICATION\000"
 7322      455F4741 
 7322      54545F45 
 7322      52525F49 
 7322      4E535546 
 7323              	.LASF194:
 7324 290a 4359424C 		.ascii	"CYBLE_AIOS_DIGITAL\000"
 7324      455F4149 
 7324      4F535F44 
 7324      49474954 
 7324      414C00
 7325              	.LASF297:
 7326 291d 4359424C 		.ascii	"CYBLE_EVT_BMSC_WRITE_CHAR_RESPONSE\000"
 7326      455F4556 
 7326      545F424D 
 7326      53435F57 
 7326      52495445 
 7327              	.LASF339:
 7328 2940 4359424C 		.ascii	"CYBLE_EVT_CTSS_NOTIFICATION_DISABLED\000"
 7328      455F4556 
 7328      545F4354 
 7328      53535F4E 
ARM GAS  C:\Windows\TEMP\ccyNncCN.s 			page 174


 7328      4F544946 
 7329              	.LASF197:
 7330 2965 4359424C 		.ascii	"CYBLE_AIOS_CHAR_COUNT\000"
 7330      455F4149 
 7330      4F535F43 
 7330      4841525F 
 7330      434F554E 
 7331              	.LASF286:
 7332 297b 4359424C 		.ascii	"CYBLE_EVT_BLSS_INDICATION_DISABLED\000"
 7332      455F4556 
 7332      545F424C 
 7332      53535F49 
 7332      4E444943 
 7333              	.LASF438:
 7334 299e 4359424C 		.ascii	"CYBLE_EVT_OTSS_INDICATION_DISABLED\000"
 7334      455F4556 
 7334      545F4F54 
 7334      53535F49 
 7334      4E444943 
 7335              	.LASF461:
 7336 29c1 4359424C 		.ascii	"CYBLE_EVT_PLXSS_INDICATION_CONFIRMED\000"
 7336      455F4556 
 7336      545F504C 
 7336      5853535F 
 7336      494E4449 
 7337              	.LASF484:
 7338 29e6 4359424C 		.ascii	"CYBLE_EVT_SCPSS_NOTIFICATION_DISABLED\000"
 7338      455F4556 
 7338      545F5343 
 7338      5053535F 
 7338      4E4F5449 
 7339              	.LASF351:
 7340 2a0c 4359424C 		.ascii	"CYBLE_EVT_ESSS_INDICATION_CONFIRMATION\000"
 7340      455F4556 
 7340      545F4553 
 7340      53535F49 
 7340      4E444943 
 7341              	.LASF147:
 7342 2a33 4359424C 		.ascii	"CYBLE_GATTS_ERR_PROCEDURE_ALREADY_IN_PROGRESS\000"
 7342      455F4741 
 7342      5454535F 
 7342      4552525F 
 7342      50524F43 
 7343              	.LASF254:
 7344 2a61 4359424C 		.ascii	"CYBLE_EVT_AIOSC_WRITE_DESCR_RESPONSE\000"
 7344      455F4556 
 7344      545F4149 
 7344      4F53435F 
 7344      57524954 
 7345              	.LASF223:
 7346 2a86 4359424C 		.ascii	"CYBLE_AUTHENTICATION_REQUEST_REPLY\000"
 7346      455F4155 
 7346      5448454E 
 7346      54494341 
 7346      54494F4E 
 7347              	.LASF102:
 7348 2aa9 4359424C 		.ascii	"CYBLE_ERROR_L2CAP_PSM_WRONG_ENCODING\000"
ARM GAS  C:\Windows\TEMP\ccyNncCN.s 			page 175


 7348      455F4552 
 7348      524F525F 
 7348      4C324341 
 7348      505F5053 
 7349              	.LASF289:
 7350 2ace 4359424C 		.ascii	"CYBLE_EVT_BLSS_NOTIFICATION_DISABLED\000"
 7350      455F4556 
 7350      545F424C 
 7350      53535F4E 
 7350      4F544946 
 7351              	.LASF134:
 7352 2af3 4359424C 		.ascii	"CYBLE_GATT_ERR_ATTRIBUTE_NOT_FOUND\000"
 7352      455F4741 
 7352      54545F45 
 7352      52525F41 
 7352      54545249 
 7353              	.LASF409:
 7354 2b16 4359424C 		.ascii	"CYBLE_EVT_HTSC_WRITE_CHAR_RESPONSE\000"
 7354      455F4556 
 7354      545F4854 
 7354      53435F57 
 7354      52495445 
 7355              	.LASF522:
 7356 2b39 4359424C 		.ascii	"CYBLE_EVT_WSSS_INDICATION_DISABLED\000"
 7356      455F4556 
 7356      545F5753 
 7356      53535F49 
 7356      4E444943 
 7357              	.LASF391:
 7358 2b5c 4359424C 		.ascii	"CYBLE_EVT_HPSC_WRITE_CHAR_RESPONSE\000"
 7358      455F4556 
 7358      545F4850 
 7358      53435F57 
 7358      52495445 
 7359              	.LASF88:
 7360 2b7f 4359424C 		.ascii	"CYBLE_EVT_MAX\000"
 7360      455F4556 
 7360      545F4D41 
 7360      5800
 7361              	.LASF35:
 7362 2b8d 4359424C 		.ascii	"CYBLE_EVT_GAPC_SCAN_START_STOP\000"
 7362      455F4556 
 7362      545F4741 
 7362      50435F53 
 7362      43414E5F 
 7363              	.LASF264:
 7364 2bac 4359424C 		.ascii	"CYBLE_EVT_ANSS_NOTIFICATION_ENABLED\000"
 7364      455F4556 
 7364      545F414E 
 7364      53535F4E 
 7364      4F544946 
 7365              	.LASF60:
 7366 2bd0 4359424C 		.ascii	"CYBLE_EVT_GATTS_WRITE_REQ\000"
 7366      455F4556 
 7366      545F4741 
 7366      5454535F 
 7366      57524954 
ARM GAS  C:\Windows\TEMP\ccyNncCN.s 			page 176


 7367              	.LASF505:
 7368 2bea 4359424C 		.ascii	"CYBLE_EVT_UDSC_WRITE_CHAR_RESPONSE\000"
 7368      455F4556 
 7368      545F5544 
 7368      53435F57 
 7368      52495445 
 7369              	.LASF566:
 7370 2c0d 6E756D4F 		.ascii	"numOfDigital\000"
 7370      66446967 
 7370      6974616C 
 7370      00
 7371              	.LASF516:
 7372 2c1a 4359424C 		.ascii	"CYBLE_EVT_WPTSC_INDICATION\000"
 7372      455F4556 
 7372      545F5750 
 7372      5453435F 
 7372      494E4449 
 7373              	.LASF27:
 7374 2c35 4359424C 		.ascii	"CYBLE_EVT_GAP_PASSKEY_DISPLAY_REQUEST\000"
 7374      455F4556 
 7374      545F4741 
 7374      505F5041 
 7374      53534B45 
 7375              	.LASF119:
 7376 2c5b 4359424C 		.ascii	"CYBLE_ERROR_IND_DISABLED\000"
 7376      455F4552 
 7376      524F525F 
 7376      494E445F 
 7376      44495341 
 7377              	.LASF118:
 7378 2c74 4359424C 		.ascii	"CYBLE_ERROR_NTF_DISABLED\000"
 7378      455F4552 
 7378      524F525F 
 7378      4E54465F 
 7378      44495341 
 7379              	.LASF201:
 7380 2c8d 4359424C 		.ascii	"CYBLE_AIOS_CHAR_USER_DESCRIPTION_DESCR\000"
 7380      455F4149 
 7380      4F535F43 
 7380      4841525F 
 7380      55534552 
 7381              	.LASF57:
 7382 2cb4 4359424C 		.ascii	"CYBLE_EVT_GATTC_READ_RSP\000"
 7382      455F4556 
 7382      545F4741 
 7382      5454435F 
 7382      52454144 
 7383              	.LASF320:
 7384 2ccd 4359424C 		.ascii	"CYBLE_EVT_CPSC_INDICATION\000"
 7384      455F4556 
 7384      545F4350 
 7384      53435F49 
 7384      4E444943 
 7385              	.LASF198:
 7386 2ce7 4359424C 		.ascii	"CYBLE_AIOS_CHAR_INDEX_T\000"
 7386      455F4149 
 7386      4F535F43 
ARM GAS  C:\Windows\TEMP\ccyNncCN.s 			page 177


 7386      4841525F 
 7386      494E4445 
 7387              	.LASF131:
 7388 2cff 4359424C 		.ascii	"CYBLE_GATT_ERR_INVALID_OFFSET\000"
 7388      455F4741 
 7388      54545F45 
 7388      52525F49 
 7388      4E56414C 
 7389              	.LASF346:
 7390 2d1d 4359424C 		.ascii	"CYBLE_EVT_DISC_READ_CHAR_RESPONSE\000"
 7390      455F4556 
 7390      545F4449 
 7390      53435F52 
 7390      4541445F 
 7391              	.LASF77:
 7392 2d3f 4359424C 		.ascii	"CYBLE_EVT_L2CAP_CBFC_CONN_CNF\000"
 7392      455F4556 
 7392      545F4C32 
 7392      4341505F 
 7392      43424643 
 7393              	.LASF180:
 7394 2d5d 4359424C 		.ascii	"CYBLE_GATTS_ATT_GEN_VAL_LEN_T\000"
 7394      455F4741 
 7394      5454535F 
 7394      4154545F 
 7394      47454E5F 
 7395              	.LASF410:
 7396 2d7b 4359424C 		.ascii	"CYBLE_EVT_HTSC_READ_DESCR_RESPONSE\000"
 7396      455F4556 
 7396      545F4854 
 7396      53435F52 
 7396      4541445F 
 7397              	.LASF528:
 7398 2d9e 4359424C 		.ascii	"CYBLE_DEBUG_EVT_BLESS_INT\000"
 7398      455F4445 
 7398      4255475F 
 7398      4556545F 
 7398      424C4553 
 7399              	.LASF162:
 7400 2db8 4359424C 		.ascii	"CYBLE_GATT_ERR_OUT_OF_RANGE\000"
 7400      455F4741 
 7400      54545F45 
 7400      52525F4F 
 7400      55545F4F 
 7401              	.LASF365:
 7402 2dd4 4359424C 		.ascii	"CYBLE_EVT_GLSS_WRITE_CHAR\000"
 7402      455F4556 
 7402      545F474C 
 7402      53535F57 
 7402      52495445 
 7403              	.LASF87:
 7404 2dee 4359424C 		.ascii	"CYBLE_EVT_FLASH_CORRUPT\000"
 7404      455F4556 
 7404      545F464C 
 7404      4153485F 
 7404      434F5252 
 7405              	.LASF15:
ARM GAS  C:\Windows\TEMP\ccyNncCN.s 			page 178


 7406 2e06 6C6F6E67 		.ascii	"long double\000"
 7406      20646F75 
 7406      626C6500 
 7407              	.LASF302:
 7408 2e12 4359424C 		.ascii	"CYBLE_EVT_CGMSS_NOTIFICATION_ENABLED\000"
 7408      455F4556 
 7408      545F4347 
 7408      4D53535F 
 7408      4E4F5449 
 7409              	.LASF395:
 7410 2e37 4359424C 		.ascii	"CYBLE_EVT_HRSC_NOTIFICATION\000"
 7410      455F4556 
 7410      545F4852 
 7410      53435F4E 
 7410      4F544946 
 7411              	.LASF23:
 7412 2e53 4359424C 		.ascii	"CYBLE_EVT_MEMORY_REQUEST\000"
 7412      455F4556 
 7412      545F4D45 
 7412      4D4F5259 
 7412      5F524551 
 7413              	.LASF251:
 7414 2e6c 4359424C 		.ascii	"CYBLE_EVT_AIOSC_READ_CHAR_RESPONSE\000"
 7414      455F4556 
 7414      545F4149 
 7414      4F53435F 
 7414      52454144 
 7415              	.LASF589:
 7416 2e8f 4379426C 		.ascii	"CyBle_Get16ByPtr\000"
 7416      655F4765 
 7416      74313642 
 7416      79507472 
 7416      00
 7417              	.LASF553:
 7418 2ea0 6C6F6352 		.ascii	"locReqHandle\000"
 7418      65714861 
 7418      6E646C65 
 7418      00
 7419              	.LASF473:
 7420 2ead 4359424C 		.ascii	"CYBLE_EVT_RSCSS_INDICATION_CONFIRMATION\000"
 7420      455F4556 
 7420      545F5253 
 7420      4353535F 
 7420      494E4449 
 7421              	.LASF556:
 7422 2ed5 6C6F6341 		.ascii	"locAttrValue\000"
 7422      74747256 
 7422      616C7565 
 7422      00
 7423              	.LASF382:
 7424 2ee2 4359424C 		.ascii	"CYBLE_EVT_HIDSC_READ_DESCR_RESPONSE\000"
 7424      455F4556 
 7424      545F4849 
 7424      4453435F 
 7424      52454144 
 7425              	.LASF544:
 7426 2f06 6E746652 		.ascii	"ntfReqParam\000"
ARM GAS  C:\Windows\TEMP\ccyNncCN.s 			page 179


 7426      65715061 
 7426      72616D00 
 7427              	.LASF396:
 7428 2f12 4359424C 		.ascii	"CYBLE_EVT_HRSC_READ_CHAR_RESPONSE\000"
 7428      455F4556 
 7428      545F4852 
 7428      53435F52 
 7428      4541445F 
 7429              	.LASF274:
 7430 2f34 4359424C 		.ascii	"CYBLE_EVT_BASC_NOTIFICATION\000"
 7430      455F4556 
 7430      545F4241 
 7430      53435F4E 
 7430      4F544946 
 7431              	.LASF547:
 7432 2f50 4379426C 		.ascii	"CyBle_AiosRegisterAttrCallback\000"
 7432      655F4169 
 7432      6F735265 
 7432      67697374 
 7432      65724174 
 7433              	.LASF33:
 7434 2f6f 4359424C 		.ascii	"CYBLE_EVT_GAP_ENCRYPT_CHANGE\000"
 7434      455F4556 
 7434      545F4741 
 7434      505F454E 
 7434      43525950 
 7435              	.LASF575:
 7436 2f8c 4379426C 		.ascii	"CyBle_AiossSetCharacteristicValue\000"
 7436      655F4169 
 7436      6F737353 
 7436      65744368 
 7436      61726163 
 7437              	.LASF436:
 7438 2fae 4359424C 		.ascii	"CYBLE_EVT_NDCSC_READ_CHAR_RESPONSE\000"
 7438      455F4556 
 7438      545F4E44 
 7438      4353435F 
 7438      52454144 
 7439              	.LASF567:
 7440 2fd1 4379426C 		.ascii	"CyBle_AiossWriteEventHandler\000"
 7440      655F4169 
 7440      6F737357 
 7440      72697465 
 7440      4576656E 
 7441              	.LASF236:
 7442 2fee 4359424C 		.ascii	"CYBLE_EVT_GATTC_DESCR_DUPLICATION\000"
 7442      455F4556 
 7442      545F4741 
 7442      5454435F 
 7442      44455343 
 7443              	.LASF51:
 7444 3010 4359424C 		.ascii	"CYBLE_EVT_GATTS_XCNHG_MTU_REQ\000"
 7444      455F4556 
 7444      545F4741 
 7444      5454535F 
 7444      58434E48 
 7445              	.LASF385:
ARM GAS  C:\Windows\TEMP\ccyNncCN.s 			page 180


 7446 302e 4359424C 		.ascii	"CYBLE_EVT_HPSS_NOTIFICATION_DISABLED\000"
 7446      455F4556 
 7446      545F4850 
 7446      53535F4E 
 7446      4F544946 
 7447              	.LASF550:
 7448 3053 6C6F6343 		.ascii	"locCharIndex\000"
 7448      68617249 
 7448      6E646578 
 7448      00
 7449              	.LASF498:
 7450 3060 4359424C 		.ascii	"CYBLE_EVT_UDSS_NOTIFICATION_ENABLED\000"
 7450      455F4556 
 7450      545F5544 
 7450      53535F4E 
 7450      4F544946 
 7451              	.LASF246:
 7452 3084 4359424C 		.ascii	"CYBLE_EVT_AIOSS_INDICATION_CONFIRMED\000"
 7452      455F4556 
 7452      545F4149 
 7452      4F53535F 
 7452      494E4449 
 7453              	.LASF426:
 7454 30a9 4359424C 		.ascii	"CYBLE_EVT_LNSS_INDICATION_CONFIRMED\000"
 7454      455F4556 
 7454      545F4C4E 
 7454      53535F49 
 7454      4E444943 
 7455              	.LASF47:
 7456 30cd 4359424C 		.ascii	"CYBLE_EVT_GAP_SMP_LOC_P256_KEYS_GEN_AND_SET_COMPLET"
 7456      455F4556 
 7456      545F4741 
 7456      505F534D 
 7456      505F4C4F 
 7457 3100 4500     		.ascii	"E\000"
 7458              	.LASF271:
 7459 3102 4359424C 		.ascii	"CYBLE_EVT_ANSC_WRITE_DESCR_RESPONSE\000"
 7459      455F4556 
 7459      545F414E 
 7459      53435F57 
 7459      52495445 
 7460              	.LASF432:
 7461 3126 4359424C 		.ascii	"CYBLE_EVT_LNSC_READ_CHAR_RESPONSE\000"
 7461      455F4556 
 7461      545F4C4E 
 7461      53435F52 
 7461      4541445F 
 7462              	.LASF362:
 7463 3148 4359424C 		.ascii	"CYBLE_EVT_GLSS_INDICATION_CONFIRMED\000"
 7463      455F4556 
 7463      545F474C 
 7463      53535F49 
 7463      4E444943 
 7464              	.LASF534:
 7465 316c 4359424C 		.ascii	"CYBLE_STATE_T\000"
 7465      455F5354 
 7465      4154455F 
ARM GAS  C:\Windows\TEMP\ccyNncCN.s 			page 181


 7465      5400
 7466              	.LASF227:
 7467 317a 4359424C 		.ascii	"CYBLE_EVT_GATTS_INDICATION_ENABLED\000"
 7467      455F4556 
 7467      545F4741 
 7467      5454535F 
 7467      494E4449 
 7468              	.LASF7:
 7469 319d 6C6F6E67 		.ascii	"long long unsigned int\000"
 7469      206C6F6E 
 7469      6720756E 
 7469      7369676E 
 7469      65642069 
 7470              	.LASF125:
 7471 31b4 4359424C 		.ascii	"CYBLE_GATT_ERR_INVALID_HANDLE\000"
 7471      455F4741 
 7471      54545F45 
 7471      52525F49 
 7471      4E56414C 
 7472              	.LASF19:
 7473 31d2 4359424C 		.ascii	"CYBLE_EVT_TIMEOUT\000"
 7473      455F4556 
 7473      545F5449 
 7473      4D454F55 
 7473      5400
 7474              	.LASF343:
 7475 31e4 4359424C 		.ascii	"CYBLE_EVT_CTSC_READ_DESCR_RESPONSE\000"
 7475      455F4556 
 7475      545F4354 
 7475      53435F52 
 7475      4541445F 
 7476              	.LASF149:
 7477 3207 4359424C 		.ascii	"CYBLE_GATT_ERR_MISSING_CRC\000"
 7477      455F4741 
 7477      54545F45 
 7477      52525F4D 
 7477      49535349 
 7478              	.LASF121:
 7479 3222 4359424C 		.ascii	"CYBLE_ERROR_INVALID_STATE\000"
 7479      455F4552 
 7479      524F525F 
 7479      494E5641 
 7479      4C49445F 
 7480              	.LASF164:
 7481 323c 4359424C 		.ascii	"CYBLE_GATT_DB_ATTR_HANDLE_T\000"
 7481      455F4741 
 7481      54545F44 
 7481      425F4154 
 7481      54525F48 
 7482              	.LASF244:
 7483 3258 4359424C 		.ascii	"CYBLE_EVT_AIOSS_INDICATION_ENABLED\000"
 7483      455F4556 
 7483      545F4149 
 7483      4F53535F 
 7483      494E4449 
 7484              	.LASF80:
 7485 327b 4359424C 		.ascii	"CYBLE_EVT_L2CAP_CBFC_DATA_READ\000"
ARM GAS  C:\Windows\TEMP\ccyNncCN.s 			page 182


 7485      455F4556 
 7485      545F4C32 
 7485      4341505F 
 7485      43424643 
 7486              	.LASF124:
 7487 329a 4359424C 		.ascii	"CYBLE_GATT_ERR_NONE\000"
 7487      455F4741 
 7487      54545F45 
 7487      52525F4E 
 7487      4F4E4500 
 7488              	.LASF170:
 7489 32ae 76616C75 		.ascii	"value\000"
 7489      6500
 7490              	.LASF319:
 7491 32b4 4359424C 		.ascii	"CYBLE_EVT_CPSC_NOTIFICATION\000"
 7491      455F4556 
 7491      545F4350 
 7491      53435F4E 
 7491      4F544946 
 7492              	.LASF294:
 7493 32d0 4359424C 		.ascii	"CYBLE_EVT_BLSC_WRITE_DESCR_RESPONSE\000"
 7493      455F4556 
 7493      545F424C 
 7493      53435F57 
 7493      52495445 
 7494              	.LASF212:
 7495 32f4 63686172 		.ascii	"charInfoPtr\000"
 7495      496E666F 
 7495      50747200 
 7496              	.LASF191:
 7497 3300 61747456 		.ascii	"attValue\000"
 7497      616C7565 
 7497      00
 7498              	.LASF431:
 7499 3309 4359424C 		.ascii	"CYBLE_EVT_LNSC_NOTIFICATION\000"
 7499      455F4556 
 7499      545F4C4E 
 7499      53435F4E 
 7499      4F544946 
 7500              	.LASF341:
 7501 3325 4359424C 		.ascii	"CYBLE_EVT_CTSC_NOTIFICATION\000"
 7501      455F4556 
 7501      545F4354 
 7501      53435F4E 
 7501      4F544946 
 7502              	.LASF114:
 7503 3341 4359424C 		.ascii	"CYBLE_ERROR_FLASH_WRITE\000"
 7503      455F4552 
 7503      524F525F 
 7503      464C4153 
 7503      485F5752 
 7504              	.LASF361:
 7505 3359 4359424C 		.ascii	"CYBLE_EVT_GLSS_INDICATION_DISABLED\000"
 7505      455F4556 
 7505      545F474C 
 7505      53535F49 
 7505      4E444943 
ARM GAS  C:\Windows\TEMP\ccyNncCN.s 			page 183


 7506              	.LASF146:
 7507 337c 4359424C 		.ascii	"CYBLE_GATT_ERR_HTS_OUT_OF_RANGE\000"
 7507      455F4741 
 7507      54545F45 
 7507      52525F48 
 7507      54535F4F 
 7508              	.LASF444:
 7509 339c 4359424C 		.ascii	"CYBLE_EVT_OTSC_READ_BLOB_RSP\000"
 7509      455F4556 
 7509      545F4F54 
 7509      53435F52 
 7509      4541445F 
 7510              	.LASF247:
 7511 33b9 4359424C 		.ascii	"CYBLE_EVT_AIOSS_CHAR_WRITE\000"
 7511      455F4556 
 7511      545F4149 
 7511      4F53535F 
 7511      43484152 
 7512              	.LASF234:
 7513 33d4 4359424C 		.ascii	"CYBLE_EVT_GATTC_SRVC_DUPLICATION\000"
 7513      455F4556 
 7513      545F4741 
 7513      5454435F 
 7513      53525643 
 7514              	.LASF574:
 7515 33f5 64657363 		.ascii	"descInd\000"
 7515      496E6400 
 7516              	.LASF424:
 7517 33fd 4359424C 		.ascii	"CYBLE_EVT_LNSS_INDICATION_ENABLED\000"
 7517      455F4556 
 7517      545F4C4E 
 7517      53535F49 
 7517      4E444943 
 7518              	.LASF257:
 7519 341f 4359424C 		.ascii	"CYBLE_EVT_ANCSS_NOTIFICATION_DISABLED\000"
 7519      455F4556 
 7519      545F414E 
 7519      4353535F 
 7519      4E4F5449 
 7520              	.LASF175:
 7521 3445 636F6E6E 		.ascii	"connHandle\000"
 7521      48616E64 
 7521      6C6500
 7522              	.LASF178:
 7523 3450 61637475 		.ascii	"actualLength\000"
 7523      616C4C65 
 7523      6E677468 
 7523      00
 7524              	.LASF273:
 7525 345d 4359424C 		.ascii	"CYBLE_EVT_BASS_NOTIFICATION_DISABLED\000"
 7525      455F4556 
 7525      545F4241 
 7525      53535F4E 
 7525      4F544946 
 7526              	.LASF456:
 7527 3482 4359424C 		.ascii	"CYBLE_EVT_PLXSS_WRITE_CHAR\000"
 7527      455F4556 
ARM GAS  C:\Windows\TEMP\ccyNncCN.s 			page 184


 7527      545F504C 
 7527      5853535F 
 7527      57524954 
 7528              	.LASF311:
 7529 349d 4359424C 		.ascii	"CYBLE_EVT_CPSS_NOTIFICATION_ENABLED\000"
 7529      455F4556 
 7529      545F4350 
 7529      53535F4E 
 7529      4F544946 
 7530              	.LASF493:
 7531 34c1 4359424C 		.ascii	"CYBLE_EVT_TPSC_READ_DESCR_RESPONSE\000"
 7531      455F4556 
 7531      545F5450 
 7531      53435F52 
 7531      4541445F 
 7532              	.LASF580:
 7533 34e4 6379426C 		.ascii	"cyBle_pendingFlashWrite\000"
 7533      655F7065 
 7533      6E64696E 
 7533      67466C61 
 7533      73685772 
 7534              	.LASF508:
 7535 34fc 4359424C 		.ascii	"CYBLE_EVT_UDSC_ERROR_RESPONSE\000"
 7535      455F4556 
 7535      545F5544 
 7535      53435F45 
 7535      52524F52 
 7536              	.LASF55:
 7537 351a 4359424C 		.ascii	"CYBLE_EVT_GATTC_FIND_INFO_RSP\000"
 7537      455F4556 
 7537      545F4741 
 7537      5454435F 
 7537      46494E44 
 7538              	.LASF54:
 7539 3538 4359424C 		.ascii	"CYBLE_EVT_GATTC_READ_BY_TYPE_RSP\000"
 7539      455F4556 
 7539      545F4741 
 7539      5454435F 
 7539      52454144 
 7540              	.LASF450:
 7541 3559 4359424C 		.ascii	"CYBLE_EVT_PASSS_NOTIFICATION_DISABLED\000"
 7541      455F4556 
 7541      545F5041 
 7541      5353535F 
 7541      4E4F5449 
 7542              	.LASF309:
 7543 357f 4359424C 		.ascii	"CYBLE_EVT_CGMSC_READ_DESCR_RESPONSE\000"
 7543      455F4556 
 7543      545F4347 
 7543      4D53435F 
 7543      52454144 
 7544              	.LASF380:
 7545 35a3 4359424C 		.ascii	"CYBLE_EVT_HIDSC_READ_CHAR_RESPONSE\000"
 7545      455F4556 
 7545      545F4849 
 7545      4453435F 
 7545      52454144 
ARM GAS  C:\Windows\TEMP\ccyNncCN.s 			page 185


 7546              	.LASF151:
 7547 35c6 4359424C 		.ascii	"CYBLE_GATTS_ERR_OPERATION_FAILED\000"
 7547      455F4741 
 7547      5454535F 
 7547      4552525F 
 7547      4F504552 
 7548              	.LASF216:
 7549 35e7 4359424C 		.ascii	"CYBLE_AIOSS_T\000"
 7549      455F4149 
 7549      4F53535F 
 7549      5400
 7550              	.LASF538:
 7551 35f5 61706952 		.ascii	"apiResult\000"
 7551      6573756C 
 7551      7400
 7552              	.LASF585:
 7553 35ff 6379426C 		.ascii	"cyBle_state\000"
 7553      655F7374 
 7553      61746500 
 7554              	.LASF490:
 7555 360b 4359424C 		.ascii	"CYBLE_EVT_TPSS_NOTIFICATION_DISABLED\000"
 7555      455F4556 
 7555      545F5450 
 7555      53535F4E 
 7555      4F544946 
 7556              	.LASF487:
 7557 3630 4359424C 		.ascii	"CYBLE_EVT_SCPSC_READ_DESCR_RESPONSE\000"
 7557      455F4556 
 7557      545F5343 
 7557      5053435F 
 7557      52454144 
 7558              	.LASF399:
 7559 3654 4359424C 		.ascii	"CYBLE_EVT_HRSC_WRITE_DESCR_RESPONSE\000"
 7559      455F4556 
 7559      545F4852 
 7559      53435F57 
 7559      52495445 
 7560              	.LASF115:
 7561 3678 4359424C 		.ascii	"CYBLE_ERROR_LL_SAME_TRANSACTION_COLLISION\000"
 7561      455F4552 
 7561      524F525F 
 7561      4C4C5F53 
 7561      414D455F 
 7562              	.LASF429:
 7563 36a2 4359424C 		.ascii	"CYBLE_EVT_LNSS_WRITE_CHAR\000"
 7563      455F4556 
 7563      545F4C4E 
 7563      53535F57 
 7563      52495445 
 7564              	.LASF558:
 7565 36bc 63757272 		.ascii	"currentDescriptionValue\000"
 7565      656E7444 
 7565      65736372 
 7565      69707469 
 7565      6F6E5661 
 7566              	.LASF352:
 7567 36d4 4359424C 		.ascii	"CYBLE_EVT_ESSS_CHAR_WRITE\000"
ARM GAS  C:\Windows\TEMP\ccyNncCN.s 			page 186


 7567      455F4556 
 7567      545F4553 
 7567      53535F43 
 7567      4841525F 
 7568              	.LASF61:
 7569 36ee 4359424C 		.ascii	"CYBLE_EVT_GATTC_WRITE_RSP\000"
 7569      455F4556 
 7569      545F4741 
 7569      5454435F 
 7569      57524954 
 7570              	.LASF347:
 7571 3708 4359424C 		.ascii	"CYBLE_EVT_ESSS_NOTIFICATION_ENABLED\000"
 7571      455F4556 
 7571      545F4553 
 7571      53535F4E 
 7571      4F544946 
 7572              	.LASF533:
 7573 372c 4359424C 		.ascii	"CYBLE_STATE_DISCONNECTED\000"
 7573      455F5354 
 7573      4154455F 
 7573      44495343 
 7573      4F4E4E45 
 7574              	.LASF186:
 7575 3745 4359424C 		.ascii	"CYBLE_GATTS_ATT_VALUE_T\000"
 7575      455F4741 
 7575      5454535F 
 7575      4154545F 
 7575      56414C55 
 7576              	.LASF595:
 7577 375d 4379426C 		.ascii	"CyBle_AiosInit\000"
 7577      655F4169 
 7577      6F73496E 
 7577      697400
 7578              	.LASF552:
 7579 376c 6C6F6343 		.ascii	"locCharInstance\000"
 7579      68617249 
 7579      6E737461 
 7579      6E636500 
 7580              	.LASF475:
 7581 377c 4359424C 		.ascii	"CYBLE_EVT_RSCSC_NOTIFICATION\000"
 7581      455F4556 
 7581      545F5253 
 7581      4353435F 
 7581      4E4F5449 
 7582              	.LASF183:
 7583 3799 4359424C 		.ascii	"CYBLE_GATTS_ATT_PACK_VAL_LEN_T\000"
 7583      455F4741 
 7583      5454535F 
 7583      4154545F 
 7583      5041434B 
 7584              	.LASF30:
 7585 37b8 4359424C 		.ascii	"CYBLE_EVT_GAPP_ADVERTISEMENT_START_STOP\000"
 7585      455F4556 
 7585      545F4741 
 7585      50505F41 
 7585      44564552 
 7586              	.LASF287:
ARM GAS  C:\Windows\TEMP\ccyNncCN.s 			page 187


 7587 37e0 4359424C 		.ascii	"CYBLE_EVT_BLSS_INDICATION_CONFIRMED\000"
 7587      455F4556 
 7587      545F424C 
 7587      53535F49 
 7587      4E444943 
 7588              	.LASF519:
 7589 3804 4359424C 		.ascii	"CYBLE_EVT_WPTSC_READ_DESCR_RESPONSE\000"
 7589      455F4556 
 7589      545F5750 
 7589      5453435F 
 7589      52454144 
 7590              	.LASF259:
 7591 3828 4359424C 		.ascii	"CYBLE_EVT_ANCSC_NOTIFICATION\000"
 7591      455F4556 
 7591      545F414E 
 7591      4353435F 
 7591      4E4F5449 
 7592              	.LASF179:
 7593 3845 61747447 		.ascii	"attGenericVal\000"
 7593      656E6572 
 7593      69635661 
 7593      6C00
 7594              	.LASF209:
 7595 3853 63686172 		.ascii	"charHandle\000"
 7595      48616E64 
 7595      6C6500
 7596              	.LASF468:
 7597 385e 4359424C 		.ascii	"CYBLE_EVT_PLXSC_TIMEOUT\000"
 7597      455F4556 
 7597      545F504C 
 7597      5853435F 
 7597      54494D45 
 7598              	.LASF308:
 7599 3876 4359424C 		.ascii	"CYBLE_EVT_CGMSC_WRITE_CHAR_RESPONSE\000"
 7599      455F4556 
 7599      545F4347 
 7599      4D53435F 
 7599      57524954 
 7600              	.LASF9:
 7601 389a 75696E74 		.ascii	"uint8\000"
 7601      3800
 7602              	.LASF408:
 7603 38a0 4359424C 		.ascii	"CYBLE_EVT_HTSC_READ_CHAR_RESPONSE\000"
 7603      455F4556 
 7603      545F4854 
 7603      53435F52 
 7603      4541445F 
 7604              	.LASF38:
 7605 38c2 4359424C 		.ascii	"CYBLE_EVT_GAP_KEYPRESS_NOTIFICATION\000"
 7605      455F4556 
 7605      545F4741 
 7605      505F4B45 
 7605      59505245 
 7606              	.LASF455:
 7607 38e6 4359424C 		.ascii	"CYBLE_EVT_PASSC_WRITE_DESCR_RESPONSE\000"
 7607      455F4556 
 7607      545F5041 
ARM GAS  C:\Windows\TEMP\ccyNncCN.s 			page 188


 7607      5353435F 
 7607      57524954 
 7608              	.LASF2:
 7609 390b 73686F72 		.ascii	"short int\000"
 7609      7420696E 
 7609      7400
 7610              	.LASF176:
 7611 3915 68616E64 		.ascii	"handleValPair\000"
 7611      6C655661 
 7611      6C506169 
 7611      7200
 7612              	.LASF295:
 7613 3923 4359424C 		.ascii	"CYBLE_EVT_BMSS_WRITE_CHAR\000"
 7613      455F4556 
 7613      545F424D 
 7613      53535F57 
 7613      52495445 
 7614              	.LASF182:
 7615 393d 61747447 		.ascii	"attGenericValLen\000"
 7615      656E6572 
 7615      69635661 
 7615      6C4C656E 
 7615      00
 7616              	.LASF184:
 7617 394e 61747446 		.ascii	"attFormatValue\000"
 7617      6F726D61 
 7617      7456616C 
 7617      756500
 7618              	.LASF252:
 7619 395d 4359424C 		.ascii	"CYBLE_EVT_AIOSC_WRITE_CHAR_RESPONSE\000"
 7619      455F4556 
 7619      545F4149 
 7619      4F53435F 
 7619      57524954 
 7620              	.LASF112:
 7621 3981 4359424C 		.ascii	"CYBLE_ERROR_HARDWARE_FAILURE\000"
 7621      455F4552 
 7621      524F525F 
 7621      48415244 
 7621      57415245 
 7622              	.LASF145:
 7623 399e 4359424C 		.ascii	"CYBLE_GATT_ERR_CPS_INAPPROPRIATE_CONNECTION_PARAMET"
 7623      455F4741 
 7623      54545F45 
 7623      52525F43 
 7623      50535F49 
 7624 39d1 45525300 		.ascii	"ERS\000"
 7625              	.LASF306:
 7626 39d5 4359424C 		.ascii	"CYBLE_EVT_CGMSC_NOTIFICATION\000"
 7626      455F4556 
 7626      545F4347 
 7626      4D53435F 
 7626      4E4F5449 
 7627              	.LASF130:
 7628 39f2 4359424C 		.ascii	"CYBLE_GATT_ERR_REQUEST_NOT_SUPPORTED\000"
 7628      455F4741 
 7628      54545F45 
ARM GAS  C:\Windows\TEMP\ccyNncCN.s 			page 189


 7628      52525F52 
 7628      45515545 
 7629              	.LASF48:
 7630 3a17 4359424C 		.ascii	"CYBLE_EVT_GATTC_ERROR_RSP\000"
 7630      455F4556 
 7630      545F4741 
 7630      5454435F 
 7630      4552524F 
 7631              	.LASF357:
 7632 3a31 4359424C 		.ascii	"CYBLE_EVT_ESSC_WRITE_CHAR_RESPONSE\000"
 7632      455F4556 
 7632      545F4553 
 7632      53435F57 
 7632      52495445 
 7633              	.LASF263:
 7634 3a54 4359424C 		.ascii	"CYBLE_EVT_ANCSC_ERROR_RESPONSE\000"
 7634      455F4556 
 7634      545F414E 
 7634      4353435F 
 7634      4552524F 
 7635              	.LASF277:
 7636 3a73 4359424C 		.ascii	"CYBLE_EVT_BASC_WRITE_DESCR_RESPONSE\000"
 7636      455F4556 
 7636      545F4241 
 7636      53435F57 
 7636      52495445 
 7637              	.LASF230:
 7638 3a97 4359424C 		.ascii	"CYBLE_EVT_GATTC_SRVC_DISCOVERY_FAILED\000"
 7638      455F4556 
 7638      545F4741 
 7638      5454435F 
 7638      53525643 
 7639              	.LASF360:
 7640 3abd 4359424C 		.ascii	"CYBLE_EVT_GLSS_INDICATION_ENABLED\000"
 7640      455F4556 
 7640      545F474C 
 7640      53535F49 
 7640      4E444943 
 7641              	.LASF266:
 7642 3adf 4359424C 		.ascii	"CYBLE_EVT_ANSS_CHAR_WRITE\000"
 7642      455F4556 
 7642      545F414E 
 7642      53535F43 
 7642      4841525F 
 7643              	.LASF76:
 7644 3af9 4359424C 		.ascii	"CYBLE_EVT_L2CAP_CBFC_CONN_IND\000"
 7644      455F4556 
 7644      545F4C32 
 7644      4341505F 
 7644      43424643 
 7645              	.LASF64:
 7646 3b17 4359424C 		.ascii	"CYBLE_EVT_GATTS_EXEC_WRITE_REQ\000"
 7646      455F4556 
 7646      545F4741 
 7646      5454535F 
 7646      45584543 
 7647              	.LASF24:
ARM GAS  C:\Windows\TEMP\ccyNncCN.s 			page 190


 7648 3b36 4359424C 		.ascii	"CYBLE_EVT_GAPC_SCAN_PROGRESS_RESULT\000"
 7648      455F4556 
 7648      545F4741 
 7648      50435F53 
 7648      43414E5F 
 7649              	.LASF389:
 7650 3b5a 4359424C 		.ascii	"CYBLE_EVT_HPSC_READ_DESCR_RESPONSE\000"
 7650      455F4556 
 7650      545F4850 
 7650      53435F52 
 7650      4541445F 
 7651              	.LASF340:
 7652 3b7d 4359424C 		.ascii	"CYBLE_EVT_CTSS_CHAR_WRITE\000"
 7652      455F4556 
 7652      545F4354 
 7652      53535F43 
 7652      4841525F 
 7653              	.LASF208:
 7654 3b97 4359424C 		.ascii	"CYBLE_AIOS_DESCR_INDEX_T\000"
 7654      455F4149 
 7654      4F535F44 
 7654      45534352 
 7654      5F494E44 
 7655              	.LASF495:
 7656 3bb0 4359424C 		.ascii	"CYBLE_EVT_UDSS_INDICATION_ENABLED\000"
 7656      455F4556 
 7656      545F5544 
 7656      53535F49 
 7656      4E444943 
 7657              	.LASF420:
 7658 3bd2 4359424C 		.ascii	"CYBLE_EVT_IPSC_READ_BLOB_RSP\000"
 7658      455F4556 
 7658      545F4950 
 7658      53435F52 
 7658      4541445F 
 7659              	.LASF163:
 7660 3bef 4359424C 		.ascii	"CYBLE_GATT_ERR_CODE_T\000"
 7660      455F4741 
 7660      54545F45 
 7660      52525F43 
 7660      4F44455F 
 7661              	.LASF158:
 7662 3c05 4359424C 		.ascii	"CYBLE_GATT_ERR_ANCS_INVALID_PARAMETER\000"
 7662      455F4741 
 7662      54545F45 
 7662      52525F41 
 7662      4E43535F 
 7663              	.LASF98:
 7664 3c2b 4359424C 		.ascii	"CYBLE_ERROR_GAP_ROLE\000"
 7664      455F4552 
 7664      524F525F 
 7664      4741505F 
 7664      524F4C45 
 7665              	.LASF402:
 7666 3c40 4359424C 		.ascii	"CYBLE_EVT_HTSS_INDICATION_ENABLED\000"
 7666      455F4556 
 7666      545F4854 
ARM GAS  C:\Windows\TEMP\ccyNncCN.s 			page 191


 7666      53535F49 
 7666      4E444943 
 7667              	.LASF440:
 7668 3c62 4359424C 		.ascii	"CYBLE_EVT_OTSS_WRITE_CHAR\000"
 7668      455F4556 
 7668      545F4F54 
 7668      53535F57 
 7668      52495445 
 7669              	.LASF506:
 7670 3c7c 4359424C 		.ascii	"CYBLE_EVT_UDSC_READ_DESCR_RESPONSE\000"
 7670      455F4556 
 7670      545F5544 
 7670      53435F52 
 7670      4541445F 
 7671              	.LASF248:
 7672 3c9f 4359424C 		.ascii	"CYBLE_EVT_AIOSS_DESCR_WRITE\000"
 7672      455F4556 
 7672      545F4149 
 7672      4F53535F 
 7672      44455343 
 7673              	.LASF45:
 7674 3cbb 4359424C 		.ascii	"CYBLE_EVT_GAP_SCAN_REQ_RECVD\000"
 7674      455F4556 
 7674      545F4741 
 7674      505F5343 
 7674      414E5F52 
 7675              	.LASF275:
 7676 3cd8 4359424C 		.ascii	"CYBLE_EVT_BASC_READ_CHAR_RESPONSE\000"
 7676      455F4556 
 7676      545F4241 
 7676      53435F52 
 7676      4541445F 
 7677              	.LASF367:
 7678 3cfa 4359424C 		.ascii	"CYBLE_EVT_GLSC_NOTIFICATION\000"
 7678      455F4556 
 7678      545F474C 
 7678      53435F4E 
 7678      4F544946 
 7679              	.LASF155:
 7680 3d16 4359424C 		.ascii	"CYBLE_GATT_ERR_ANS_COMMAND_NOT_SUPPORTED\000"
 7680      455F4741 
 7680      54545F45 
 7680      52525F41 
 7680      4E535F43 
 7681              	.LASF485:
 7682 3d3f 4359424C 		.ascii	"CYBLE_EVT_SCPSS_SCAN_INT_WIN_CHAR_WRITE\000"
 7682      455F4556 
 7682      545F5343 
 7682      5053535F 
 7682      5343414E 
 7683              	.LASF579:
 7684 3d67 6379426C 		.ascii	"cyBle_eventHandlerFlag\000"
 7684      655F6576 
 7684      656E7448 
 7684      616E646C 
 7684      6572466C 
 7685              	.LASF228:
ARM GAS  C:\Windows\TEMP\ccyNncCN.s 			page 192


 7686 3d7e 4359424C 		.ascii	"CYBLE_EVT_GATTS_INDICATION_DISABLED\000"
 7686      455F4556 
 7686      545F4741 
 7686      5454535F 
 7686      494E4449 
 7687              	.LASF95:
 7688 3da2 4359424C 		.ascii	"CYBLE_ERROR_NO_CONNECTION\000"
 7688      455F4552 
 7688      524F525F 
 7688      4E4F5F43 
 7688      4F4E4E45 
 7689              	.LASF596:
 7690 3dbc 6D656D63 		.ascii	"memcpy\000"
 7690      707900
 7691              	.LASF298:
 7692 3dc3 4359424C 		.ascii	"CYBLE_EVT_BMSC_READ_DESCR_RESPONSE\000"
 7692      455F4556 
 7692      545F424D 
 7692      53435F52 
 7692      4541445F 
 7693              	.LASF85:
 7694 3de6 4359424C 		.ascii	"CYBLE_EVT_LE_PING_AUTH_TIMEOUT\000"
 7694      455F4556 
 7694      545F4C45 
 7694      5F50494E 
 7694      475F4155 
 7695              	.LASF123:
 7696 3e05 4359424C 		.ascii	"CYBLE_API_RESULT_T\000"
 7696      455F4150 
 7696      495F5245 
 7696      53554C54 
 7696      5F5400
 7697              	.LASF300:
 7698 3e18 4359424C 		.ascii	"CYBLE_EVT_CGMSS_INDICATION_DISABLED\000"
 7698      455F4556 
 7698      545F4347 
 7698      4D53535F 
 7698      494E4449 
 7699              	.LASF241:
 7700 3e3c 4359424C 		.ascii	"CYBLE_EVT_GATTC_DISCOVERY_COMPLETE\000"
 7700      455F4556 
 7700      545F4741 
 7700      5454435F 
 7700      44495343 
 7701              	.LASF304:
 7702 3e5f 4359424C 		.ascii	"CYBLE_EVT_CGMSS_WRITE_CHAR\000"
 7702      455F4556 
 7702      545F4347 
 7702      4D53535F 
 7702      57524954 
 7703              	.LASF593:
 7704 3e7a 47656E65 		.ascii	"Generated_Source\\PSoC4\\Bluetooth_aios.c\000"
 7704      72617465 
 7704      645F536F 
 7704      75726365 
 7704      5C50536F 
 7705              	.LASF67:
ARM GAS  C:\Windows\TEMP\ccyNncCN.s 			page 193


 7706 3ea2 4359424C 		.ascii	"CYBLE_EVT_GATTC_HANDLE_VALUE_IND\000"
 7706      455F4556 
 7706      545F4741 
 7706      5454435F 
 7706      48414E44 
 7707              	.LASF325:
 7708 3ec3 4359424C 		.ascii	"CYBLE_EVT_CPSC_SCAN_PROGRESS_RESULT\000"
 7708      455F4556 
 7708      545F4350 
 7708      53435F53 
 7708      43414E5F 
 7709              	.LASF479:
 7710 3ee7 4359424C 		.ascii	"CYBLE_EVT_RSCSC_READ_DESCR_RESPONSE\000"
 7710      455F4556 
 7710      545F5253 
 7710      4353435F 
 7710      52454144 
 7711              	.LASF101:
 7712 3f0b 4359424C 		.ascii	"CYBLE_ERROR_SEC_FAILED\000"
 7712      455F4552 
 7712      524F525F 
 7712      5345435F 
 7712      4641494C 
 7713              	.LASF22:
 7714 3f22 4359424C 		.ascii	"CYBLE_EVT_STACK_BUSY_STATUS\000"
 7714      455F4556 
 7714      545F5354 
 7714      41434B5F 
 7714      42555359 
 7715              	.LASF419:
 7716 3f3e 4359424C 		.ascii	"CYBLE_EVT_IPSC_ERROR_RESPONSE\000"
 7716      455F4556 
 7716      545F4950 
 7716      53435F45 
 7716      52524F52 
 7717              	.LASF411:
 7718 3f5c 4359424C 		.ascii	"CYBLE_EVT_HTSC_WRITE_DESCR_RESPONSE\000"
 7718      455F4556 
 7718      545F4854 
 7718      53435F57 
 7718      52495445 
 7719              	.LASF36:
 7720 3f80 4359424C 		.ascii	"CYBLE_EVT_GAP_KEYINFO_EXCHNGE_CMPLT\000"
 7720      455F4556 
 7720      545F4741 
 7720      505F4B45 
 7720      59494E46 
 7721              	.LASF520:
 7722 3fa4 4359424C 		.ascii	"CYBLE_EVT_WPTSC_WRITE_DESCR_RESPONSE\000"
 7722      455F4556 
 7722      545F5750 
 7722      5453435F 
 7722      57524954 
 7723              	.LASF571:
 7724 3fc9 77724465 		.ascii	"wrDescrReqParam\000"
 7724      73637252 
 7724      65715061 
ARM GAS  C:\Windows\TEMP\ccyNncCN.s 			page 194


 7724      72616D00 
 7725              	.LASF73:
 7726 3fd9 4359424C 		.ascii	"CYBLE_EVT_L2CAP_CONN_PARAM_UPDATE_REQ\000"
 7726      455F4556 
 7726      545F4C32 
 7726      4341505F 
 7726      434F4E4E 
 7727              	.LASF303:
 7728 3fff 4359424C 		.ascii	"CYBLE_EVT_CGMSS_NOTIFICATION_DISABLED\000"
 7728      455F4556 
 7728      545F4347 
 7728      4D53535F 
 7728      4E4F5449 
 7729              	.LASF203:
 7730 4025 4359424C 		.ascii	"CYBLE_AIOS_VALUE_TRIGGER_SETTINGS\000"
 7730      455F4149 
 7730      4F535F56 
 7730      414C5545 
 7730      5F545249 
 7731              	.LASF559:
 7732 4047 6D696E44 		.ascii	"minDescriptionValue\000"
 7732      65736372 
 7732      69707469 
 7732      6F6E5661 
 7732      6C756500 
 7733              	.LASF548:
 7734 405b 4379426C 		.ascii	"CyBle_AiossConfirmationEventHandler\000"
 7734      655F4169 
 7734      6F737343 
 7734      6F6E6669 
 7734      726D6174 
 7735              	.LASF555:
 7736 407f 67617474 		.ascii	"gattErr\000"
 7736      45727200 
 7737              	.LASF231:
 7738 4087 4359424C 		.ascii	"CYBLE_EVT_GATTC_INCL_DISCOVERY_FAILED\000"
 7738      455F4556 
 7738      545F4741 
 7738      5454435F 
 7738      494E434C 
 7739              	.LASF127:
 7740 40ad 4359424C 		.ascii	"CYBLE_GATT_ERR_WRITE_NOT_PERMITTED\000"
 7740      455F4741 
 7740      54545F45 
 7740      52525F57 
 7740      52495445 
 7741              	.LASF3:
 7742 40d0 73686F72 		.ascii	"short unsigned int\000"
 7742      7420756E 
 7742      7369676E 
 7742      65642069 
 7742      6E7400
 7743              	.LASF139:
 7744 40e3 4359424C 		.ascii	"CYBLE_GATT_ERR_INSUFFICIENT_ENCRYPTION\000"
 7744      455F4741 
 7744      54545F45 
 7744      52525F49 
ARM GAS  C:\Windows\TEMP\ccyNncCN.s 			page 195


 7744      4E535546 
 7745              	.LASF269:
 7746 410a 4359424C 		.ascii	"CYBLE_EVT_ANSC_WRITE_CHAR_RESPONSE\000"
 7746      455F4556 
 7746      545F414E 
 7746      53435F57 
 7746      52495445 
 7747              	.LASF434:
 7748 412d 4359424C 		.ascii	"CYBLE_EVT_LNSC_READ_DESCR_RESPONSE\000"
 7748      455F4556 
 7748      545F4C4E 
 7748      53435F52 
 7748      4541445F 
 7749              	.LASF531:
 7750 4150 4359424C 		.ascii	"CYBLE_STATE_CONNECTED\000"
 7750      455F5354 
 7750      4154455F 
 7750      434F4E4E 
 7750      45435445 
 7751              	.LASF168:
 7752 4166 61637475 		.ascii	"actualLen\000"
 7752      616C4C65 
 7752      6E00
 7753              	.LASF546:
 7754 4170 696E6452 		.ascii	"indReqParam\000"
 7754      65715061 
 7754      72616D00 
 7755              	.LASF560:
 7756 417c 6D696E44 		.ascii	"minDescriptionValueTmp\000"
 7756      65736372 
 7756      69707469 
 7756      6F6E5661 
 7756      6C756554 
 7757              	.LASF258:
 7758 4193 4359424C 		.ascii	"CYBLE_EVT_ANCSS_WRITE_CHAR\000"
 7758      455F4556 
 7758      545F414E 
 7758      4353535F 
 7758      57524954 
 7759              	.LASF240:
 7760 41ae 4359424C 		.ascii	"CYBLE_EVT_GATTC_DISC_SKIPPED_SERVICE\000"
 7760      455F4556 
 7760      545F4741 
 7760      5454435F 
 7760      44495343 
 7761              	.LASF366:
 7762 41d3 4359424C 		.ascii	"CYBLE_EVT_GLSC_INDICATION\000"
 7762      455F4556 
 7762      545F474C 
 7762      53435F49 
 7762      4E444943 
 7763              	.LASF317:
 7764 41ed 4359424C 		.ascii	"CYBLE_EVT_CPSS_BROADCAST_DISABLED\000"
 7764      455F4556 
 7764      545F4350 
 7764      53535F42 
 7764      524F4144 
ARM GAS  C:\Windows\TEMP\ccyNncCN.s 			page 196


 7765              	.LASF541:
 7766 420f 4379426C 		.ascii	"CyBle_AiossGetCharacteristicDescriptor\000"
 7766      655F4169 
 7766      6F737347 
 7766      65744368 
 7766      61726163 
 7767              	.LASF199:
 7768 4236 4359424C 		.ascii	"CYBLE_AIOS_CCCD\000"
 7768      455F4149 
 7768      4F535F43 
 7768      43434400 
 7769              	.LASF205:
 7770 4246 4359424C 		.ascii	"CYBLE_AIOS_VRD\000"
 7770      455F4149 
 7770      4F535F56 
 7770      524400
 7771              	.LASF166:
 7772 4255 61747449 		.ascii	"attId\000"
 7772      6400
 7773              	.LASF91:
 7774 425b 4359424C 		.ascii	"CYBLE_ERROR_INVALID_OPERATION\000"
 7774      455F4552 
 7774      524F525F 
 7774      494E5641 
 7774      4C49445F 
 7775              	.LASF21:
 7776 4279 4359424C 		.ascii	"CYBLE_EVT_HCI_STATUS\000"
 7776      455F4556 
 7776      545F4843 
 7776      495F5354 
 7776      41545553 
 7777              	.LASF588:
 7778 428e 4379426C 		.ascii	"CyBle_GattsNotification\000"
 7778      655F4761 
 7778      7474734E 
 7778      6F746966 
 7778      69636174 
 7779              	.LASF510:
 7780 42a6 4359424C 		.ascii	"CYBLE_EVT_WPTSS_NOTIFICATION_DISABLED\000"
 7780      455F4556 
 7780      545F5750 
 7780      5453535F 
 7780      4E4F5449 
 7781              	.LASF50:
 7782 42cc 4359424C 		.ascii	"CYBLE_EVT_GATT_DISCONNECT_IND\000"
 7782      455F4556 
 7782      545F4741 
 7782      54545F44 
 7782      4953434F 
 7783              	.LASF226:
 7784 42ea 4359424C 		.ascii	"CYBLE_KEY_EXCHANGE_INFO_REQUEST_REPLY\000"
 7784      455F4B45 
 7784      595F4558 
 7784      4348414E 
 7784      47455F49 
 7785              	.LASF83:
 7786 4310 4359424C 		.ascii	"CYBLE_EVT_L2CAP_CBFC_DATA_WRITE_IND\000"
ARM GAS  C:\Windows\TEMP\ccyNncCN.s 			page 197


 7786      455F4556 
 7786      545F4C32 
 7786      4341505F 
 7786      43424643 
 7787              	.LASF224:
 7788 4334 4359424C 		.ascii	"CYBLE_PASSKEY_ENTRY_REQUEST_REPLY\000"
 7788      455F5041 
 7788      53534B45 
 7788      595F454E 
 7788      5452595F 
 7789              	.LASF284:
 7790 4356 4359424C 		.ascii	"CYBLE_EVT_BCSC_WRITE_DESCR_RESPONSE\000"
 7790      455F4556 
 7790      545F4243 
 7790      53435F57 
 7790      52495445 
 7791              	.LASF207:
 7792 437a 4359424C 		.ascii	"CYBLE_AIOS_DESCR_COUNT\000"
 7792      455F4149 
 7792      4F535F44 
 7792      45534352 
 7792      5F434F55 
 7793              	.LASF525:
 7794 4391 4359424C 		.ascii	"CYBLE_EVT_WSSC_READ_CHAR_RESPONSE\000"
 7794      455F4556 
 7794      545F5753 
 7794      53435F52 
 7794      4541445F 
 7795              	.LASF72:
 7796 43b3 4359424C 		.ascii	"CYBLE_EVT_GATTC_LONG_PROCEDURE_END\000"
 7796      455F4556 
 7796      545F4741 
 7796      5454435F 
 7796      4C4F4E47 
 7797              	.LASF267:
 7798 43d6 4359424C 		.ascii	"CYBLE_EVT_ANSC_NOTIFICATION\000"
 7798      455F4556 
 7798      545F414E 
 7798      53435F4E 
 7798      4F544946 
 7799              	.LASF32:
 7800 43f2 4359424C 		.ascii	"CYBLE_EVT_GAP_DEVICE_DISCONNECTED\000"
 7800      455F4556 
 7800      545F4741 
 7800      505F4445 
 7800      56494345 
 7801              	.LASF374:
 7802 4414 4359424C 		.ascii	"CYBLE_EVT_HIDSS_BOOT_MODE_ENTER\000"
 7802      455F4556 
 7802      545F4849 
 7802      4453535F 
 7802      424F4F54 
 7803              	.LASF68:
 7804 4434 4359424C 		.ascii	"CYBLE_EVT_GATTS_HANDLE_VALUE_CNF\000"
 7804      455F4556 
 7804      545F4741 
 7804      5454535F 
ARM GAS  C:\Windows\TEMP\ccyNncCN.s 			page 198


 7804      48414E44 
 7805              	.LASF415:
 7806 4455 4359424C 		.ascii	"CYBLE_EVT_IPSC_READ_MULTIPLE_CHAR_RESPONSE\000"
 7806      455F4556 
 7806      545F4950 
 7806      53435F52 
 7806      4541445F 
 7807              	.LASF336:
 7808 4480 4359424C 		.ascii	"CYBLE_EVT_CSCSC_READ_DESCR_RESPONSE\000"
 7808      455F4556 
 7808      545F4353 
 7808      4353435F 
 7808      52454144 
 7809              	.LASF10:
 7810 44a4 75696E74 		.ascii	"uint16\000"
 7810      313600
 7811              	.LASF260:
 7812 44ab 4359424C 		.ascii	"CYBLE_EVT_ANCSC_WRITE_CHAR_RESPONSE\000"
 7812      455F4556 
 7812      545F414E 
 7812      4353435F 
 7812      57524954 
 7813              	.LASF99:
 7814 44cf 4359424C 		.ascii	"CYBLE_ERROR_TX_POWER_READ\000"
 7814      455F4552 
 7814      524F525F 
 7814      54585F50 
 7814      4F574552 
 7815              	.LASF469:
 7816 44e9 4359424C 		.ascii	"CYBLE_EVT_RSCSS_NOTIFICATION_ENABLED\000"
 7816      455F4556 
 7816      545F5253 
 7816      4353535F 
 7816      4E4F5449 
 7817              	.LASF265:
 7818 450e 4359424C 		.ascii	"CYBLE_EVT_ANSS_NOTIFICATION_DISABLED\000"
 7818      455F4556 
 7818      545F414E 
 7818      53535F4E 
 7818      4F544946 
 7819              	.LASF407:
 7820 4533 4359424C 		.ascii	"CYBLE_EVT_HTSC_INDICATION\000"
 7820      455F4556 
 7820      545F4854 
 7820      53435F49 
 7820      4E444943 
 7821              	.LASF372:
 7822 454d 4359424C 		.ascii	"CYBLE_EVT_HIDSS_NOTIFICATION_ENABLED\000"
 7822      455F4556 
 7822      545F4849 
 7822      4453535F 
 7822      4E4F5449 
 7823              	.LASF404:
 7824 4572 4359424C 		.ascii	"CYBLE_EVT_HTSS_INDICATION_CONFIRMED\000"
 7824      455F4556 
 7824      545F4854 
 7824      53535F49 
ARM GAS  C:\Windows\TEMP\ccyNncCN.s 			page 199


 7824      4E444943 
 7825              	.LASF243:
 7826 4596 4359424C 		.ascii	"CYBLE_EVT_AIOSS_NOTIFICATION_DISABLED\000"
 7826      455F4556 
 7826      545F4149 
 7826      4F53535F 
 7826      4E4F5449 
 7827              	.LASF220:
 7828 45bc 4359424C 		.ascii	"CYBLE_AIOS_CHAR_VALUE_T\000"
 7828      455F4149 
 7828      4F535F43 
 7828      4841525F 
 7828      56414C55 
 7829              	.LASF513:
 7830 45d4 4359424C 		.ascii	"CYBLE_EVT_WPTSS_INDICATION_CONFIRMED\000"
 7830      455F4556 
 7830      545F5750 
 7830      5453535F 
 7830      494E4449 
 7831              	.LASF394:
 7832 45f9 4359424C 		.ascii	"CYBLE_EVT_HRSS_NOTIFICATION_DISABLED\000"
 7832      455F4556 
 7832      545F4852 
 7832      53535F4E 
 7832      4F544946 
 7833              		.ident	"GCC: (GNU Tools for ARM Embedded Processors) 5.4.1 20160609 (release) [ARM/embedded-5-bran
