ARM GAS  C:\Windows\TEMP\ccTU3rlm.s 			page 1


   1              		.syntax unified
   2              		.cpu cortex-m0
   3              		.fpu softvfp
   4              		.eabi_attribute 20, 1
   5              		.eabi_attribute 21, 1
   6              		.eabi_attribute 23, 3
   7              		.eabi_attribute 24, 1
   8              		.eabi_attribute 25, 1
   9              		.eabi_attribute 26, 1
  10              		.eabi_attribute 30, 1
  11              		.eabi_attribute 34, 0
  12              		.eabi_attribute 18, 4
  13              		.thumb
  14              		.syntax unified
  15              		.file	"Bluetooth_eventHandler.c"
  16              		.text
  17              	.Ltext0:
  18              		.cfi_sections	.debug_frame
  19              		.section	.text.CyBle_GattDisconnectEventHandler,"ax",%progbits
  20              		.align	2
  21              		.code	16
  22              		.thumb_func
  23              		.type	CyBle_GattDisconnectEventHandler, %function
  24              	CyBle_GattDisconnectEventHandler:
  25              	.LFB4:
  26              		.file 1 "Generated_Source\\PSoC4\\Bluetooth_eventHandler.c"
   1:Generated_Source\PSoC4/Bluetooth_eventHandler.c **** /***************************************************************************//**
   2:Generated_Source\PSoC4/Bluetooth_eventHandler.c **** * \file CYBLE_eventHandler.c
   3:Generated_Source\PSoC4/Bluetooth_eventHandler.c **** * \version 3.66
   4:Generated_Source\PSoC4/Bluetooth_eventHandler.c **** * 
   5:Generated_Source\PSoC4/Bluetooth_eventHandler.c **** * \brief
   6:Generated_Source\PSoC4/Bluetooth_eventHandler.c **** *  This file contains the source code for the Event Handler State Machine
   7:Generated_Source\PSoC4/Bluetooth_eventHandler.c **** *  of the BLE Component.
   8:Generated_Source\PSoC4/Bluetooth_eventHandler.c **** * 
   9:Generated_Source\PSoC4/Bluetooth_eventHandler.c **** ********************************************************************************
  10:Generated_Source\PSoC4/Bluetooth_eventHandler.c **** * \copyright
  11:Generated_Source\PSoC4/Bluetooth_eventHandler.c **** * Copyright 2014-2020, Cypress Semiconductor Corporation.  All rights reserved.
  12:Generated_Source\PSoC4/Bluetooth_eventHandler.c **** * You may use this file only in accordance with the license, terms, conditions,
  13:Generated_Source\PSoC4/Bluetooth_eventHandler.c **** * disclaimers, and limitations in the end user license agreement accompanying
  14:Generated_Source\PSoC4/Bluetooth_eventHandler.c **** * the software package with which this file was provided.
  15:Generated_Source\PSoC4/Bluetooth_eventHandler.c **** *******************************************************************************/
  16:Generated_Source\PSoC4/Bluetooth_eventHandler.c **** 
  17:Generated_Source\PSoC4/Bluetooth_eventHandler.c **** #include "Bluetooth_eventHandler.h"
  18:Generated_Source\PSoC4/Bluetooth_eventHandler.c **** 
  19:Generated_Source\PSoC4/Bluetooth_eventHandler.c **** 
  20:Generated_Source\PSoC4/Bluetooth_eventHandler.c **** /***************************************
  21:Generated_Source\PSoC4/Bluetooth_eventHandler.c **** * Private Function Prototypes
  22:Generated_Source\PSoC4/Bluetooth_eventHandler.c **** ***************************************/
  23:Generated_Source\PSoC4/Bluetooth_eventHandler.c **** 
  24:Generated_Source\PSoC4/Bluetooth_eventHandler.c **** static void CyBle_GattDisconnectEventHandler(void);
  25:Generated_Source\PSoC4/Bluetooth_eventHandler.c **** static void CyBle_TimeOutEventHandler(const CYBLE_TO_REASON_CODE_T *eventParam);
  26:Generated_Source\PSoC4/Bluetooth_eventHandler.c **** static void CyBle_GattConnectReqHandler(void);
  27:Generated_Source\PSoC4/Bluetooth_eventHandler.c **** static void CyBle_L2Cap_ConnParamUpdateRspEventHandler(uint16 response);
  28:Generated_Source\PSoC4/Bluetooth_eventHandler.c **** static void CyBle_GapConnUpdateCompleteEventHandler(const CYBLE_GAP_CONN_PARAM_UPDATED_IN_CONTROLLE
  29:Generated_Source\PSoC4/Bluetooth_eventHandler.c **** 
  30:Generated_Source\PSoC4/Bluetooth_eventHandler.c **** 
  31:Generated_Source\PSoC4/Bluetooth_eventHandler.c **** #if (CYBLE_GATT_ROLE_SERVER)
ARM GAS  C:\Windows\TEMP\ccTU3rlm.s 			page 2


  32:Generated_Source\PSoC4/Bluetooth_eventHandler.c **** 
  33:Generated_Source\PSoC4/Bluetooth_eventHandler.c **** static void CyBle_WriteReqHandler(CYBLE_GATTS_WRITE_REQ_PARAM_T *eventParam);
  34:Generated_Source\PSoC4/Bluetooth_eventHandler.c **** static void CyBle_ValueConfirmation(const CYBLE_CONN_HANDLE_T *eventParam);
  35:Generated_Source\PSoC4/Bluetooth_eventHandler.c **** 
  36:Generated_Source\PSoC4/Bluetooth_eventHandler.c **** #endif /* CYBLE_GATT_ROLE_SERVER */
  37:Generated_Source\PSoC4/Bluetooth_eventHandler.c **** 
  38:Generated_Source\PSoC4/Bluetooth_eventHandler.c **** #if (CYBLE_GATT_ROLE_CLIENT)
  39:Generated_Source\PSoC4/Bluetooth_eventHandler.c **** 
  40:Generated_Source\PSoC4/Bluetooth_eventHandler.c **** static void CyBle_GapcDiscoverCharacteristicsEventHandler(CYBLE_DISC_CHAR_INFO_T *discCharInfo);
  41:Generated_Source\PSoC4/Bluetooth_eventHandler.c **** static CYBLE_GATT_ATTR_HANDLE_RANGE_T CyBle_GetCharRange(void);
  42:Generated_Source\PSoC4/Bluetooth_eventHandler.c **** static void CyBle_GattcWriteResponseEventHandler(const CYBLE_CONN_HANDLE_T *eventParam);
  43:Generated_Source\PSoC4/Bluetooth_eventHandler.c **** static void CyBle_NotificationEventHandler(CYBLE_GATTC_HANDLE_VALUE_NTF_PARAM_T *eventParam);
  44:Generated_Source\PSoC4/Bluetooth_eventHandler.c **** static void CyBle_IndicationEventHandler(CYBLE_GATTC_HANDLE_VALUE_IND_PARAM_T *eventParam);
  45:Generated_Source\PSoC4/Bluetooth_eventHandler.c **** static void CyBle_ReadResponseEventHandler(CYBLE_GATTC_READ_RSP_PARAM_T *eventParam);
  46:Generated_Source\PSoC4/Bluetooth_eventHandler.c **** static void CyBle_ReadMultipleResponseEventHandler(CYBLE_GATTC_READ_RSP_PARAM_T *eventParam);
  47:Generated_Source\PSoC4/Bluetooth_eventHandler.c **** 
  48:Generated_Source\PSoC4/Bluetooth_eventHandler.c **** #endif /* CYBLE_GATT_ROLE_CLIENT */
  49:Generated_Source\PSoC4/Bluetooth_eventHandler.c **** 
  50:Generated_Source\PSoC4/Bluetooth_eventHandler.c **** 
  51:Generated_Source\PSoC4/Bluetooth_eventHandler.c **** /***************************************
  52:Generated_Source\PSoC4/Bluetooth_eventHandler.c **** * Global Variables
  53:Generated_Source\PSoC4/Bluetooth_eventHandler.c **** ***************************************/
  54:Generated_Source\PSoC4/Bluetooth_eventHandler.c **** 
  55:Generated_Source\PSoC4/Bluetooth_eventHandler.c **** /* This global variable is initialized after connection with peer device, 
  56:Generated_Source\PSoC4/Bluetooth_eventHandler.c ****    after CYBLE_EVT_GATT_CONNECT_IND event, and could be used by application code
  57:Generated_Source\PSoC4/Bluetooth_eventHandler.c ****    to send data to peer device. 
  58:Generated_Source\PSoC4/Bluetooth_eventHandler.c **** */
  59:Generated_Source\PSoC4/Bluetooth_eventHandler.c **** CYBLE_CONN_HANDLE_T cyBle_connHandle;
  60:Generated_Source\PSoC4/Bluetooth_eventHandler.c **** 
  61:Generated_Source\PSoC4/Bluetooth_eventHandler.c **** volatile uint8 cyBle_eventHandlerFlag;
  62:Generated_Source\PSoC4/Bluetooth_eventHandler.c **** volatile uint8 cyBle_busyStatus;
  63:Generated_Source\PSoC4/Bluetooth_eventHandler.c **** 
  64:Generated_Source\PSoC4/Bluetooth_eventHandler.c **** const CYBLE_GAPS_T cyBle_gaps =
  65:Generated_Source\PSoC4/Bluetooth_eventHandler.c **** {
  66:Generated_Source\PSoC4/Bluetooth_eventHandler.c ****     0x0001u,    /* Handle of the GAP service */
  67:Generated_Source\PSoC4/Bluetooth_eventHandler.c ****     0x0003u,    /* Handle of the Device Name characteristic */
  68:Generated_Source\PSoC4/Bluetooth_eventHandler.c ****     0x0005u,    /* Handle of the Appearance characteristic */
  69:Generated_Source\PSoC4/Bluetooth_eventHandler.c ****     0x0007u,    /* Handle of the Peripheral Preferred Connection Parameters characteristic */
  70:Generated_Source\PSoC4/Bluetooth_eventHandler.c ****     0x0009u,    /* Handle of the Central Address Resolution characteristic */
  71:Generated_Source\PSoC4/Bluetooth_eventHandler.c ****     0x000Bu,    /* Handle of the Resolvable Private Address Only characteristic */
  72:Generated_Source\PSoC4/Bluetooth_eventHandler.c **** };
  73:Generated_Source\PSoC4/Bluetooth_eventHandler.c **** 
  74:Generated_Source\PSoC4/Bluetooth_eventHandler.c **** 
  75:Generated_Source\PSoC4/Bluetooth_eventHandler.c **** #if(CYBLE_GAP_ROLE_PERIPHERAL || CYBLE_GAP_ROLE_BROADCASTER) 
  76:Generated_Source\PSoC4/Bluetooth_eventHandler.c ****     uint8 cyBle_advertisingIntervalType;
  77:Generated_Source\PSoC4/Bluetooth_eventHandler.c **** #endif /* CYBLE_GAP_ROLE_PERIPHERAL || CYBLE_GAP_ROLE_BROADCASTER) */
  78:Generated_Source\PSoC4/Bluetooth_eventHandler.c **** 
  79:Generated_Source\PSoC4/Bluetooth_eventHandler.c **** #if(CYBLE_GAP_ROLE_CENTRAL || CYBLE_GAP_ROLE_OBSERVER) 
  80:Generated_Source\PSoC4/Bluetooth_eventHandler.c ****     uint8 cyBle_scanningIntervalType;
  81:Generated_Source\PSoC4/Bluetooth_eventHandler.c **** #endif /* CYBLE_GAP_ROLE_CENTRAL || CYBLE_GAP_ROLE_OBSERVER */
  82:Generated_Source\PSoC4/Bluetooth_eventHandler.c **** 
  83:Generated_Source\PSoC4/Bluetooth_eventHandler.c **** #if(CYBLE_GATT_ROLE_SERVER)
  84:Generated_Source\PSoC4/Bluetooth_eventHandler.c **** #if defined CYBLE_CTS_SERVER || defined CYBLE_ESS_SERVER
  85:Generated_Source\PSoC4/Bluetooth_eventHandler.c **** CYBLE_GATT_ERR_CODE_T cyBle_gattError;
  86:Generated_Source\PSoC4/Bluetooth_eventHandler.c **** #endif /* defined CYBLE_CTS_SERVER || defined CYBLE_ESS_SERVER */
  87:Generated_Source\PSoC4/Bluetooth_eventHandler.c **** #endif /* CYBLE_GATT_ROLE_SERVER */
  88:Generated_Source\PSoC4/Bluetooth_eventHandler.c **** 
ARM GAS  C:\Windows\TEMP\ccTU3rlm.s 			page 3


  89:Generated_Source\PSoC4/Bluetooth_eventHandler.c **** #if(CYBLE_GATT_ROLE_CLIENT)
  90:Generated_Source\PSoC4/Bluetooth_eventHandler.c **** uint8 cyBle_disCount; /* Counter for discovery procedures */
  91:Generated_Source\PSoC4/Bluetooth_eventHandler.c **** 
  92:Generated_Source\PSoC4/Bluetooth_eventHandler.c **** #ifdef CYBLE_CUSTOM_CLIENT
  93:Generated_Source\PSoC4/Bluetooth_eventHandler.c **** /* Discovery included service information, used for 128-bit UUID read response handle 
  94:Generated_Source\PSoC4/Bluetooth_eventHandler.c ****    and for continue discovery. 
  95:Generated_Source\PSoC4/Bluetooth_eventHandler.c **** */
  96:Generated_Source\PSoC4/Bluetooth_eventHandler.c **** static CYBLE_DISC_INCL_INFO_T cyBle_discInclInfo;
  97:Generated_Source\PSoC4/Bluetooth_eventHandler.c **** #endif /* CYBLE_CUSTOM_CLIENT */
  98:Generated_Source\PSoC4/Bluetooth_eventHandler.c **** 
  99:Generated_Source\PSoC4/Bluetooth_eventHandler.c **** #ifdef CYBLE_HIDS_CLIENT
 100:Generated_Source\PSoC4/Bluetooth_eventHandler.c ****     static uint8 disServiceIndex;      /* To discovery descriptors for multiple HID service instanc
 101:Generated_Source\PSoC4/Bluetooth_eventHandler.c **** #endif /* CYBLE_HIDS_CLIENT */
 102:Generated_Source\PSoC4/Bluetooth_eventHandler.c **** 
 103:Generated_Source\PSoC4/Bluetooth_eventHandler.c **** CYBLE_DISC_SRVC_INFO_T cyBle_serverInfo[CYBLE_SRVI_COUNT] = /*3*/
 104:Generated_Source\PSoC4/Bluetooth_eventHandler.c **** {
 105:Generated_Source\PSoC4/Bluetooth_eventHandler.c ****     {{CYBLE_GATT_INVALID_ATTR_HANDLE_VALUE, CYBLE_GATT_INVALID_ATTR_HANDLE_VALUE}, CYBLE_UUID_GAP_S
 106:Generated_Source\PSoC4/Bluetooth_eventHandler.c ****     {{CYBLE_GATT_INVALID_ATTR_HANDLE_VALUE, CYBLE_GATT_INVALID_ATTR_HANDLE_VALUE}, CYBLE_UUID_GATT_
 107:Generated_Source\PSoC4/Bluetooth_eventHandler.c **** #ifdef CYBLE_AIOS_CLIENT
 108:Generated_Source\PSoC4/Bluetooth_eventHandler.c ****     {{CYBLE_GATT_INVALID_ATTR_HANDLE_VALUE, CYBLE_GATT_INVALID_ATTR_HANDLE_VALUE}, CYBLE_UUID_AUTOM
 109:Generated_Source\PSoC4/Bluetooth_eventHandler.c **** #endif /* CYBLE_BCS_CLIENT */
 110:Generated_Source\PSoC4/Bluetooth_eventHandler.c **** #ifdef CYBLE_ANCS_CLIENT
 111:Generated_Source\PSoC4/Bluetooth_eventHandler.c ****     {{CYBLE_GATT_INVALID_ATTR_HANDLE_VALUE, CYBLE_GATT_INVALID_ATTR_HANDLE_VALUE}, 0x0000u},
 112:Generated_Source\PSoC4/Bluetooth_eventHandler.c **** #endif /* CYBLE_ANCS_CLIENT */
 113:Generated_Source\PSoC4/Bluetooth_eventHandler.c **** #ifdef CYBLE_ANS_CLIENT
 114:Generated_Source\PSoC4/Bluetooth_eventHandler.c ****     {{CYBLE_GATT_INVALID_ATTR_HANDLE_VALUE, CYBLE_GATT_INVALID_ATTR_HANDLE_VALUE}, 
 115:Generated_Source\PSoC4/Bluetooth_eventHandler.c ****         CYBLE_UUID_ALERT_NOTIFICATION_SERVICE},
 116:Generated_Source\PSoC4/Bluetooth_eventHandler.c **** #endif /* CYBLE_ANS_CLIENT */
 117:Generated_Source\PSoC4/Bluetooth_eventHandler.c **** #ifdef CYBLE_BAS_CLIENT
 118:Generated_Source\PSoC4/Bluetooth_eventHandler.c ****     {{CYBLE_GATT_INVALID_ATTR_HANDLE_VALUE, CYBLE_GATT_INVALID_ATTR_HANDLE_VALUE}, CYBLE_UUID_BAS_S
 119:Generated_Source\PSoC4/Bluetooth_eventHandler.c ****     #if(CYBLE_BASC_SERVICE_COUNT > 1u) /* Generate it by GUI */
 120:Generated_Source\PSoC4/Bluetooth_eventHandler.c ****         
 121:Generated_Source\PSoC4/Bluetooth_eventHandler.c ****     #endif /* CYBLE_BASC_SERVICE_COUNT > 1u */
 122:Generated_Source\PSoC4/Bluetooth_eventHandler.c **** #endif /* CYBLE_BAS_CLIENT */
 123:Generated_Source\PSoC4/Bluetooth_eventHandler.c **** #ifdef CYBLE_BCS_CLIENT
 124:Generated_Source\PSoC4/Bluetooth_eventHandler.c ****     {{CYBLE_GATT_INVALID_ATTR_HANDLE_VALUE, CYBLE_GATT_INVALID_ATTR_HANDLE_VALUE}, CYBLE_UUID_BODY_
 125:Generated_Source\PSoC4/Bluetooth_eventHandler.c **** #endif /* CYBLE_BCS_CLIENT */
 126:Generated_Source\PSoC4/Bluetooth_eventHandler.c **** #ifdef CYBLE_BLS_CLIENT
 127:Generated_Source\PSoC4/Bluetooth_eventHandler.c ****     {{CYBLE_GATT_INVALID_ATTR_HANDLE_VALUE, CYBLE_GATT_INVALID_ATTR_HANDLE_VALUE}, CYBLE_UUID_BLOOD
 128:Generated_Source\PSoC4/Bluetooth_eventHandler.c **** #endif /* CYBLE_BLS_CLIENT */
 129:Generated_Source\PSoC4/Bluetooth_eventHandler.c **** #ifdef CYBLE_BMS_CLIENT
 130:Generated_Source\PSoC4/Bluetooth_eventHandler.c ****     {{CYBLE_GATT_INVALID_ATTR_HANDLE_VALUE, CYBLE_GATT_INVALID_ATTR_HANDLE_VALUE}, CYBLE_UUID_BOND_
 131:Generated_Source\PSoC4/Bluetooth_eventHandler.c **** #endif /* CYBLE_BMS_CLIENT */
 132:Generated_Source\PSoC4/Bluetooth_eventHandler.c **** #ifdef CYBLE_CGMS_CLIENT
 133:Generated_Source\PSoC4/Bluetooth_eventHandler.c ****     {{CYBLE_GATT_INVALID_ATTR_HANDLE_VALUE, CYBLE_GATT_INVALID_ATTR_HANDLE_VALUE}, CYBLE_UUID_CGM_S
 134:Generated_Source\PSoC4/Bluetooth_eventHandler.c **** #endif /* CYBLE_CGMS_CLIENT */
 135:Generated_Source\PSoC4/Bluetooth_eventHandler.c **** #ifdef CYBLE_CPS_CLIENT
 136:Generated_Source\PSoC4/Bluetooth_eventHandler.c ****     {{CYBLE_GATT_INVALID_ATTR_HANDLE_VALUE, CYBLE_GATT_INVALID_ATTR_HANDLE_VALUE}, CYBLE_UUID_CPS_S
 137:Generated_Source\PSoC4/Bluetooth_eventHandler.c **** #endif /* CYBLE_CPS_CLIENT */
 138:Generated_Source\PSoC4/Bluetooth_eventHandler.c **** #ifdef CYBLE_CSCS_CLIENT
 139:Generated_Source\PSoC4/Bluetooth_eventHandler.c ****     {{CYBLE_GATT_INVALID_ATTR_HANDLE_VALUE, CYBLE_GATT_INVALID_ATTR_HANDLE_VALUE}, 
 140:Generated_Source\PSoC4/Bluetooth_eventHandler.c ****         CYBLE_UUID_CYCLING_SPEED_AND_CADENCE_SERVICE},
 141:Generated_Source\PSoC4/Bluetooth_eventHandler.c **** #endif /* CYBLE_CSCS_CLIENT */
 142:Generated_Source\PSoC4/Bluetooth_eventHandler.c **** #ifdef CYBLE_CTS_CLIENT
 143:Generated_Source\PSoC4/Bluetooth_eventHandler.c ****     {{CYBLE_GATT_INVALID_ATTR_HANDLE_VALUE, CYBLE_GATT_INVALID_ATTR_HANDLE_VALUE}, CYBLE_UUID_CURRE
 144:Generated_Source\PSoC4/Bluetooth_eventHandler.c **** #endif /* CYBLE_CTS_CLIENT */
 145:Generated_Source\PSoC4/Bluetooth_eventHandler.c **** #ifdef CYBLE_CUSTOM_CLIENT
ARM GAS  C:\Windows\TEMP\ccTU3rlm.s 			page 4


 146:Generated_Source\PSoC4/Bluetooth_eventHandler.c ****     
 147:Generated_Source\PSoC4/Bluetooth_eventHandler.c **** #endif /* CYBLE_CUSTOM_CLIENT */
 148:Generated_Source\PSoC4/Bluetooth_eventHandler.c **** #ifdef CYBLE_DIS_CLIENT
 149:Generated_Source\PSoC4/Bluetooth_eventHandler.c ****     {{CYBLE_GATT_INVALID_ATTR_HANDLE_VALUE, CYBLE_GATT_INVALID_ATTR_HANDLE_VALUE}, CYBLE_UUID_DEVIC
 150:Generated_Source\PSoC4/Bluetooth_eventHandler.c **** #endif /* CYBLE_DIS_CLIENT */
 151:Generated_Source\PSoC4/Bluetooth_eventHandler.c **** #ifdef CYBLE_ESS_CLIENT
 152:Generated_Source\PSoC4/Bluetooth_eventHandler.c ****     {{CYBLE_GATT_INVALID_ATTR_HANDLE_VALUE, CYBLE_GATT_INVALID_ATTR_HANDLE_VALUE}, 
 153:Generated_Source\PSoC4/Bluetooth_eventHandler.c ****         CYBLE_UUID_ENVIRONMENTAL_SENSING_SERVICE},
 154:Generated_Source\PSoC4/Bluetooth_eventHandler.c **** #endif /* CYBLE_ESS_CLIENT */
 155:Generated_Source\PSoC4/Bluetooth_eventHandler.c **** #ifdef CYBLE_GLS_CLIENT
 156:Generated_Source\PSoC4/Bluetooth_eventHandler.c ****     {{CYBLE_GATT_INVALID_ATTR_HANDLE_VALUE, CYBLE_GATT_INVALID_ATTR_HANDLE_VALUE}, CYBLE_UUID_GLUCO
 157:Generated_Source\PSoC4/Bluetooth_eventHandler.c **** #endif /* CYBLE_GLS_CLIENT */
 158:Generated_Source\PSoC4/Bluetooth_eventHandler.c **** #ifdef CYBLE_HIDS_CLIENT
 159:Generated_Source\PSoC4/Bluetooth_eventHandler.c ****     {{CYBLE_GATT_INVALID_ATTR_HANDLE_VALUE, CYBLE_GATT_INVALID_ATTR_HANDLE_VALUE}, CYBLE_UUID_HIDS_
 160:Generated_Source\PSoC4/Bluetooth_eventHandler.c ****     #if(CYBLE_HIDSC_SERVICE_COUNT > 1u) /* Generate it by GUI */
 161:Generated_Source\PSoC4/Bluetooth_eventHandler.c ****         
 162:Generated_Source\PSoC4/Bluetooth_eventHandler.c ****     #endif /* CYBLE_HIDSC_SERVICE_COUNT > 1u */
 163:Generated_Source\PSoC4/Bluetooth_eventHandler.c **** #endif /* CYBLE_HIDS_CLIENT */
 164:Generated_Source\PSoC4/Bluetooth_eventHandler.c **** #ifdef CYBLE_HPS_CLIENT
 165:Generated_Source\PSoC4/Bluetooth_eventHandler.c ****     {{CYBLE_GATT_INVALID_ATTR_HANDLE_VALUE, CYBLE_GATT_INVALID_ATTR_HANDLE_VALUE}, CYBLE_UUID_HTTP_
 166:Generated_Source\PSoC4/Bluetooth_eventHandler.c **** #endif /* CYBLE_HPS_CLIENT */
 167:Generated_Source\PSoC4/Bluetooth_eventHandler.c **** #ifdef CYBLE_HRS_CLIENT
 168:Generated_Source\PSoC4/Bluetooth_eventHandler.c ****     {{CYBLE_GATT_INVALID_ATTR_HANDLE_VALUE, CYBLE_GATT_INVALID_ATTR_HANDLE_VALUE}, CYBLE_UUID_HEART
 169:Generated_Source\PSoC4/Bluetooth_eventHandler.c **** #endif /* CYBLE_HRS_CLIENT */
 170:Generated_Source\PSoC4/Bluetooth_eventHandler.c **** #ifdef CYBLE_HTS_CLIENT
 171:Generated_Source\PSoC4/Bluetooth_eventHandler.c ****     {{CYBLE_GATT_INVALID_ATTR_HANDLE_VALUE, CYBLE_GATT_INVALID_ATTR_HANDLE_VALUE}, CYBLE_UUID_HEALT
 172:Generated_Source\PSoC4/Bluetooth_eventHandler.c **** #endif /* CYBLE_HTS_CLIENT */
 173:Generated_Source\PSoC4/Bluetooth_eventHandler.c **** #ifdef CYBLE_IAS_CLIENT
 174:Generated_Source\PSoC4/Bluetooth_eventHandler.c ****     {{CYBLE_GATT_INVALID_ATTR_HANDLE_VALUE, CYBLE_GATT_INVALID_ATTR_HANDLE_VALUE}, CYBLE_UUID_IMMED
 175:Generated_Source\PSoC4/Bluetooth_eventHandler.c **** #endif /* CYBLE_IAS_CLIENT */
 176:Generated_Source\PSoC4/Bluetooth_eventHandler.c **** #ifdef CYBLE_IPS_CLIENT
 177:Generated_Source\PSoC4/Bluetooth_eventHandler.c ****     {{CYBLE_GATT_INVALID_ATTR_HANDLE_VALUE, CYBLE_GATT_INVALID_ATTR_HANDLE_VALUE}, CYBLE_UUID_IPS_S
 178:Generated_Source\PSoC4/Bluetooth_eventHandler.c **** #endif /* CYBLE_IPS_CLIENT */
 179:Generated_Source\PSoC4/Bluetooth_eventHandler.c **** #ifdef CYBLE_LLS_CLIENT
 180:Generated_Source\PSoC4/Bluetooth_eventHandler.c ****     {{CYBLE_GATT_INVALID_ATTR_HANDLE_VALUE, CYBLE_GATT_INVALID_ATTR_HANDLE_VALUE}, CYBLE_UUID_LINK_
 181:Generated_Source\PSoC4/Bluetooth_eventHandler.c **** #endif /* CYBLE_LLS_CLIENT */
 182:Generated_Source\PSoC4/Bluetooth_eventHandler.c **** #ifdef CYBLE_LNS_CLIENT
 183:Generated_Source\PSoC4/Bluetooth_eventHandler.c ****     {{CYBLE_GATT_INVALID_ATTR_HANDLE_VALUE, CYBLE_GATT_INVALID_ATTR_HANDLE_VALUE}, CYBLE_UUID_LOCAT
 184:Generated_Source\PSoC4/Bluetooth_eventHandler.c **** #endif /* CYBLE_LNS_CLIENT */
 185:Generated_Source\PSoC4/Bluetooth_eventHandler.c **** #ifdef CYBLE_NDCS_CLIENT
 186:Generated_Source\PSoC4/Bluetooth_eventHandler.c ****     {{CYBLE_GATT_INVALID_ATTR_HANDLE_VALUE, CYBLE_GATT_INVALID_ATTR_HANDLE_VALUE}, CYBLE_UUID_NEXT_
 187:Generated_Source\PSoC4/Bluetooth_eventHandler.c **** #endif /* CYBLE_NDCS_CLIENT */
 188:Generated_Source\PSoC4/Bluetooth_eventHandler.c **** #ifdef CYBLE_IPSS_CLIENT
 189:Generated_Source\PSoC4/Bluetooth_eventHandler.c ****     {{CYBLE_GATT_INVALID_ATTR_HANDLE_VALUE, CYBLE_GATT_INVALID_ATTR_HANDLE_VALUE}, CYBLE_UUID_INTER
 190:Generated_Source\PSoC4/Bluetooth_eventHandler.c **** #endif /* CYBLE_IPSS_CLIENT */
 191:Generated_Source\PSoC4/Bluetooth_eventHandler.c **** #ifdef CYBLE_OTS_CLIENT
 192:Generated_Source\PSoC4/Bluetooth_eventHandler.c ****     {{CYBLE_GATT_INVALID_ATTR_HANDLE_VALUE, CYBLE_GATT_INVALID_ATTR_HANDLE_VALUE}, CYBLE_UUID_OTS_S
 193:Generated_Source\PSoC4/Bluetooth_eventHandler.c **** #endif /* CYBLE_OTS_CLIENT */
 194:Generated_Source\PSoC4/Bluetooth_eventHandler.c **** #ifdef CYBLE_PASS_CLIENT
 195:Generated_Source\PSoC4/Bluetooth_eventHandler.c ****     {{CYBLE_GATT_INVALID_ATTR_HANDLE_VALUE, CYBLE_GATT_INVALID_ATTR_HANDLE_VALUE}, CYBLE_UUID_PHONE
 196:Generated_Source\PSoC4/Bluetooth_eventHandler.c **** #endif /* CYBLE_PASS_CLIENT */
 197:Generated_Source\PSoC4/Bluetooth_eventHandler.c **** #ifdef CYBLE_PLXS_CLIENT
 198:Generated_Source\PSoC4/Bluetooth_eventHandler.c ****     {{CYBLE_GATT_INVALID_ATTR_HANDLE_VALUE, CYBLE_GATT_INVALID_ATTR_HANDLE_VALUE}, CYBLE_UUID_PLX_S
 199:Generated_Source\PSoC4/Bluetooth_eventHandler.c **** #endif /* CYBLE_PLXS_CLIENT */
 200:Generated_Source\PSoC4/Bluetooth_eventHandler.c **** #ifdef CYBLE_RSCS_CLIENT
 201:Generated_Source\PSoC4/Bluetooth_eventHandler.c ****     {{CYBLE_GATT_INVALID_ATTR_HANDLE_VALUE, CYBLE_GATT_INVALID_ATTR_HANDLE_VALUE}, CYBLE_UUID_RUNNI
 202:Generated_Source\PSoC4/Bluetooth_eventHandler.c **** #endif /* CYBLE_RSCS_CLIENT */
ARM GAS  C:\Windows\TEMP\ccTU3rlm.s 			page 5


 203:Generated_Source\PSoC4/Bluetooth_eventHandler.c **** #ifdef CYBLE_RTUS_CLIENT
 204:Generated_Source\PSoC4/Bluetooth_eventHandler.c ****     {{CYBLE_GATT_INVALID_ATTR_HANDLE_VALUE, CYBLE_GATT_INVALID_ATTR_HANDLE_VALUE}, CYBLE_UUID_REF_T
 205:Generated_Source\PSoC4/Bluetooth_eventHandler.c **** #endif /* CYBLE_RTUS_CLIENT */
 206:Generated_Source\PSoC4/Bluetooth_eventHandler.c **** #ifdef CYBLE_SCPS_CLIENT
 207:Generated_Source\PSoC4/Bluetooth_eventHandler.c ****     {{CYBLE_GATT_INVALID_ATTR_HANDLE_VALUE, CYBLE_GATT_INVALID_ATTR_HANDLE_VALUE}, CYBLE_UUID_SCAN_
 208:Generated_Source\PSoC4/Bluetooth_eventHandler.c **** #endif /* CYBLE_SCPS_CLIENT */
 209:Generated_Source\PSoC4/Bluetooth_eventHandler.c **** #ifdef CYBLE_TPS_CLIENT
 210:Generated_Source\PSoC4/Bluetooth_eventHandler.c ****     {{CYBLE_GATT_INVALID_ATTR_HANDLE_VALUE, CYBLE_GATT_INVALID_ATTR_HANDLE_VALUE}, CYBLE_UUID_TX_PO
 211:Generated_Source\PSoC4/Bluetooth_eventHandler.c **** #endif /* CYBLE_TPS_CLIENT */
 212:Generated_Source\PSoC4/Bluetooth_eventHandler.c **** #ifdef CYBLE_UDS_CLIENT
 213:Generated_Source\PSoC4/Bluetooth_eventHandler.c ****     {{CYBLE_GATT_INVALID_ATTR_HANDLE_VALUE, CYBLE_GATT_INVALID_ATTR_HANDLE_VALUE}, CYBLE_UUID_USER_
 214:Generated_Source\PSoC4/Bluetooth_eventHandler.c **** #endif /* CYBLE_UDS_CLIENT */
 215:Generated_Source\PSoC4/Bluetooth_eventHandler.c **** #ifdef CYBLE_WSS_CLIENT
 216:Generated_Source\PSoC4/Bluetooth_eventHandler.c ****     {{CYBLE_GATT_INVALID_ATTR_HANDLE_VALUE, CYBLE_GATT_INVALID_ATTR_HANDLE_VALUE}, CYBLE_UUID_WEIGH
 217:Generated_Source\PSoC4/Bluetooth_eventHandler.c **** #endif /* CYBLE_WSS_CLIENT */
 218:Generated_Source\PSoC4/Bluetooth_eventHandler.c **** #ifdef CYBLE_WPTS_CLIENT
 219:Generated_Source\PSoC4/Bluetooth_eventHandler.c ****     {{CYBLE_GATT_INVALID_ATTR_HANDLE_VALUE, CYBLE_GATT_INVALID_ATTR_HANDLE_VALUE}, CYBLE_UUID_WIREL
 220:Generated_Source\PSoC4/Bluetooth_eventHandler.c **** #endif /* CYBLE_WPTS_CLIENT */
 221:Generated_Source\PSoC4/Bluetooth_eventHandler.c **** };
 222:Generated_Source\PSoC4/Bluetooth_eventHandler.c **** 
 223:Generated_Source\PSoC4/Bluetooth_eventHandler.c **** CYBLE_GAPC_T cyBle_gapc;
 224:Generated_Source\PSoC4/Bluetooth_eventHandler.c **** 
 225:Generated_Source\PSoC4/Bluetooth_eventHandler.c **** #endif /* CYBLE_GATT_ROLE_CLIENT */
 226:Generated_Source\PSoC4/Bluetooth_eventHandler.c **** 
 227:Generated_Source\PSoC4/Bluetooth_eventHandler.c **** /* Default device security */
 228:Generated_Source\PSoC4/Bluetooth_eventHandler.c **** CYBLE_GAP_AUTH_INFO_T cyBle_authInfo =
 229:Generated_Source\PSoC4/Bluetooth_eventHandler.c **** {
 230:Generated_Source\PSoC4/Bluetooth_eventHandler.c ****     (CYBLE_GAP_SEC_MODE_1 | CYBLE_GAP_SEC_LEVEL_1 ), /* uint8 security */
 231:Generated_Source\PSoC4/Bluetooth_eventHandler.c ****     CYBLE_GAP_BONDING, /* uint8 bonding */
 232:Generated_Source\PSoC4/Bluetooth_eventHandler.c ****     0x10u,      /* uint8 ekeySize */
 233:Generated_Source\PSoC4/Bluetooth_eventHandler.c ****     CYBLE_GAP_AUTH_ERROR_NONE, /* CYBLE_AUTH_FAILED_REASON_T authErr */
 234:Generated_Source\PSoC4/Bluetooth_eventHandler.c ****     0x01u,      /* uint8 pairingProperties */
 235:Generated_Source\PSoC4/Bluetooth_eventHandler.c **** };
 236:Generated_Source\PSoC4/Bluetooth_eventHandler.c **** 
 237:Generated_Source\PSoC4/Bluetooth_eventHandler.c **** #if(CYBLE_GATT_ROLE_SERVER)
 238:Generated_Source\PSoC4/Bluetooth_eventHandler.c **** 
 239:Generated_Source\PSoC4/Bluetooth_eventHandler.c **** 
 240:Generated_Source\PSoC4/Bluetooth_eventHandler.c **** /******************************************************************************    
 241:Generated_Source\PSoC4/Bluetooth_eventHandler.c **** * Function Name: CyBle_WriteReqHandler
 242:Generated_Source\PSoC4/Bluetooth_eventHandler.c **** ***************************************************************************//**
 243:Generated_Source\PSoC4/Bluetooth_eventHandler.c **** * 
 244:Generated_Source\PSoC4/Bluetooth_eventHandler.c **** *  Handles the Write Request event from BLE stack.
 245:Generated_Source\PSoC4/Bluetooth_eventHandler.c **** * 
 246:Generated_Source\PSoC4/Bluetooth_eventHandler.c **** *  CYBLE_GATTS_WRITE_REQ_PARAM_T * eventParam - event parameter
 247:Generated_Source\PSoC4/Bluetooth_eventHandler.c **** * 
 248:Generated_Source\PSoC4/Bluetooth_eventHandler.c **** * \return
 249:Generated_Source\PSoC4/Bluetooth_eventHandler.c **** *  None
 250:Generated_Source\PSoC4/Bluetooth_eventHandler.c **** * 
 251:Generated_Source\PSoC4/Bluetooth_eventHandler.c **** ******************************************************************************/
 252:Generated_Source\PSoC4/Bluetooth_eventHandler.c **** static void CyBle_WriteReqHandler(CYBLE_GATTS_WRITE_REQ_PARAM_T *eventParam)
 253:Generated_Source\PSoC4/Bluetooth_eventHandler.c **** {
 254:Generated_Source\PSoC4/Bluetooth_eventHandler.c ****     CYBLE_GATT_ERR_CODE_T gattErr;
 255:Generated_Source\PSoC4/Bluetooth_eventHandler.c **** #if defined CYBLE_CTS_SERVER || defined CYBLE_ESS_SERVER
 256:Generated_Source\PSoC4/Bluetooth_eventHandler.c ****     cyBle_gattError = CYBLE_GATT_ERR_NONE;
 257:Generated_Source\PSoC4/Bluetooth_eventHandler.c **** #endif /* defined CYBLE_CTS_SERVER || defined CYBLE_ESS_SERVER */
 258:Generated_Source\PSoC4/Bluetooth_eventHandler.c ****     
 259:Generated_Source\PSoC4/Bluetooth_eventHandler.c ****     gattErr = CyBle_GattsWriteEventHandler(eventParam);
ARM GAS  C:\Windows\TEMP\ccTU3rlm.s 			page 6


 260:Generated_Source\PSoC4/Bluetooth_eventHandler.c **** #ifdef CYBLE_AIOS_SERVER
 261:Generated_Source\PSoC4/Bluetooth_eventHandler.c ****     if(((cyBle_eventHandlerFlag & CYBLE_CALLBACK) != 0u) && (gattErr == CYBLE_GATT_ERR_NONE))
 262:Generated_Source\PSoC4/Bluetooth_eventHandler.c ****     {
 263:Generated_Source\PSoC4/Bluetooth_eventHandler.c ****         gattErr = CyBle_AiossWriteEventHandler(eventParam);
 264:Generated_Source\PSoC4/Bluetooth_eventHandler.c ****     }
 265:Generated_Source\PSoC4/Bluetooth_eventHandler.c **** #endif /* CYBLE_AIOS_SERVER */
 266:Generated_Source\PSoC4/Bluetooth_eventHandler.c **** #ifdef CYBLE_ANCS_SERVER
 267:Generated_Source\PSoC4/Bluetooth_eventHandler.c ****     if(((cyBle_eventHandlerFlag & CYBLE_CALLBACK) != 0u) && (gattErr == CYBLE_GATT_ERR_NONE))
 268:Generated_Source\PSoC4/Bluetooth_eventHandler.c ****     {
 269:Generated_Source\PSoC4/Bluetooth_eventHandler.c ****         gattErr = CyBle_AncssWriteEventHandler(eventParam);
 270:Generated_Source\PSoC4/Bluetooth_eventHandler.c ****     }
 271:Generated_Source\PSoC4/Bluetooth_eventHandler.c **** #endif /* CYBLE_ANCS_SERVER */
 272:Generated_Source\PSoC4/Bluetooth_eventHandler.c **** #ifdef CYBLE_ANS_SERVER
 273:Generated_Source\PSoC4/Bluetooth_eventHandler.c ****     if(((cyBle_eventHandlerFlag & CYBLE_CALLBACK) != 0u) && (gattErr == CYBLE_GATT_ERR_NONE))
 274:Generated_Source\PSoC4/Bluetooth_eventHandler.c ****     {
 275:Generated_Source\PSoC4/Bluetooth_eventHandler.c ****         gattErr = CyBle_AnssWriteEventHandler(eventParam);
 276:Generated_Source\PSoC4/Bluetooth_eventHandler.c ****     }
 277:Generated_Source\PSoC4/Bluetooth_eventHandler.c **** #endif /* CYBLE_ANS_SERVER */
 278:Generated_Source\PSoC4/Bluetooth_eventHandler.c **** #ifdef CYBLE_BAS_SERVER
 279:Generated_Source\PSoC4/Bluetooth_eventHandler.c ****     if(((cyBle_eventHandlerFlag & CYBLE_CALLBACK) != 0u) && (gattErr == CYBLE_GATT_ERR_NONE))
 280:Generated_Source\PSoC4/Bluetooth_eventHandler.c ****     {
 281:Generated_Source\PSoC4/Bluetooth_eventHandler.c ****         gattErr = CyBle_BassWriteEventHandler(eventParam);
 282:Generated_Source\PSoC4/Bluetooth_eventHandler.c ****     }
 283:Generated_Source\PSoC4/Bluetooth_eventHandler.c **** #endif /* CYBLE_BAS_SERVER */
 284:Generated_Source\PSoC4/Bluetooth_eventHandler.c **** #ifdef CYBLE_BCS_SERVER
 285:Generated_Source\PSoC4/Bluetooth_eventHandler.c ****     if(((cyBle_eventHandlerFlag & CYBLE_CALLBACK) != 0u) && (gattErr == CYBLE_GATT_ERR_NONE))
 286:Generated_Source\PSoC4/Bluetooth_eventHandler.c ****     {
 287:Generated_Source\PSoC4/Bluetooth_eventHandler.c ****         gattErr = CyBle_BcssWriteEventHandler(eventParam);
 288:Generated_Source\PSoC4/Bluetooth_eventHandler.c ****     }
 289:Generated_Source\PSoC4/Bluetooth_eventHandler.c **** #endif /* CYBLE_BCS_SERVER */
 290:Generated_Source\PSoC4/Bluetooth_eventHandler.c **** #ifdef CYBLE_BLS_SERVER
 291:Generated_Source\PSoC4/Bluetooth_eventHandler.c ****     if(((cyBle_eventHandlerFlag & CYBLE_CALLBACK) != 0u) && (gattErr == CYBLE_GATT_ERR_NONE))
 292:Generated_Source\PSoC4/Bluetooth_eventHandler.c ****     {
 293:Generated_Source\PSoC4/Bluetooth_eventHandler.c ****         gattErr = CyBle_BlssWriteEventHandler(eventParam);
 294:Generated_Source\PSoC4/Bluetooth_eventHandler.c ****     }
 295:Generated_Source\PSoC4/Bluetooth_eventHandler.c **** #endif /* CYBLE_BLS_SERVER */
 296:Generated_Source\PSoC4/Bluetooth_eventHandler.c **** #ifdef CYBLE_BMS_SERVER
 297:Generated_Source\PSoC4/Bluetooth_eventHandler.c ****     if(((cyBle_eventHandlerFlag & CYBLE_CALLBACK) != 0u) && (gattErr == CYBLE_GATT_ERR_NONE))
 298:Generated_Source\PSoC4/Bluetooth_eventHandler.c ****     {
 299:Generated_Source\PSoC4/Bluetooth_eventHandler.c ****         gattErr = CyBle_BmssWriteEventHandler(eventParam);
 300:Generated_Source\PSoC4/Bluetooth_eventHandler.c ****     }
 301:Generated_Source\PSoC4/Bluetooth_eventHandler.c **** #endif /* CYBLE_BMS_SERVER */
 302:Generated_Source\PSoC4/Bluetooth_eventHandler.c **** #ifdef CYBLE_BTS_SERVER
 303:Generated_Source\PSoC4/Bluetooth_eventHandler.c ****     if((cyBle_eventHandlerFlag & CYBLE_CALLBACK) != 0u)
 304:Generated_Source\PSoC4/Bluetooth_eventHandler.c ****     {
 305:Generated_Source\PSoC4/Bluetooth_eventHandler.c ****         gattErr = CyBle_BtsWriteEventHandler(eventParam);
 306:Generated_Source\PSoC4/Bluetooth_eventHandler.c ****     }
 307:Generated_Source\PSoC4/Bluetooth_eventHandler.c **** #endif /* CYBLE_BTS_SERVER */
 308:Generated_Source\PSoC4/Bluetooth_eventHandler.c **** #ifdef CYBLE_CGMS_SERVER
 309:Generated_Source\PSoC4/Bluetooth_eventHandler.c ****     if(((cyBle_eventHandlerFlag & CYBLE_CALLBACK) != 0u) && (gattErr == CYBLE_GATT_ERR_NONE))
 310:Generated_Source\PSoC4/Bluetooth_eventHandler.c ****     {
 311:Generated_Source\PSoC4/Bluetooth_eventHandler.c ****         gattErr = CyBle_CgmssWriteEventHandler(eventParam);
 312:Generated_Source\PSoC4/Bluetooth_eventHandler.c ****     }
 313:Generated_Source\PSoC4/Bluetooth_eventHandler.c **** #endif /* CYBLE_CGMS_SERVER */
 314:Generated_Source\PSoC4/Bluetooth_eventHandler.c **** #ifdef CYBLE_CPS_SERVER
 315:Generated_Source\PSoC4/Bluetooth_eventHandler.c ****     if(((cyBle_eventHandlerFlag & CYBLE_CALLBACK) != 0u) && (gattErr == CYBLE_GATT_ERR_NONE))
 316:Generated_Source\PSoC4/Bluetooth_eventHandler.c ****     {
ARM GAS  C:\Windows\TEMP\ccTU3rlm.s 			page 7


 317:Generated_Source\PSoC4/Bluetooth_eventHandler.c ****         gattErr = CyBle_CpssWriteEventHandler(eventParam);
 318:Generated_Source\PSoC4/Bluetooth_eventHandler.c ****     }
 319:Generated_Source\PSoC4/Bluetooth_eventHandler.c **** #endif /* CYBLE_CPS_SERVER */
 320:Generated_Source\PSoC4/Bluetooth_eventHandler.c **** #ifdef CYBLE_CSCS_SERVER
 321:Generated_Source\PSoC4/Bluetooth_eventHandler.c ****     if(((cyBle_eventHandlerFlag & CYBLE_CALLBACK) != 0u) && (gattErr == CYBLE_GATT_ERR_NONE))
 322:Generated_Source\PSoC4/Bluetooth_eventHandler.c ****     {
 323:Generated_Source\PSoC4/Bluetooth_eventHandler.c ****         gattErr = CyBle_CscssWriteEventHandler(eventParam);
 324:Generated_Source\PSoC4/Bluetooth_eventHandler.c ****     }
 325:Generated_Source\PSoC4/Bluetooth_eventHandler.c **** #endif /* CYBLE_CSCS_SERVER */
 326:Generated_Source\PSoC4/Bluetooth_eventHandler.c **** #ifdef CYBLE_CTS_SERVER
 327:Generated_Source\PSoC4/Bluetooth_eventHandler.c ****     if(((cyBle_eventHandlerFlag & CYBLE_CALLBACK) != 0u) && (gattErr == CYBLE_GATT_ERR_NONE))
 328:Generated_Source\PSoC4/Bluetooth_eventHandler.c ****     {
 329:Generated_Source\PSoC4/Bluetooth_eventHandler.c ****         gattErr = CyBle_CtssWriteEventHandler(eventParam);
 330:Generated_Source\PSoC4/Bluetooth_eventHandler.c ****     }
 331:Generated_Source\PSoC4/Bluetooth_eventHandler.c **** #endif /* CYBLE_CTS_SERVER */
 332:Generated_Source\PSoC4/Bluetooth_eventHandler.c **** #ifdef CYBLE_ESS_SERVER
 333:Generated_Source\PSoC4/Bluetooth_eventHandler.c ****     if(((cyBle_eventHandlerFlag & CYBLE_CALLBACK) != 0u) && (gattErr == CYBLE_GATT_ERR_NONE))
 334:Generated_Source\PSoC4/Bluetooth_eventHandler.c ****     {
 335:Generated_Source\PSoC4/Bluetooth_eventHandler.c ****         gattErr = CyBle_EsssWriteEventHandler(eventParam);
 336:Generated_Source\PSoC4/Bluetooth_eventHandler.c ****     }
 337:Generated_Source\PSoC4/Bluetooth_eventHandler.c **** #endif /* CYBLE_ESS_SERVER */
 338:Generated_Source\PSoC4/Bluetooth_eventHandler.c **** #ifdef CYBLE_GLS_SERVER
 339:Generated_Source\PSoC4/Bluetooth_eventHandler.c ****     if(((cyBle_eventHandlerFlag & CYBLE_CALLBACK) != 0u) && (gattErr == CYBLE_GATT_ERR_NONE))
 340:Generated_Source\PSoC4/Bluetooth_eventHandler.c ****     {
 341:Generated_Source\PSoC4/Bluetooth_eventHandler.c ****         gattErr = CyBle_GlssWriteEventHandler(eventParam);
 342:Generated_Source\PSoC4/Bluetooth_eventHandler.c ****     }
 343:Generated_Source\PSoC4/Bluetooth_eventHandler.c **** #endif /* CYBLE_GLS_SERVER */
 344:Generated_Source\PSoC4/Bluetooth_eventHandler.c **** #ifdef CYBLE_HIDS_SERVER
 345:Generated_Source\PSoC4/Bluetooth_eventHandler.c ****     if(((cyBle_eventHandlerFlag & CYBLE_CALLBACK) != 0u) && (gattErr == CYBLE_GATT_ERR_NONE))
 346:Generated_Source\PSoC4/Bluetooth_eventHandler.c ****     {
 347:Generated_Source\PSoC4/Bluetooth_eventHandler.c ****         gattErr = CyBle_HidssWriteEventHandler(eventParam);
 348:Generated_Source\PSoC4/Bluetooth_eventHandler.c ****     }
 349:Generated_Source\PSoC4/Bluetooth_eventHandler.c **** #endif /* CYBLE_HIDS_SERVER */
 350:Generated_Source\PSoC4/Bluetooth_eventHandler.c **** #ifdef CYBLE_HPS_SERVER
 351:Generated_Source\PSoC4/Bluetooth_eventHandler.c ****     if(((cyBle_eventHandlerFlag & CYBLE_CALLBACK) != 0u) && (gattErr == CYBLE_GATT_ERR_NONE))
 352:Generated_Source\PSoC4/Bluetooth_eventHandler.c ****     {
 353:Generated_Source\PSoC4/Bluetooth_eventHandler.c ****         gattErr = CyBle_HpssWriteEventHandler(eventParam);
 354:Generated_Source\PSoC4/Bluetooth_eventHandler.c ****     }
 355:Generated_Source\PSoC4/Bluetooth_eventHandler.c **** #endif /* CYBLE_HPS_SERVER */
 356:Generated_Source\PSoC4/Bluetooth_eventHandler.c **** #ifdef CYBLE_HRS_SERVER
 357:Generated_Source\PSoC4/Bluetooth_eventHandler.c ****     if(((cyBle_eventHandlerFlag & CYBLE_CALLBACK) != 0u) && (gattErr == CYBLE_GATT_ERR_NONE))
 358:Generated_Source\PSoC4/Bluetooth_eventHandler.c ****     {
 359:Generated_Source\PSoC4/Bluetooth_eventHandler.c ****         gattErr = CyBle_HrssWriteEventHandler(eventParam);
 360:Generated_Source\PSoC4/Bluetooth_eventHandler.c ****     }
 361:Generated_Source\PSoC4/Bluetooth_eventHandler.c **** #endif /* CYBLE_HRS_SERVER */
 362:Generated_Source\PSoC4/Bluetooth_eventHandler.c **** #ifdef CYBLE_HTS_SERVER
 363:Generated_Source\PSoC4/Bluetooth_eventHandler.c ****     if(((cyBle_eventHandlerFlag & CYBLE_CALLBACK) != 0u) && (gattErr == CYBLE_GATT_ERR_NONE))
 364:Generated_Source\PSoC4/Bluetooth_eventHandler.c ****     {
 365:Generated_Source\PSoC4/Bluetooth_eventHandler.c ****         gattErr = CyBle_HtssWriteEventHandler(eventParam);
 366:Generated_Source\PSoC4/Bluetooth_eventHandler.c ****     }
 367:Generated_Source\PSoC4/Bluetooth_eventHandler.c **** #endif /* CYBLE_HTS_SERVER */
 368:Generated_Source\PSoC4/Bluetooth_eventHandler.c **** #ifdef CYBLE_IPS_SERVER
 369:Generated_Source\PSoC4/Bluetooth_eventHandler.c ****     if(((cyBle_eventHandlerFlag & CYBLE_CALLBACK) != 0u) && (gattErr == CYBLE_GATT_ERR_NONE))
 370:Generated_Source\PSoC4/Bluetooth_eventHandler.c ****     {
 371:Generated_Source\PSoC4/Bluetooth_eventHandler.c ****         gattErr = CyBle_IpssWriteEventHandler(eventParam);
 372:Generated_Source\PSoC4/Bluetooth_eventHandler.c ****     }
 373:Generated_Source\PSoC4/Bluetooth_eventHandler.c **** #endif /* CYBLE_IPS_SERVER */
ARM GAS  C:\Windows\TEMP\ccTU3rlm.s 			page 8


 374:Generated_Source\PSoC4/Bluetooth_eventHandler.c **** #ifdef CYBLE_LLS_SERVER
 375:Generated_Source\PSoC4/Bluetooth_eventHandler.c ****     if(((cyBle_eventHandlerFlag & CYBLE_CALLBACK) != 0u) && (gattErr == CYBLE_GATT_ERR_NONE))
 376:Generated_Source\PSoC4/Bluetooth_eventHandler.c ****     {
 377:Generated_Source\PSoC4/Bluetooth_eventHandler.c ****         gattErr = CyBle_LlssWriteEventHandler(eventParam);
 378:Generated_Source\PSoC4/Bluetooth_eventHandler.c ****     }
 379:Generated_Source\PSoC4/Bluetooth_eventHandler.c **** #endif /* CYBLE_LLS_SERVER */
 380:Generated_Source\PSoC4/Bluetooth_eventHandler.c **** #ifdef CYBLE_LNS_SERVER
 381:Generated_Source\PSoC4/Bluetooth_eventHandler.c ****     if(((cyBle_eventHandlerFlag & CYBLE_CALLBACK) != 0u) && (gattErr == CYBLE_GATT_ERR_NONE))
 382:Generated_Source\PSoC4/Bluetooth_eventHandler.c ****     {
 383:Generated_Source\PSoC4/Bluetooth_eventHandler.c ****         gattErr = CyBle_LnssWriteEventHandler(eventParam);
 384:Generated_Source\PSoC4/Bluetooth_eventHandler.c ****     }
 385:Generated_Source\PSoC4/Bluetooth_eventHandler.c **** #endif /* CYBLE_LNS_SERVER */
 386:Generated_Source\PSoC4/Bluetooth_eventHandler.c **** #ifdef CYBLE_OTS_SERVER
 387:Generated_Source\PSoC4/Bluetooth_eventHandler.c ****     if(((cyBle_eventHandlerFlag & CYBLE_CALLBACK) != 0u) && (gattErr == CYBLE_GATT_ERR_NONE))
 388:Generated_Source\PSoC4/Bluetooth_eventHandler.c ****     {
 389:Generated_Source\PSoC4/Bluetooth_eventHandler.c ****         gattErr = CyBle_OtssWriteEventHandler(eventParam);
 390:Generated_Source\PSoC4/Bluetooth_eventHandler.c ****     }
 391:Generated_Source\PSoC4/Bluetooth_eventHandler.c **** #endif /* CYBLE_OTS_SERVER */
 392:Generated_Source\PSoC4/Bluetooth_eventHandler.c **** #ifdef CYBLE_PASS_SERVER
 393:Generated_Source\PSoC4/Bluetooth_eventHandler.c ****     if(((cyBle_eventHandlerFlag & CYBLE_CALLBACK) != 0u) && (gattErr == CYBLE_GATT_ERR_NONE))
 394:Generated_Source\PSoC4/Bluetooth_eventHandler.c ****     {
 395:Generated_Source\PSoC4/Bluetooth_eventHandler.c ****         gattErr = CyBle_PasssWriteEventHandler(eventParam);
 396:Generated_Source\PSoC4/Bluetooth_eventHandler.c ****     }
 397:Generated_Source\PSoC4/Bluetooth_eventHandler.c **** #endif /* CYBLE_PASS_SERVER */
 398:Generated_Source\PSoC4/Bluetooth_eventHandler.c **** #ifdef CYBLE_PLXS_SERVER
 399:Generated_Source\PSoC4/Bluetooth_eventHandler.c ****     if(((cyBle_eventHandlerFlag & CYBLE_CALLBACK) != 0u) && (gattErr == CYBLE_GATT_ERR_NONE))
 400:Generated_Source\PSoC4/Bluetooth_eventHandler.c ****     {
 401:Generated_Source\PSoC4/Bluetooth_eventHandler.c ****         gattErr = CyBle_PlxssWriteEventHandler(eventParam);
 402:Generated_Source\PSoC4/Bluetooth_eventHandler.c ****     }
 403:Generated_Source\PSoC4/Bluetooth_eventHandler.c **** #endif /* CYBLE_PLXS_SERVER */    
 404:Generated_Source\PSoC4/Bluetooth_eventHandler.c **** #ifdef CYBLE_RSCS_SERVER
 405:Generated_Source\PSoC4/Bluetooth_eventHandler.c ****     if(((cyBle_eventHandlerFlag & CYBLE_CALLBACK) != 0u) && (gattErr == CYBLE_GATT_ERR_NONE))
 406:Generated_Source\PSoC4/Bluetooth_eventHandler.c ****     {
 407:Generated_Source\PSoC4/Bluetooth_eventHandler.c ****         gattErr = CyBle_RscssWriteEventHandler(eventParam);
 408:Generated_Source\PSoC4/Bluetooth_eventHandler.c ****     }
 409:Generated_Source\PSoC4/Bluetooth_eventHandler.c **** #endif /* CYBLE_RSCS_SERVER */
 410:Generated_Source\PSoC4/Bluetooth_eventHandler.c **** #ifdef CYBLE_SCPS_SERVER
 411:Generated_Source\PSoC4/Bluetooth_eventHandler.c ****     if(((cyBle_eventHandlerFlag & CYBLE_CALLBACK) != 0u) && (gattErr == CYBLE_GATT_ERR_NONE))
 412:Generated_Source\PSoC4/Bluetooth_eventHandler.c ****     {
 413:Generated_Source\PSoC4/Bluetooth_eventHandler.c ****         gattErr = CyBle_ScpssWriteEventHandler(eventParam);
 414:Generated_Source\PSoC4/Bluetooth_eventHandler.c ****     }
 415:Generated_Source\PSoC4/Bluetooth_eventHandler.c **** #endif /* CYBLE_SCPS_SERVER */
 416:Generated_Source\PSoC4/Bluetooth_eventHandler.c **** #ifdef CYBLE_TPS_SERVER
 417:Generated_Source\PSoC4/Bluetooth_eventHandler.c ****     if(((cyBle_eventHandlerFlag & CYBLE_CALLBACK) != 0u) && (gattErr == CYBLE_GATT_ERR_NONE))
 418:Generated_Source\PSoC4/Bluetooth_eventHandler.c ****     {
 419:Generated_Source\PSoC4/Bluetooth_eventHandler.c ****         gattErr = CyBle_TpssWriteEventHandler(eventParam);
 420:Generated_Source\PSoC4/Bluetooth_eventHandler.c ****     }
 421:Generated_Source\PSoC4/Bluetooth_eventHandler.c **** #endif /* CYBLE_TPS_SERVER */
 422:Generated_Source\PSoC4/Bluetooth_eventHandler.c **** #ifdef CYBLE_UDS_SERVER
 423:Generated_Source\PSoC4/Bluetooth_eventHandler.c ****     if(((cyBle_eventHandlerFlag & CYBLE_CALLBACK) != 0u) && (gattErr == CYBLE_GATT_ERR_NONE))
 424:Generated_Source\PSoC4/Bluetooth_eventHandler.c ****     {
 425:Generated_Source\PSoC4/Bluetooth_eventHandler.c ****         gattErr = CyBle_UdssWriteEventHandler(eventParam);
 426:Generated_Source\PSoC4/Bluetooth_eventHandler.c ****     }
 427:Generated_Source\PSoC4/Bluetooth_eventHandler.c **** #endif /* CYBLE_UDS_SERVER */
 428:Generated_Source\PSoC4/Bluetooth_eventHandler.c **** #ifdef CYBLE_WPTS_SERVER
 429:Generated_Source\PSoC4/Bluetooth_eventHandler.c ****     if(((cyBle_eventHandlerFlag & CYBLE_CALLBACK) != 0u) && (gattErr == CYBLE_GATT_ERR_NONE))
 430:Generated_Source\PSoC4/Bluetooth_eventHandler.c ****     {
ARM GAS  C:\Windows\TEMP\ccTU3rlm.s 			page 9


 431:Generated_Source\PSoC4/Bluetooth_eventHandler.c ****         gattErr = CyBle_WptssWriteEventHandler(eventParam);
 432:Generated_Source\PSoC4/Bluetooth_eventHandler.c ****     }
 433:Generated_Source\PSoC4/Bluetooth_eventHandler.c **** #endif /* CYBLE_WPTS_SERVER */
 434:Generated_Source\PSoC4/Bluetooth_eventHandler.c **** #ifdef CYBLE_WSS_SERVER
 435:Generated_Source\PSoC4/Bluetooth_eventHandler.c ****     if(((cyBle_eventHandlerFlag & CYBLE_CALLBACK) != 0u) && (gattErr == CYBLE_GATT_ERR_NONE))
 436:Generated_Source\PSoC4/Bluetooth_eventHandler.c ****     {
 437:Generated_Source\PSoC4/Bluetooth_eventHandler.c ****         gattErr = CyBle_WsssWriteEventHandler(eventParam);
 438:Generated_Source\PSoC4/Bluetooth_eventHandler.c ****     }
 439:Generated_Source\PSoC4/Bluetooth_eventHandler.c **** #endif /* CYBLE_WSS_SERVER */
 440:Generated_Source\PSoC4/Bluetooth_eventHandler.c **** 
 441:Generated_Source\PSoC4/Bluetooth_eventHandler.c ****     /* Send response when event was handled by service */
 442:Generated_Source\PSoC4/Bluetooth_eventHandler.c ****     if((cyBle_eventHandlerFlag & CYBLE_CALLBACK) == 0u)
 443:Generated_Source\PSoC4/Bluetooth_eventHandler.c ****     {
 444:Generated_Source\PSoC4/Bluetooth_eventHandler.c ****         if(gattErr != CYBLE_GATT_ERR_NONE)
 445:Generated_Source\PSoC4/Bluetooth_eventHandler.c ****         {
 446:Generated_Source\PSoC4/Bluetooth_eventHandler.c ****             CYBLE_GATTS_ERR_PARAM_T err_param;
 447:Generated_Source\PSoC4/Bluetooth_eventHandler.c ****             
 448:Generated_Source\PSoC4/Bluetooth_eventHandler.c ****             err_param.opcode = (uint8) CYBLE_GATT_WRITE_REQ;
 449:Generated_Source\PSoC4/Bluetooth_eventHandler.c ****             err_param.attrHandle = eventParam->handleValPair.attrHandle;
 450:Generated_Source\PSoC4/Bluetooth_eventHandler.c ****             err_param.errorCode = gattErr;
 451:Generated_Source\PSoC4/Bluetooth_eventHandler.c **** 
 452:Generated_Source\PSoC4/Bluetooth_eventHandler.c ****             /* Send Error Response */
 453:Generated_Source\PSoC4/Bluetooth_eventHandler.c ****             (void)CyBle_GattsErrorRsp(eventParam->connHandle, &err_param);
 454:Generated_Source\PSoC4/Bluetooth_eventHandler.c ****         }
 455:Generated_Source\PSoC4/Bluetooth_eventHandler.c ****         else
 456:Generated_Source\PSoC4/Bluetooth_eventHandler.c ****         {
 457:Generated_Source\PSoC4/Bluetooth_eventHandler.c ****             (void)CyBle_GattsWriteRsp(eventParam->connHandle);
 458:Generated_Source\PSoC4/Bluetooth_eventHandler.c ****         }
 459:Generated_Source\PSoC4/Bluetooth_eventHandler.c ****     }
 460:Generated_Source\PSoC4/Bluetooth_eventHandler.c **** }
 461:Generated_Source\PSoC4/Bluetooth_eventHandler.c **** 
 462:Generated_Source\PSoC4/Bluetooth_eventHandler.c **** 
 463:Generated_Source\PSoC4/Bluetooth_eventHandler.c **** /****************************************************************************** 
 464:Generated_Source\PSoC4/Bluetooth_eventHandler.c **** * Function Name: CyBle_ValueConfirmation
 465:Generated_Source\PSoC4/Bluetooth_eventHandler.c **** ***************************************************************************//**
 466:Generated_Source\PSoC4/Bluetooth_eventHandler.c **** * 
 467:Generated_Source\PSoC4/Bluetooth_eventHandler.c **** *  Handles the Value Confirmation request event from the BLE stack.
 468:Generated_Source\PSoC4/Bluetooth_eventHandler.c **** * 
 469:Generated_Source\PSoC4/Bluetooth_eventHandler.c **** *  \param eventParam: Pointer to a structure of type 'CYBLE_CONN_HANDLE_T'
 470:Generated_Source\PSoC4/Bluetooth_eventHandler.c **** * 
 471:Generated_Source\PSoC4/Bluetooth_eventHandler.c **** * \return
 472:Generated_Source\PSoC4/Bluetooth_eventHandler.c **** *  None
 473:Generated_Source\PSoC4/Bluetooth_eventHandler.c **** * 
 474:Generated_Source\PSoC4/Bluetooth_eventHandler.c **** ******************************************************************************/
 475:Generated_Source\PSoC4/Bluetooth_eventHandler.c **** static void CyBle_ValueConfirmation(const CYBLE_CONN_HANDLE_T *eventParam)
 476:Generated_Source\PSoC4/Bluetooth_eventHandler.c **** {
 477:Generated_Source\PSoC4/Bluetooth_eventHandler.c ****     if(eventParam != NULL)
 478:Generated_Source\PSoC4/Bluetooth_eventHandler.c ****     {
 479:Generated_Source\PSoC4/Bluetooth_eventHandler.c ****     #ifdef CYBLE_AIOS_SERVER
 480:Generated_Source\PSoC4/Bluetooth_eventHandler.c ****         if((cyBle_eventHandlerFlag & CYBLE_CALLBACK) != 0u)
 481:Generated_Source\PSoC4/Bluetooth_eventHandler.c ****         {
 482:Generated_Source\PSoC4/Bluetooth_eventHandler.c ****             CyBle_AiossConfirmationEventHandler(eventParam);
 483:Generated_Source\PSoC4/Bluetooth_eventHandler.c ****         }
 484:Generated_Source\PSoC4/Bluetooth_eventHandler.c ****     #endif /* CYBLE_AIOS_SERVER */
 485:Generated_Source\PSoC4/Bluetooth_eventHandler.c ****     #ifdef CYBLE_BCS_SERVER
 486:Generated_Source\PSoC4/Bluetooth_eventHandler.c ****         CyBle_BcssConfirmationEventHandler(eventParam);
 487:Generated_Source\PSoC4/Bluetooth_eventHandler.c ****     #endif /* CYBLE_BCS_SERVER */
ARM GAS  C:\Windows\TEMP\ccTU3rlm.s 			page 10


 488:Generated_Source\PSoC4/Bluetooth_eventHandler.c ****     #ifdef CYBLE_BLS_SERVER
 489:Generated_Source\PSoC4/Bluetooth_eventHandler.c ****         if((cyBle_eventHandlerFlag & CYBLE_CALLBACK) != 0u)
 490:Generated_Source\PSoC4/Bluetooth_eventHandler.c ****         {
 491:Generated_Source\PSoC4/Bluetooth_eventHandler.c ****             CyBle_BlssConfirmationEventHandler(eventParam);
 492:Generated_Source\PSoC4/Bluetooth_eventHandler.c ****         }
 493:Generated_Source\PSoC4/Bluetooth_eventHandler.c ****     #endif /* CYBLE_BLS_SERVER */
 494:Generated_Source\PSoC4/Bluetooth_eventHandler.c ****     
 495:Generated_Source\PSoC4/Bluetooth_eventHandler.c ****     #ifdef CYBLE_CGMS_SERVER
 496:Generated_Source\PSoC4/Bluetooth_eventHandler.c ****         if((cyBle_eventHandlerFlag & CYBLE_CALLBACK) != 0u)
 497:Generated_Source\PSoC4/Bluetooth_eventHandler.c ****         {
 498:Generated_Source\PSoC4/Bluetooth_eventHandler.c ****             CyBle_CgmssConfirmationEventHandler(eventParam);
 499:Generated_Source\PSoC4/Bluetooth_eventHandler.c ****         }
 500:Generated_Source\PSoC4/Bluetooth_eventHandler.c ****     #endif /* CYBLE_CGMS_SERVER */
 501:Generated_Source\PSoC4/Bluetooth_eventHandler.c ****     
 502:Generated_Source\PSoC4/Bluetooth_eventHandler.c ****     #ifdef CYBLE_CPS_SERVER
 503:Generated_Source\PSoC4/Bluetooth_eventHandler.c ****         if((cyBle_eventHandlerFlag & CYBLE_CALLBACK) != 0u)
 504:Generated_Source\PSoC4/Bluetooth_eventHandler.c ****         {
 505:Generated_Source\PSoC4/Bluetooth_eventHandler.c ****             CyBle_CpssConfirmationEventHandler(eventParam);
 506:Generated_Source\PSoC4/Bluetooth_eventHandler.c ****         }
 507:Generated_Source\PSoC4/Bluetooth_eventHandler.c ****     #endif /* CYBLE_CPS_SERVER */
 508:Generated_Source\PSoC4/Bluetooth_eventHandler.c ****     
 509:Generated_Source\PSoC4/Bluetooth_eventHandler.c ****     #ifdef CYBLE_CSCS_SERVER
 510:Generated_Source\PSoC4/Bluetooth_eventHandler.c ****         if((cyBle_eventHandlerFlag & CYBLE_CALLBACK) != 0u)
 511:Generated_Source\PSoC4/Bluetooth_eventHandler.c ****         {
 512:Generated_Source\PSoC4/Bluetooth_eventHandler.c ****             CyBle_CscssConfirmationEventHandler(eventParam);
 513:Generated_Source\PSoC4/Bluetooth_eventHandler.c ****         }
 514:Generated_Source\PSoC4/Bluetooth_eventHandler.c ****     #endif /* CYBLE_CSCS_SERVER */
 515:Generated_Source\PSoC4/Bluetooth_eventHandler.c ****     
 516:Generated_Source\PSoC4/Bluetooth_eventHandler.c ****     #ifdef CYBLE_ESS_SERVER
 517:Generated_Source\PSoC4/Bluetooth_eventHandler.c ****         if((cyBle_eventHandlerFlag & CYBLE_CALLBACK) != 0u)
 518:Generated_Source\PSoC4/Bluetooth_eventHandler.c ****         {
 519:Generated_Source\PSoC4/Bluetooth_eventHandler.c ****             CyBle_EsssConfirmationEventHandler(eventParam);
 520:Generated_Source\PSoC4/Bluetooth_eventHandler.c ****         }
 521:Generated_Source\PSoC4/Bluetooth_eventHandler.c ****     #endif /* CYBLE_ESS_SERVER */
 522:Generated_Source\PSoC4/Bluetooth_eventHandler.c ****     
 523:Generated_Source\PSoC4/Bluetooth_eventHandler.c ****     #ifdef CYBLE_GLS_SERVER
 524:Generated_Source\PSoC4/Bluetooth_eventHandler.c ****         if((cyBle_eventHandlerFlag & CYBLE_CALLBACK) != 0u)
 525:Generated_Source\PSoC4/Bluetooth_eventHandler.c ****         {
 526:Generated_Source\PSoC4/Bluetooth_eventHandler.c ****             CyBle_GlssConfirmationEventHandler(eventParam);
 527:Generated_Source\PSoC4/Bluetooth_eventHandler.c ****         }
 528:Generated_Source\PSoC4/Bluetooth_eventHandler.c ****     #endif /* CYBLE_GLS_SERVER */
 529:Generated_Source\PSoC4/Bluetooth_eventHandler.c ****     
 530:Generated_Source\PSoC4/Bluetooth_eventHandler.c ****     #ifdef CYBLE_HTS_SERVER
 531:Generated_Source\PSoC4/Bluetooth_eventHandler.c ****         if((cyBle_eventHandlerFlag & CYBLE_CALLBACK) != 0u)
 532:Generated_Source\PSoC4/Bluetooth_eventHandler.c ****         {
 533:Generated_Source\PSoC4/Bluetooth_eventHandler.c ****             CyBle_HtssConfirmationEventHandler(eventParam);
 534:Generated_Source\PSoC4/Bluetooth_eventHandler.c ****         }
 535:Generated_Source\PSoC4/Bluetooth_eventHandler.c ****     #endif /* CYBLE_HTS_SERVER */
 536:Generated_Source\PSoC4/Bluetooth_eventHandler.c **** 
 537:Generated_Source\PSoC4/Bluetooth_eventHandler.c ****     #ifdef CYBLE_LNS_SERVER
 538:Generated_Source\PSoC4/Bluetooth_eventHandler.c ****         if((cyBle_eventHandlerFlag & CYBLE_CALLBACK) != 0u)
 539:Generated_Source\PSoC4/Bluetooth_eventHandler.c ****         {
 540:Generated_Source\PSoC4/Bluetooth_eventHandler.c ****             CyBle_LnssConfirmationEventHandler(eventParam);
 541:Generated_Source\PSoC4/Bluetooth_eventHandler.c ****         }
 542:Generated_Source\PSoC4/Bluetooth_eventHandler.c ****     #endif /* CYBLE_LNS_SERVER */
 543:Generated_Source\PSoC4/Bluetooth_eventHandler.c ****     
 544:Generated_Source\PSoC4/Bluetooth_eventHandler.c ****     #ifdef CYBLE_OTS_SERVER
ARM GAS  C:\Windows\TEMP\ccTU3rlm.s 			page 11


 545:Generated_Source\PSoC4/Bluetooth_eventHandler.c ****         if((cyBle_eventHandlerFlag & CYBLE_CALLBACK) != 0u)
 546:Generated_Source\PSoC4/Bluetooth_eventHandler.c ****         {
 547:Generated_Source\PSoC4/Bluetooth_eventHandler.c ****             CyBle_OtssConfirmationEventHandler(eventParam);
 548:Generated_Source\PSoC4/Bluetooth_eventHandler.c ****         }
 549:Generated_Source\PSoC4/Bluetooth_eventHandler.c ****     #endif /* CYBLE_OTS_SERVER */
 550:Generated_Source\PSoC4/Bluetooth_eventHandler.c ****     
 551:Generated_Source\PSoC4/Bluetooth_eventHandler.c ****     #ifdef CYBLE_PLXS_SERVER
 552:Generated_Source\PSoC4/Bluetooth_eventHandler.c ****         if((cyBle_eventHandlerFlag & CYBLE_CALLBACK) != 0u)
 553:Generated_Source\PSoC4/Bluetooth_eventHandler.c ****         {
 554:Generated_Source\PSoC4/Bluetooth_eventHandler.c ****             CyBle_PlxssConfirmationEventHandler((CYBLE_CONN_HANDLE_T *)eventParam);
 555:Generated_Source\PSoC4/Bluetooth_eventHandler.c ****         }
 556:Generated_Source\PSoC4/Bluetooth_eventHandler.c ****     #endif /* CYBLE_PLXS_SERVER */
 557:Generated_Source\PSoC4/Bluetooth_eventHandler.c ****     
 558:Generated_Source\PSoC4/Bluetooth_eventHandler.c ****     #ifdef CYBLE_RSCS_SERVER
 559:Generated_Source\PSoC4/Bluetooth_eventHandler.c ****         if((cyBle_eventHandlerFlag & CYBLE_CALLBACK) != 0u)
 560:Generated_Source\PSoC4/Bluetooth_eventHandler.c ****         {
 561:Generated_Source\PSoC4/Bluetooth_eventHandler.c ****             CyBle_RscssConfirmationEventHandler(eventParam);
 562:Generated_Source\PSoC4/Bluetooth_eventHandler.c ****         }
 563:Generated_Source\PSoC4/Bluetooth_eventHandler.c ****     #endif /* CYBLE_RSCS_SERVER */
 564:Generated_Source\PSoC4/Bluetooth_eventHandler.c ****     
 565:Generated_Source\PSoC4/Bluetooth_eventHandler.c ****     #ifdef CYBLE_UDS_SERVER
 566:Generated_Source\PSoC4/Bluetooth_eventHandler.c ****         if((cyBle_eventHandlerFlag & CYBLE_CALLBACK) != 0u)
 567:Generated_Source\PSoC4/Bluetooth_eventHandler.c ****         {
 568:Generated_Source\PSoC4/Bluetooth_eventHandler.c ****             CyBle_UdssConfirmationEventHandler(eventParam);
 569:Generated_Source\PSoC4/Bluetooth_eventHandler.c ****         }
 570:Generated_Source\PSoC4/Bluetooth_eventHandler.c ****     #endif /* CYBLE_UDS_SERVER */
 571:Generated_Source\PSoC4/Bluetooth_eventHandler.c ****     
 572:Generated_Source\PSoC4/Bluetooth_eventHandler.c ****     #ifdef CYBLE_WPTS_SERVER
 573:Generated_Source\PSoC4/Bluetooth_eventHandler.c ****         if((cyBle_eventHandlerFlag & CYBLE_CALLBACK) != 0u)
 574:Generated_Source\PSoC4/Bluetooth_eventHandler.c ****         {
 575:Generated_Source\PSoC4/Bluetooth_eventHandler.c ****             CyBle_WptssConfirmationEventHandler(eventParam);
 576:Generated_Source\PSoC4/Bluetooth_eventHandler.c ****         }
 577:Generated_Source\PSoC4/Bluetooth_eventHandler.c ****     #endif /* CYBLE_WPTS_SERVER */
 578:Generated_Source\PSoC4/Bluetooth_eventHandler.c ****     
 579:Generated_Source\PSoC4/Bluetooth_eventHandler.c ****     #ifdef CYBLE_WSS_SERVER
 580:Generated_Source\PSoC4/Bluetooth_eventHandler.c ****         if((cyBle_eventHandlerFlag & CYBLE_CALLBACK) != 0u)
 581:Generated_Source\PSoC4/Bluetooth_eventHandler.c ****         {
 582:Generated_Source\PSoC4/Bluetooth_eventHandler.c ****             CyBle_WsssConfirmationEventHandler(eventParam);
 583:Generated_Source\PSoC4/Bluetooth_eventHandler.c ****         }
 584:Generated_Source\PSoC4/Bluetooth_eventHandler.c ****     #endif /* CYBLE_WSS_SERVER */
 585:Generated_Source\PSoC4/Bluetooth_eventHandler.c ****     }
 586:Generated_Source\PSoC4/Bluetooth_eventHandler.c **** }
 587:Generated_Source\PSoC4/Bluetooth_eventHandler.c **** 
 588:Generated_Source\PSoC4/Bluetooth_eventHandler.c **** #endif /* CYBLE_GATT_ROLE_SERVER */
 589:Generated_Source\PSoC4/Bluetooth_eventHandler.c **** 
 590:Generated_Source\PSoC4/Bluetooth_eventHandler.c **** 
 591:Generated_Source\PSoC4/Bluetooth_eventHandler.c **** #if (CYBLE_GATT_ROLE_CLIENT)
 592:Generated_Source\PSoC4/Bluetooth_eventHandler.c **** 
 593:Generated_Source\PSoC4/Bluetooth_eventHandler.c **** /****************************************************************************** 
 594:Generated_Source\PSoC4/Bluetooth_eventHandler.c **** * Function Name: CyBle_GattcWriteResponseEventHandler
 595:Generated_Source\PSoC4/Bluetooth_eventHandler.c **** ***************************************************************************//**
 596:Generated_Source\PSoC4/Bluetooth_eventHandler.c **** * 
 597:Generated_Source\PSoC4/Bluetooth_eventHandler.c **** *  Handles the Write response event from the BLE stack.
 598:Generated_Source\PSoC4/Bluetooth_eventHandler.c **** * 
 599:Generated_Source\PSoC4/Bluetooth_eventHandler.c **** *  \param eventParam: Pointer to a structure of type 'CYBLE_CONN_HANDLE_T'
 600:Generated_Source\PSoC4/Bluetooth_eventHandler.c **** * 
 601:Generated_Source\PSoC4/Bluetooth_eventHandler.c **** * \return
ARM GAS  C:\Windows\TEMP\ccTU3rlm.s 			page 12


 602:Generated_Source\PSoC4/Bluetooth_eventHandler.c **** *  None
 603:Generated_Source\PSoC4/Bluetooth_eventHandler.c **** * 
 604:Generated_Source\PSoC4/Bluetooth_eventHandler.c **** ******************************************************************************/
 605:Generated_Source\PSoC4/Bluetooth_eventHandler.c **** static void CyBle_GattcWriteResponseEventHandler(const CYBLE_CONN_HANDLE_T *eventParam)
 606:Generated_Source\PSoC4/Bluetooth_eventHandler.c **** {
 607:Generated_Source\PSoC4/Bluetooth_eventHandler.c **** 
 608:Generated_Source\PSoC4/Bluetooth_eventHandler.c **** #ifdef CYBLE_AIOS_CLIENT
 609:Generated_Source\PSoC4/Bluetooth_eventHandler.c ****     if((cyBle_eventHandlerFlag & CYBLE_CALLBACK) != 0u)
 610:Generated_Source\PSoC4/Bluetooth_eventHandler.c ****     {
 611:Generated_Source\PSoC4/Bluetooth_eventHandler.c ****         CyBle_AioscWriteResponseEventHandler(eventParam);
 612:Generated_Source\PSoC4/Bluetooth_eventHandler.c ****     }
 613:Generated_Source\PSoC4/Bluetooth_eventHandler.c **** #endif /* CYBLE_AIOS_CLIENT */
 614:Generated_Source\PSoC4/Bluetooth_eventHandler.c **** 
 615:Generated_Source\PSoC4/Bluetooth_eventHandler.c **** #ifdef CYBLE_ANCS_CLIENT
 616:Generated_Source\PSoC4/Bluetooth_eventHandler.c ****     CyBle_AncscWriteResponseEventHandler(eventParam);
 617:Generated_Source\PSoC4/Bluetooth_eventHandler.c **** #endif /* CYBLE_ANCS_CLIENT */
 618:Generated_Source\PSoC4/Bluetooth_eventHandler.c **** 
 619:Generated_Source\PSoC4/Bluetooth_eventHandler.c **** #ifdef CYBLE_ANS_CLIENT
 620:Generated_Source\PSoC4/Bluetooth_eventHandler.c ****     if((cyBle_eventHandlerFlag & CYBLE_CALLBACK) != 0u)
 621:Generated_Source\PSoC4/Bluetooth_eventHandler.c ****     {
 622:Generated_Source\PSoC4/Bluetooth_eventHandler.c ****         CyBle_AnscWriteResponseEventHandler(eventParam);
 623:Generated_Source\PSoC4/Bluetooth_eventHandler.c ****     }
 624:Generated_Source\PSoC4/Bluetooth_eventHandler.c **** #endif /* CYBLE_ANS_CLIENT */
 625:Generated_Source\PSoC4/Bluetooth_eventHandler.c **** 
 626:Generated_Source\PSoC4/Bluetooth_eventHandler.c **** #ifdef CYBLE_BAS_CLIENT
 627:Generated_Source\PSoC4/Bluetooth_eventHandler.c ****     if((cyBle_eventHandlerFlag & CYBLE_CALLBACK) != 0u)
 628:Generated_Source\PSoC4/Bluetooth_eventHandler.c ****     {
 629:Generated_Source\PSoC4/Bluetooth_eventHandler.c ****         CyBle_BascWriteResponseEventHandler(eventParam);
 630:Generated_Source\PSoC4/Bluetooth_eventHandler.c ****     }
 631:Generated_Source\PSoC4/Bluetooth_eventHandler.c **** #endif /* CYBLE_BAS_CLIENT */
 632:Generated_Source\PSoC4/Bluetooth_eventHandler.c **** 
 633:Generated_Source\PSoC4/Bluetooth_eventHandler.c **** #ifdef CYBLE_BCS_CLIENT
 634:Generated_Source\PSoC4/Bluetooth_eventHandler.c ****     if((cyBle_eventHandlerFlag & CYBLE_CALLBACK) != 0u)
 635:Generated_Source\PSoC4/Bluetooth_eventHandler.c ****     {
 636:Generated_Source\PSoC4/Bluetooth_eventHandler.c ****         CyBle_BcscWriteResponseEventHandler(eventParam);
 637:Generated_Source\PSoC4/Bluetooth_eventHandler.c ****     }
 638:Generated_Source\PSoC4/Bluetooth_eventHandler.c **** #endif /* CYBLE_BCS_CLIENT */
 639:Generated_Source\PSoC4/Bluetooth_eventHandler.c **** 
 640:Generated_Source\PSoC4/Bluetooth_eventHandler.c **** #ifdef CYBLE_BLS_CLIENT
 641:Generated_Source\PSoC4/Bluetooth_eventHandler.c ****     if((cyBle_eventHandlerFlag & CYBLE_CALLBACK) != 0u)
 642:Generated_Source\PSoC4/Bluetooth_eventHandler.c ****     {
 643:Generated_Source\PSoC4/Bluetooth_eventHandler.c ****         CyBle_BlscWriteResponseEventHandler(eventParam);
 644:Generated_Source\PSoC4/Bluetooth_eventHandler.c ****     }
 645:Generated_Source\PSoC4/Bluetooth_eventHandler.c **** #endif /* CYBLE_BLS_CLIENT */
 646:Generated_Source\PSoC4/Bluetooth_eventHandler.c **** 
 647:Generated_Source\PSoC4/Bluetooth_eventHandler.c **** #ifdef CYBLE_BMS_CLIENT
 648:Generated_Source\PSoC4/Bluetooth_eventHandler.c ****     if((cyBle_eventHandlerFlag & CYBLE_CALLBACK) != 0u)
 649:Generated_Source\PSoC4/Bluetooth_eventHandler.c ****     {
 650:Generated_Source\PSoC4/Bluetooth_eventHandler.c ****         CyBle_BmscWriteResponseEventHandler(eventParam);
 651:Generated_Source\PSoC4/Bluetooth_eventHandler.c ****     }
 652:Generated_Source\PSoC4/Bluetooth_eventHandler.c **** #endif /* CYBLE_BMS_CLIENT */
 653:Generated_Source\PSoC4/Bluetooth_eventHandler.c **** 
 654:Generated_Source\PSoC4/Bluetooth_eventHandler.c **** #ifdef CYBLE_CGMS_CLIENT
 655:Generated_Source\PSoC4/Bluetooth_eventHandler.c ****     if((cyBle_eventHandlerFlag & CYBLE_CALLBACK) != 0u)
 656:Generated_Source\PSoC4/Bluetooth_eventHandler.c ****     {
 657:Generated_Source\PSoC4/Bluetooth_eventHandler.c ****         CyBle_CgmscWriteResponseEventHandler(eventParam);
 658:Generated_Source\PSoC4/Bluetooth_eventHandler.c ****     }
ARM GAS  C:\Windows\TEMP\ccTU3rlm.s 			page 13


 659:Generated_Source\PSoC4/Bluetooth_eventHandler.c **** #endif /* CYBLE_CGMS_CLIENT */
 660:Generated_Source\PSoC4/Bluetooth_eventHandler.c **** 
 661:Generated_Source\PSoC4/Bluetooth_eventHandler.c **** #ifdef CYBLE_CPS_CLIENT
 662:Generated_Source\PSoC4/Bluetooth_eventHandler.c ****     if((cyBle_eventHandlerFlag & CYBLE_CALLBACK) != 0u)
 663:Generated_Source\PSoC4/Bluetooth_eventHandler.c ****     {
 664:Generated_Source\PSoC4/Bluetooth_eventHandler.c ****         CyBle_CpscWriteResponseEventHandler(eventParam);
 665:Generated_Source\PSoC4/Bluetooth_eventHandler.c ****     }
 666:Generated_Source\PSoC4/Bluetooth_eventHandler.c **** #endif /* CYBLE_CPS_CLIENT */
 667:Generated_Source\PSoC4/Bluetooth_eventHandler.c **** 
 668:Generated_Source\PSoC4/Bluetooth_eventHandler.c **** #ifdef CYBLE_CSCS_CLIENT
 669:Generated_Source\PSoC4/Bluetooth_eventHandler.c ****     if((cyBle_eventHandlerFlag & CYBLE_CALLBACK) != 0u)
 670:Generated_Source\PSoC4/Bluetooth_eventHandler.c ****     {
 671:Generated_Source\PSoC4/Bluetooth_eventHandler.c ****         CyBle_CscscWriteResponseEventHandler(eventParam);
 672:Generated_Source\PSoC4/Bluetooth_eventHandler.c ****     }
 673:Generated_Source\PSoC4/Bluetooth_eventHandler.c **** #endif /* CYBLE_CSCS_CLIENT */
 674:Generated_Source\PSoC4/Bluetooth_eventHandler.c **** 
 675:Generated_Source\PSoC4/Bluetooth_eventHandler.c **** #ifdef CYBLE_CTS_CLIENT
 676:Generated_Source\PSoC4/Bluetooth_eventHandler.c ****     if((cyBle_eventHandlerFlag & CYBLE_CALLBACK) != 0u)
 677:Generated_Source\PSoC4/Bluetooth_eventHandler.c ****     {
 678:Generated_Source\PSoC4/Bluetooth_eventHandler.c ****         CyBle_CtscWriteResponseEventHandler(eventParam);
 679:Generated_Source\PSoC4/Bluetooth_eventHandler.c ****     }
 680:Generated_Source\PSoC4/Bluetooth_eventHandler.c **** #endif /* CYBLE_CTS_CLIENT */
 681:Generated_Source\PSoC4/Bluetooth_eventHandler.c **** 
 682:Generated_Source\PSoC4/Bluetooth_eventHandler.c **** #ifdef CYBLE_ESS_CLIENT
 683:Generated_Source\PSoC4/Bluetooth_eventHandler.c ****     if((cyBle_eventHandlerFlag & CYBLE_CALLBACK) != 0u)
 684:Generated_Source\PSoC4/Bluetooth_eventHandler.c ****     {
 685:Generated_Source\PSoC4/Bluetooth_eventHandler.c ****         CyBle_EsscWriteResponseEventHandler(eventParam);
 686:Generated_Source\PSoC4/Bluetooth_eventHandler.c ****     }
 687:Generated_Source\PSoC4/Bluetooth_eventHandler.c **** #endif /* CYBLE_ESS_CLIENT */
 688:Generated_Source\PSoC4/Bluetooth_eventHandler.c **** 
 689:Generated_Source\PSoC4/Bluetooth_eventHandler.c **** #ifdef CYBLE_GLS_CLIENT
 690:Generated_Source\PSoC4/Bluetooth_eventHandler.c ****     if((cyBle_eventHandlerFlag & CYBLE_CALLBACK) != 0u)
 691:Generated_Source\PSoC4/Bluetooth_eventHandler.c ****     {
 692:Generated_Source\PSoC4/Bluetooth_eventHandler.c ****         CyBle_GlscWriteResponseEventHandler(eventParam);
 693:Generated_Source\PSoC4/Bluetooth_eventHandler.c ****     }
 694:Generated_Source\PSoC4/Bluetooth_eventHandler.c **** #endif /* CYBLE_GLS_CLIENT */
 695:Generated_Source\PSoC4/Bluetooth_eventHandler.c **** 
 696:Generated_Source\PSoC4/Bluetooth_eventHandler.c **** #ifdef CYBLE_HIDS_CLIENT
 697:Generated_Source\PSoC4/Bluetooth_eventHandler.c ****     if((cyBle_eventHandlerFlag & CYBLE_CALLBACK) != 0u)
 698:Generated_Source\PSoC4/Bluetooth_eventHandler.c ****     {
 699:Generated_Source\PSoC4/Bluetooth_eventHandler.c ****         CyBle_HidscWriteResponseEventHandler(eventParam);
 700:Generated_Source\PSoC4/Bluetooth_eventHandler.c ****     }
 701:Generated_Source\PSoC4/Bluetooth_eventHandler.c **** #endif /* CYBLE_HIDS_CLIENT */
 702:Generated_Source\PSoC4/Bluetooth_eventHandler.c **** 
 703:Generated_Source\PSoC4/Bluetooth_eventHandler.c **** #ifdef CYBLE_HPS_CLIENT
 704:Generated_Source\PSoC4/Bluetooth_eventHandler.c ****     if((cyBle_eventHandlerFlag & CYBLE_CALLBACK) != 0u)
 705:Generated_Source\PSoC4/Bluetooth_eventHandler.c ****     {
 706:Generated_Source\PSoC4/Bluetooth_eventHandler.c ****         CyBle_HpscWriteResponseEventHandler(eventParam);
 707:Generated_Source\PSoC4/Bluetooth_eventHandler.c ****     }
 708:Generated_Source\PSoC4/Bluetooth_eventHandler.c **** #endif /* CYBLE_HPS_CLIENT */
 709:Generated_Source\PSoC4/Bluetooth_eventHandler.c **** 
 710:Generated_Source\PSoC4/Bluetooth_eventHandler.c **** #ifdef CYBLE_HRS_CLIENT
 711:Generated_Source\PSoC4/Bluetooth_eventHandler.c ****     if((cyBle_eventHandlerFlag & CYBLE_CALLBACK) != 0u)
 712:Generated_Source\PSoC4/Bluetooth_eventHandler.c ****     {
 713:Generated_Source\PSoC4/Bluetooth_eventHandler.c ****         CyBle_HrscWriteResponseEventHandler(eventParam);
 714:Generated_Source\PSoC4/Bluetooth_eventHandler.c ****     }
 715:Generated_Source\PSoC4/Bluetooth_eventHandler.c **** #endif /* CYBLE_HRS_CLIENT */
ARM GAS  C:\Windows\TEMP\ccTU3rlm.s 			page 14


 716:Generated_Source\PSoC4/Bluetooth_eventHandler.c **** 
 717:Generated_Source\PSoC4/Bluetooth_eventHandler.c **** #ifdef CYBLE_HTS_CLIENT
 718:Generated_Source\PSoC4/Bluetooth_eventHandler.c ****     if((cyBle_eventHandlerFlag & CYBLE_CALLBACK) != 0u)
 719:Generated_Source\PSoC4/Bluetooth_eventHandler.c ****     {
 720:Generated_Source\PSoC4/Bluetooth_eventHandler.c ****         CyBle_HtscWriteResponseEventHandler(eventParam);
 721:Generated_Source\PSoC4/Bluetooth_eventHandler.c ****     }
 722:Generated_Source\PSoC4/Bluetooth_eventHandler.c **** #endif /* CYBLE_HTS_CLIENT */
 723:Generated_Source\PSoC4/Bluetooth_eventHandler.c **** 
 724:Generated_Source\PSoC4/Bluetooth_eventHandler.c **** #ifdef CYBLE_IPS_CLIENT
 725:Generated_Source\PSoC4/Bluetooth_eventHandler.c ****     if((cyBle_eventHandlerFlag & CYBLE_CALLBACK) != 0u)
 726:Generated_Source\PSoC4/Bluetooth_eventHandler.c ****     {
 727:Generated_Source\PSoC4/Bluetooth_eventHandler.c ****         CyBle_IpscWriteResponseEventHandler(eventParam);
 728:Generated_Source\PSoC4/Bluetooth_eventHandler.c ****     }
 729:Generated_Source\PSoC4/Bluetooth_eventHandler.c **** #endif /* CYBLE_IPS_CLIENT */
 730:Generated_Source\PSoC4/Bluetooth_eventHandler.c **** 
 731:Generated_Source\PSoC4/Bluetooth_eventHandler.c **** #ifdef CYBLE_LLS_CLIENT
 732:Generated_Source\PSoC4/Bluetooth_eventHandler.c ****     if((cyBle_eventHandlerFlag & CYBLE_CALLBACK) != 0u)
 733:Generated_Source\PSoC4/Bluetooth_eventHandler.c ****     {
 734:Generated_Source\PSoC4/Bluetooth_eventHandler.c ****         CyBle_LlscWriteResponseEventHandler(eventParam);
 735:Generated_Source\PSoC4/Bluetooth_eventHandler.c ****     }
 736:Generated_Source\PSoC4/Bluetooth_eventHandler.c **** #endif /* CYBLE_LLS_CLIENT */
 737:Generated_Source\PSoC4/Bluetooth_eventHandler.c **** 
 738:Generated_Source\PSoC4/Bluetooth_eventHandler.c **** #ifdef CYBLE_LNS_CLIENT
 739:Generated_Source\PSoC4/Bluetooth_eventHandler.c ****     if((cyBle_eventHandlerFlag & CYBLE_CALLBACK) != 0u)
 740:Generated_Source\PSoC4/Bluetooth_eventHandler.c ****     {
 741:Generated_Source\PSoC4/Bluetooth_eventHandler.c ****         CyBle_LnscWriteResponseEventHandler(eventParam);
 742:Generated_Source\PSoC4/Bluetooth_eventHandler.c ****     }
 743:Generated_Source\PSoC4/Bluetooth_eventHandler.c **** #endif /* CYBLE_LNS_CLIENT */
 744:Generated_Source\PSoC4/Bluetooth_eventHandler.c **** 
 745:Generated_Source\PSoC4/Bluetooth_eventHandler.c **** #ifdef CYBLE_OTS_CLIENT
 746:Generated_Source\PSoC4/Bluetooth_eventHandler.c ****     if((cyBle_eventHandlerFlag & CYBLE_CALLBACK) != 0u)
 747:Generated_Source\PSoC4/Bluetooth_eventHandler.c ****     {
 748:Generated_Source\PSoC4/Bluetooth_eventHandler.c ****         CyBle_OtscWriteResponseEventHandler(eventParam);
 749:Generated_Source\PSoC4/Bluetooth_eventHandler.c ****     }
 750:Generated_Source\PSoC4/Bluetooth_eventHandler.c **** #endif /* CYBLE_OTS_CLIENT */
 751:Generated_Source\PSoC4/Bluetooth_eventHandler.c **** 
 752:Generated_Source\PSoC4/Bluetooth_eventHandler.c **** #ifdef CYBLE_PASS_CLIENT
 753:Generated_Source\PSoC4/Bluetooth_eventHandler.c ****     if((cyBle_eventHandlerFlag & CYBLE_CALLBACK) != 0u)
 754:Generated_Source\PSoC4/Bluetooth_eventHandler.c ****     {
 755:Generated_Source\PSoC4/Bluetooth_eventHandler.c ****         CyBle_PasscWriteResponseEventHandler(eventParam);
 756:Generated_Source\PSoC4/Bluetooth_eventHandler.c ****     }
 757:Generated_Source\PSoC4/Bluetooth_eventHandler.c **** #endif /* CYBLE_PASS_CLIENT */
 758:Generated_Source\PSoC4/Bluetooth_eventHandler.c **** 
 759:Generated_Source\PSoC4/Bluetooth_eventHandler.c **** #ifdef CYBLE_PLXS_CLIENT
 760:Generated_Source\PSoC4/Bluetooth_eventHandler.c ****     if((cyBle_eventHandlerFlag & CYBLE_CALLBACK) != 0u)
 761:Generated_Source\PSoC4/Bluetooth_eventHandler.c ****     {
 762:Generated_Source\PSoC4/Bluetooth_eventHandler.c ****         CyBle_PlxscWriteResponseEventHandler(eventParam);
 763:Generated_Source\PSoC4/Bluetooth_eventHandler.c ****     }
 764:Generated_Source\PSoC4/Bluetooth_eventHandler.c **** #endif /* CYBLE_PASS_CLIENT */
 765:Generated_Source\PSoC4/Bluetooth_eventHandler.c **** 
 766:Generated_Source\PSoC4/Bluetooth_eventHandler.c **** #ifdef CYBLE_RSCS_CLIENT
 767:Generated_Source\PSoC4/Bluetooth_eventHandler.c ****     if((cyBle_eventHandlerFlag & CYBLE_CALLBACK) != 0u)
 768:Generated_Source\PSoC4/Bluetooth_eventHandler.c ****     {
 769:Generated_Source\PSoC4/Bluetooth_eventHandler.c ****         CyBle_RscscWriteResponseEventHandler(eventParam);
 770:Generated_Source\PSoC4/Bluetooth_eventHandler.c ****     }
 771:Generated_Source\PSoC4/Bluetooth_eventHandler.c **** #endif /* CYBLE_RSCS_CLIENT */
 772:Generated_Source\PSoC4/Bluetooth_eventHandler.c **** 
ARM GAS  C:\Windows\TEMP\ccTU3rlm.s 			page 15


 773:Generated_Source\PSoC4/Bluetooth_eventHandler.c **** #ifdef CYBLE_SCPS_CLIENT
 774:Generated_Source\PSoC4/Bluetooth_eventHandler.c ****     if((cyBle_eventHandlerFlag & CYBLE_CALLBACK) != 0u)
 775:Generated_Source\PSoC4/Bluetooth_eventHandler.c ****     {
 776:Generated_Source\PSoC4/Bluetooth_eventHandler.c ****         CyBle_ScpscWriteResponseEventHandler(eventParam);
 777:Generated_Source\PSoC4/Bluetooth_eventHandler.c ****     }
 778:Generated_Source\PSoC4/Bluetooth_eventHandler.c **** #endif /* CYBLE_SCPS_CLIENT */
 779:Generated_Source\PSoC4/Bluetooth_eventHandler.c **** 
 780:Generated_Source\PSoC4/Bluetooth_eventHandler.c **** #ifdef CYBLE_TPS_CLIENT
 781:Generated_Source\PSoC4/Bluetooth_eventHandler.c ****     if((cyBle_eventHandlerFlag & CYBLE_CALLBACK) != 0u)
 782:Generated_Source\PSoC4/Bluetooth_eventHandler.c ****     {
 783:Generated_Source\PSoC4/Bluetooth_eventHandler.c ****         CyBle_TpscWriteResponseEventHandler(eventParam);
 784:Generated_Source\PSoC4/Bluetooth_eventHandler.c ****     }
 785:Generated_Source\PSoC4/Bluetooth_eventHandler.c **** #endif /* CYBLE_TPS_CLIENT */
 786:Generated_Source\PSoC4/Bluetooth_eventHandler.c **** 
 787:Generated_Source\PSoC4/Bluetooth_eventHandler.c **** #ifdef CYBLE_UDS_CLIENT
 788:Generated_Source\PSoC4/Bluetooth_eventHandler.c ****     if((cyBle_eventHandlerFlag & CYBLE_CALLBACK) != 0u)
 789:Generated_Source\PSoC4/Bluetooth_eventHandler.c ****     {
 790:Generated_Source\PSoC4/Bluetooth_eventHandler.c ****         CyBle_UdscWriteResponseEventHandler(eventParam);
 791:Generated_Source\PSoC4/Bluetooth_eventHandler.c ****     }
 792:Generated_Source\PSoC4/Bluetooth_eventHandler.c **** #endif /* CYBLE_UDS_CLIENT */
 793:Generated_Source\PSoC4/Bluetooth_eventHandler.c **** #ifdef CYBLE_WPTS_CLIENT
 794:Generated_Source\PSoC4/Bluetooth_eventHandler.c ****     if((cyBle_eventHandlerFlag & CYBLE_CALLBACK) != 0u)
 795:Generated_Source\PSoC4/Bluetooth_eventHandler.c ****     {
 796:Generated_Source\PSoC4/Bluetooth_eventHandler.c ****         CyBle_WptscWriteResponseEventHandler(eventParam);
 797:Generated_Source\PSoC4/Bluetooth_eventHandler.c ****     }
 798:Generated_Source\PSoC4/Bluetooth_eventHandler.c **** #endif /* CYBLE_WPTS_CLIENT */
 799:Generated_Source\PSoC4/Bluetooth_eventHandler.c **** #ifdef CYBLE_WSS_CLIENT
 800:Generated_Source\PSoC4/Bluetooth_eventHandler.c ****     if((cyBle_eventHandlerFlag & CYBLE_CALLBACK) != 0u)
 801:Generated_Source\PSoC4/Bluetooth_eventHandler.c ****     {
 802:Generated_Source\PSoC4/Bluetooth_eventHandler.c ****         CyBle_WsscWriteResponseEventHandler(eventParam);
 803:Generated_Source\PSoC4/Bluetooth_eventHandler.c ****     }
 804:Generated_Source\PSoC4/Bluetooth_eventHandler.c **** #endif /* CYBLE_WSS_CLIENT */
 805:Generated_Source\PSoC4/Bluetooth_eventHandler.c **** }
 806:Generated_Source\PSoC4/Bluetooth_eventHandler.c **** 
 807:Generated_Source\PSoC4/Bluetooth_eventHandler.c **** 
 808:Generated_Source\PSoC4/Bluetooth_eventHandler.c **** /******************************************************************************    
 809:Generated_Source\PSoC4/Bluetooth_eventHandler.c **** * Function Name: CyBle_NotificationEventHandler
 810:Generated_Source\PSoC4/Bluetooth_eventHandler.c **** ***************************************************************************//**
 811:Generated_Source\PSoC4/Bluetooth_eventHandler.c **** * 
 812:Generated_Source\PSoC4/Bluetooth_eventHandler.c **** *  Handles the Notification event from BLE stack.
 813:Generated_Source\PSoC4/Bluetooth_eventHandler.c **** * 
 814:Generated_Source\PSoC4/Bluetooth_eventHandler.c **** *  \param eventParam: event parameter
 815:Generated_Source\PSoC4/Bluetooth_eventHandler.c **** * 
 816:Generated_Source\PSoC4/Bluetooth_eventHandler.c **** * \return
 817:Generated_Source\PSoC4/Bluetooth_eventHandler.c **** *  None
 818:Generated_Source\PSoC4/Bluetooth_eventHandler.c **** * 
 819:Generated_Source\PSoC4/Bluetooth_eventHandler.c **** ******************************************************************************/
 820:Generated_Source\PSoC4/Bluetooth_eventHandler.c **** static void CyBle_NotificationEventHandler(CYBLE_GATTC_HANDLE_VALUE_NTF_PARAM_T *eventParam)
 821:Generated_Source\PSoC4/Bluetooth_eventHandler.c **** {
 822:Generated_Source\PSoC4/Bluetooth_eventHandler.c **** #ifdef CYBLE_AIOS_CLIENT
 823:Generated_Source\PSoC4/Bluetooth_eventHandler.c ****     if((cyBle_eventHandlerFlag & CYBLE_CALLBACK) != 0u)
 824:Generated_Source\PSoC4/Bluetooth_eventHandler.c ****     {
 825:Generated_Source\PSoC4/Bluetooth_eventHandler.c ****         CyBle_AioscNotificationEventHandler(eventParam);
 826:Generated_Source\PSoC4/Bluetooth_eventHandler.c ****     }
 827:Generated_Source\PSoC4/Bluetooth_eventHandler.c **** #endif /* CYBLE_AIOS_CLIENT */
 828:Generated_Source\PSoC4/Bluetooth_eventHandler.c **** #ifdef CYBLE_ANCS_CLIENT
 829:Generated_Source\PSoC4/Bluetooth_eventHandler.c ****     CyBle_AncscNotificationEventHandler(eventParam);
ARM GAS  C:\Windows\TEMP\ccTU3rlm.s 			page 16


 830:Generated_Source\PSoC4/Bluetooth_eventHandler.c **** #endif /* CYBLE_ANCS_CLIENT */
 831:Generated_Source\PSoC4/Bluetooth_eventHandler.c **** #ifdef CYBLE_ANS_CLIENT
 832:Generated_Source\PSoC4/Bluetooth_eventHandler.c ****     if((cyBle_eventHandlerFlag & CYBLE_CALLBACK) != 0u)
 833:Generated_Source\PSoC4/Bluetooth_eventHandler.c ****     {
 834:Generated_Source\PSoC4/Bluetooth_eventHandler.c ****         CyBle_AnscNotificationEventHandler(eventParam);
 835:Generated_Source\PSoC4/Bluetooth_eventHandler.c ****     }
 836:Generated_Source\PSoC4/Bluetooth_eventHandler.c **** #endif /* CYBLE_ANS_CLIENT */
 837:Generated_Source\PSoC4/Bluetooth_eventHandler.c **** #ifdef CYBLE_BAS_CLIENT
 838:Generated_Source\PSoC4/Bluetooth_eventHandler.c ****     if((cyBle_eventHandlerFlag & CYBLE_CALLBACK) != 0u)
 839:Generated_Source\PSoC4/Bluetooth_eventHandler.c ****     {
 840:Generated_Source\PSoC4/Bluetooth_eventHandler.c ****         CyBle_BascNotificationEventHandler(eventParam);
 841:Generated_Source\PSoC4/Bluetooth_eventHandler.c ****     }
 842:Generated_Source\PSoC4/Bluetooth_eventHandler.c **** #endif /* CYBLE_BAS_CLIENT */
 843:Generated_Source\PSoC4/Bluetooth_eventHandler.c **** #ifdef CYBLE_BLS_CLIENT
 844:Generated_Source\PSoC4/Bluetooth_eventHandler.c ****     if((cyBle_eventHandlerFlag & CYBLE_CALLBACK) != 0u)
 845:Generated_Source\PSoC4/Bluetooth_eventHandler.c ****     {
 846:Generated_Source\PSoC4/Bluetooth_eventHandler.c ****         CyBle_BlscNotificationEventHandler(eventParam);
 847:Generated_Source\PSoC4/Bluetooth_eventHandler.c ****     }
 848:Generated_Source\PSoC4/Bluetooth_eventHandler.c **** #endif /* CYBLE_BLS_CLIENT */
 849:Generated_Source\PSoC4/Bluetooth_eventHandler.c **** #ifdef CYBLE_CGMS_CLIENT
 850:Generated_Source\PSoC4/Bluetooth_eventHandler.c ****     if((cyBle_eventHandlerFlag & CYBLE_CALLBACK) != 0u)
 851:Generated_Source\PSoC4/Bluetooth_eventHandler.c ****     {
 852:Generated_Source\PSoC4/Bluetooth_eventHandler.c ****         CyBle_CgmscNotificationEventHandler(eventParam);
 853:Generated_Source\PSoC4/Bluetooth_eventHandler.c ****     }
 854:Generated_Source\PSoC4/Bluetooth_eventHandler.c **** #endif /* CYBLE_CGMS_CLIENT */
 855:Generated_Source\PSoC4/Bluetooth_eventHandler.c **** #ifdef CYBLE_CPS_CLIENT
 856:Generated_Source\PSoC4/Bluetooth_eventHandler.c ****     if((cyBle_eventHandlerFlag & CYBLE_CALLBACK) != 0u)
 857:Generated_Source\PSoC4/Bluetooth_eventHandler.c ****     {
 858:Generated_Source\PSoC4/Bluetooth_eventHandler.c ****         CyBle_CpscNotificationEventHandler(eventParam);
 859:Generated_Source\PSoC4/Bluetooth_eventHandler.c ****     }
 860:Generated_Source\PSoC4/Bluetooth_eventHandler.c **** #endif /* CYBLE_CPS_CLIENT */
 861:Generated_Source\PSoC4/Bluetooth_eventHandler.c **** #ifdef CYBLE_CSCS_CLIENT
 862:Generated_Source\PSoC4/Bluetooth_eventHandler.c ****     if((cyBle_eventHandlerFlag & CYBLE_CALLBACK) != 0u)
 863:Generated_Source\PSoC4/Bluetooth_eventHandler.c ****     {
 864:Generated_Source\PSoC4/Bluetooth_eventHandler.c ****         CyBle_CscscNotificationEventHandler(eventParam);
 865:Generated_Source\PSoC4/Bluetooth_eventHandler.c ****     }
 866:Generated_Source\PSoC4/Bluetooth_eventHandler.c **** #endif /* CYBLE_CSCS_CLIENT */
 867:Generated_Source\PSoC4/Bluetooth_eventHandler.c **** #ifdef CYBLE_CTS_CLIENT
 868:Generated_Source\PSoC4/Bluetooth_eventHandler.c ****     if((cyBle_eventHandlerFlag & CYBLE_CALLBACK) != 0u)
 869:Generated_Source\PSoC4/Bluetooth_eventHandler.c ****     {
 870:Generated_Source\PSoC4/Bluetooth_eventHandler.c ****         CyBle_CtscNotificationEventHandler(eventParam);
 871:Generated_Source\PSoC4/Bluetooth_eventHandler.c ****     }
 872:Generated_Source\PSoC4/Bluetooth_eventHandler.c **** #endif /* CYBLE_CTS_CLIENT */
 873:Generated_Source\PSoC4/Bluetooth_eventHandler.c **** #ifdef CYBLE_ESS_CLIENT
 874:Generated_Source\PSoC4/Bluetooth_eventHandler.c ****     if((cyBle_eventHandlerFlag & CYBLE_CALLBACK) != 0u)
 875:Generated_Source\PSoC4/Bluetooth_eventHandler.c ****     {
 876:Generated_Source\PSoC4/Bluetooth_eventHandler.c ****         CyBle_EsscNotificationEventHandler(eventParam);
 877:Generated_Source\PSoC4/Bluetooth_eventHandler.c ****     }
 878:Generated_Source\PSoC4/Bluetooth_eventHandler.c **** #endif /* CYBLE_ESS_CLIENT */
 879:Generated_Source\PSoC4/Bluetooth_eventHandler.c **** #ifdef CYBLE_GLS_CLIENT
 880:Generated_Source\PSoC4/Bluetooth_eventHandler.c ****     if((cyBle_eventHandlerFlag & CYBLE_CALLBACK) != 0u)
 881:Generated_Source\PSoC4/Bluetooth_eventHandler.c ****     {
 882:Generated_Source\PSoC4/Bluetooth_eventHandler.c ****         CyBle_GlscNotificationEventHandler(eventParam);
 883:Generated_Source\PSoC4/Bluetooth_eventHandler.c ****     }
 884:Generated_Source\PSoC4/Bluetooth_eventHandler.c **** #endif /* CYBLE_GLS_CLIENT */
 885:Generated_Source\PSoC4/Bluetooth_eventHandler.c **** #ifdef CYBLE_HIDS_CLIENT
 886:Generated_Source\PSoC4/Bluetooth_eventHandler.c ****     if((cyBle_eventHandlerFlag & CYBLE_CALLBACK) != 0u)
ARM GAS  C:\Windows\TEMP\ccTU3rlm.s 			page 17


 887:Generated_Source\PSoC4/Bluetooth_eventHandler.c ****     {
 888:Generated_Source\PSoC4/Bluetooth_eventHandler.c ****         CyBle_HidscNotificationEventHandler(eventParam);
 889:Generated_Source\PSoC4/Bluetooth_eventHandler.c ****     }
 890:Generated_Source\PSoC4/Bluetooth_eventHandler.c **** #endif /* CYBLE_HIDS_CLIENT */
 891:Generated_Source\PSoC4/Bluetooth_eventHandler.c **** #ifdef CYBLE_HPS_CLIENT
 892:Generated_Source\PSoC4/Bluetooth_eventHandler.c ****     if((cyBle_eventHandlerFlag & CYBLE_CALLBACK) != 0u)
 893:Generated_Source\PSoC4/Bluetooth_eventHandler.c ****     {
 894:Generated_Source\PSoC4/Bluetooth_eventHandler.c ****         CyBle_HpscNotificationEventHandler(eventParam);
 895:Generated_Source\PSoC4/Bluetooth_eventHandler.c ****     }
 896:Generated_Source\PSoC4/Bluetooth_eventHandler.c **** #endif /* CYBLE_HPS_CLIENT */
 897:Generated_Source\PSoC4/Bluetooth_eventHandler.c **** #ifdef CYBLE_HRS_CLIENT
 898:Generated_Source\PSoC4/Bluetooth_eventHandler.c ****     if((cyBle_eventHandlerFlag & CYBLE_CALLBACK) != 0u)
 899:Generated_Source\PSoC4/Bluetooth_eventHandler.c ****     {
 900:Generated_Source\PSoC4/Bluetooth_eventHandler.c ****         CyBle_HrscNotificationEventHandler(eventParam);
 901:Generated_Source\PSoC4/Bluetooth_eventHandler.c ****     }
 902:Generated_Source\PSoC4/Bluetooth_eventHandler.c **** #endif /* CYBLE_HRS_CLIENT */
 903:Generated_Source\PSoC4/Bluetooth_eventHandler.c **** #ifdef CYBLE_HTS_CLIENT
 904:Generated_Source\PSoC4/Bluetooth_eventHandler.c ****     if((cyBle_eventHandlerFlag & CYBLE_CALLBACK) != 0u)
 905:Generated_Source\PSoC4/Bluetooth_eventHandler.c ****     {
 906:Generated_Source\PSoC4/Bluetooth_eventHandler.c ****         CyBle_HtscNotificationEventHandler(eventParam);
 907:Generated_Source\PSoC4/Bluetooth_eventHandler.c ****     }
 908:Generated_Source\PSoC4/Bluetooth_eventHandler.c **** #endif /* CYBLE_HTS_CLIENT */
 909:Generated_Source\PSoC4/Bluetooth_eventHandler.c **** #ifdef CYBLE_LNS_CLIENT
 910:Generated_Source\PSoC4/Bluetooth_eventHandler.c ****     if((cyBle_eventHandlerFlag & CYBLE_CALLBACK) != 0u)
 911:Generated_Source\PSoC4/Bluetooth_eventHandler.c ****     {
 912:Generated_Source\PSoC4/Bluetooth_eventHandler.c ****         CyBle_LnscNotificationEventHandler(eventParam);
 913:Generated_Source\PSoC4/Bluetooth_eventHandler.c ****     }
 914:Generated_Source\PSoC4/Bluetooth_eventHandler.c **** #endif /* CYBLE_LNS_CLIENT */
 915:Generated_Source\PSoC4/Bluetooth_eventHandler.c **** #ifdef CYBLE_PASS_CLIENT
 916:Generated_Source\PSoC4/Bluetooth_eventHandler.c ****     if((cyBle_eventHandlerFlag & CYBLE_CALLBACK) != 0u)
 917:Generated_Source\PSoC4/Bluetooth_eventHandler.c ****     {
 918:Generated_Source\PSoC4/Bluetooth_eventHandler.c ****         CyBle_PasscNotificationEventHandler(eventParam);
 919:Generated_Source\PSoC4/Bluetooth_eventHandler.c ****     }
 920:Generated_Source\PSoC4/Bluetooth_eventHandler.c **** #endif /* CYBLE_PASS_CLIENT */
 921:Generated_Source\PSoC4/Bluetooth_eventHandler.c **** #ifdef CYBLE_PLXS_CLIENT
 922:Generated_Source\PSoC4/Bluetooth_eventHandler.c ****     if((cyBle_eventHandlerFlag & CYBLE_CALLBACK) != 0u)
 923:Generated_Source\PSoC4/Bluetooth_eventHandler.c ****     {
 924:Generated_Source\PSoC4/Bluetooth_eventHandler.c ****         CyBle_PlxscNotificationEventHandler(eventParam);
 925:Generated_Source\PSoC4/Bluetooth_eventHandler.c ****     }
 926:Generated_Source\PSoC4/Bluetooth_eventHandler.c **** #endif /* CYBLE_PLXS_CLIENT */
 927:Generated_Source\PSoC4/Bluetooth_eventHandler.c **** #ifdef CYBLE_RSCS_CLIENT
 928:Generated_Source\PSoC4/Bluetooth_eventHandler.c ****     if((cyBle_eventHandlerFlag & CYBLE_CALLBACK) != 0u)
 929:Generated_Source\PSoC4/Bluetooth_eventHandler.c ****     {
 930:Generated_Source\PSoC4/Bluetooth_eventHandler.c ****         CyBle_RscscNotificationEventHandler(eventParam);
 931:Generated_Source\PSoC4/Bluetooth_eventHandler.c ****     }
 932:Generated_Source\PSoC4/Bluetooth_eventHandler.c **** #endif /* CYBLE_RSCS_CLIENT */
 933:Generated_Source\PSoC4/Bluetooth_eventHandler.c **** #ifdef CYBLE_SCPS_CLIENT
 934:Generated_Source\PSoC4/Bluetooth_eventHandler.c ****     if((cyBle_eventHandlerFlag & CYBLE_CALLBACK) != 0u)
 935:Generated_Source\PSoC4/Bluetooth_eventHandler.c ****     {
 936:Generated_Source\PSoC4/Bluetooth_eventHandler.c ****         CyBle_ScpscNotificationEventHandler(eventParam);
 937:Generated_Source\PSoC4/Bluetooth_eventHandler.c ****     }
 938:Generated_Source\PSoC4/Bluetooth_eventHandler.c **** #endif /* CYBLE_SCPS_CLIENT */
 939:Generated_Source\PSoC4/Bluetooth_eventHandler.c **** #ifdef CYBLE_TPS_CLIENT
 940:Generated_Source\PSoC4/Bluetooth_eventHandler.c ****     if((cyBle_eventHandlerFlag & CYBLE_CALLBACK) != 0u)
 941:Generated_Source\PSoC4/Bluetooth_eventHandler.c ****     {
 942:Generated_Source\PSoC4/Bluetooth_eventHandler.c ****         CyBle_TpscNotificationEventHandler(eventParam);
 943:Generated_Source\PSoC4/Bluetooth_eventHandler.c ****     }
ARM GAS  C:\Windows\TEMP\ccTU3rlm.s 			page 18


 944:Generated_Source\PSoC4/Bluetooth_eventHandler.c **** #endif /* CYBLE_TPS_CLIENT */
 945:Generated_Source\PSoC4/Bluetooth_eventHandler.c **** #ifdef CYBLE_UDS_CLIENT
 946:Generated_Source\PSoC4/Bluetooth_eventHandler.c ****     if((cyBle_eventHandlerFlag & CYBLE_CALLBACK) != 0u)
 947:Generated_Source\PSoC4/Bluetooth_eventHandler.c ****     {
 948:Generated_Source\PSoC4/Bluetooth_eventHandler.c ****         CyBle_UdscNotificationEventHandler(eventParam);
 949:Generated_Source\PSoC4/Bluetooth_eventHandler.c ****     }
 950:Generated_Source\PSoC4/Bluetooth_eventHandler.c **** #endif /* CYBLE_UDS_CLIENT */
 951:Generated_Source\PSoC4/Bluetooth_eventHandler.c **** #ifdef CYBLE_WPTS_CLIENT
 952:Generated_Source\PSoC4/Bluetooth_eventHandler.c ****     if((cyBle_eventHandlerFlag & CYBLE_CALLBACK) != 0u)
 953:Generated_Source\PSoC4/Bluetooth_eventHandler.c ****     {
 954:Generated_Source\PSoC4/Bluetooth_eventHandler.c ****         CyBle_WptscNotificationEventHandler(eventParam);
 955:Generated_Source\PSoC4/Bluetooth_eventHandler.c ****     }
 956:Generated_Source\PSoC4/Bluetooth_eventHandler.c **** #endif /* CYBLE_WPTS_CLIENT */
 957:Generated_Source\PSoC4/Bluetooth_eventHandler.c **** }
 958:Generated_Source\PSoC4/Bluetooth_eventHandler.c **** 
 959:Generated_Source\PSoC4/Bluetooth_eventHandler.c **** 
 960:Generated_Source\PSoC4/Bluetooth_eventHandler.c **** /******************************************************************************    
 961:Generated_Source\PSoC4/Bluetooth_eventHandler.c **** * Function Name: CyBle_IndicationEventHandler
 962:Generated_Source\PSoC4/Bluetooth_eventHandler.c **** ***************************************************************************//**
 963:Generated_Source\PSoC4/Bluetooth_eventHandler.c **** * 
 964:Generated_Source\PSoC4/Bluetooth_eventHandler.c **** *  Handles the Indication event from BLE stack.
 965:Generated_Source\PSoC4/Bluetooth_eventHandler.c **** * 
 966:Generated_Source\PSoC4/Bluetooth_eventHandler.c **** *  \param eventParam: event parameter
 967:Generated_Source\PSoC4/Bluetooth_eventHandler.c **** * 
 968:Generated_Source\PSoC4/Bluetooth_eventHandler.c **** * \return
 969:Generated_Source\PSoC4/Bluetooth_eventHandler.c **** *  None
 970:Generated_Source\PSoC4/Bluetooth_eventHandler.c **** * 
 971:Generated_Source\PSoC4/Bluetooth_eventHandler.c **** ******************************************************************************/
 972:Generated_Source\PSoC4/Bluetooth_eventHandler.c **** static void CyBle_IndicationEventHandler(CYBLE_GATTC_HANDLE_VALUE_IND_PARAM_T *eventParam)
 973:Generated_Source\PSoC4/Bluetooth_eventHandler.c **** {
 974:Generated_Source\PSoC4/Bluetooth_eventHandler.c **** #ifdef CYBLE_AIOS_CLIENT
 975:Generated_Source\PSoC4/Bluetooth_eventHandler.c ****     if((cyBle_eventHandlerFlag & CYBLE_CALLBACK) != 0u)
 976:Generated_Source\PSoC4/Bluetooth_eventHandler.c ****     {
 977:Generated_Source\PSoC4/Bluetooth_eventHandler.c ****         CyBle_AioscIndicationEventHandler(eventParam);
 978:Generated_Source\PSoC4/Bluetooth_eventHandler.c ****     }
 979:Generated_Source\PSoC4/Bluetooth_eventHandler.c **** #endif /* CYBLE_AIOS_CLIENT */
 980:Generated_Source\PSoC4/Bluetooth_eventHandler.c **** #ifdef CYBLE_BCS_CLIENT
 981:Generated_Source\PSoC4/Bluetooth_eventHandler.c ****     if((cyBle_eventHandlerFlag & CYBLE_CALLBACK) != 0u)
 982:Generated_Source\PSoC4/Bluetooth_eventHandler.c ****     {
 983:Generated_Source\PSoC4/Bluetooth_eventHandler.c ****         CyBle_BcscIndicationEventHandler(eventParam);
 984:Generated_Source\PSoC4/Bluetooth_eventHandler.c ****     }
 985:Generated_Source\PSoC4/Bluetooth_eventHandler.c **** #endif /* CYBLE_BCS_CLIENT */
 986:Generated_Source\PSoC4/Bluetooth_eventHandler.c **** #ifdef CYBLE_BLS_CLIENT
 987:Generated_Source\PSoC4/Bluetooth_eventHandler.c ****     if((cyBle_eventHandlerFlag & CYBLE_CALLBACK) != 0u)
 988:Generated_Source\PSoC4/Bluetooth_eventHandler.c ****     {
 989:Generated_Source\PSoC4/Bluetooth_eventHandler.c ****         CyBle_BlscIndicationEventHandler(eventParam);
 990:Generated_Source\PSoC4/Bluetooth_eventHandler.c ****     }
 991:Generated_Source\PSoC4/Bluetooth_eventHandler.c **** #endif /* CYBLE_BLS_CLIENT */
 992:Generated_Source\PSoC4/Bluetooth_eventHandler.c **** #ifdef CYBLE_CGMS_CLIENT
 993:Generated_Source\PSoC4/Bluetooth_eventHandler.c ****     if((cyBle_eventHandlerFlag & CYBLE_CALLBACK) != 0u)
 994:Generated_Source\PSoC4/Bluetooth_eventHandler.c ****     {
 995:Generated_Source\PSoC4/Bluetooth_eventHandler.c ****         CyBle_CgmscIndicationEventHandler(eventParam);
 996:Generated_Source\PSoC4/Bluetooth_eventHandler.c ****     }
 997:Generated_Source\PSoC4/Bluetooth_eventHandler.c **** #endif /* CYBLE_CGMS_CLIENT */
 998:Generated_Source\PSoC4/Bluetooth_eventHandler.c **** #ifdef CYBLE_CPS_CLIENT
 999:Generated_Source\PSoC4/Bluetooth_eventHandler.c ****     if((cyBle_eventHandlerFlag & CYBLE_CALLBACK) != 0u)
1000:Generated_Source\PSoC4/Bluetooth_eventHandler.c ****     {
ARM GAS  C:\Windows\TEMP\ccTU3rlm.s 			page 19


1001:Generated_Source\PSoC4/Bluetooth_eventHandler.c ****         CyBle_CpscIndicationEventHandler(eventParam);
1002:Generated_Source\PSoC4/Bluetooth_eventHandler.c ****     }
1003:Generated_Source\PSoC4/Bluetooth_eventHandler.c **** #endif /* CYBLE_CPS_CLIENT */
1004:Generated_Source\PSoC4/Bluetooth_eventHandler.c **** #ifdef CYBLE_CSCS_CLIENT
1005:Generated_Source\PSoC4/Bluetooth_eventHandler.c ****     if((cyBle_eventHandlerFlag & CYBLE_CALLBACK) != 0u)
1006:Generated_Source\PSoC4/Bluetooth_eventHandler.c ****     {
1007:Generated_Source\PSoC4/Bluetooth_eventHandler.c ****         CyBle_CscscIndicationEventHandler(eventParam);
1008:Generated_Source\PSoC4/Bluetooth_eventHandler.c ****     }
1009:Generated_Source\PSoC4/Bluetooth_eventHandler.c **** #endif /* CYBLE_CSCS_CLIENT */
1010:Generated_Source\PSoC4/Bluetooth_eventHandler.c **** #ifdef CYBLE_ESS_CLIENT
1011:Generated_Source\PSoC4/Bluetooth_eventHandler.c ****     if((cyBle_eventHandlerFlag & CYBLE_CALLBACK) != 0u)
1012:Generated_Source\PSoC4/Bluetooth_eventHandler.c ****     {
1013:Generated_Source\PSoC4/Bluetooth_eventHandler.c ****         CyBle_EsscIndicationEventHandler(eventParam);
1014:Generated_Source\PSoC4/Bluetooth_eventHandler.c ****     }
1015:Generated_Source\PSoC4/Bluetooth_eventHandler.c **** #endif /* CYBLE_ESS_CLIENT */
1016:Generated_Source\PSoC4/Bluetooth_eventHandler.c **** #ifdef CYBLE_GLS_CLIENT
1017:Generated_Source\PSoC4/Bluetooth_eventHandler.c ****     if((cyBle_eventHandlerFlag & CYBLE_CALLBACK) != 0u)
1018:Generated_Source\PSoC4/Bluetooth_eventHandler.c ****     {
1019:Generated_Source\PSoC4/Bluetooth_eventHandler.c ****         CyBle_GlscIndicationEventHandler(eventParam);
1020:Generated_Source\PSoC4/Bluetooth_eventHandler.c ****     }
1021:Generated_Source\PSoC4/Bluetooth_eventHandler.c **** #endif /* CYBLE_GLS_CLIENT */
1022:Generated_Source\PSoC4/Bluetooth_eventHandler.c **** #ifdef CYBLE_HTS_CLIENT
1023:Generated_Source\PSoC4/Bluetooth_eventHandler.c ****     if((cyBle_eventHandlerFlag & CYBLE_CALLBACK) != 0u)
1024:Generated_Source\PSoC4/Bluetooth_eventHandler.c ****     {
1025:Generated_Source\PSoC4/Bluetooth_eventHandler.c ****         CyBle_HtscIndicationEventHandler(eventParam);
1026:Generated_Source\PSoC4/Bluetooth_eventHandler.c ****     }
1027:Generated_Source\PSoC4/Bluetooth_eventHandler.c **** #endif /* CYBLE_HTS_CLIENT */
1028:Generated_Source\PSoC4/Bluetooth_eventHandler.c **** #ifdef CYBLE_LNS_CLIENT
1029:Generated_Source\PSoC4/Bluetooth_eventHandler.c ****     if((cyBle_eventHandlerFlag & CYBLE_CALLBACK) != 0u)
1030:Generated_Source\PSoC4/Bluetooth_eventHandler.c ****     {
1031:Generated_Source\PSoC4/Bluetooth_eventHandler.c ****         CyBle_LnscIndicationEventHandler(eventParam);
1032:Generated_Source\PSoC4/Bluetooth_eventHandler.c ****     }
1033:Generated_Source\PSoC4/Bluetooth_eventHandler.c **** #endif /* CYBLE_LNS_CLIENT */
1034:Generated_Source\PSoC4/Bluetooth_eventHandler.c **** #ifdef CYBLE_OTS_CLIENT
1035:Generated_Source\PSoC4/Bluetooth_eventHandler.c ****     if((cyBle_eventHandlerFlag & CYBLE_CALLBACK) != 0u)
1036:Generated_Source\PSoC4/Bluetooth_eventHandler.c ****     {
1037:Generated_Source\PSoC4/Bluetooth_eventHandler.c ****         CyBle_OtscIndicationEventHandler(eventParam);
1038:Generated_Source\PSoC4/Bluetooth_eventHandler.c ****     }
1039:Generated_Source\PSoC4/Bluetooth_eventHandler.c **** #endif /* CYBLE_OTS_CLIENT */
1040:Generated_Source\PSoC4/Bluetooth_eventHandler.c **** #ifdef CYBLE_PLXS_CLIENT
1041:Generated_Source\PSoC4/Bluetooth_eventHandler.c ****     if((cyBle_eventHandlerFlag & CYBLE_CALLBACK) != 0u)
1042:Generated_Source\PSoC4/Bluetooth_eventHandler.c ****     {
1043:Generated_Source\PSoC4/Bluetooth_eventHandler.c ****         CyBle_PlxscIndicationEventHandler(eventParam);
1044:Generated_Source\PSoC4/Bluetooth_eventHandler.c ****     }
1045:Generated_Source\PSoC4/Bluetooth_eventHandler.c **** #endif /* CYBLE_PLXS_CLIENT */
1046:Generated_Source\PSoC4/Bluetooth_eventHandler.c **** #ifdef CYBLE_RSCS_CLIENT
1047:Generated_Source\PSoC4/Bluetooth_eventHandler.c ****     if((cyBle_eventHandlerFlag & CYBLE_CALLBACK) != 0u)
1048:Generated_Source\PSoC4/Bluetooth_eventHandler.c ****     {
1049:Generated_Source\PSoC4/Bluetooth_eventHandler.c ****         CyBle_RscscIndicationEventHandler(eventParam);
1050:Generated_Source\PSoC4/Bluetooth_eventHandler.c ****     }
1051:Generated_Source\PSoC4/Bluetooth_eventHandler.c **** #endif /* CYBLE_RSCS_CLIENT */
1052:Generated_Source\PSoC4/Bluetooth_eventHandler.c **** #ifdef CYBLE_UDS_CLIENT
1053:Generated_Source\PSoC4/Bluetooth_eventHandler.c ****     if((cyBle_eventHandlerFlag & CYBLE_CALLBACK) != 0u)
1054:Generated_Source\PSoC4/Bluetooth_eventHandler.c ****     {
1055:Generated_Source\PSoC4/Bluetooth_eventHandler.c ****         CyBle_UdscIndicationEventHandler(eventParam);
1056:Generated_Source\PSoC4/Bluetooth_eventHandler.c ****     }
1057:Generated_Source\PSoC4/Bluetooth_eventHandler.c **** #endif /* CYBLE_UDS_CLIENT */
ARM GAS  C:\Windows\TEMP\ccTU3rlm.s 			page 20


1058:Generated_Source\PSoC4/Bluetooth_eventHandler.c **** #ifdef CYBLE_WPTS_CLIENT
1059:Generated_Source\PSoC4/Bluetooth_eventHandler.c ****     if((cyBle_eventHandlerFlag & CYBLE_CALLBACK) != 0u)
1060:Generated_Source\PSoC4/Bluetooth_eventHandler.c ****     {
1061:Generated_Source\PSoC4/Bluetooth_eventHandler.c ****         CyBle_WptscIndicationEventHandler(eventParam);
1062:Generated_Source\PSoC4/Bluetooth_eventHandler.c ****     }
1063:Generated_Source\PSoC4/Bluetooth_eventHandler.c **** #endif /* CYBLE_WPTS_CLIENT */
1064:Generated_Source\PSoC4/Bluetooth_eventHandler.c **** #ifdef CYBLE_WSS_CLIENT
1065:Generated_Source\PSoC4/Bluetooth_eventHandler.c ****     if((cyBle_eventHandlerFlag & CYBLE_CALLBACK) != 0u)
1066:Generated_Source\PSoC4/Bluetooth_eventHandler.c ****     {
1067:Generated_Source\PSoC4/Bluetooth_eventHandler.c ****         CyBle_WsscIndicationEventHandler(eventParam);
1068:Generated_Source\PSoC4/Bluetooth_eventHandler.c ****     }
1069:Generated_Source\PSoC4/Bluetooth_eventHandler.c **** #endif /* CYBLE_WSS_CLIENT */
1070:Generated_Source\PSoC4/Bluetooth_eventHandler.c **** }
1071:Generated_Source\PSoC4/Bluetooth_eventHandler.c **** 
1072:Generated_Source\PSoC4/Bluetooth_eventHandler.c **** /******************************************************************************    
1073:Generated_Source\PSoC4/Bluetooth_eventHandler.c **** * Function Name: CyBle_ReadResponseEventHandler
1074:Generated_Source\PSoC4/Bluetooth_eventHandler.c **** ***************************************************************************//**
1075:Generated_Source\PSoC4/Bluetooth_eventHandler.c **** * 
1076:Generated_Source\PSoC4/Bluetooth_eventHandler.c **** *  Handles the Read Response event from BLE stack.
1077:Generated_Source\PSoC4/Bluetooth_eventHandler.c **** * 
1078:Generated_Source\PSoC4/Bluetooth_eventHandler.c **** *  \param eventParam: event parameter
1079:Generated_Source\PSoC4/Bluetooth_eventHandler.c **** * 
1080:Generated_Source\PSoC4/Bluetooth_eventHandler.c **** * \return
1081:Generated_Source\PSoC4/Bluetooth_eventHandler.c **** *  None
1082:Generated_Source\PSoC4/Bluetooth_eventHandler.c **** * 
1083:Generated_Source\PSoC4/Bluetooth_eventHandler.c **** ******************************************************************************/
1084:Generated_Source\PSoC4/Bluetooth_eventHandler.c **** static void CyBle_ReadResponseEventHandler(CYBLE_GATTC_READ_RSP_PARAM_T *eventParam)
1085:Generated_Source\PSoC4/Bluetooth_eventHandler.c **** {
1086:Generated_Source\PSoC4/Bluetooth_eventHandler.c **** #ifdef CYBLE_CUSTOM_CLIENT
1087:Generated_Source\PSoC4/Bluetooth_eventHandler.c ****     /* Read response with 128-bit included service uuid */
1088:Generated_Source\PSoC4/Bluetooth_eventHandler.c ****     if((CyBle_GetClientState() == CYBLE_CLIENT_STATE_INCL_DISCOVERING) &&
1089:Generated_Source\PSoC4/Bluetooth_eventHandler.c ****        (cyBle_discInclInfo.inclDefHandle != 0u))
1090:Generated_Source\PSoC4/Bluetooth_eventHandler.c ****     {
1091:Generated_Source\PSoC4/Bluetooth_eventHandler.c ****         CYBLE_DISC_SRVC128_INFO_T discServInfo;
1092:Generated_Source\PSoC4/Bluetooth_eventHandler.c **** 
1093:Generated_Source\PSoC4/Bluetooth_eventHandler.c ****         /* Store service range */
1094:Generated_Source\PSoC4/Bluetooth_eventHandler.c ****         discServInfo.range = cyBle_discInclInfo.inclHandleRange;
1095:Generated_Source\PSoC4/Bluetooth_eventHandler.c ****         (void)memcpy((void *) discServInfo.uuid.uuid128.value, (void *)eventParam->value.val, event
1096:Generated_Source\PSoC4/Bluetooth_eventHandler.c ****         CyBle_CustomcDiscoverServiceEventHandler(&discServInfo);
1097:Generated_Source\PSoC4/Bluetooth_eventHandler.c ****         
1098:Generated_Source\PSoC4/Bluetooth_eventHandler.c ****         /* Re-initiate CyBle_GattcFindIncludedServices function, setting the start
1099:Generated_Source\PSoC4/Bluetooth_eventHandler.c ****            handle to the attribute handle which is placed next to the one used in
1100:Generated_Source\PSoC4/Bluetooth_eventHandler.c ****            the above step.
1101:Generated_Source\PSoC4/Bluetooth_eventHandler.c ****         */
1102:Generated_Source\PSoC4/Bluetooth_eventHandler.c ****         discServInfo.range.startHandle = cyBle_discInclInfo.inclDefHandle + 1u;
1103:Generated_Source\PSoC4/Bluetooth_eventHandler.c ****         discServInfo.range.endHandle = cyBle_serverInfo[cyBle_disCount].range.endHandle;
1104:Generated_Source\PSoC4/Bluetooth_eventHandler.c ****         if(discServInfo.range.startHandle <= discServInfo.range.endHandle)
1105:Generated_Source\PSoC4/Bluetooth_eventHandler.c ****         {
1106:Generated_Source\PSoC4/Bluetooth_eventHandler.c ****             if(CYBLE_ERROR_OK != CyBle_GattcFindIncludedServices(cyBle_connHandle, &discServInfo.ra
1107:Generated_Source\PSoC4/Bluetooth_eventHandler.c ****             {
1108:Generated_Source\PSoC4/Bluetooth_eventHandler.c ****                 CyBle_ApplCallback(CYBLE_EVT_GATTC_INCL_DISCOVERY_FAILED, NULL);
1109:Generated_Source\PSoC4/Bluetooth_eventHandler.c ****                 cyBle_eventHandlerFlag &= (uint8)~CYBLE_AUTO_DISCOVERY;
1110:Generated_Source\PSoC4/Bluetooth_eventHandler.c ****             }
1111:Generated_Source\PSoC4/Bluetooth_eventHandler.c ****         }
1112:Generated_Source\PSoC4/Bluetooth_eventHandler.c ****         else /* Continue discovery of the following service */
1113:Generated_Source\PSoC4/Bluetooth_eventHandler.c ****         {
1114:Generated_Source\PSoC4/Bluetooth_eventHandler.c ****             CyBle_NextInclDiscovery(CYBLE_DISCOVERY_CONTINUE);
ARM GAS  C:\Windows\TEMP\ccTU3rlm.s 			page 21


1115:Generated_Source\PSoC4/Bluetooth_eventHandler.c ****         }
1116:Generated_Source\PSoC4/Bluetooth_eventHandler.c ****         
1117:Generated_Source\PSoC4/Bluetooth_eventHandler.c ****         cyBle_eventHandlerFlag &= (uint8)~CYBLE_CALLBACK;
1118:Generated_Source\PSoC4/Bluetooth_eventHandler.c ****     #ifdef CYBLE_CUSTOM_CLIENT
1119:Generated_Source\PSoC4/Bluetooth_eventHandler.c ****         cyBle_discInclInfo.inclDefHandle = 0u;
1120:Generated_Source\PSoC4/Bluetooth_eventHandler.c ****     #endif /* CYBLE_CUSTOM_CLIENT */
1121:Generated_Source\PSoC4/Bluetooth_eventHandler.c ****     }
1122:Generated_Source\PSoC4/Bluetooth_eventHandler.c **** #endif /* CYBLE_CUSTOM_CLIENT */
1123:Generated_Source\PSoC4/Bluetooth_eventHandler.c **** #ifdef CYBLE_AIOS_CLIENT
1124:Generated_Source\PSoC4/Bluetooth_eventHandler.c ****     if((cyBle_eventHandlerFlag & CYBLE_CALLBACK) != 0u)
1125:Generated_Source\PSoC4/Bluetooth_eventHandler.c ****     {
1126:Generated_Source\PSoC4/Bluetooth_eventHandler.c ****         CyBle_AioscReadResponseEventHandler(eventParam);
1127:Generated_Source\PSoC4/Bluetooth_eventHandler.c ****     }
1128:Generated_Source\PSoC4/Bluetooth_eventHandler.c **** #endif /* CYBLE_AIOS_CLIENT */
1129:Generated_Source\PSoC4/Bluetooth_eventHandler.c **** #ifdef CYBLE_ANCS_CLIENT
1130:Generated_Source\PSoC4/Bluetooth_eventHandler.c ****     if((cyBle_eventHandlerFlag & CYBLE_CALLBACK) != 0u)
1131:Generated_Source\PSoC4/Bluetooth_eventHandler.c ****     {
1132:Generated_Source\PSoC4/Bluetooth_eventHandler.c ****         CyBle_AncscReadResponseEventHandler(eventParam);
1133:Generated_Source\PSoC4/Bluetooth_eventHandler.c ****     }
1134:Generated_Source\PSoC4/Bluetooth_eventHandler.c **** #endif /* CYBLE_ANCS_CLIENT */
1135:Generated_Source\PSoC4/Bluetooth_eventHandler.c **** #ifdef CYBLE_ANS_CLIENT
1136:Generated_Source\PSoC4/Bluetooth_eventHandler.c ****     if((cyBle_eventHandlerFlag & CYBLE_CALLBACK) != 0u)
1137:Generated_Source\PSoC4/Bluetooth_eventHandler.c ****     {
1138:Generated_Source\PSoC4/Bluetooth_eventHandler.c ****         CyBle_AnscReadResponseEventHandler(eventParam);
1139:Generated_Source\PSoC4/Bluetooth_eventHandler.c ****     }
1140:Generated_Source\PSoC4/Bluetooth_eventHandler.c **** #endif /* CYBLE_ANS_CLIENT */
1141:Generated_Source\PSoC4/Bluetooth_eventHandler.c **** #ifdef CYBLE_BAS_CLIENT
1142:Generated_Source\PSoC4/Bluetooth_eventHandler.c ****     if((cyBle_eventHandlerFlag & CYBLE_CALLBACK) != 0u)
1143:Generated_Source\PSoC4/Bluetooth_eventHandler.c ****     {
1144:Generated_Source\PSoC4/Bluetooth_eventHandler.c ****         CyBle_BascReadResponseEventHandler(eventParam);
1145:Generated_Source\PSoC4/Bluetooth_eventHandler.c ****     }
1146:Generated_Source\PSoC4/Bluetooth_eventHandler.c **** #endif /* CYBLE_BAS_CLIENT */
1147:Generated_Source\PSoC4/Bluetooth_eventHandler.c **** #ifdef CYBLE_BLS_CLIENT
1148:Generated_Source\PSoC4/Bluetooth_eventHandler.c ****     if((cyBle_eventHandlerFlag & CYBLE_CALLBACK) != 0u)
1149:Generated_Source\PSoC4/Bluetooth_eventHandler.c ****     {
1150:Generated_Source\PSoC4/Bluetooth_eventHandler.c ****         CyBle_BlscReadResponseEventHandler(eventParam);
1151:Generated_Source\PSoC4/Bluetooth_eventHandler.c ****     }
1152:Generated_Source\PSoC4/Bluetooth_eventHandler.c **** #endif /* CYBLE_BLS_CLIENT */
1153:Generated_Source\PSoC4/Bluetooth_eventHandler.c **** #ifdef CYBLE_BCS_CLIENT
1154:Generated_Source\PSoC4/Bluetooth_eventHandler.c ****     if((cyBle_eventHandlerFlag & CYBLE_CALLBACK) != 0u)
1155:Generated_Source\PSoC4/Bluetooth_eventHandler.c ****     {
1156:Generated_Source\PSoC4/Bluetooth_eventHandler.c ****         CyBle_BcscReadResponseEventHandler(eventParam);
1157:Generated_Source\PSoC4/Bluetooth_eventHandler.c ****     }
1158:Generated_Source\PSoC4/Bluetooth_eventHandler.c **** #endif /* CYBLE_BCS_CLIENT */
1159:Generated_Source\PSoC4/Bluetooth_eventHandler.c **** #ifdef CYBLE_BMS_CLIENT
1160:Generated_Source\PSoC4/Bluetooth_eventHandler.c ****     if((cyBle_eventHandlerFlag & CYBLE_CALLBACK) != 0u)
1161:Generated_Source\PSoC4/Bluetooth_eventHandler.c ****     {
1162:Generated_Source\PSoC4/Bluetooth_eventHandler.c ****         CyBle_BmscReadResponseEventHandler(eventParam);
1163:Generated_Source\PSoC4/Bluetooth_eventHandler.c ****     }
1164:Generated_Source\PSoC4/Bluetooth_eventHandler.c **** #endif /* CYBLE_BMS_CLIENT */
1165:Generated_Source\PSoC4/Bluetooth_eventHandler.c **** #ifdef CYBLE_CGMS_CLIENT
1166:Generated_Source\PSoC4/Bluetooth_eventHandler.c ****     if((cyBle_eventHandlerFlag & CYBLE_CALLBACK) != 0u)
1167:Generated_Source\PSoC4/Bluetooth_eventHandler.c ****     {
1168:Generated_Source\PSoC4/Bluetooth_eventHandler.c ****         CyBle_CgmscReadResponseEventHandler(eventParam);
1169:Generated_Source\PSoC4/Bluetooth_eventHandler.c ****     }
1170:Generated_Source\PSoC4/Bluetooth_eventHandler.c **** #endif /* CYBLE_CGMS_CLIENT */
1171:Generated_Source\PSoC4/Bluetooth_eventHandler.c **** #ifdef CYBLE_CPS_CLIENT
ARM GAS  C:\Windows\TEMP\ccTU3rlm.s 			page 22


1172:Generated_Source\PSoC4/Bluetooth_eventHandler.c ****     if((cyBle_eventHandlerFlag & CYBLE_CALLBACK) != 0u)
1173:Generated_Source\PSoC4/Bluetooth_eventHandler.c ****     {
1174:Generated_Source\PSoC4/Bluetooth_eventHandler.c ****         CyBle_CpscReadResponseEventHandler(eventParam);
1175:Generated_Source\PSoC4/Bluetooth_eventHandler.c ****     }
1176:Generated_Source\PSoC4/Bluetooth_eventHandler.c **** #endif /* CYBLE_CPS_CLIENT */
1177:Generated_Source\PSoC4/Bluetooth_eventHandler.c **** #ifdef CYBLE_CSCS_CLIENT
1178:Generated_Source\PSoC4/Bluetooth_eventHandler.c ****     if((cyBle_eventHandlerFlag & CYBLE_CALLBACK) != 0u)
1179:Generated_Source\PSoC4/Bluetooth_eventHandler.c ****     {
1180:Generated_Source\PSoC4/Bluetooth_eventHandler.c ****         CyBle_CscscReadResponseEventHandler(eventParam);
1181:Generated_Source\PSoC4/Bluetooth_eventHandler.c ****     }
1182:Generated_Source\PSoC4/Bluetooth_eventHandler.c **** #endif /* CYBLE_CSCS_CLIENT */
1183:Generated_Source\PSoC4/Bluetooth_eventHandler.c **** #ifdef CYBLE_CTS_CLIENT
1184:Generated_Source\PSoC4/Bluetooth_eventHandler.c ****     if((cyBle_eventHandlerFlag & CYBLE_CALLBACK) != 0u)
1185:Generated_Source\PSoC4/Bluetooth_eventHandler.c ****     {
1186:Generated_Source\PSoC4/Bluetooth_eventHandler.c ****         CyBle_CtscReadResponseEventHandler(eventParam);
1187:Generated_Source\PSoC4/Bluetooth_eventHandler.c ****     }
1188:Generated_Source\PSoC4/Bluetooth_eventHandler.c **** #endif /* CYBLE_BAS_CLIENT */
1189:Generated_Source\PSoC4/Bluetooth_eventHandler.c **** #ifdef CYBLE_DIS_CLIENT
1190:Generated_Source\PSoC4/Bluetooth_eventHandler.c ****     if((cyBle_eventHandlerFlag & CYBLE_CALLBACK) != 0u)
1191:Generated_Source\PSoC4/Bluetooth_eventHandler.c ****     {
1192:Generated_Source\PSoC4/Bluetooth_eventHandler.c ****         CyBle_DiscReadResponseEventHandler(eventParam);
1193:Generated_Source\PSoC4/Bluetooth_eventHandler.c ****     }
1194:Generated_Source\PSoC4/Bluetooth_eventHandler.c **** #endif /* CYBLE_DIS_CLIENT */
1195:Generated_Source\PSoC4/Bluetooth_eventHandler.c **** #ifdef CYBLE_ESS_CLIENT
1196:Generated_Source\PSoC4/Bluetooth_eventHandler.c ****     if((cyBle_eventHandlerFlag & CYBLE_CALLBACK) != 0u)
1197:Generated_Source\PSoC4/Bluetooth_eventHandler.c ****     {
1198:Generated_Source\PSoC4/Bluetooth_eventHandler.c ****         CyBle_EsscReadResponseEventHandler(eventParam);
1199:Generated_Source\PSoC4/Bluetooth_eventHandler.c ****     }
1200:Generated_Source\PSoC4/Bluetooth_eventHandler.c **** #endif /* CYBLE_ESS_CLIENT */
1201:Generated_Source\PSoC4/Bluetooth_eventHandler.c **** #ifdef CYBLE_GLS_CLIENT
1202:Generated_Source\PSoC4/Bluetooth_eventHandler.c ****     if((cyBle_eventHandlerFlag & CYBLE_CALLBACK) != 0u)
1203:Generated_Source\PSoC4/Bluetooth_eventHandler.c ****     {
1204:Generated_Source\PSoC4/Bluetooth_eventHandler.c ****         CyBle_GlscReadResponseEventHandler(eventParam);
1205:Generated_Source\PSoC4/Bluetooth_eventHandler.c ****     }
1206:Generated_Source\PSoC4/Bluetooth_eventHandler.c **** #endif /* CYBLE_GLS_CLIENT */
1207:Generated_Source\PSoC4/Bluetooth_eventHandler.c **** #ifdef CYBLE_HIDS_CLIENT
1208:Generated_Source\PSoC4/Bluetooth_eventHandler.c ****     if((cyBle_eventHandlerFlag & CYBLE_CALLBACK) != 0u)
1209:Generated_Source\PSoC4/Bluetooth_eventHandler.c ****     {
1210:Generated_Source\PSoC4/Bluetooth_eventHandler.c ****         CyBle_HidscReadResponseEventHandler(eventParam);
1211:Generated_Source\PSoC4/Bluetooth_eventHandler.c ****     }
1212:Generated_Source\PSoC4/Bluetooth_eventHandler.c **** #endif /* CYBLE_HIDS_CLIENT */
1213:Generated_Source\PSoC4/Bluetooth_eventHandler.c **** #ifdef CYBLE_HPS_CLIENT
1214:Generated_Source\PSoC4/Bluetooth_eventHandler.c ****     if((cyBle_eventHandlerFlag & CYBLE_CALLBACK) != 0u)
1215:Generated_Source\PSoC4/Bluetooth_eventHandler.c ****     {
1216:Generated_Source\PSoC4/Bluetooth_eventHandler.c ****         CyBle_HpscReadResponseEventHandler(eventParam);
1217:Generated_Source\PSoC4/Bluetooth_eventHandler.c ****     }
1218:Generated_Source\PSoC4/Bluetooth_eventHandler.c **** #endif /* CYBLE_HPS_CLIENT */
1219:Generated_Source\PSoC4/Bluetooth_eventHandler.c **** #ifdef CYBLE_HRS_CLIENT
1220:Generated_Source\PSoC4/Bluetooth_eventHandler.c ****     if((cyBle_eventHandlerFlag & CYBLE_CALLBACK) != 0u)
1221:Generated_Source\PSoC4/Bluetooth_eventHandler.c ****     {
1222:Generated_Source\PSoC4/Bluetooth_eventHandler.c ****         CyBle_HrscReadResponseEventHandler(eventParam);
1223:Generated_Source\PSoC4/Bluetooth_eventHandler.c ****     }
1224:Generated_Source\PSoC4/Bluetooth_eventHandler.c **** #endif /* CYBLE_HRS_CLIENT */
1225:Generated_Source\PSoC4/Bluetooth_eventHandler.c **** #ifdef CYBLE_HTS_CLIENT
1226:Generated_Source\PSoC4/Bluetooth_eventHandler.c ****     if((cyBle_eventHandlerFlag & CYBLE_CALLBACK) != 0u)
1227:Generated_Source\PSoC4/Bluetooth_eventHandler.c ****     {
1228:Generated_Source\PSoC4/Bluetooth_eventHandler.c ****         CyBle_HtscReadResponseEventHandler(eventParam);
ARM GAS  C:\Windows\TEMP\ccTU3rlm.s 			page 23


1229:Generated_Source\PSoC4/Bluetooth_eventHandler.c ****     }
1230:Generated_Source\PSoC4/Bluetooth_eventHandler.c **** #endif /* CYBLE_HTS_CLIENT */
1231:Generated_Source\PSoC4/Bluetooth_eventHandler.c **** #ifdef CYBLE_IPS_CLIENT
1232:Generated_Source\PSoC4/Bluetooth_eventHandler.c ****     if((cyBle_eventHandlerFlag & CYBLE_CALLBACK) != 0u)
1233:Generated_Source\PSoC4/Bluetooth_eventHandler.c ****     {
1234:Generated_Source\PSoC4/Bluetooth_eventHandler.c ****         CyBle_IpscReadResponseEventHandler(eventParam);
1235:Generated_Source\PSoC4/Bluetooth_eventHandler.c ****     }
1236:Generated_Source\PSoC4/Bluetooth_eventHandler.c **** #endif /* CYBLE_IPS_CLIENT */
1237:Generated_Source\PSoC4/Bluetooth_eventHandler.c **** #ifdef CYBLE_LLS_CLIENT
1238:Generated_Source\PSoC4/Bluetooth_eventHandler.c ****     if((cyBle_eventHandlerFlag & CYBLE_CALLBACK) != 0u)
1239:Generated_Source\PSoC4/Bluetooth_eventHandler.c ****     {
1240:Generated_Source\PSoC4/Bluetooth_eventHandler.c ****         CyBle_LlscReadResponseEventHandler(eventParam);
1241:Generated_Source\PSoC4/Bluetooth_eventHandler.c ****     }
1242:Generated_Source\PSoC4/Bluetooth_eventHandler.c **** #endif /* CYBLE_LLS_CLIENT */
1243:Generated_Source\PSoC4/Bluetooth_eventHandler.c **** #ifdef CYBLE_LNS_CLIENT
1244:Generated_Source\PSoC4/Bluetooth_eventHandler.c ****     if((cyBle_eventHandlerFlag & CYBLE_CALLBACK) != 0u)
1245:Generated_Source\PSoC4/Bluetooth_eventHandler.c ****     {
1246:Generated_Source\PSoC4/Bluetooth_eventHandler.c ****         CyBle_LnscReadResponseEventHandler(eventParam);
1247:Generated_Source\PSoC4/Bluetooth_eventHandler.c ****     }
1248:Generated_Source\PSoC4/Bluetooth_eventHandler.c **** #endif /* CYBLE_LNS_CLIENT */
1249:Generated_Source\PSoC4/Bluetooth_eventHandler.c **** #ifdef CYBLE_NDCS_CLIENT
1250:Generated_Source\PSoC4/Bluetooth_eventHandler.c ****     if((cyBle_eventHandlerFlag & CYBLE_CALLBACK) != 0u)
1251:Generated_Source\PSoC4/Bluetooth_eventHandler.c ****     {
1252:Generated_Source\PSoC4/Bluetooth_eventHandler.c ****         CyBle_NdcscReadResponseEventHandler(eventParam);
1253:Generated_Source\PSoC4/Bluetooth_eventHandler.c ****     }
1254:Generated_Source\PSoC4/Bluetooth_eventHandler.c **** #endif /* CYBLE_NDCS_CLIENT */
1255:Generated_Source\PSoC4/Bluetooth_eventHandler.c **** #ifdef CYBLE_OTS_CLIENT
1256:Generated_Source\PSoC4/Bluetooth_eventHandler.c ****     if((cyBle_eventHandlerFlag & CYBLE_CALLBACK) != 0u)
1257:Generated_Source\PSoC4/Bluetooth_eventHandler.c ****     {
1258:Generated_Source\PSoC4/Bluetooth_eventHandler.c ****         CyBle_OtscReadResponseEventHandler(eventParam);
1259:Generated_Source\PSoC4/Bluetooth_eventHandler.c ****     }
1260:Generated_Source\PSoC4/Bluetooth_eventHandler.c **** #endif /* CYBLE_OTS_CLIENT */
1261:Generated_Source\PSoC4/Bluetooth_eventHandler.c **** #ifdef CYBLE_PASS_CLIENT
1262:Generated_Source\PSoC4/Bluetooth_eventHandler.c ****     if((cyBle_eventHandlerFlag & CYBLE_CALLBACK) != 0u)
1263:Generated_Source\PSoC4/Bluetooth_eventHandler.c ****     {
1264:Generated_Source\PSoC4/Bluetooth_eventHandler.c ****         CyBle_PasscReadResponseEventHandler(eventParam);
1265:Generated_Source\PSoC4/Bluetooth_eventHandler.c ****     }
1266:Generated_Source\PSoC4/Bluetooth_eventHandler.c **** #endif /* CYBLE_PASS_CLIENT */
1267:Generated_Source\PSoC4/Bluetooth_eventHandler.c **** #ifdef CYBLE_PLXS_CLIENT
1268:Generated_Source\PSoC4/Bluetooth_eventHandler.c ****     if((cyBle_eventHandlerFlag & CYBLE_CALLBACK) != 0u)
1269:Generated_Source\PSoC4/Bluetooth_eventHandler.c ****     {
1270:Generated_Source\PSoC4/Bluetooth_eventHandler.c ****         CyBle_PlxscReadResponseEventHandler(eventParam);
1271:Generated_Source\PSoC4/Bluetooth_eventHandler.c ****     }
1272:Generated_Source\PSoC4/Bluetooth_eventHandler.c **** #endif /* CYBLE_PLXS_CLIENT */
1273:Generated_Source\PSoC4/Bluetooth_eventHandler.c **** #ifdef CYBLE_RSCS_CLIENT
1274:Generated_Source\PSoC4/Bluetooth_eventHandler.c ****     if((cyBle_eventHandlerFlag & CYBLE_CALLBACK) != 0u)
1275:Generated_Source\PSoC4/Bluetooth_eventHandler.c ****     {
1276:Generated_Source\PSoC4/Bluetooth_eventHandler.c ****         CyBle_RscscReadResponseEventHandler(eventParam);
1277:Generated_Source\PSoC4/Bluetooth_eventHandler.c ****     }
1278:Generated_Source\PSoC4/Bluetooth_eventHandler.c **** #endif /* CYBLE_RSCS_CLIENT */
1279:Generated_Source\PSoC4/Bluetooth_eventHandler.c **** #ifdef CYBLE_RTUS_CLIENT
1280:Generated_Source\PSoC4/Bluetooth_eventHandler.c ****     if((cyBle_eventHandlerFlag & CYBLE_CALLBACK) != 0u)
1281:Generated_Source\PSoC4/Bluetooth_eventHandler.c ****     {
1282:Generated_Source\PSoC4/Bluetooth_eventHandler.c ****         CyBle_RtuscReadResponseEventHandler(eventParam);
1283:Generated_Source\PSoC4/Bluetooth_eventHandler.c ****     }
1284:Generated_Source\PSoC4/Bluetooth_eventHandler.c **** #endif /* CYBLE_RTUS_CLIENT */
1285:Generated_Source\PSoC4/Bluetooth_eventHandler.c **** #ifdef CYBLE_SCPS_CLIENT
ARM GAS  C:\Windows\TEMP\ccTU3rlm.s 			page 24


1286:Generated_Source\PSoC4/Bluetooth_eventHandler.c ****     if((cyBle_eventHandlerFlag & CYBLE_CALLBACK) != 0u)
1287:Generated_Source\PSoC4/Bluetooth_eventHandler.c ****     {
1288:Generated_Source\PSoC4/Bluetooth_eventHandler.c ****         CyBle_ScpscReadResponseEventHandler(eventParam);
1289:Generated_Source\PSoC4/Bluetooth_eventHandler.c ****     }
1290:Generated_Source\PSoC4/Bluetooth_eventHandler.c **** #endif /* CYBLE_SCPS_CLIENT */
1291:Generated_Source\PSoC4/Bluetooth_eventHandler.c **** #ifdef CYBLE_TPS_CLIENT
1292:Generated_Source\PSoC4/Bluetooth_eventHandler.c ****     if((cyBle_eventHandlerFlag & CYBLE_CALLBACK) != 0u)
1293:Generated_Source\PSoC4/Bluetooth_eventHandler.c ****     {
1294:Generated_Source\PSoC4/Bluetooth_eventHandler.c ****         CyBle_TpscReadResponseEventHandler(eventParam);
1295:Generated_Source\PSoC4/Bluetooth_eventHandler.c ****     }
1296:Generated_Source\PSoC4/Bluetooth_eventHandler.c **** #endif /* CYBLE_TPS_CLIENT */
1297:Generated_Source\PSoC4/Bluetooth_eventHandler.c **** #ifdef CYBLE_UDS_CLIENT
1298:Generated_Source\PSoC4/Bluetooth_eventHandler.c ****     if((cyBle_eventHandlerFlag & CYBLE_CALLBACK) != 0u)
1299:Generated_Source\PSoC4/Bluetooth_eventHandler.c ****     {
1300:Generated_Source\PSoC4/Bluetooth_eventHandler.c ****         CyBle_UdscReadResponseEventHandler(eventParam);
1301:Generated_Source\PSoC4/Bluetooth_eventHandler.c ****     }
1302:Generated_Source\PSoC4/Bluetooth_eventHandler.c **** #endif /* CYBLE_UDS_CLIENT */
1303:Generated_Source\PSoC4/Bluetooth_eventHandler.c **** #ifdef CYBLE_WPTS_CLIENT
1304:Generated_Source\PSoC4/Bluetooth_eventHandler.c ****     if((cyBle_eventHandlerFlag & CYBLE_CALLBACK) != 0u)
1305:Generated_Source\PSoC4/Bluetooth_eventHandler.c ****     {
1306:Generated_Source\PSoC4/Bluetooth_eventHandler.c ****         CyBle_WptscReadResponseEventHandler(eventParam);
1307:Generated_Source\PSoC4/Bluetooth_eventHandler.c ****     }
1308:Generated_Source\PSoC4/Bluetooth_eventHandler.c **** #endif /* CYBLE_WPTS_CLIENT */
1309:Generated_Source\PSoC4/Bluetooth_eventHandler.c **** #ifdef CYBLE_WSS_CLIENT
1310:Generated_Source\PSoC4/Bluetooth_eventHandler.c ****     if((cyBle_eventHandlerFlag & CYBLE_CALLBACK) != 0u)
1311:Generated_Source\PSoC4/Bluetooth_eventHandler.c ****     {
1312:Generated_Source\PSoC4/Bluetooth_eventHandler.c ****         CyBle_WsscReadResponseEventHandler(eventParam);
1313:Generated_Source\PSoC4/Bluetooth_eventHandler.c ****     }
1314:Generated_Source\PSoC4/Bluetooth_eventHandler.c **** #endif /* CYBLE_WSS_CLIENT */
1315:Generated_Source\PSoC4/Bluetooth_eventHandler.c **** }
1316:Generated_Source\PSoC4/Bluetooth_eventHandler.c **** 
1317:Generated_Source\PSoC4/Bluetooth_eventHandler.c **** /******************************************************************************    
1318:Generated_Source\PSoC4/Bluetooth_eventHandler.c **** * Function Name: CyBle_ReadMultipleResponseEventHandler
1319:Generated_Source\PSoC4/Bluetooth_eventHandler.c **** ***************************************************************************//**
1320:Generated_Source\PSoC4/Bluetooth_eventHandler.c **** * 
1321:Generated_Source\PSoC4/Bluetooth_eventHandler.c **** *  Handles the Read Multiple Response event from BLE stack.
1322:Generated_Source\PSoC4/Bluetooth_eventHandler.c **** * 
1323:Generated_Source\PSoC4/Bluetooth_eventHandler.c **** *  \param eventParam: event parameter
1324:Generated_Source\PSoC4/Bluetooth_eventHandler.c **** * 
1325:Generated_Source\PSoC4/Bluetooth_eventHandler.c **** * \return
1326:Generated_Source\PSoC4/Bluetooth_eventHandler.c **** *  None
1327:Generated_Source\PSoC4/Bluetooth_eventHandler.c **** * 
1328:Generated_Source\PSoC4/Bluetooth_eventHandler.c **** ******************************************************************************/
1329:Generated_Source\PSoC4/Bluetooth_eventHandler.c **** static void CyBle_ReadMultipleResponseEventHandler(CYBLE_GATTC_READ_RSP_PARAM_T *eventParam)
1330:Generated_Source\PSoC4/Bluetooth_eventHandler.c **** {
1331:Generated_Source\PSoC4/Bluetooth_eventHandler.c **** #ifdef CYBLE_CUSTOM_CLIENT
1332:Generated_Source\PSoC4/Bluetooth_eventHandler.c ****     /* Read response with 128-bit included service uuid */
1333:Generated_Source\PSoC4/Bluetooth_eventHandler.c ****     if((CYBLE_CLIENT_STATE_INCL_DISCOVERING == CyBle_GetClientState()) &&
1334:Generated_Source\PSoC4/Bluetooth_eventHandler.c ****        (cyBle_discInclInfo.inclDefHandle != 0u))
1335:Generated_Source\PSoC4/Bluetooth_eventHandler.c ****     {
1336:Generated_Source\PSoC4/Bluetooth_eventHandler.c ****         CYBLE_DISC_SRVC128_INFO_T discServInfo;
1337:Generated_Source\PSoC4/Bluetooth_eventHandler.c **** 
1338:Generated_Source\PSoC4/Bluetooth_eventHandler.c ****         /* Store service range */
1339:Generated_Source\PSoC4/Bluetooth_eventHandler.c ****         discServInfo.range = cyBle_discInclInfo.inclHandleRange;
1340:Generated_Source\PSoC4/Bluetooth_eventHandler.c ****         (void)memcpy((void *) discServInfo.uuid.uuid128.value, (void *)eventParam->value.val, event
1341:Generated_Source\PSoC4/Bluetooth_eventHandler.c ****         CyBle_CustomcDiscoverServiceEventHandler(&discServInfo);
1342:Generated_Source\PSoC4/Bluetooth_eventHandler.c ****         
ARM GAS  C:\Windows\TEMP\ccTU3rlm.s 			page 25


1343:Generated_Source\PSoC4/Bluetooth_eventHandler.c ****         /* Re-initiate CyBle_GattcFindIncludedServices function, setting the start
1344:Generated_Source\PSoC4/Bluetooth_eventHandler.c ****            handle to the attribute handle which is placed next to the one used in
1345:Generated_Source\PSoC4/Bluetooth_eventHandler.c ****            the above step.
1346:Generated_Source\PSoC4/Bluetooth_eventHandler.c ****         */
1347:Generated_Source\PSoC4/Bluetooth_eventHandler.c ****         discServInfo.range.startHandle = cyBle_discInclInfo.inclDefHandle + 1;
1348:Generated_Source\PSoC4/Bluetooth_eventHandler.c ****         discServInfo.range.endHandle = cyBle_serverInfo[cyBle_disCount].range.endHandle;
1349:Generated_Source\PSoC4/Bluetooth_eventHandler.c ****         if(discServInfo.range.startHandle <= discServInfo.range.endHandle)
1350:Generated_Source\PSoC4/Bluetooth_eventHandler.c ****         {
1351:Generated_Source\PSoC4/Bluetooth_eventHandler.c ****             if(CYBLE_ERROR_OK != CyBle_GattcFindIncludedServices(cyBle_connHandle, &discServInfo.ra
1352:Generated_Source\PSoC4/Bluetooth_eventHandler.c ****             {
1353:Generated_Source\PSoC4/Bluetooth_eventHandler.c ****                 CyBle_ApplCallback(CYBLE_EVT_GATTC_INCL_DISCOVERY_FAILED, NULL);
1354:Generated_Source\PSoC4/Bluetooth_eventHandler.c ****                 cyBle_eventHandlerFlag &= (uint8)~CYBLE_AUTO_DISCOVERY;
1355:Generated_Source\PSoC4/Bluetooth_eventHandler.c ****             }
1356:Generated_Source\PSoC4/Bluetooth_eventHandler.c ****         }
1357:Generated_Source\PSoC4/Bluetooth_eventHandler.c ****         else /* Continue discovery of the following service */
1358:Generated_Source\PSoC4/Bluetooth_eventHandler.c ****         {
1359:Generated_Source\PSoC4/Bluetooth_eventHandler.c ****             CyBle_NextInclDiscovery(CYBLE_DISCOVERY_CONTINUE);
1360:Generated_Source\PSoC4/Bluetooth_eventHandler.c ****         }
1361:Generated_Source\PSoC4/Bluetooth_eventHandler.c ****         
1362:Generated_Source\PSoC4/Bluetooth_eventHandler.c ****         cyBle_eventHandlerFlag &= (uint8)~CYBLE_CALLBACK;
1363:Generated_Source\PSoC4/Bluetooth_eventHandler.c ****     #ifdef CYBLE_CUSTOM_CLIENT
1364:Generated_Source\PSoC4/Bluetooth_eventHandler.c ****         cyBle_discInclInfo.inclDefHandle = 0u;
1365:Generated_Source\PSoC4/Bluetooth_eventHandler.c ****     #endif /* CYBLE_CUSTOM_CLIENT */
1366:Generated_Source\PSoC4/Bluetooth_eventHandler.c ****     }
1367:Generated_Source\PSoC4/Bluetooth_eventHandler.c **** #endif /* CYBLE_CUSTOM_CLIENT */
1368:Generated_Source\PSoC4/Bluetooth_eventHandler.c **** #ifdef CYBLE_IPS_CLIENT
1369:Generated_Source\PSoC4/Bluetooth_eventHandler.c ****     if((cyBle_eventHandlerFlag & CYBLE_CALLBACK) != 0u)
1370:Generated_Source\PSoC4/Bluetooth_eventHandler.c ****     {
1371:Generated_Source\PSoC4/Bluetooth_eventHandler.c ****         CyBle_IpscReadMultipleResponseEventHandler(eventParam);
1372:Generated_Source\PSoC4/Bluetooth_eventHandler.c ****     }
1373:Generated_Source\PSoC4/Bluetooth_eventHandler.c **** #endif /* CYBLE_IPS_CLIENT */
1374:Generated_Source\PSoC4/Bluetooth_eventHandler.c ****     /* MISRA 16.7 violation workaround */
1375:Generated_Source\PSoC4/Bluetooth_eventHandler.c ****     eventParam = eventParam;
1376:Generated_Source\PSoC4/Bluetooth_eventHandler.c **** }
1377:Generated_Source\PSoC4/Bluetooth_eventHandler.c **** #endif /* CYBLE_GATT_ROLE_CLIENT */
1378:Generated_Source\PSoC4/Bluetooth_eventHandler.c **** 
1379:Generated_Source\PSoC4/Bluetooth_eventHandler.c **** 
1380:Generated_Source\PSoC4/Bluetooth_eventHandler.c **** /****************************************************************************** 
1381:Generated_Source\PSoC4/Bluetooth_eventHandler.c **** * Function Name: CyBle_DisconnectEventHandler
1382:Generated_Source\PSoC4/Bluetooth_eventHandler.c **** ***************************************************************************//**
1383:Generated_Source\PSoC4/Bluetooth_eventHandler.c **** * 
1384:Generated_Source\PSoC4/Bluetooth_eventHandler.c **** *  Handles the GATT Disconnection event from the BLE stack.
1385:Generated_Source\PSoC4/Bluetooth_eventHandler.c **** * 
1386:Generated_Source\PSoC4/Bluetooth_eventHandler.c **** * \return
1387:Generated_Source\PSoC4/Bluetooth_eventHandler.c **** *  None
1388:Generated_Source\PSoC4/Bluetooth_eventHandler.c **** * 
1389:Generated_Source\PSoC4/Bluetooth_eventHandler.c **** ******************************************************************************/
1390:Generated_Source\PSoC4/Bluetooth_eventHandler.c **** static void CyBle_GattDisconnectEventHandler(void)
1391:Generated_Source\PSoC4/Bluetooth_eventHandler.c **** {
  27              		.loc 1 1391 0
  28              		.cfi_startproc
  29              		@ args = 0, pretend = 0, frame = 0
  30              		@ frame_needed = 0, uses_anonymous_args = 0
  31              		@ link register save eliminated.
1392:Generated_Source\PSoC4/Bluetooth_eventHandler.c ****     cyBle_connHandle.attId = 0u;
  32              		.loc 1 1392 0
  33 0000 024B     		ldr	r3, .L2
ARM GAS  C:\Windows\TEMP\ccTU3rlm.s 			page 26


  34 0002 0022     		movs	r2, #0
  35 0004 5A70     		strb	r2, [r3, #1]
1393:Generated_Source\PSoC4/Bluetooth_eventHandler.c ****     cyBle_connHandle.bdHandle = 0u;
  36              		.loc 1 1393 0
  37 0006 1A70     		strb	r2, [r3]
1394:Generated_Source\PSoC4/Bluetooth_eventHandler.c ****     
1395:Generated_Source\PSoC4/Bluetooth_eventHandler.c ****     #if (CYBLE_GATT_ROLE_CLIENT)
1396:Generated_Source\PSoC4/Bluetooth_eventHandler.c ****         if(CyBle_GetClientState() == CYBLE_CLIENT_STATE_DISCOVERED)
1397:Generated_Source\PSoC4/Bluetooth_eventHandler.c ****         {
1398:Generated_Source\PSoC4/Bluetooth_eventHandler.c ****             CyBle_SetClientState(CYBLE_CLIENT_STATE_DISCONNECTED_DISCOVERED);
1399:Generated_Source\PSoC4/Bluetooth_eventHandler.c ****         }
1400:Generated_Source\PSoC4/Bluetooth_eventHandler.c ****         else
1401:Generated_Source\PSoC4/Bluetooth_eventHandler.c ****         {
1402:Generated_Source\PSoC4/Bluetooth_eventHandler.c ****             CyBle_SetClientState(CYBLE_CLIENT_STATE_DISCONNECTED);
1403:Generated_Source\PSoC4/Bluetooth_eventHandler.c ****         }
1404:Generated_Source\PSoC4/Bluetooth_eventHandler.c ****     #endif /* CYBLE_GATT_ROLE_CLIENT */
1405:Generated_Source\PSoC4/Bluetooth_eventHandler.c ****         
1406:Generated_Source\PSoC4/Bluetooth_eventHandler.c ****     #ifdef CYBLE_CPS_SERVER
1407:Generated_Source\PSoC4/Bluetooth_eventHandler.c ****         #if CYBLE_GAP_ROLE_BROADCASTER
1408:Generated_Source\PSoC4/Bluetooth_eventHandler.c ****             CyBle_CpssDisconnectEventHandler();
1409:Generated_Source\PSoC4/Bluetooth_eventHandler.c ****         #endif /* CYBLE_GAP_ROLE_BROADCASTER */
1410:Generated_Source\PSoC4/Bluetooth_eventHandler.c ****     #endif /* CYBLE_CPS_SERVER */
1411:Generated_Source\PSoC4/Bluetooth_eventHandler.c **** 
1412:Generated_Source\PSoC4/Bluetooth_eventHandler.c ****     #ifdef CYBLE_CPS_CLIENT
1413:Generated_Source\PSoC4/Bluetooth_eventHandler.c ****         CyBle_CpscDisconnectEventHandler();
1414:Generated_Source\PSoC4/Bluetooth_eventHandler.c ****     #endif /* CYBLE_CPS_CLIENT */
1415:Generated_Source\PSoC4/Bluetooth_eventHandler.c **** 
1416:Generated_Source\PSoC4/Bluetooth_eventHandler.c ****     #ifdef CYBLE_IAS_SERVER
1417:Generated_Source\PSoC4/Bluetooth_eventHandler.c ****         CyBle_IassDisconnectEventHandler();
1418:Generated_Source\PSoC4/Bluetooth_eventHandler.c ****     #endif /* CYBLE_IAS_SERVER */
1419:Generated_Source\PSoC4/Bluetooth_eventHandler.c ****     
1420:Generated_Source\PSoC4/Bluetooth_eventHandler.c ****     #ifdef CYBLE_GLS_SERVER
1421:Generated_Source\PSoC4/Bluetooth_eventHandler.c ****         CyBle_GlsInit();
1422:Generated_Source\PSoC4/Bluetooth_eventHandler.c ****     #endif /* CYBLE_GLS_SERVER */
1423:Generated_Source\PSoC4/Bluetooth_eventHandler.c ****     
1424:Generated_Source\PSoC4/Bluetooth_eventHandler.c ****     #ifdef CYBLE_LNS_SERVER
1425:Generated_Source\PSoC4/Bluetooth_eventHandler.c ****         CyBle_LnsInit();
1426:Generated_Source\PSoC4/Bluetooth_eventHandler.c ****     #endif /* CYBLE_LNS_SERVER */
1427:Generated_Source\PSoC4/Bluetooth_eventHandler.c ****     
1428:Generated_Source\PSoC4/Bluetooth_eventHandler.c ****     #ifdef CYBLE_UDS_SERVER
1429:Generated_Source\PSoC4/Bluetooth_eventHandler.c ****         CyBle_UdsInit();
1430:Generated_Source\PSoC4/Bluetooth_eventHandler.c ****     #endif /* CYBLE_UDS_SERVER */
1431:Generated_Source\PSoC4/Bluetooth_eventHandler.c **** }
  38              		.loc 1 1431 0
  39              		@ sp needed
  40 0008 7047     		bx	lr
  41              	.L3:
  42 000a C046     		.align	2
  43              	.L2:
  44 000c 00000000 		.word	cyBle_connHandle
  45              		.cfi_endproc
  46              	.LFE4:
  47              		.size	CyBle_GattDisconnectEventHandler, .-CyBle_GattDisconnectEventHandler
  48              		.section	.text.CyBle_WriteReqHandler,"ax",%progbits
  49              		.align	2
  50              		.code	16
  51              		.thumb_func
ARM GAS  C:\Windows\TEMP\ccTU3rlm.s 			page 27


  52              		.type	CyBle_WriteReqHandler, %function
  53              	CyBle_WriteReqHandler:
  54              	.LFB2:
 253:Generated_Source\PSoC4/Bluetooth_eventHandler.c ****     CYBLE_GATT_ERR_CODE_T gattErr;
  55              		.loc 1 253 0
  56              		.cfi_startproc
  57              		@ args = 0, pretend = 0, frame = 8
  58              		@ frame_needed = 0, uses_anonymous_args = 0
  59              	.LVL0:
  60 0000 10B5     		push	{r4, lr}
  61              		.cfi_def_cfa_offset 8
  62              		.cfi_offset 4, -8
  63              		.cfi_offset 14, -4
  64 0002 82B0     		sub	sp, sp, #8
  65              		.cfi_def_cfa_offset 16
  66 0004 0400     		movs	r4, r0
 259:Generated_Source\PSoC4/Bluetooth_eventHandler.c **** #ifdef CYBLE_AIOS_SERVER
  67              		.loc 1 259 0
  68 0006 FFF7FEFF 		bl	CyBle_GattsWriteEventHandler
  69              	.LVL1:
 261:Generated_Source\PSoC4/Bluetooth_eventHandler.c ****     {
  70              		.loc 1 261 0
  71 000a 0F4B     		ldr	r3, .L8
  72 000c 1B78     		ldrb	r3, [r3]
  73 000e DB07     		lsls	r3, r3, #31
  74 0010 04D5     		bpl	.L5
 261:Generated_Source\PSoC4/Bluetooth_eventHandler.c ****     {
  75              		.loc 1 261 0 is_stmt 0 discriminator 1
  76 0012 0028     		cmp	r0, #0
  77 0014 02D1     		bne	.L5
 263:Generated_Source\PSoC4/Bluetooth_eventHandler.c ****     }
  78              		.loc 1 263 0 is_stmt 1
  79 0016 2000     		movs	r0, r4
  80              	.LVL2:
  81 0018 FFF7FEFF 		bl	CyBle_AiossWriteEventHandler
  82              	.LVL3:
  83              	.L5:
 442:Generated_Source\PSoC4/Bluetooth_eventHandler.c ****     {
  84              		.loc 1 442 0
  85 001c 0A4B     		ldr	r3, .L8
  86 001e 1B78     		ldrb	r3, [r3]
  87 0020 DB07     		lsls	r3, r3, #31
  88 0022 0ED4     		bmi	.L4
 444:Generated_Source\PSoC4/Bluetooth_eventHandler.c ****         {
  89              		.loc 1 444 0
  90 0024 0028     		cmp	r0, #0
  91 0026 09D0     		beq	.L7
  92              	.LBB2:
 448:Generated_Source\PSoC4/Bluetooth_eventHandler.c ****             err_param.attrHandle = eventParam->handleValPair.attrHandle;
  93              		.loc 1 448 0
  94 0028 01A9     		add	r1, sp, #4
  95 002a 1223     		movs	r3, #18
  96 002c 8B70     		strb	r3, [r1, #2]
 449:Generated_Source\PSoC4/Bluetooth_eventHandler.c ****             err_param.errorCode = gattErr;
  97              		.loc 1 449 0
  98 002e A389     		ldrh	r3, [r4, #12]
  99 0030 0B80     		strh	r3, [r1]
ARM GAS  C:\Windows\TEMP\ccTU3rlm.s 			page 28


 450:Generated_Source\PSoC4/Bluetooth_eventHandler.c **** 
 100              		.loc 1 450 0
 101 0032 C870     		strb	r0, [r1, #3]
 453:Generated_Source\PSoC4/Bluetooth_eventHandler.c ****         }
 102              		.loc 1 453 0
 103 0034 2068     		ldr	r0, [r4]
 104              	.LVL4:
 105 0036 FFF7FEFF 		bl	CyBle_GattsErrorRsp
 106              	.LVL5:
 107              	.LBE2:
 108 003a 02E0     		b	.L4
 109              	.LVL6:
 110              	.L7:
 457:Generated_Source\PSoC4/Bluetooth_eventHandler.c ****         }
 111              		.loc 1 457 0
 112 003c 2068     		ldr	r0, [r4]
 113              	.LVL7:
 114 003e FFF7FEFF 		bl	CyBle_GattsWriteRsp
 115              	.LVL8:
 116              	.L4:
 460:Generated_Source\PSoC4/Bluetooth_eventHandler.c **** 
 117              		.loc 1 460 0
 118 0042 02B0     		add	sp, sp, #8
 119              		@ sp needed
 120              	.LVL9:
 121 0044 10BD     		pop	{r4, pc}
 122              	.L9:
 123 0046 C046     		.align	2
 124              	.L8:
 125 0048 00000000 		.word	cyBle_eventHandlerFlag
 126              		.cfi_endproc
 127              	.LFE2:
 128              		.size	CyBle_WriteReqHandler, .-CyBle_WriteReqHandler
 129              		.section	.text.CyBle_ValueConfirmation,"ax",%progbits
 130              		.align	2
 131              		.code	16
 132              		.thumb_func
 133              		.type	CyBle_ValueConfirmation, %function
 134              	CyBle_ValueConfirmation:
 135              	.LFB3:
 476:Generated_Source\PSoC4/Bluetooth_eventHandler.c ****     if(eventParam != NULL)
 136              		.loc 1 476 0
 137              		.cfi_startproc
 138              		@ args = 0, pretend = 0, frame = 0
 139              		@ frame_needed = 0, uses_anonymous_args = 0
 140              	.LVL10:
 141 0000 10B5     		push	{r4, lr}
 142              		.cfi_def_cfa_offset 8
 143              		.cfi_offset 4, -8
 144              		.cfi_offset 14, -4
 477:Generated_Source\PSoC4/Bluetooth_eventHandler.c ****     {
 145              		.loc 1 477 0
 146 0002 0028     		cmp	r0, #0
 147 0004 05D0     		beq	.L10
 480:Generated_Source\PSoC4/Bluetooth_eventHandler.c ****         {
 148              		.loc 1 480 0
 149 0006 034B     		ldr	r3, .L12
ARM GAS  C:\Windows\TEMP\ccTU3rlm.s 			page 29


 150 0008 1B78     		ldrb	r3, [r3]
 151 000a DB07     		lsls	r3, r3, #31
 152 000c 01D5     		bpl	.L10
 482:Generated_Source\PSoC4/Bluetooth_eventHandler.c ****         }
 153              		.loc 1 482 0
 154 000e FFF7FEFF 		bl	CyBle_AiossConfirmationEventHandler
 155              	.LVL11:
 156              	.L10:
 586:Generated_Source\PSoC4/Bluetooth_eventHandler.c **** 
 157              		.loc 1 586 0
 158              		@ sp needed
 159 0012 10BD     		pop	{r4, pc}
 160              	.L13:
 161              		.align	2
 162              	.L12:
 163 0014 00000000 		.word	cyBle_eventHandlerFlag
 164              		.cfi_endproc
 165              	.LFE3:
 166              		.size	CyBle_ValueConfirmation, .-CyBle_ValueConfirmation
 167              		.section	.text.CyBle_IsDeviceAddressValid,"ax",%progbits
 168              		.align	2
 169              		.global	CyBle_IsDeviceAddressValid
 170              		.code	16
 171              		.thumb_func
 172              		.type	CyBle_IsDeviceAddressValid, %function
 173              	CyBle_IsDeviceAddressValid:
 174              	.LFB7:
1432:Generated_Source\PSoC4/Bluetooth_eventHandler.c **** 
1433:Generated_Source\PSoC4/Bluetooth_eventHandler.c **** 
1434:Generated_Source\PSoC4/Bluetooth_eventHandler.c **** /****************************************************************************** 
1435:Generated_Source\PSoC4/Bluetooth_eventHandler.c **** * Function Name: CyBle_TimeOutEventHandler
1436:Generated_Source\PSoC4/Bluetooth_eventHandler.c **** ***************************************************************************//**
1437:Generated_Source\PSoC4/Bluetooth_eventHandler.c **** * 
1438:Generated_Source\PSoC4/Bluetooth_eventHandler.c **** *  Handles the CYBLE_EVT_TIMEOUT event from the BLE stack.
1439:Generated_Source\PSoC4/Bluetooth_eventHandler.c **** * 
1440:Generated_Source\PSoC4/Bluetooth_eventHandler.c **** *  \param eventParam: The pointer to a structure of type CYBLE_TO_REASON_CODE_T.
1441:Generated_Source\PSoC4/Bluetooth_eventHandler.c **** * 
1442:Generated_Source\PSoC4/Bluetooth_eventHandler.c **** * \return
1443:Generated_Source\PSoC4/Bluetooth_eventHandler.c **** *  None
1444:Generated_Source\PSoC4/Bluetooth_eventHandler.c **** * 
1445:Generated_Source\PSoC4/Bluetooth_eventHandler.c **** ******************************************************************************/
1446:Generated_Source\PSoC4/Bluetooth_eventHandler.c **** static void CyBle_TimeOutEventHandler(const CYBLE_TO_REASON_CODE_T *eventParam)
1447:Generated_Source\PSoC4/Bluetooth_eventHandler.c **** {
1448:Generated_Source\PSoC4/Bluetooth_eventHandler.c ****     if(*eventParam == CYBLE_GATT_RSP_TO)
1449:Generated_Source\PSoC4/Bluetooth_eventHandler.c ****     {
1450:Generated_Source\PSoC4/Bluetooth_eventHandler.c ****     #if (CYBLE_GATT_ROLE_CLIENT)
1451:Generated_Source\PSoC4/Bluetooth_eventHandler.c ****         if((cyBle_eventHandlerFlag & CYBLE_AUTO_DISCOVERY) != 0u)
1452:Generated_Source\PSoC4/Bluetooth_eventHandler.c ****         {
1453:Generated_Source\PSoC4/Bluetooth_eventHandler.c ****             switch(CyBle_GetClientState())
1454:Generated_Source\PSoC4/Bluetooth_eventHandler.c ****             {
1455:Generated_Source\PSoC4/Bluetooth_eventHandler.c ****                 case CYBLE_CLIENT_STATE_SRVC_DISCOVERING:
1456:Generated_Source\PSoC4/Bluetooth_eventHandler.c ****                     CyBle_ApplCallback(CYBLE_EVT_GATTC_SRVC_DISCOVERY_FAILED, NULL);
1457:Generated_Source\PSoC4/Bluetooth_eventHandler.c ****                     break;
1458:Generated_Source\PSoC4/Bluetooth_eventHandler.c ****                 case CYBLE_CLIENT_STATE_INCL_DISCOVERING:
1459:Generated_Source\PSoC4/Bluetooth_eventHandler.c ****                     CyBle_ApplCallback(CYBLE_EVT_GATTC_INCL_DISCOVERY_FAILED, NULL);
1460:Generated_Source\PSoC4/Bluetooth_eventHandler.c ****                     break;
1461:Generated_Source\PSoC4/Bluetooth_eventHandler.c ****                 case CYBLE_CLIENT_STATE_CHAR_DISCOVERING:
ARM GAS  C:\Windows\TEMP\ccTU3rlm.s 			page 30


1462:Generated_Source\PSoC4/Bluetooth_eventHandler.c ****                     CyBle_ApplCallback(CYBLE_EVT_GATTC_CHAR_DISCOVERY_FAILED, NULL);
1463:Generated_Source\PSoC4/Bluetooth_eventHandler.c ****                     break;
1464:Generated_Source\PSoC4/Bluetooth_eventHandler.c ****                 case CYBLE_CLIENT_STATE_DESCR_DISCOVERING:
1465:Generated_Source\PSoC4/Bluetooth_eventHandler.c ****                     CyBle_ApplCallback(CYBLE_EVT_GATTC_DESCR_DISCOVERY_FAILED, NULL);
1466:Generated_Source\PSoC4/Bluetooth_eventHandler.c ****                     break;
1467:Generated_Source\PSoC4/Bluetooth_eventHandler.c ****                 default:        /* Other states should not be set in Auto discovery mode */
1468:Generated_Source\PSoC4/Bluetooth_eventHandler.c ****                     break;
1469:Generated_Source\PSoC4/Bluetooth_eventHandler.c ****             }
1470:Generated_Source\PSoC4/Bluetooth_eventHandler.c ****             cyBle_eventHandlerFlag &= (uint8)~CYBLE_AUTO_DISCOVERY;
1471:Generated_Source\PSoC4/Bluetooth_eventHandler.c ****             CyBle_SetClientState(CYBLE_CLIENT_STATE_CONNECTED);
1472:Generated_Source\PSoC4/Bluetooth_eventHandler.c ****         }
1473:Generated_Source\PSoC4/Bluetooth_eventHandler.c ****     #endif /* CYBLE_GATT_ROLE_CLIENT */
1474:Generated_Source\PSoC4/Bluetooth_eventHandler.c ****     #ifdef CYBLE_CPS_SERVER
1475:Generated_Source\PSoC4/Bluetooth_eventHandler.c ****         CyBle_CpssTimeOutEventHandler();
1476:Generated_Source\PSoC4/Bluetooth_eventHandler.c ****     #endif /* CYBLE_CPS_SERVER */
1477:Generated_Source\PSoC4/Bluetooth_eventHandler.c ****     }
1478:Generated_Source\PSoC4/Bluetooth_eventHandler.c ****     
1479:Generated_Source\PSoC4/Bluetooth_eventHandler.c ****     /* Connection procedure timeout */
1480:Generated_Source\PSoC4/Bluetooth_eventHandler.c ****     if(*eventParam == CYBLE_GENERIC_TO)
1481:Generated_Source\PSoC4/Bluetooth_eventHandler.c ****     {
1482:Generated_Source\PSoC4/Bluetooth_eventHandler.c ****     #if(CYBLE_GAP_ROLE_CENTRAL)
1483:Generated_Source\PSoC4/Bluetooth_eventHandler.c ****         if(CyBle_GetState() == CYBLE_STATE_CONNECTING)
1484:Generated_Source\PSoC4/Bluetooth_eventHandler.c ****         {
1485:Generated_Source\PSoC4/Bluetooth_eventHandler.c ****             (void)CyBle_GapcCancelDeviceConnection();
1486:Generated_Source\PSoC4/Bluetooth_eventHandler.c ****         }
1487:Generated_Source\PSoC4/Bluetooth_eventHandler.c ****     #endif /* CYBLE_GAP_ROLE_CENTRAL */
1488:Generated_Source\PSoC4/Bluetooth_eventHandler.c ****     }
1489:Generated_Source\PSoC4/Bluetooth_eventHandler.c **** }
1490:Generated_Source\PSoC4/Bluetooth_eventHandler.c **** 
1491:Generated_Source\PSoC4/Bluetooth_eventHandler.c **** 
1492:Generated_Source\PSoC4/Bluetooth_eventHandler.c **** /****************************************************************************** 
1493:Generated_Source\PSoC4/Bluetooth_eventHandler.c **** * Function Name: CyBle_GattConnectReqHandler
1494:Generated_Source\PSoC4/Bluetooth_eventHandler.c **** ***************************************************************************//**
1495:Generated_Source\PSoC4/Bluetooth_eventHandler.c **** * 
1496:Generated_Source\PSoC4/Bluetooth_eventHandler.c **** *  Handles the GATT connect event from the BLE stack.
1497:Generated_Source\PSoC4/Bluetooth_eventHandler.c **** * 
1498:Generated_Source\PSoC4/Bluetooth_eventHandler.c **** * \return
1499:Generated_Source\PSoC4/Bluetooth_eventHandler.c **** *  None
1500:Generated_Source\PSoC4/Bluetooth_eventHandler.c **** * 
1501:Generated_Source\PSoC4/Bluetooth_eventHandler.c **** ******************************************************************************/
1502:Generated_Source\PSoC4/Bluetooth_eventHandler.c **** static void CyBle_GattConnectReqHandler(void)
1503:Generated_Source\PSoC4/Bluetooth_eventHandler.c **** {
1504:Generated_Source\PSoC4/Bluetooth_eventHandler.c ****     #ifdef CYBLE_CGMS_SERVER
1505:Generated_Source\PSoC4/Bluetooth_eventHandler.c ****         CyBle_CgmsInit();
1506:Generated_Source\PSoC4/Bluetooth_eventHandler.c ****     #endif /* CYBLE_CGMS_SERVER */
1507:Generated_Source\PSoC4/Bluetooth_eventHandler.c ****     
1508:Generated_Source\PSoC4/Bluetooth_eventHandler.c ****     #ifdef CYBLE_CPS_SERVER
1509:Generated_Source\PSoC4/Bluetooth_eventHandler.c ****         CyBle_CpssConnectEventHandler();
1510:Generated_Source\PSoC4/Bluetooth_eventHandler.c ****     #endif /* CYBLE_CPS_SERVER */
1511:Generated_Source\PSoC4/Bluetooth_eventHandler.c ****     
1512:Generated_Source\PSoC4/Bluetooth_eventHandler.c ****     #ifdef CYBLE_CSCS_SERVER
1513:Generated_Source\PSoC4/Bluetooth_eventHandler.c ****             CyBle_CscsInit();
1514:Generated_Source\PSoC4/Bluetooth_eventHandler.c ****     #endif /* CYBLE_CSCS_SERVER */
1515:Generated_Source\PSoC4/Bluetooth_eventHandler.c ****     
1516:Generated_Source\PSoC4/Bluetooth_eventHandler.c ****     #ifdef CYBLE_LLS_SERVER
1517:Generated_Source\PSoC4/Bluetooth_eventHandler.c ****         CyBle_LlssConnectEventHandler();
1518:Generated_Source\PSoC4/Bluetooth_eventHandler.c ****     #endif /* CYBLE_LLS_SERVER */
ARM GAS  C:\Windows\TEMP\ccTU3rlm.s 			page 31


1519:Generated_Source\PSoC4/Bluetooth_eventHandler.c ****     
1520:Generated_Source\PSoC4/Bluetooth_eventHandler.c ****     #ifdef CYBLE_HIDS_SERVER
1521:Generated_Source\PSoC4/Bluetooth_eventHandler.c ****         CyBle_HidssOnDeviceConnected();
1522:Generated_Source\PSoC4/Bluetooth_eventHandler.c ****     #endif /* CYBLE_HIDS_SERVER */
1523:Generated_Source\PSoC4/Bluetooth_eventHandler.c **** 
1524:Generated_Source\PSoC4/Bluetooth_eventHandler.c ****     #ifdef CYBLE_RSCS_SERVER
1525:Generated_Source\PSoC4/Bluetooth_eventHandler.c ****         CyBle_RscsInit();
1526:Generated_Source\PSoC4/Bluetooth_eventHandler.c ****     #endif /* CYBLE_RSCS_SERVER */
1527:Generated_Source\PSoC4/Bluetooth_eventHandler.c **** }
1528:Generated_Source\PSoC4/Bluetooth_eventHandler.c **** 
1529:Generated_Source\PSoC4/Bluetooth_eventHandler.c **** 
1530:Generated_Source\PSoC4/Bluetooth_eventHandler.c **** #if (CYBLE_GATT_ROLE_SERVER || CYBLE_GATT_ROLE_CLIENT)
1531:Generated_Source\PSoC4/Bluetooth_eventHandler.c **** 
1532:Generated_Source\PSoC4/Bluetooth_eventHandler.c **** /****************************************************************************** 
1533:Generated_Source\PSoC4/Bluetooth_eventHandler.c **** * Function Name: CyBle_IsDeviceAddressValid
1534:Generated_Source\PSoC4/Bluetooth_eventHandler.c **** ***************************************************************************//**
1535:Generated_Source\PSoC4/Bluetooth_eventHandler.c **** * 
1536:Generated_Source\PSoC4/Bluetooth_eventHandler.c **** *  This function verifies that BLE public address has been programmed to SFLASH 
1537:Generated_Source\PSoC4/Bluetooth_eventHandler.c **** *  during manufacture. It could be used to verify if public device address is 
1538:Generated_Source\PSoC4/Bluetooth_eventHandler.c **** *  programmed to flash memory.
1539:Generated_Source\PSoC4/Bluetooth_eventHandler.c **** * 
1540:Generated_Source\PSoC4/Bluetooth_eventHandler.c **** *  \param deviceAddress: the pointer to the BD address of type CYBLE_GAP_BD_ADDR_T. 
1541:Generated_Source\PSoC4/Bluetooth_eventHandler.c **** * 
1542:Generated_Source\PSoC4/Bluetooth_eventHandler.c **** * \return
1543:Generated_Source\PSoC4/Bluetooth_eventHandler.c **** *  Non zero value when a device address differs from the default SFLASH content.
1544:Generated_Source\PSoC4/Bluetooth_eventHandler.c **** * 
1545:Generated_Source\PSoC4/Bluetooth_eventHandler.c **** ******************************************************************************/
1546:Generated_Source\PSoC4/Bluetooth_eventHandler.c **** uint8 CyBle_IsDeviceAddressValid(const CYBLE_GAP_BD_ADDR_T *deviceAddress)
1547:Generated_Source\PSoC4/Bluetooth_eventHandler.c **** {
 175              		.loc 1 1547 0
 176              		.cfi_startproc
 177              		@ args = 0, pretend = 0, frame = 0
 178              		@ frame_needed = 0, uses_anonymous_args = 0
 179              		@ link register save eliminated.
 180              	.LVL12:
1548:Generated_Source\PSoC4/Bluetooth_eventHandler.c ****     uint8 i;
1549:Generated_Source\PSoC4/Bluetooth_eventHandler.c ****     uint8 addressValid = 0u;
1550:Generated_Source\PSoC4/Bluetooth_eventHandler.c ****     
1551:Generated_Source\PSoC4/Bluetooth_eventHandler.c ****     if(deviceAddress -> type == CYBLE_GAP_ADDR_TYPE_PUBLIC)  
 181              		.loc 1 1551 0
 182 0000 8379     		ldrb	r3, [r0, #6]
 183 0002 002B     		cmp	r3, #0
 184 0004 07D0     		beq	.L18
1549:Generated_Source\PSoC4/Bluetooth_eventHandler.c ****     
 185              		.loc 1 1549 0
 186 0006 0020     		movs	r0, #0
 187              	.LVL13:
 188 0008 0BE0     		b	.L16
 189              	.LVL14:
 190              	.L17:
1552:Generated_Source\PSoC4/Bluetooth_eventHandler.c ****     {
1553:Generated_Source\PSoC4/Bluetooth_eventHandler.c ****         for(i = 0u; i < CYBLE_GAP_BD_ADDR_SIZE; i++)
1554:Generated_Source\PSoC4/Bluetooth_eventHandler.c ****         {
1555:Generated_Source\PSoC4/Bluetooth_eventHandler.c ****             if(deviceAddress->bdAddr[i] != 0u)
 191              		.loc 1 1555 0
 192 000a C25C     		ldrb	r2, [r0, r3]
 193 000c 002A     		cmp	r2, #0
ARM GAS  C:\Windows\TEMP\ccTU3rlm.s 			page 32


 194 000e 07D1     		bne	.L19
1553:Generated_Source\PSoC4/Bluetooth_eventHandler.c ****         {
 195              		.loc 1 1553 0 discriminator 2
 196 0010 0133     		adds	r3, r3, #1
 197              	.LVL15:
 198 0012 DBB2     		uxtb	r3, r3
 199              	.LVL16:
 200 0014 00E0     		b	.L15
 201              	.LVL17:
 202              	.L18:
 203 0016 0023     		movs	r3, #0
 204              	.L15:
 205              	.LVL18:
1553:Generated_Source\PSoC4/Bluetooth_eventHandler.c ****         {
 206              		.loc 1 1553 0 is_stmt 0 discriminator 1
 207 0018 052B     		cmp	r3, #5
 208 001a F6D9     		bls	.L17
1549:Generated_Source\PSoC4/Bluetooth_eventHandler.c ****     
 209              		.loc 1 1549 0 is_stmt 1
 210 001c 0020     		movs	r0, #0
 211              	.LVL19:
 212 001e 00E0     		b	.L16
 213              	.LVL20:
 214              	.L19:
1556:Generated_Source\PSoC4/Bluetooth_eventHandler.c ****             {
1557:Generated_Source\PSoC4/Bluetooth_eventHandler.c ****                 addressValid = 1u;
 215              		.loc 1 1557 0
 216 0020 0120     		movs	r0, #1
 217              	.LVL21:
 218              	.L16:
1558:Generated_Source\PSoC4/Bluetooth_eventHandler.c ****                 break;
1559:Generated_Source\PSoC4/Bluetooth_eventHandler.c ****             }
1560:Generated_Source\PSoC4/Bluetooth_eventHandler.c ****         }
1561:Generated_Source\PSoC4/Bluetooth_eventHandler.c ****     }
1562:Generated_Source\PSoC4/Bluetooth_eventHandler.c ****     return (addressValid);
1563:Generated_Source\PSoC4/Bluetooth_eventHandler.c **** }
 219              		.loc 1 1563 0
 220              		@ sp needed
 221 0022 7047     		bx	lr
 222              		.cfi_endproc
 223              	.LFE7:
 224              		.size	CyBle_IsDeviceAddressValid, .-CyBle_IsDeviceAddressValid
 225              		.section	.text.CyBle_EventHandler,"ax",%progbits
 226              		.align	2
 227              		.global	CyBle_EventHandler
 228              		.code	16
 229              		.thumb_func
 230              		.type	CyBle_EventHandler, %function
 231              	CyBle_EventHandler:
 232              	.LFB10:
1564:Generated_Source\PSoC4/Bluetooth_eventHandler.c **** #endif /* CYBLE_GATT_ROLE_SERVER || CYBLE_GATT_ROLE_CLIENT */
1565:Generated_Source\PSoC4/Bluetooth_eventHandler.c **** 
1566:Generated_Source\PSoC4/Bluetooth_eventHandler.c **** 
1567:Generated_Source\PSoC4/Bluetooth_eventHandler.c **** /****************************************************************************** 
1568:Generated_Source\PSoC4/Bluetooth_eventHandler.c **** * Function Name: CyBle_L2Cap_ConnParamUpdateRspHandler
1569:Generated_Source\PSoC4/Bluetooth_eventHandler.c **** ***************************************************************************//**
1570:Generated_Source\PSoC4/Bluetooth_eventHandler.c **** * 
ARM GAS  C:\Windows\TEMP\ccTU3rlm.s 			page 33


1571:Generated_Source\PSoC4/Bluetooth_eventHandler.c **** *  Handles the L2CAP connection parameter response event from
1572:Generated_Source\PSoC4/Bluetooth_eventHandler.c **** *  the BLE stack.
1573:Generated_Source\PSoC4/Bluetooth_eventHandler.c **** * 
1574:Generated_Source\PSoC4/Bluetooth_eventHandler.c **** *  \param response:
1575:Generated_Source\PSoC4/Bluetooth_eventHandler.c **** *      * Accepted = 0x0000
1576:Generated_Source\PSoC4/Bluetooth_eventHandler.c **** *      * Rejected = 0x0001
1577:Generated_Source\PSoC4/Bluetooth_eventHandler.c **** * 
1578:Generated_Source\PSoC4/Bluetooth_eventHandler.c **** * \return
1579:Generated_Source\PSoC4/Bluetooth_eventHandler.c **** *  None
1580:Generated_Source\PSoC4/Bluetooth_eventHandler.c **** * 
1581:Generated_Source\PSoC4/Bluetooth_eventHandler.c **** ******************************************************************************/
1582:Generated_Source\PSoC4/Bluetooth_eventHandler.c **** static void CyBle_L2Cap_ConnParamUpdateRspEventHandler(uint16 response)
1583:Generated_Source\PSoC4/Bluetooth_eventHandler.c **** {
1584:Generated_Source\PSoC4/Bluetooth_eventHandler.c ****     #ifdef CYBLE_CPS_SERVER
1585:Generated_Source\PSoC4/Bluetooth_eventHandler.c ****         CyBle_CpssConnParamUpdateRspEventHandler(response);
1586:Generated_Source\PSoC4/Bluetooth_eventHandler.c ****     #endif /* CYBLE_CPS_SERVER */
1587:Generated_Source\PSoC4/Bluetooth_eventHandler.c ****     
1588:Generated_Source\PSoC4/Bluetooth_eventHandler.c ****     /* Unreferenced variable warning workaround */
1589:Generated_Source\PSoC4/Bluetooth_eventHandler.c ****     if(response != 0u)
1590:Generated_Source\PSoC4/Bluetooth_eventHandler.c ****     {
1591:Generated_Source\PSoC4/Bluetooth_eventHandler.c ****     }
1592:Generated_Source\PSoC4/Bluetooth_eventHandler.c **** }
1593:Generated_Source\PSoC4/Bluetooth_eventHandler.c **** 
1594:Generated_Source\PSoC4/Bluetooth_eventHandler.c **** 
1595:Generated_Source\PSoC4/Bluetooth_eventHandler.c **** /****************************************************************************** 
1596:Generated_Source\PSoC4/Bluetooth_eventHandler.c **** * Function Name: CyBle_GapConnUpdateCompleteEventHandler
1597:Generated_Source\PSoC4/Bluetooth_eventHandler.c **** ***************************************************************************//**
1598:Generated_Source\PSoC4/Bluetooth_eventHandler.c **** * 
1599:Generated_Source\PSoC4/Bluetooth_eventHandler.c **** *  Handles the CYBLE_EVT_GAP_CONNECTION_UPDATE_COMPLETE event from
1600:Generated_Source\PSoC4/Bluetooth_eventHandler.c **** *  the BLE stack.
1601:Generated_Source\PSoC4/Bluetooth_eventHandler.c **** * 
1602:Generated_Source\PSoC4/Bluetooth_eventHandler.c **** *  \param eventParam: The pointer to the data structure specified by the event.
1603:Generated_Source\PSoC4/Bluetooth_eventHandler.c **** * 
1604:Generated_Source\PSoC4/Bluetooth_eventHandler.c **** * \return
1605:Generated_Source\PSoC4/Bluetooth_eventHandler.c **** *  None
1606:Generated_Source\PSoC4/Bluetooth_eventHandler.c **** * 
1607:Generated_Source\PSoC4/Bluetooth_eventHandler.c **** ******************************************************************************/
1608:Generated_Source\PSoC4/Bluetooth_eventHandler.c **** static void CyBle_GapConnUpdateCompleteEventHandler(const CYBLE_GAP_CONN_PARAM_UPDATED_IN_CONTROLLE
1609:Generated_Source\PSoC4/Bluetooth_eventHandler.c **** {
1610:Generated_Source\PSoC4/Bluetooth_eventHandler.c ****     #ifdef CYBLE_CPS_SERVER
1611:Generated_Source\PSoC4/Bluetooth_eventHandler.c ****         CyBle_CpssConnUpdateCompleteEventHandler(eventParam);
1612:Generated_Source\PSoC4/Bluetooth_eventHandler.c ****     #endif /* CYBLE_CPS_SERVER */
1613:Generated_Source\PSoC4/Bluetooth_eventHandler.c ****     
1614:Generated_Source\PSoC4/Bluetooth_eventHandler.c ****     /* Unreferenced variable warning workaround */
1615:Generated_Source\PSoC4/Bluetooth_eventHandler.c ****     if(eventParam != 0u)
1616:Generated_Source\PSoC4/Bluetooth_eventHandler.c ****     {
1617:Generated_Source\PSoC4/Bluetooth_eventHandler.c ****     }
1618:Generated_Source\PSoC4/Bluetooth_eventHandler.c **** }
1619:Generated_Source\PSoC4/Bluetooth_eventHandler.c **** 
1620:Generated_Source\PSoC4/Bluetooth_eventHandler.c **** 
1621:Generated_Source\PSoC4/Bluetooth_eventHandler.c **** /****************************************************************************** 
1622:Generated_Source\PSoC4/Bluetooth_eventHandler.c **** * Function Name: CyBle_EventHandler
1623:Generated_Source\PSoC4/Bluetooth_eventHandler.c **** ***************************************************************************//**
1624:Generated_Source\PSoC4/Bluetooth_eventHandler.c **** * 
1625:Generated_Source\PSoC4/Bluetooth_eventHandler.c **** *  Handles the events from the BLE stack
1626:Generated_Source\PSoC4/Bluetooth_eventHandler.c **** * 
1627:Generated_Source\PSoC4/Bluetooth_eventHandler.c **** *  \param eventCode:    the event code
ARM GAS  C:\Windows\TEMP\ccTU3rlm.s 			page 34


1628:Generated_Source\PSoC4/Bluetooth_eventHandler.c **** *  \param eventParam:  the event parameters
1629:Generated_Source\PSoC4/Bluetooth_eventHandler.c **** * 
1630:Generated_Source\PSoC4/Bluetooth_eventHandler.c **** * \return
1631:Generated_Source\PSoC4/Bluetooth_eventHandler.c **** *  None.
1632:Generated_Source\PSoC4/Bluetooth_eventHandler.c **** * 
1633:Generated_Source\PSoC4/Bluetooth_eventHandler.c **** ******************************************************************************/
1634:Generated_Source\PSoC4/Bluetooth_eventHandler.c **** void CyBle_EventHandler(uint8 eventCode, void *eventParam)
1635:Generated_Source\PSoC4/Bluetooth_eventHandler.c **** {
 233              		.loc 1 1635 0
 234              		.cfi_startproc
 235              		@ args = 0, pretend = 0, frame = 8
 236              		@ frame_needed = 0, uses_anonymous_args = 0
 237              	.LVL22:
 238 0000 F0B5     		push	{r4, r5, r6, r7, lr}
 239              		.cfi_def_cfa_offset 20
 240              		.cfi_offset 4, -20
 241              		.cfi_offset 5, -16
 242              		.cfi_offset 6, -12
 243              		.cfi_offset 7, -8
 244              		.cfi_offset 14, -4
 245 0002 83B0     		sub	sp, sp, #12
 246              		.cfi_def_cfa_offset 32
 247 0004 0400     		movs	r4, r0
 248 0006 0D00     		movs	r5, r1
1636:Generated_Source\PSoC4/Bluetooth_eventHandler.c ****     cyBle_eventHandlerFlag |= CYBLE_CALLBACK;
 249              		.loc 1 1636 0
 250 0008 A94A     		ldr	r2, .L51
 251 000a 1178     		ldrb	r1, [r2]
 252              	.LVL23:
 253 000c 0123     		movs	r3, #1
 254 000e 0B43     		orrs	r3, r1
 255 0010 DBB2     		uxtb	r3, r3
 256 0012 1370     		strb	r3, [r2]
1637:Generated_Source\PSoC4/Bluetooth_eventHandler.c **** 
1638:Generated_Source\PSoC4/Bluetooth_eventHandler.c ****     /* Common Profile event handling */
1639:Generated_Source\PSoC4/Bluetooth_eventHandler.c ****     switch(eventCode)
 257              		.loc 1 1639 0
 258 0014 2828     		cmp	r0, #40
 259 0016 00D1     		bne	.LCB224
 260 0018 D6E0     		b	.L22	@long jump
 261              	.LCB224:
 262 001a 16D8     		bhi	.L23
 263 001c 2128     		cmp	r0, #33
 264 001e 00D1     		bne	.LCB228
 265 0020 A5E0     		b	.L24	@long jump
 266              	.LCB228:
 267 0022 09D8     		bhi	.L25
 268 0024 0528     		cmp	r0, #5
 269 0026 00D1     		bne	.LCB232
 270 0028 89E0     		b	.L26	@long jump
 271              	.LCB232:
 272 002a 0628     		cmp	r0, #6
 273 002c 00D1     		bne	.LCB234
 274 002e 8AE0     		b	.L27	@long jump
 275              	.LCB234:
 276 0030 0128     		cmp	r0, #1
 277 0032 00D0     		beq	.LCB236
ARM GAS  C:\Windows\TEMP\ccTU3rlm.s 			page 35


 278 0034 2BE1     		b	.L21	@long jump
 279              	.LCB236:
 280 0036 24E0     		b	.L28
 281              	.L25:
 282 0038 2628     		cmp	r0, #38
 283 003a 00D1     		bne	.LCB242
 284 003c C8E0     		b	.L29	@long jump
 285              	.LCB242:
 286 003e 00D9     		bls	.LCB244
 287 0040 BEE0     		b	.L30	@long jump
 288              	.LCB244:
 289 0042 2428     		cmp	r0, #36
 290 0044 00D1     		bne	.LCB246
 291 0046 B3E0     		b	.L31	@long jump
 292              	.LCB246:
 293 0048 21E1     		b	.L21
 294              	.L23:
 295 004a 4328     		cmp	r0, #67
 296 004c 00D1     		bne	.LCB252
 297 004e 01E1     		b	.L32	@long jump
 298              	.LCB252:
 299 0050 08D8     		bhi	.L33
 300 0052 4128     		cmp	r0, #65
 301 0054 00D1     		bne	.LCB256
 302 0056 E3E0     		b	.L34	@long jump
 303              	.LCB256:
 304 0058 00D9     		bls	.LCB258
 305 005a F8E0     		b	.L35	@long jump
 306              	.LCB258:
 307 005c 3128     		cmp	r0, #49
 308 005e 00D1     		bne	.LCB260
 309 0060 AAE0     		b	.L36	@long jump
 310              	.LCB260:
 311 0062 14E1     		b	.L21
 312              	.L33:
 313 0064 4E28     		cmp	r0, #78
 314 0066 00D1     		bne	.LCB266
 315 0068 00E1     		b	.L37	@long jump
 316              	.LCB266:
 317 006a 03D8     		bhi	.L38
 318 006c 4C28     		cmp	r0, #76
 319 006e 00D1     		bne	.LCB270
 320 0070 F8E0     		b	.L39	@long jump
 321              	.LCB270:
 322 0072 0CE1     		b	.L21
 323              	.L38:
 324 0074 5428     		cmp	r0, #84
 325 0076 00D1     		bne	.LCB276
 326 0078 00E1     		b	.L40	@long jump
 327              	.LCB276:
 328 007a FA28     		cmp	r0, #250
 329 007c 00D1     		bne	.LCB278
 330 007e 01E1     		b	.L41	@long jump
 331              	.LCB278:
 332 0080 05E1     		b	.L21
 333              	.L28:
 334              	.LBB3:
ARM GAS  C:\Windows\TEMP\ccTU3rlm.s 			page 36


1640:Generated_Source\PSoC4/Bluetooth_eventHandler.c ****     {
1641:Generated_Source\PSoC4/Bluetooth_eventHandler.c ****         /**********************************************************
1642:Generated_Source\PSoC4/Bluetooth_eventHandler.c ****         * General events
1643:Generated_Source\PSoC4/Bluetooth_eventHandler.c ****         ************************************************************/
1644:Generated_Source\PSoC4/Bluetooth_eventHandler.c ****         case CYBLE_EVT_STACK_ON:
1645:Generated_Source\PSoC4/Bluetooth_eventHandler.c ****         #if(CYBLE_MODE_PROFILE)
1646:Generated_Source\PSoC4/Bluetooth_eventHandler.c ****         {
1647:Generated_Source\PSoC4/Bluetooth_eventHandler.c ****             CYBLE_BLESS_PWR_IN_DB_T bleSsPowerLevel;
1648:Generated_Source\PSoC4/Bluetooth_eventHandler.c ****             
1649:Generated_Source\PSoC4/Bluetooth_eventHandler.c ****             /* Set Tx Power Level for advertising and connection channels */
1650:Generated_Source\PSoC4/Bluetooth_eventHandler.c ****             bleSsPowerLevel.blePwrLevelInDbm = CYBLE_TX_POWER_LEVEL_ADV;
 335              		.loc 1 1650 0
 336 0082 01AE     		add	r6, sp, #4
 337 0084 0727     		movs	r7, #7
 338 0086 3770     		strb	r7, [r6]
1651:Generated_Source\PSoC4/Bluetooth_eventHandler.c ****             bleSsPowerLevel.bleSsChId = CYBLE_LL_ADV_CH_TYPE;
 339              		.loc 1 1651 0
 340 0088 0023     		movs	r3, #0
 341 008a 7370     		strb	r3, [r6, #1]
1652:Generated_Source\PSoC4/Bluetooth_eventHandler.c ****             (void) CyBle_SetTxPowerLevel (&bleSsPowerLevel);
 342              		.loc 1 1652 0
 343 008c 3000     		movs	r0, r6
 344              	.LVL24:
 345 008e FFF7FEFF 		bl	CyBle_SetTxPowerLevel
 346              	.LVL25:
1653:Generated_Source\PSoC4/Bluetooth_eventHandler.c ****             bleSsPowerLevel.blePwrLevelInDbm = CYBLE_TX_POWER_LEVEL_CONN;
 347              		.loc 1 1653 0
 348 0092 3770     		strb	r7, [r6]
1654:Generated_Source\PSoC4/Bluetooth_eventHandler.c ****             bleSsPowerLevel.bleSsChId = CYBLE_LL_CONN_CH_TYPE;
 349              		.loc 1 1654 0
 350 0094 0123     		movs	r3, #1
 351 0096 7370     		strb	r3, [r6, #1]
1655:Generated_Source\PSoC4/Bluetooth_eventHandler.c ****             (void) CyBle_SetTxPowerLevel (&bleSsPowerLevel);
 352              		.loc 1 1655 0
 353 0098 3000     		movs	r0, r6
 354 009a FFF7FEFF 		bl	CyBle_SetTxPowerLevel
 355              	.LVL26:
1656:Generated_Source\PSoC4/Bluetooth_eventHandler.c ****             
1657:Generated_Source\PSoC4/Bluetooth_eventHandler.c ****             #if (CYBLE_GATT_ROLE_SERVER)
1658:Generated_Source\PSoC4/Bluetooth_eventHandler.c ****                 /* As per Privacy Errata a call to CyBle_EnableDefaultDevicePrivacy() is
1659:Generated_Source\PSoC4/Bluetooth_eventHandler.c ****                   required to set a device to use device privacy instead of network privacy
1660:Generated_Source\PSoC4/Bluetooth_eventHandler.c ****                   that is enabled by default starting from BLE Stack 3.3.
1661:Generated_Source\PSoC4/Bluetooth_eventHandler.c ****                 */
1662:Generated_Source\PSoC4/Bluetooth_eventHandler.c ****                 if(cyBle_gaps.rpaOnlyCharHandle != CYBLE_GATT_INVALID_ATTR_HANDLE_VALUE)
1663:Generated_Source\PSoC4/Bluetooth_eventHandler.c ****                 {
1664:Generated_Source\PSoC4/Bluetooth_eventHandler.c ****                     CyBle_EnableDefaultDevicePrivacy();
 356              		.loc 1 1664 0
 357 009e FFF7FEFF 		bl	CyBle_EnableDefaultDevicePrivacy
 358              	.LVL27:
 359              	.LBE3:
1665:Generated_Source\PSoC4/Bluetooth_eventHandler.c ****                 }
1666:Generated_Source\PSoC4/Bluetooth_eventHandler.c ****             #endif /* (CYBLE_GATT_ROLE_SERVER) */
1667:Generated_Source\PSoC4/Bluetooth_eventHandler.c ****             
1668:Generated_Source\PSoC4/Bluetooth_eventHandler.c ****             #if (CYBLE_STRICT_PAIRING_ENABLED)
1669:Generated_Source\PSoC4/Bluetooth_eventHandler.c ****                 (void) CyBle_GapSetSecurityRequirements(CYBLE_STRICT_PAIRING_REQ_VALUE, CYBLE_SECUR
1670:Generated_Source\PSoC4/Bluetooth_eventHandler.c ****             #endif /* (CYBLE_STRICT_PAIRING_ENABLED) */
1671:Generated_Source\PSoC4/Bluetooth_eventHandler.c ****             
ARM GAS  C:\Windows\TEMP\ccTU3rlm.s 			page 37


1672:Generated_Source\PSoC4/Bluetooth_eventHandler.c ****         }
1673:Generated_Source\PSoC4/Bluetooth_eventHandler.c ****         #endif /* CYBLE_MODE_PROFILE */
1674:Generated_Source\PSoC4/Bluetooth_eventHandler.c ****         #if (CYBLE_GATT_ROLE_SERVER || CYBLE_GATT_ROLE_CLIENT)
1675:Generated_Source\PSoC4/Bluetooth_eventHandler.c ****             /* Set device Address  */
1676:Generated_Source\PSoC4/Bluetooth_eventHandler.c ****             if(CyBle_IsDeviceAddressValid(cyBle_sflashDeviceAddress) != 0u)
 360              		.loc 1 1676 0
 361 00a2 844B     		ldr	r3, .L51+4
 362 00a4 1E68     		ldr	r6, [r3]
 363 00a6 3000     		movs	r0, r6
 364 00a8 FFF7FEFF 		bl	CyBle_IsDeviceAddressValid
 365              	.LVL28:
 366 00ac 0028     		cmp	r0, #0
 367 00ae 0CD0     		beq	.L42
1677:Generated_Source\PSoC4/Bluetooth_eventHandler.c ****             {
1678:Generated_Source\PSoC4/Bluetooth_eventHandler.c ****                 (void) CyBle_SetDeviceAddress(cyBle_sflashDeviceAddress);
 368              		.loc 1 1678 0
 369 00b0 3000     		movs	r0, r6
 370 00b2 FFF7FEFF 		bl	CyBle_SetDeviceAddress
 371              	.LVL29:
1679:Generated_Source\PSoC4/Bluetooth_eventHandler.c ****                 #if(CYBLE_GAP_ROLE_PERIPHERAL || CYBLE_GAP_ROLE_BROADCASTER)
1680:Generated_Source\PSoC4/Bluetooth_eventHandler.c ****                     CyBle_ChangeAdDeviceAddress(cyBle_sflashDeviceAddress, 0u);
 372              		.loc 1 1680 0
 373 00b6 7F4E     		ldr	r6, .L51+4
 374 00b8 0021     		movs	r1, #0
 375 00ba 3068     		ldr	r0, [r6]
 376 00bc FFF7FEFF 		bl	CyBle_ChangeAdDeviceAddress
 377              	.LVL30:
1681:Generated_Source\PSoC4/Bluetooth_eventHandler.c ****                     CyBle_ChangeAdDeviceAddress(cyBle_sflashDeviceAddress, 1u);
 378              		.loc 1 1681 0
 379 00c0 3068     		ldr	r0, [r6]
 380 00c2 0121     		movs	r1, #1
 381 00c4 FFF7FEFF 		bl	CyBle_ChangeAdDeviceAddress
 382              	.LVL31:
 383 00c8 2AE0     		b	.L43
 384              	.L42:
 385              	.LBB4:
1682:Generated_Source\PSoC4/Bluetooth_eventHandler.c ****                 #endif /* CYBLE_GAP_ROLE_PERIPHERAL || CYBLE_GAP_ROLE_BROADCASTER */    
1683:Generated_Source\PSoC4/Bluetooth_eventHandler.c ****             }
1684:Generated_Source\PSoC4/Bluetooth_eventHandler.c ****             else
1685:Generated_Source\PSoC4/Bluetooth_eventHandler.c ****             {
1686:Generated_Source\PSoC4/Bluetooth_eventHandler.c ****             #if (SILICON_GENERATED_DEVICE_ADDRESS != 0u)
1687:Generated_Source\PSoC4/Bluetooth_eventHandler.c ****             {
1688:Generated_Source\PSoC4/Bluetooth_eventHandler.c ****                 uint32 bdAddrLoc;
1689:Generated_Source\PSoC4/Bluetooth_eventHandler.c ****                 bdAddrLoc = (CYBLE_SFLASH_DIE_X_REG & CYBLE_SFLASH_DIE_X_MASK) |
 386              		.loc 1 1689 0
 387 00ca 7B4B     		ldr	r3, .L51+8
 388 00cc 1F78     		ldrb	r7, [r3]
1690:Generated_Source\PSoC4/Bluetooth_eventHandler.c ****                     ((uint32)(((uint32)CYBLE_SFLASH_DIE_Y_REG) & ((uint32)CYBLE_SFLASH_DIE_Y_MASK))
 389              		.loc 1 1690 0
 390 00ce 7B4B     		ldr	r3, .L51+12
 391 00d0 1878     		ldrb	r0, [r3]
 392 00d2 8001     		lsls	r0, r0, #6
 393 00d4 FC26     		movs	r6, #252
 394 00d6 3601     		lsls	r6, r6, #4
 395 00d8 0200     		movs	r2, r0
 396 00da 3240     		ands	r2, r6
1689:Generated_Source\PSoC4/Bluetooth_eventHandler.c ****                     ((uint32)(((uint32)CYBLE_SFLASH_DIE_Y_REG) & ((uint32)CYBLE_SFLASH_DIE_Y_MASK))
ARM GAS  C:\Windows\TEMP\ccTU3rlm.s 			page 38


 397              		.loc 1 1689 0
 398 00dc 3F21     		movs	r1, #63
 399 00de 3940     		ands	r1, r7
 400 00e0 1143     		orrs	r1, r2
1691:Generated_Source\PSoC4/Bluetooth_eventHandler.c ****                         CYBLE_SFLASH_DIE_X_BITS) |
1692:Generated_Source\PSoC4/Bluetooth_eventHandler.c ****                     ((uint32)(((uint32)CYBLE_SFLASH_DIE_WAFER_REG) & ((uint32)CYBLE_SFLASH_DIE_WAFE
 401              		.loc 1 1692 0
 402 00e2 774B     		ldr	r3, .L51+16
 403 00e4 1B78     		ldrb	r3, [r3]
 404 00e6 1B03     		lsls	r3, r3, #12
 405 00e8 F822     		movs	r2, #248
 406 00ea 5202     		lsls	r2, r2, #9
 407 00ec 1340     		ands	r3, r2
1691:Generated_Source\PSoC4/Bluetooth_eventHandler.c ****                         CYBLE_SFLASH_DIE_X_BITS) |
 408              		.loc 1 1691 0
 409 00ee 1943     		orrs	r1, r3
1693:Generated_Source\PSoC4/Bluetooth_eventHandler.c ****                         CYBLE_SFLASH_DIE_XY_BITS) |
1694:Generated_Source\PSoC4/Bluetooth_eventHandler.c ****                     ((uint32)(((uint32)CYBLE_SFLASH_DIE_LOT_REG) & ((uint32)CYBLE_SFLASH_DIE_LOT_MA
 410              		.loc 1 1694 0
 411 00f0 744B     		ldr	r3, .L51+20
 412 00f2 1B78     		ldrb	r3, [r3]
 413 00f4 5B04     		lsls	r3, r3, #17
 414 00f6 FE22     		movs	r2, #254
 415 00f8 1204     		lsls	r2, r2, #16
 416 00fa 1340     		ands	r3, r2
1689:Generated_Source\PSoC4/Bluetooth_eventHandler.c ****                     ((uint32)(((uint32)CYBLE_SFLASH_DIE_Y_REG) & ((uint32)CYBLE_SFLASH_DIE_Y_MASK))
 417              		.loc 1 1689 0
 418 00fc 0B43     		orrs	r3, r1
 419              	.LVL32:
1695:Generated_Source\PSoC4/Bluetooth_eventHandler.c ****                         CYBLE_SFLASH_DIE_XYWAFER_BITS);
1696:Generated_Source\PSoC4/Bluetooth_eventHandler.c ****                             
1697:Generated_Source\PSoC4/Bluetooth_eventHandler.c ****                 cyBle_deviceAddress.bdAddr[0] = (uint8)bdAddrLoc;
 420              		.loc 1 1697 0
 421 00fe 724E     		ldr	r6, .L51+24
 422 0100 3370     		strb	r3, [r6]
1698:Generated_Source\PSoC4/Bluetooth_eventHandler.c ****                 cyBle_deviceAddress.bdAddr[1] = (uint8)(bdAddrLoc >> 8u);
 423              		.loc 1 1698 0
 424 0102 1A0A     		lsrs	r2, r3, #8
 425 0104 7270     		strb	r2, [r6, #1]
1699:Generated_Source\PSoC4/Bluetooth_eventHandler.c ****                 cyBle_deviceAddress.bdAddr[2] = (uint8)(bdAddrLoc >> 16u);
 426              		.loc 1 1699 0
 427 0106 1B0C     		lsrs	r3, r3, #16
 428              	.LVL33:
 429 0108 B370     		strb	r3, [r6, #2]
 430              	.LBE4:
1700:Generated_Source\PSoC4/Bluetooth_eventHandler.c ****             }
1701:Generated_Source\PSoC4/Bluetooth_eventHandler.c ****             #endif /* SILICON_GENERATED_DEVICE_ADDRESS != 0u */
1702:Generated_Source\PSoC4/Bluetooth_eventHandler.c ****                 (void) CyBle_SetDeviceAddress(&cyBle_deviceAddress);
 431              		.loc 1 1702 0
 432 010a 3000     		movs	r0, r6
 433 010c FFF7FEFF 		bl	CyBle_SetDeviceAddress
 434              	.LVL34:
1703:Generated_Source\PSoC4/Bluetooth_eventHandler.c ****                 #if(CYBLE_GAP_ROLE_PERIPHERAL || CYBLE_GAP_ROLE_BROADCASTER)
1704:Generated_Source\PSoC4/Bluetooth_eventHandler.c ****                     CyBle_ChangeAdDeviceAddress(&cyBle_deviceAddress, 0u);
 435              		.loc 1 1704 0
 436 0110 0021     		movs	r1, #0
 437 0112 3000     		movs	r0, r6
ARM GAS  C:\Windows\TEMP\ccTU3rlm.s 			page 39


 438 0114 FFF7FEFF 		bl	CyBle_ChangeAdDeviceAddress
 439              	.LVL35:
1705:Generated_Source\PSoC4/Bluetooth_eventHandler.c ****                     CyBle_ChangeAdDeviceAddress(&cyBle_deviceAddress, 1u);
 440              		.loc 1 1705 0
 441 0118 0121     		movs	r1, #1
 442 011a 3000     		movs	r0, r6
 443 011c FFF7FEFF 		bl	CyBle_ChangeAdDeviceAddress
 444              	.LVL36:
 445              	.L43:
1706:Generated_Source\PSoC4/Bluetooth_eventHandler.c ****                 #endif /* CYBLE_GAP_ROLE_PERIPHERAL || CYBLE_GAP_ROLE_BROADCASTER */    
1707:Generated_Source\PSoC4/Bluetooth_eventHandler.c ****             }
1708:Generated_Source\PSoC4/Bluetooth_eventHandler.c ****             /* Set device IO Capability  */
1709:Generated_Source\PSoC4/Bluetooth_eventHandler.c ****             (void) CyBle_GapSetIoCap(CYBLE_IO_CAPABILITY);    
 446              		.loc 1 1709 0
 447 0120 0020     		movs	r0, #0
 448 0122 FFF7FEFF 		bl	CyBle_GapSetIoCap
 449              	.LVL37:
 450              	.LBB5:
1710:Generated_Source\PSoC4/Bluetooth_eventHandler.c ****             {
1711:Generated_Source\PSoC4/Bluetooth_eventHandler.c ****                 /* Enable all 4.1 events and configured 4.2 events */
1712:Generated_Source\PSoC4/Bluetooth_eventHandler.c ****                 uint8 leMask[CYBLE_LE_MASK_LENGTH] = {LO8(CYBLE_LE_MASK), HI8(CYBLE_LE_MASK)};
 451              		.loc 1 1712 0
 452 0126 0222     		movs	r2, #2
 453 0128 6849     		ldr	r1, .L51+28
 454 012a 01A8     		add	r0, sp, #4
 455 012c FFF7FEFF 		bl	memcpy
 456              	.LVL38:
1713:Generated_Source\PSoC4/Bluetooth_eventHandler.c ****                 (void) CyBle_GapSetLeEventMask(leMask);
 457              		.loc 1 1713 0
 458 0130 01A8     		add	r0, sp, #4
 459 0132 FFF7FEFF 		bl	CyBle_GapSetLeEventMask
 460              	.LVL39:
 461              	.LBE5:
1714:Generated_Source\PSoC4/Bluetooth_eventHandler.c ****             }
1715:Generated_Source\PSoC4/Bluetooth_eventHandler.c ****         #if(CYBLE_DLE_FEATURE_ENABLED)
1716:Generated_Source\PSoC4/Bluetooth_eventHandler.c ****         {
1717:Generated_Source\PSoC4/Bluetooth_eventHandler.c ****             /* Set maximum suggested TX payload size */
1718:Generated_Source\PSoC4/Bluetooth_eventHandler.c ****             uint16 payloadTime = CYBLE_LL_MAX_TX_TIME;
1719:Generated_Source\PSoC4/Bluetooth_eventHandler.c ****             (void) CyBle_GapConvertOctetToTime(CYBLE_GAP_PHY_1MBPS, CYBLE_LL_MAX_TX_PAYLOAD_SIZE, &
1720:Generated_Source\PSoC4/Bluetooth_eventHandler.c ****             (void) CyBle_GapSetSuggestedDataLength(CYBLE_LL_MAX_TX_PAYLOAD_SIZE, payloadTime); 
1721:Generated_Source\PSoC4/Bluetooth_eventHandler.c ****         }
1722:Generated_Source\PSoC4/Bluetooth_eventHandler.c ****         #endif /* CYBLE_DLE_FEATURE != 0u */
1723:Generated_Source\PSoC4/Bluetooth_eventHandler.c ****         
1724:Generated_Source\PSoC4/Bluetooth_eventHandler.c ****         #endif /* CYBLE_GATT_ROLE_SERVER || CYBLE_GATT_ROLE_CLIENT */
1725:Generated_Source\PSoC4/Bluetooth_eventHandler.c ****             CyBle_SetState(CYBLE_STATE_DISCONNECTED);
 462              		.loc 1 1725 0
 463 0136 0422     		movs	r2, #4
 464 0138 654B     		ldr	r3, .L51+32
 465 013a 1A70     		strb	r2, [r3]
1726:Generated_Source\PSoC4/Bluetooth_eventHandler.c ****             break;
 466              		.loc 1 1726 0
 467 013c A7E0     		b	.L21
 468              	.LVL40:
 469              	.L26:
1727:Generated_Source\PSoC4/Bluetooth_eventHandler.c ****         case CYBLE_EVT_TIMEOUT:
1728:Generated_Source\PSoC4/Bluetooth_eventHandler.c ****             CyBle_TimeOutEventHandler((CYBLE_TO_REASON_CODE_T *)eventParam);
1729:Generated_Source\PSoC4/Bluetooth_eventHandler.c ****             break;
ARM GAS  C:\Windows\TEMP\ccTU3rlm.s 			page 40


1730:Generated_Source\PSoC4/Bluetooth_eventHandler.c ****     	case CYBLE_EVT_STACK_BUSY_STATUS:
1731:Generated_Source\PSoC4/Bluetooth_eventHandler.c ****             cyBle_busyStatus = *(uint8 *)eventParam;
 470              		.loc 1 1731 0
 471 013e 2A78     		ldrb	r2, [r5]
 472 0140 644B     		ldr	r3, .L51+36
 473 0142 1A70     		strb	r2, [r3]
1732:Generated_Source\PSoC4/Bluetooth_eventHandler.c ****             break;
 474              		.loc 1 1732 0
 475 0144 A3E0     		b	.L21
 476              	.L27:
 477              	.LVL41:
 478              	.LBB6:
1733:Generated_Source\PSoC4/Bluetooth_eventHandler.c ****     	case CYBLE_EVT_MEMORY_REQUEST:
1734:Generated_Source\PSoC4/Bluetooth_eventHandler.c ****         #if(CYBLE_MODE_PROFILE)
1735:Generated_Source\PSoC4/Bluetooth_eventHandler.c ****         {
1736:Generated_Source\PSoC4/Bluetooth_eventHandler.c ****             CYBLE_MEMORY_REQUEST_T *memReq = (CYBLE_MEMORY_REQUEST_T *)eventParam;
1737:Generated_Source\PSoC4/Bluetooth_eventHandler.c ****             if(memReq->request == CYBLE_PREPARED_WRITE_REQUEST)
 479              		.loc 1 1737 0
 480 0146 2B78     		ldrb	r3, [r5]
 481 0148 002B     		cmp	r3, #0
 482 014a 00D0     		beq	.LCB414
 483 014c 9FE0     		b	.L21	@long jump
 484              	.LCB414:
1738:Generated_Source\PSoC4/Bluetooth_eventHandler.c ****             {  
1739:Generated_Source\PSoC4/Bluetooth_eventHandler.c ****             #if(CYBLE_GATT_ENABLE_EXTERNAL_PREP_WRITE_BUFF == 0u)
1740:Generated_Source\PSoC4/Bluetooth_eventHandler.c ****                 /* Stack requests to provide memory to process remote request */
1741:Generated_Source\PSoC4/Bluetooth_eventHandler.c ****                 if(memReq->allocFree == CYBLE_ALLOC_MEMORY)
 485              		.loc 1 1741 0
 486 014e 6B78     		ldrb	r3, [r5, #1]
 487 0150 002B     		cmp	r3, #0
 488 0152 06D1     		bne	.L44
 489              	.LBB7:
1742:Generated_Source\PSoC4/Bluetooth_eventHandler.c ****                 {
1743:Generated_Source\PSoC4/Bluetooth_eventHandler.c ****                     static CYBLE_PREPARE_WRITE_REQUEST_MEMORY_T gPrepWriteReqMem;
1744:Generated_Source\PSoC4/Bluetooth_eventHandler.c ****                     
1745:Generated_Source\PSoC4/Bluetooth_eventHandler.c ****                     /* Configure and return statically allocated buffer at the end of cyBle_stackMe
1746:Generated_Source\PSoC4/Bluetooth_eventHandler.c ****                     gPrepWriteReqMem.prepareWriteQueueSize = CYBLE_GATT_MAX_PREPARE_BUFF_COUNT;
 490              		.loc 1 1746 0
 491 0154 604B     		ldr	r3, .L51+40
 492 0156 0022     		movs	r2, #0
 493 0158 DA80     		strh	r2, [r3, #6]
1747:Generated_Source\PSoC4/Bluetooth_eventHandler.c ****                     gPrepWriteReqMem.totalAttrValueLength = CYBLE_GATT_PREPARE_LENGTH_ALIGN;
 494              		.loc 1 1747 0
 495 015a 9A80     		strh	r2, [r3, #4]
1748:Generated_Source\PSoC4/Bluetooth_eventHandler.c ****                     gPrepWriteReqMem.queueBuffer = &cyBle_stackMemoryRam[CYBLE_STACK_RAM_SIZE - 
 496              		.loc 1 1748 0
 497 015c 5F4A     		ldr	r2, .L51+44
 498 015e 1A60     		str	r2, [r3]
1749:Generated_Source\PSoC4/Bluetooth_eventHandler.c ****                                                                          CYBLE_GATT_PREPARE_WRITE_B
1750:Generated_Source\PSoC4/Bluetooth_eventHandler.c ****                     memReq->configMemory = &gPrepWriteReqMem;  
 499              		.loc 1 1750 0
 500 0160 6B60     		str	r3, [r5, #4]
 501              	.L44:
 502              	.LBE7:
1751:Generated_Source\PSoC4/Bluetooth_eventHandler.c ****                 }                
1752:Generated_Source\PSoC4/Bluetooth_eventHandler.c ****                 /* Clear CYBLE_CALLBACK flag not to provide handled event to application */
1753:Generated_Source\PSoC4/Bluetooth_eventHandler.c ****                 cyBle_eventHandlerFlag &= (uint8)~CYBLE_CALLBACK;
ARM GAS  C:\Windows\TEMP\ccTU3rlm.s 			page 41


 503              		.loc 1 1753 0
 504 0162 534A     		ldr	r2, .L51
 505 0164 1378     		ldrb	r3, [r2]
 506 0166 0121     		movs	r1, #1
 507 0168 8B43     		bics	r3, r1
 508 016a 1370     		strb	r3, [r2]
 509 016c 8FE0     		b	.L21
 510              	.LVL42:
 511              	.L24:
 512              	.LBE6:
1754:Generated_Source\PSoC4/Bluetooth_eventHandler.c ****             #endif  /* CYBLE_GATT_ENABLE_EXTERNAL_PREP_WRITE_BUFF == 0u */
1755:Generated_Source\PSoC4/Bluetooth_eventHandler.c ****             }
1756:Generated_Source\PSoC4/Bluetooth_eventHandler.c ****         }
1757:Generated_Source\PSoC4/Bluetooth_eventHandler.c ****         #endif /* CYBLE_MODE_PROFILE */
1758:Generated_Source\PSoC4/Bluetooth_eventHandler.c ****             break;
1759:Generated_Source\PSoC4/Bluetooth_eventHandler.c ****         /**********************************************************
1760:Generated_Source\PSoC4/Bluetooth_eventHandler.c ****         * GAP events
1761:Generated_Source\PSoC4/Bluetooth_eventHandler.c ****         ************************************************************/
1762:Generated_Source\PSoC4/Bluetooth_eventHandler.c ****         case CYBLE_EVT_GAP_AUTH_REQ:
1763:Generated_Source\PSoC4/Bluetooth_eventHandler.c ****         #if(CYBLE_MODE_PROFILE)
1764:Generated_Source\PSoC4/Bluetooth_eventHandler.c ****             if((cyBle_eventHandlerFlag & CYBLE_DISABLE_AUTOMATIC_AUTH) == 0u)
 513              		.loc 1 1764 0
 514 016e 504B     		ldr	r3, .L51
 515 0170 1B78     		ldrb	r3, [r3]
 516 0172 9B06     		lsls	r3, r3, #26
 517 0174 00D5     		bpl	.LCB451
 518 0176 8AE0     		b	.L21	@long jump
 519              	.LCB451:
1765:Generated_Source\PSoC4/Bluetooth_eventHandler.c ****             {
1766:Generated_Source\PSoC4/Bluetooth_eventHandler.c ****                 /* If the responding device does not support pairing then the responding 
1767:Generated_Source\PSoC4/Bluetooth_eventHandler.c ****                    device shall respond using the Pairing Failed message with the error 
1768:Generated_Source\PSoC4/Bluetooth_eventHandler.c ****                    code "Pairing Not Supported" otherwise it responds with a Pairing 
1769:Generated_Source\PSoC4/Bluetooth_eventHandler.c ****                    Response message.
1770:Generated_Source\PSoC4/Bluetooth_eventHandler.c ****                 */
1771:Generated_Source\PSoC4/Bluetooth_eventHandler.c ****                 if(cyBle_authInfo.security == (CYBLE_GAP_SEC_MODE_1 | CYBLE_GAP_SEC_LEVEL_1))
 520              		.loc 1 1771 0
 521 0178 594B     		ldr	r3, .L51+48
 522 017a 1B78     		ldrb	r3, [r3]
 523 017c 102B     		cmp	r3, #16
 524 017e 02D1     		bne	.L45
1772:Generated_Source\PSoC4/Bluetooth_eventHandler.c ****                 {
1773:Generated_Source\PSoC4/Bluetooth_eventHandler.c ****                     cyBle_authInfo.authErr = CYBLE_GAP_AUTH_ERROR_PAIRING_NOT_SUPPORTED;
 525              		.loc 1 1773 0
 526 0180 0522     		movs	r2, #5
 527 0182 574B     		ldr	r3, .L51+48
 528 0184 DA70     		strb	r2, [r3, #3]
 529              	.L45:
 530              	.LBB8:
1774:Generated_Source\PSoC4/Bluetooth_eventHandler.c ****                 }    
1775:Generated_Source\PSoC4/Bluetooth_eventHandler.c ****             #if(CYBLE_GAP_ROLE_PERIPHERAL)
1776:Generated_Source\PSoC4/Bluetooth_eventHandler.c ****                 {
1777:Generated_Source\PSoC4/Bluetooth_eventHandler.c ****                     CYBLE_API_RESULT_T apiResult;
1778:Generated_Source\PSoC4/Bluetooth_eventHandler.c ****                     
1779:Generated_Source\PSoC4/Bluetooth_eventHandler.c ****                     apiResult = CyBle_GappAuthReqReply(cyBle_connHandle.bdHandle, &cyBle_authInfo);
 531              		.loc 1 1779 0
 532 0186 574B     		ldr	r3, .L51+52
 533 0188 1878     		ldrb	r0, [r3]
ARM GAS  C:\Windows\TEMP\ccTU3rlm.s 			page 42


 534              	.LVL43:
 535 018a 5549     		ldr	r1, .L51+48
 536 018c FFF7FEFF 		bl	CyBle_GappAuthReqReply
 537              	.LVL44:
 538 0190 01AB     		add	r3, sp, #4
 539 0192 1880     		strh	r0, [r3]
1780:Generated_Source\PSoC4/Bluetooth_eventHandler.c ****                     /* Setting callback flag again as CyBle_GappAuthReqReply() will generate
1781:Generated_Source\PSoC4/Bluetooth_eventHandler.c ****                     * CYBLE_EVT_GAP_SMP_NEGOTIATED_AUTH_INFO event which will clear the callback
1782:Generated_Source\PSoC4/Bluetooth_eventHandler.c ****                     * flag.
1783:Generated_Source\PSoC4/Bluetooth_eventHandler.c ****                     */
1784:Generated_Source\PSoC4/Bluetooth_eventHandler.c ****                     if (apiResult != CYBLE_ERROR_OK)
 540              		.loc 1 1784 0
 541 0194 0028     		cmp	r0, #0
 542 0196 04D0     		beq	.L46
1785:Generated_Source\PSoC4/Bluetooth_eventHandler.c ****                     {   
1786:Generated_Source\PSoC4/Bluetooth_eventHandler.c ****                         CyBle_ApplCallback(CYBLE_EVT_GAP_AUTH_REQ_REPLY_ERR , &apiResult);
 543              		.loc 1 1786 0
 544 0198 534B     		ldr	r3, .L51+56
 545 019a 1B68     		ldr	r3, [r3]
 546 019c 01A9     		add	r1, sp, #4
 547 019e 3620     		movs	r0, #54
 548 01a0 9847     		blx	r3
 549              	.LVL45:
 550              	.L46:
1787:Generated_Source\PSoC4/Bluetooth_eventHandler.c ****                     }
1788:Generated_Source\PSoC4/Bluetooth_eventHandler.c ****                     cyBle_eventHandlerFlag |= CYBLE_CALLBACK;
 551              		.loc 1 1788 0
 552 01a2 434A     		ldr	r2, .L51
 553 01a4 1178     		ldrb	r1, [r2]
 554 01a6 0123     		movs	r3, #1
 555 01a8 0B43     		orrs	r3, r1
 556 01aa DBB2     		uxtb	r3, r3
 557 01ac 1370     		strb	r3, [r2]
 558 01ae 6EE0     		b	.L21
 559              	.LVL46:
 560              	.L31:
 561              	.LBE8:
1789:Generated_Source\PSoC4/Bluetooth_eventHandler.c ****                 }
1790:Generated_Source\PSoC4/Bluetooth_eventHandler.c ****             #endif /* CYBLE_GAP_ROLE_PERIPHERAL */
1791:Generated_Source\PSoC4/Bluetooth_eventHandler.c ****             #if (CYBLE_GAP_ROLE_CENTRAL)
1792:Generated_Source\PSoC4/Bluetooth_eventHandler.c ****                 (void)CyBle_GapAuthReq(cyBle_connHandle.bdHandle, &cyBle_authInfo);
1793:Generated_Source\PSoC4/Bluetooth_eventHandler.c ****             #endif /* CYBLE_GAP_ROLE_CENTRAL */
1794:Generated_Source\PSoC4/Bluetooth_eventHandler.c ****             }
1795:Generated_Source\PSoC4/Bluetooth_eventHandler.c ****         #endif /* CYBLE_MODE_PROFILE */
1796:Generated_Source\PSoC4/Bluetooth_eventHandler.c ****             break;
1797:Generated_Source\PSoC4/Bluetooth_eventHandler.c ****         
1798:Generated_Source\PSoC4/Bluetooth_eventHandler.c ****         case CYBLE_EVT_GAP_AUTH_COMPLETE:
1799:Generated_Source\PSoC4/Bluetooth_eventHandler.c ****         #if((CYBLE_GAP_ROLE_PERIPHERAL || CYBLE_GAP_ROLE_CENTRAL) && (CYBLE_BONDING_REQUIREMENT == 
1800:Generated_Source\PSoC4/Bluetooth_eventHandler.c ****             cyBle_peerBonding = ((CYBLE_GAP_AUTH_INFO_T *)eventParam)->bonding;
 562              		.loc 1 1800 0
 563 01b0 6A78     		ldrb	r2, [r5, #1]
 564 01b2 4E4B     		ldr	r3, .L51+60
 565 01b4 1A70     		strb	r2, [r3]
1801:Generated_Source\PSoC4/Bluetooth_eventHandler.c ****         #endif  /* CYBLE_BONDING_REQUIREMENT == CYBLE_BONDING_YES */
1802:Generated_Source\PSoC4/Bluetooth_eventHandler.c ****             break;
 566              		.loc 1 1802 0
 567 01b6 6AE0     		b	.L21
ARM GAS  C:\Windows\TEMP\ccTU3rlm.s 			page 43


 568              	.L36:
 569              	.LVL47:
 570              	.LBB9:
1803:Generated_Source\PSoC4/Bluetooth_eventHandler.c ****         
1804:Generated_Source\PSoC4/Bluetooth_eventHandler.c ****         case CYBLE_EVT_GAP_CONNECTION_UPDATE_COMPLETE:
1805:Generated_Source\PSoC4/Bluetooth_eventHandler.c ****             CyBle_GapConnUpdateCompleteEventHandler((const CYBLE_GAP_CONN_PARAM_UPDATED_IN_CONTROLL
1806:Generated_Source\PSoC4/Bluetooth_eventHandler.c ****             break;
1807:Generated_Source\PSoC4/Bluetooth_eventHandler.c ****             
1808:Generated_Source\PSoC4/Bluetooth_eventHandler.c ****     #if(CYBLE_LL_PRIVACY_FEATURE != 0u)        
1809:Generated_Source\PSoC4/Bluetooth_eventHandler.c ****         case CYBLE_EVT_GAP_ENHANCE_CONN_COMPLETE:
1810:Generated_Source\PSoC4/Bluetooth_eventHandler.c ****         {
1811:Generated_Source\PSoC4/Bluetooth_eventHandler.c ****             CYBLE_GAP_CONN_PARAM_UPDATED_IN_CONTROLLER_T  connCParam;
1812:Generated_Source\PSoC4/Bluetooth_eventHandler.c ****             CYBLE_GAP_ENHANCE_CONN_COMPLETE_T *connEnhanceParam;
1813:Generated_Source\PSoC4/Bluetooth_eventHandler.c ****             
1814:Generated_Source\PSoC4/Bluetooth_eventHandler.c ****             connEnhanceParam = (CYBLE_GAP_ENHANCE_CONN_COMPLETE_T *)eventParam;
1815:Generated_Source\PSoC4/Bluetooth_eventHandler.c ****             connCParam.status = connEnhanceParam->status;
1816:Generated_Source\PSoC4/Bluetooth_eventHandler.c ****             connCParam.connIntv = connEnhanceParam->connIntv;
1817:Generated_Source\PSoC4/Bluetooth_eventHandler.c ****             connCParam.connLatency = connEnhanceParam->connLatency;
1818:Generated_Source\PSoC4/Bluetooth_eventHandler.c ****             connCParam.supervisionTO = connEnhanceParam->supervisionTo;
1819:Generated_Source\PSoC4/Bluetooth_eventHandler.c ****             CyBle_GapConnUpdateCompleteEventHandler((const CYBLE_GAP_CONN_PARAM_UPDATED_IN_CONTROLL
1820:Generated_Source\PSoC4/Bluetooth_eventHandler.c ****             
1821:Generated_Source\PSoC4/Bluetooth_eventHandler.c ****             #if(CYBLE_GAP_ROLE_CENTRAL)
1822:Generated_Source\PSoC4/Bluetooth_eventHandler.c ****                 if(cyBle_connectingTimeout != 0u)
1823:Generated_Source\PSoC4/Bluetooth_eventHandler.c ****                 {
1824:Generated_Source\PSoC4/Bluetooth_eventHandler.c ****                    (void)CyBle_StopTimer();
1825:Generated_Source\PSoC4/Bluetooth_eventHandler.c ****                 }
1826:Generated_Source\PSoC4/Bluetooth_eventHandler.c ****             #endif /* CYBLE_GAP_ROLE_CENTRAL */
1827:Generated_Source\PSoC4/Bluetooth_eventHandler.c ****             CyBle_SetState(CYBLE_STATE_CONNECTED);
 571              		.loc 1 1827 0
 572 01b8 0222     		movs	r2, #2
 573 01ba 454B     		ldr	r3, .L51+32
 574 01bc 1A70     		strb	r2, [r3]
 575              	.LBE9:
1828:Generated_Source\PSoC4/Bluetooth_eventHandler.c ****         }
1829:Generated_Source\PSoC4/Bluetooth_eventHandler.c ****             break;
 576              		.loc 1 1829 0
 577 01be 66E0     		b	.L21
 578              	.LVL48:
 579              	.L30:
1830:Generated_Source\PSoC4/Bluetooth_eventHandler.c ****     #endif /* CYBLE_LL_PRIVACY_FEATURE != 0u */      
1831:Generated_Source\PSoC4/Bluetooth_eventHandler.c ****             
1832:Generated_Source\PSoC4/Bluetooth_eventHandler.c ****         case CYBLE_EVT_GAP_DEVICE_CONNECTED:
1833:Generated_Source\PSoC4/Bluetooth_eventHandler.c ****             CyBle_GapConnUpdateCompleteEventHandler((const CYBLE_GAP_CONN_PARAM_UPDATED_IN_CONTROLL
1834:Generated_Source\PSoC4/Bluetooth_eventHandler.c ****             #if(CYBLE_GAP_ROLE_CENTRAL)
1835:Generated_Source\PSoC4/Bluetooth_eventHandler.c ****                 if(cyBle_connectingTimeout != 0u)
1836:Generated_Source\PSoC4/Bluetooth_eventHandler.c ****                 {
1837:Generated_Source\PSoC4/Bluetooth_eventHandler.c ****                    (void)CyBle_StopTimer();
1838:Generated_Source\PSoC4/Bluetooth_eventHandler.c ****                 }
1839:Generated_Source\PSoC4/Bluetooth_eventHandler.c ****             #endif /* CYBLE_GAP_ROLE_CENTRAL */
1840:Generated_Source\PSoC4/Bluetooth_eventHandler.c ****             CyBle_SetState(CYBLE_STATE_CONNECTED);
 580              		.loc 1 1840 0
 581 01c0 0222     		movs	r2, #2
 582 01c2 434B     		ldr	r3, .L51+32
 583 01c4 1A70     		strb	r2, [r3]
1841:Generated_Source\PSoC4/Bluetooth_eventHandler.c ****             break;
 584              		.loc 1 1841 0
 585 01c6 62E0     		b	.L21
ARM GAS  C:\Windows\TEMP\ccTU3rlm.s 			page 44


 586              	.L22:
1842:Generated_Source\PSoC4/Bluetooth_eventHandler.c **** 
1843:Generated_Source\PSoC4/Bluetooth_eventHandler.c ****         case CYBLE_EVT_GAP_DEVICE_DISCONNECTED:
1844:Generated_Source\PSoC4/Bluetooth_eventHandler.c ****             CyBle_SetState(CYBLE_STATE_DISCONNECTED);
 587              		.loc 1 1844 0
 588 01c8 0422     		movs	r2, #4
 589 01ca 414B     		ldr	r3, .L51+32
 590 01cc 1A70     		strb	r2, [r3]
1845:Generated_Source\PSoC4/Bluetooth_eventHandler.c ****             break;
 591              		.loc 1 1845 0
 592 01ce 5EE0     		b	.L21
 593              	.L29:
1846:Generated_Source\PSoC4/Bluetooth_eventHandler.c ****         #if(CYBLE_GAP_ROLE_PERIPHERAL || CYBLE_GAP_ROLE_BROADCASTER)
1847:Generated_Source\PSoC4/Bluetooth_eventHandler.c ****             
1848:Generated_Source\PSoC4/Bluetooth_eventHandler.c ****         case CYBLE_EVT_GAPP_ADVERTISEMENT_START_STOP:
1849:Generated_Source\PSoC4/Bluetooth_eventHandler.c ****             #ifdef CYBLE_CPS_SERVER
1850:Generated_Source\PSoC4/Bluetooth_eventHandler.c ****                 #if(CYBLE_GAP_ROLE_BROADCASTER)
1851:Generated_Source\PSoC4/Bluetooth_eventHandler.c ****                     CyBle_CpssAdvertisementStartStopEventHandler();
1852:Generated_Source\PSoC4/Bluetooth_eventHandler.c ****                 #endif /* CYBLE_GAP_ROLE_BROADCASTER */
1853:Generated_Source\PSoC4/Bluetooth_eventHandler.c ****             #endif /* CYBLE_CPS_SERVER */
1854:Generated_Source\PSoC4/Bluetooth_eventHandler.c ****             
1855:Generated_Source\PSoC4/Bluetooth_eventHandler.c ****             if((CYBLE_STATE_CONNECTED != CyBle_GetState()) && ((cyBle_eventHandlerFlag & CYBLE_CALL
 594              		.loc 1 1855 0
 595 01d0 3F4B     		ldr	r3, .L51+32
 596 01d2 1B78     		ldrb	r3, [r3]
 597 01d4 022B     		cmp	r3, #2
 598 01d6 5AD0     		beq	.L21
 599              		.loc 1 1855 0 is_stmt 0 discriminator 1
 600 01d8 354A     		ldr	r2, .L51
 601 01da 1278     		ldrb	r2, [r2]
 602 01dc D207     		lsls	r2, r2, #31
 603 01de 56D5     		bpl	.L21
1856:Generated_Source\PSoC4/Bluetooth_eventHandler.c ****             {
1857:Generated_Source\PSoC4/Bluetooth_eventHandler.c ****                 /* After CyBle_GappStartAdvertisement first event indicates that advertising has be
1858:Generated_Source\PSoC4/Bluetooth_eventHandler.c ****                 if(0u != (cyBle_eventHandlerFlag & CYBLE_START_FLAG))
 604              		.loc 1 1858 0 is_stmt 1
 605 01e0 334A     		ldr	r2, .L51
 606 01e2 1278     		ldrb	r2, [r2]
 607 01e4 5207     		lsls	r2, r2, #29
 608 01e6 08D5     		bpl	.L47
1859:Generated_Source\PSoC4/Bluetooth_eventHandler.c ****                 {
1860:Generated_Source\PSoC4/Bluetooth_eventHandler.c ****                     CyBle_SetState(CYBLE_STATE_ADVERTISING);
 609              		.loc 1 1860 0
 610 01e8 0322     		movs	r2, #3
 611 01ea 394B     		ldr	r3, .L51+32
 612 01ec 1A70     		strb	r2, [r3]
1861:Generated_Source\PSoC4/Bluetooth_eventHandler.c ****                     cyBle_eventHandlerFlag &= (uint8)~CYBLE_START_FLAG;
 613              		.loc 1 1861 0
 614 01ee 304A     		ldr	r2, .L51
 615 01f0 1378     		ldrb	r3, [r2]
 616 01f2 0421     		movs	r1, #4
 617 01f4 8B43     		bics	r3, r1
 618 01f6 1370     		strb	r3, [r2]
 619 01f8 49E0     		b	.L21
 620              	.L47:
1862:Generated_Source\PSoC4/Bluetooth_eventHandler.c ****                 }
1863:Generated_Source\PSoC4/Bluetooth_eventHandler.c ****                 /* When application initiated stop advertisement */
ARM GAS  C:\Windows\TEMP\ccTU3rlm.s 			page 45


1864:Generated_Source\PSoC4/Bluetooth_eventHandler.c ****                 else if(0u != (cyBle_eventHandlerFlag & CYBLE_STOP_FLAG))
 621              		.loc 1 1864 0
 622 01fa 2D4A     		ldr	r2, .L51
 623 01fc 1278     		ldrb	r2, [r2]
 624 01fe 1207     		lsls	r2, r2, #28
 625 0200 08D5     		bpl	.L48
1865:Generated_Source\PSoC4/Bluetooth_eventHandler.c ****                 {
1866:Generated_Source\PSoC4/Bluetooth_eventHandler.c ****                     CyBle_SetState(CYBLE_STATE_DISCONNECTED);  
 626              		.loc 1 1866 0
 627 0202 0422     		movs	r2, #4
 628 0204 324B     		ldr	r3, .L51+32
 629 0206 1A70     		strb	r2, [r3]
1867:Generated_Source\PSoC4/Bluetooth_eventHandler.c ****                     cyBle_eventHandlerFlag &= (uint8)~CYBLE_STOP_FLAG;
 630              		.loc 1 1867 0
 631 0208 294A     		ldr	r2, .L51
 632 020a 1378     		ldrb	r3, [r2]
 633 020c 0821     		movs	r1, #8
 634 020e 8B43     		bics	r3, r1
 635 0210 1370     		strb	r3, [r2]
 636 0212 3CE0     		b	.L21
 637              	.L48:
1868:Generated_Source\PSoC4/Bluetooth_eventHandler.c ****                 }
1869:Generated_Source\PSoC4/Bluetooth_eventHandler.c ****                 else /* Following event indicates that advertising has been stopped */
1870:Generated_Source\PSoC4/Bluetooth_eventHandler.c ****                 {
1871:Generated_Source\PSoC4/Bluetooth_eventHandler.c ****                     if(CyBle_GetState() == CYBLE_STATE_ADVERTISING)
 638              		.loc 1 1871 0
 639 0214 032B     		cmp	r3, #3
 640 0216 3AD1     		bne	.L21
1872:Generated_Source\PSoC4/Bluetooth_eventHandler.c ****                     {
1873:Generated_Source\PSoC4/Bluetooth_eventHandler.c ****                         CyBle_SetState(CYBLE_STATE_DISCONNECTED);
 641              		.loc 1 1873 0
 642 0218 0422     		movs	r2, #4
 643 021a 2D4B     		ldr	r3, .L51+32
 644 021c 1A70     		strb	r2, [r3]
 645 021e 36E0     		b	.L21
 646              	.L34:
1874:Generated_Source\PSoC4/Bluetooth_eventHandler.c ****                     #if ((CYBLE_SLOW_ADV_ENABLED != 0u) && (CYBLE_FAST_ADV_TIMEOUT != 0u))
1875:Generated_Source\PSoC4/Bluetooth_eventHandler.c ****                         if(cyBle_advertisingIntervalType == CYBLE_ADVERTISING_FAST)
1876:Generated_Source\PSoC4/Bluetooth_eventHandler.c ****                         {
1877:Generated_Source\PSoC4/Bluetooth_eventHandler.c ****                             /* When fast advertising time out occur: Start slow advertising */
1878:Generated_Source\PSoC4/Bluetooth_eventHandler.c ****                             if(CyBle_GappStartAdvertisement(CYBLE_ADVERTISING_SLOW) == CYBLE_ERROR_
1879:Generated_Source\PSoC4/Bluetooth_eventHandler.c ****                             {
1880:Generated_Source\PSoC4/Bluetooth_eventHandler.c ****                                 CyBle_SetState(CYBLE_STATE_ADVERTISING);
1881:Generated_Source\PSoC4/Bluetooth_eventHandler.c ****                             }
1882:Generated_Source\PSoC4/Bluetooth_eventHandler.c ****                         }
1883:Generated_Source\PSoC4/Bluetooth_eventHandler.c ****                     #endif /* CYBLE_SLOW_ADV_ENABLED */
1884:Generated_Source\PSoC4/Bluetooth_eventHandler.c ****                     }
1885:Generated_Source\PSoC4/Bluetooth_eventHandler.c ****                 }
1886:Generated_Source\PSoC4/Bluetooth_eventHandler.c ****             }
1887:Generated_Source\PSoC4/Bluetooth_eventHandler.c ****             break;
1888:Generated_Source\PSoC4/Bluetooth_eventHandler.c ****         #endif /* CYBLE_GAP_ROLE_PERIPHERAL || CYBLE_GAP_ROLE_BROADCASTER */
1889:Generated_Source\PSoC4/Bluetooth_eventHandler.c ****         
1890:Generated_Source\PSoC4/Bluetooth_eventHandler.c ****         #if(CYBLE_GAP_ROLE_CENTRAL || CYBLE_GAP_ROLE_OBSERVER)    
1891:Generated_Source\PSoC4/Bluetooth_eventHandler.c ****         case CYBLE_EVT_GAPC_SCAN_START_STOP:
1892:Generated_Source\PSoC4/Bluetooth_eventHandler.c ****             #ifdef CYBLE_CPS_CLIENT
1893:Generated_Source\PSoC4/Bluetooth_eventHandler.c ****                 CyBle_CpscScanStartStopEventHandler();
1894:Generated_Source\PSoC4/Bluetooth_eventHandler.c ****             #endif /* CYBLE_CPS_CLIENT */
ARM GAS  C:\Windows\TEMP\ccTU3rlm.s 			page 46


1895:Generated_Source\PSoC4/Bluetooth_eventHandler.c ****             
1896:Generated_Source\PSoC4/Bluetooth_eventHandler.c ****             if((CYBLE_STATE_CONNECTED != CyBle_GetState()) && ((cyBle_eventHandlerFlag & CYBLE_CALL
1897:Generated_Source\PSoC4/Bluetooth_eventHandler.c ****             {
1898:Generated_Source\PSoC4/Bluetooth_eventHandler.c ****                 /* After CyBle_GapcStartScan first event indicates that scanning has been started *
1899:Generated_Source\PSoC4/Bluetooth_eventHandler.c ****                 if(0u != (cyBle_eventHandlerFlag & CYBLE_START_FLAG))
1900:Generated_Source\PSoC4/Bluetooth_eventHandler.c ****                 {
1901:Generated_Source\PSoC4/Bluetooth_eventHandler.c ****                     CyBle_SetState(CYBLE_STATE_SCANNING);
1902:Generated_Source\PSoC4/Bluetooth_eventHandler.c ****                     cyBle_eventHandlerFlag &= (uint8)~CYBLE_START_FLAG;
1903:Generated_Source\PSoC4/Bluetooth_eventHandler.c ****                 }
1904:Generated_Source\PSoC4/Bluetooth_eventHandler.c ****                 /* When application initiated stop scanning */
1905:Generated_Source\PSoC4/Bluetooth_eventHandler.c ****                 else if(0u != (cyBle_eventHandlerFlag & CYBLE_STOP_FLAG))
1906:Generated_Source\PSoC4/Bluetooth_eventHandler.c ****                 {
1907:Generated_Source\PSoC4/Bluetooth_eventHandler.c ****                     CyBle_SetState(CYBLE_STATE_DISCONNECTED);  
1908:Generated_Source\PSoC4/Bluetooth_eventHandler.c ****                     cyBle_eventHandlerFlag &= (uint8)~CYBLE_STOP_FLAG;
1909:Generated_Source\PSoC4/Bluetooth_eventHandler.c ****                 }
1910:Generated_Source\PSoC4/Bluetooth_eventHandler.c ****                 else /* Following event indicates that scanning has been stopped by stack */
1911:Generated_Source\PSoC4/Bluetooth_eventHandler.c ****                 {
1912:Generated_Source\PSoC4/Bluetooth_eventHandler.c ****                     if(CyBle_GetState() == CYBLE_STATE_SCANNING)
1913:Generated_Source\PSoC4/Bluetooth_eventHandler.c ****                     {
1914:Generated_Source\PSoC4/Bluetooth_eventHandler.c ****                         CyBle_SetState(CYBLE_STATE_DISCONNECTED);  
1915:Generated_Source\PSoC4/Bluetooth_eventHandler.c ****                     #if ((CYBLE_SLOW_SCAN_ENABLED != 0u) && (CYBLE_FAST_SCAN_TIMEOUT != 0u))
1916:Generated_Source\PSoC4/Bluetooth_eventHandler.c ****                         if(cyBle_scanningIntervalType == CYBLE_SCANNING_FAST)
1917:Generated_Source\PSoC4/Bluetooth_eventHandler.c ****                         {
1918:Generated_Source\PSoC4/Bluetooth_eventHandler.c ****                             /* When fast scanning time out occur: Start slow scanning */
1919:Generated_Source\PSoC4/Bluetooth_eventHandler.c ****                             if(CyBle_GapcStartScan(CYBLE_SCANNING_SLOW) == CYBLE_ERROR_OK)
1920:Generated_Source\PSoC4/Bluetooth_eventHandler.c ****                             {
1921:Generated_Source\PSoC4/Bluetooth_eventHandler.c ****                                 CyBle_SetState(CYBLE_STATE_SCANNING);
1922:Generated_Source\PSoC4/Bluetooth_eventHandler.c ****                             }
1923:Generated_Source\PSoC4/Bluetooth_eventHandler.c ****                         }
1924:Generated_Source\PSoC4/Bluetooth_eventHandler.c ****                     #endif /* CYBLE_SLOW_SCAN_ENABLED */
1925:Generated_Source\PSoC4/Bluetooth_eventHandler.c ****                     }
1926:Generated_Source\PSoC4/Bluetooth_eventHandler.c ****                 }
1927:Generated_Source\PSoC4/Bluetooth_eventHandler.c ****             }
1928:Generated_Source\PSoC4/Bluetooth_eventHandler.c ****             break;
1929:Generated_Source\PSoC4/Bluetooth_eventHandler.c ****         #endif /* CYBLE_GAP_ROLE_CENTRAL || CYBLE_GAP_ROLE_OBSERVER */
1930:Generated_Source\PSoC4/Bluetooth_eventHandler.c **** 
1931:Generated_Source\PSoC4/Bluetooth_eventHandler.c ****         /**********************************************************
1932:Generated_Source\PSoC4/Bluetooth_eventHandler.c ****         * L2AP events 
1933:Generated_Source\PSoC4/Bluetooth_eventHandler.c ****         ************************************************************/
1934:Generated_Source\PSoC4/Bluetooth_eventHandler.c ****         case CYBLE_EVT_L2CAP_CONN_PARAM_UPDATE_RSP:
1935:Generated_Source\PSoC4/Bluetooth_eventHandler.c ****             CyBle_L2Cap_ConnParamUpdateRspEventHandler(*(uint16 *)eventParam);
1936:Generated_Source\PSoC4/Bluetooth_eventHandler.c ****             break;
1937:Generated_Source\PSoC4/Bluetooth_eventHandler.c ****         
1938:Generated_Source\PSoC4/Bluetooth_eventHandler.c ****         /**********************************************************
1939:Generated_Source\PSoC4/Bluetooth_eventHandler.c ****         * GATT events
1940:Generated_Source\PSoC4/Bluetooth_eventHandler.c ****         ************************************************************/        
1941:Generated_Source\PSoC4/Bluetooth_eventHandler.c ****         case CYBLE_EVT_GATT_CONNECT_IND:
1942:Generated_Source\PSoC4/Bluetooth_eventHandler.c ****             cyBle_connHandle = *(CYBLE_CONN_HANDLE_T *)eventParam;
 647              		.loc 1 1942 0
 648 0220 304E     		ldr	r6, .L51+52
 649 0222 0222     		movs	r2, #2
 650 0224 2900     		movs	r1, r5
 651 0226 3000     		movs	r0, r6
 652              	.LVL49:
 653 0228 FFF7FEFF 		bl	memcpy
 654              	.LVL50:
1943:Generated_Source\PSoC4/Bluetooth_eventHandler.c ****             cyBle_busyStatus = CYBLE_STACK_STATE_FREE;
ARM GAS  C:\Windows\TEMP\ccTU3rlm.s 			page 47


 655              		.loc 1 1943 0
 656 022c 0022     		movs	r2, #0
 657 022e 294B     		ldr	r3, .L51+36
 658 0230 1A70     		strb	r2, [r3]
1944:Generated_Source\PSoC4/Bluetooth_eventHandler.c ****             
1945:Generated_Source\PSoC4/Bluetooth_eventHandler.c ****         #if((CYBLE_GATT_ROLE_SERVER) && (CYBLE_GATT_DB_CCCD_COUNT != 0u) && \
1946:Generated_Source\PSoC4/Bluetooth_eventHandler.c ****             (CYBLE_BONDING_REQUIREMENT == CYBLE_BONDING_YES))
1947:Generated_Source\PSoC4/Bluetooth_eventHandler.c ****             /* Init CCCD values in RAM when bonding is enabled */
1948:Generated_Source\PSoC4/Bluetooth_eventHandler.c ****         	(void) memcpy (cyBle_attValuesCCCD, cyBle_flashStorage.attValuesCCCDFlashMemory[cyBle_conn
 659              		.loc 1 1948 0
 660 0232 3378     		ldrb	r3, [r6]
 661 0234 5A00     		lsls	r2, r3, #1
 662 0236 D218     		adds	r2, r2, r3
 663 0238 9300     		lsls	r3, r2, #2
 664 023a 2D49     		ldr	r1, .L51+64
 665 023c C918     		adds	r1, r1, r3
 666 023e 2D4B     		ldr	r3, .L51+68
 667 0240 9C46     		mov	ip, r3
 668 0242 6144     		add	r1, r1, ip
 669 0244 0C22     		movs	r2, #12
 670 0246 2C48     		ldr	r0, .L51+72
 671 0248 FFF7FEFF 		bl	memcpy
 672              	.LVL51:
1949:Generated_Source\PSoC4/Bluetooth_eventHandler.c ****                             CYBLE_GATT_DB_CCCD_COUNT);
1950:Generated_Source\PSoC4/Bluetooth_eventHandler.c ****         #endif /* CYBLE_GATT_ROLE_SERVER && (CYBLE_BONDING_REQUIREMENT == CYBLE_BONDING_YES) */
1951:Generated_Source\PSoC4/Bluetooth_eventHandler.c ****         
1952:Generated_Source\PSoC4/Bluetooth_eventHandler.c ****         #if (CYBLE_GATT_ROLE_CLIENT)
1953:Generated_Source\PSoC4/Bluetooth_eventHandler.c ****             CyBle_SetClientState(CYBLE_CLIENT_STATE_CONNECTED);
1954:Generated_Source\PSoC4/Bluetooth_eventHandler.c ****         #endif /* CYBLE_GATT_ROLE_CLIENT */
1955:Generated_Source\PSoC4/Bluetooth_eventHandler.c ****         
1956:Generated_Source\PSoC4/Bluetooth_eventHandler.c ****             CyBle_GattConnectReqHandler();
1957:Generated_Source\PSoC4/Bluetooth_eventHandler.c ****             break;
 673              		.loc 1 1957 0
 674 024c 1FE0     		b	.L21
 675              	.LVL52:
 676              	.L35:
1958:Generated_Source\PSoC4/Bluetooth_eventHandler.c **** 
1959:Generated_Source\PSoC4/Bluetooth_eventHandler.c ****         case CYBLE_EVT_GATT_DISCONNECT_IND:
1960:Generated_Source\PSoC4/Bluetooth_eventHandler.c ****             CyBle_GattDisconnectEventHandler();
 677              		.loc 1 1960 0
 678 024e FFF7FEFF 		bl	CyBle_GattDisconnectEventHandler
 679              	.LVL53:
1961:Generated_Source\PSoC4/Bluetooth_eventHandler.c ****             break;
 680              		.loc 1 1961 0
 681 0252 1CE0     		b	.L21
 682              	.LVL54:
 683              	.L32:
 684              	.LBB10:
1962:Generated_Source\PSoC4/Bluetooth_eventHandler.c **** 
1963:Generated_Source\PSoC4/Bluetooth_eventHandler.c ****     #if((CYBLE_GATT_ROLE_SERVER) || (CYBLE_GATT_ROLE_CLIENT))
1964:Generated_Source\PSoC4/Bluetooth_eventHandler.c ****         case CYBLE_EVT_GATTS_XCNHG_MTU_REQ:
1965:Generated_Source\PSoC4/Bluetooth_eventHandler.c ****             {
1966:Generated_Source\PSoC4/Bluetooth_eventHandler.c ****                 uint16 cyBle_mtuSize;
1967:Generated_Source\PSoC4/Bluetooth_eventHandler.c ****                 if(CYBLE_GATT_MTU > ((CYBLE_GATT_XCHG_MTU_PARAM_T *)eventParam)->mtu)
 685              		.loc 1 1967 0
 686 0254 6988     		ldrh	r1, [r5, #2]
 687 0256 1629     		cmp	r1, #22
ARM GAS  C:\Windows\TEMP\ccTU3rlm.s 			page 48


 688 0258 00D9     		bls	.L49
1968:Generated_Source\PSoC4/Bluetooth_eventHandler.c ****                 {
1969:Generated_Source\PSoC4/Bluetooth_eventHandler.c ****                     cyBle_mtuSize = ((CYBLE_GATT_XCHG_MTU_PARAM_T *)eventParam)->mtu;
1970:Generated_Source\PSoC4/Bluetooth_eventHandler.c ****                 }
1971:Generated_Source\PSoC4/Bluetooth_eventHandler.c ****                 else
1972:Generated_Source\PSoC4/Bluetooth_eventHandler.c ****                 {
1973:Generated_Source\PSoC4/Bluetooth_eventHandler.c ****                     cyBle_mtuSize = CYBLE_GATT_MTU;
 689              		.loc 1 1973 0
 690 025a 1721     		movs	r1, #23
 691              	.L49:
 692              	.LVL55:
1974:Generated_Source\PSoC4/Bluetooth_eventHandler.c ****                 }
1975:Generated_Source\PSoC4/Bluetooth_eventHandler.c ****                 (void)CyBle_GattsExchangeMtuRsp(((CYBLE_GATT_XCHG_MTU_PARAM_T *)eventParam)->connHa
 693              		.loc 1 1975 0
 694 025c 2888     		ldrh	r0, [r5]
 695              	.LVL56:
 696 025e FFF7FEFF 		bl	CyBle_GattsExchangeMtuRsp
 697              	.LVL57:
 698              	.LBE10:
1976:Generated_Source\PSoC4/Bluetooth_eventHandler.c ****             }
1977:Generated_Source\PSoC4/Bluetooth_eventHandler.c ****             break;
 699              		.loc 1 1977 0
 700 0262 14E0     		b	.L21
 701              	.LVL58:
 702              	.L39:
1978:Generated_Source\PSoC4/Bluetooth_eventHandler.c ****     #endif /* CYBLE_GATT_ROLE_SERVER || CYBLE_GATT_ROLE_CLIENT */
1979:Generated_Source\PSoC4/Bluetooth_eventHandler.c ****     
1980:Generated_Source\PSoC4/Bluetooth_eventHandler.c ****     #if (CYBLE_GATT_ROLE_CLIENT)
1981:Generated_Source\PSoC4/Bluetooth_eventHandler.c ****         case CYBLE_EVT_GAPC_SCAN_PROGRESS_RESULT:
1982:Generated_Source\PSoC4/Bluetooth_eventHandler.c ****         #ifdef CYBLE_CPS_CLIENT
1983:Generated_Source\PSoC4/Bluetooth_eventHandler.c ****             CyBle_CpscScanProcessEventHandler((CYBLE_GAPC_ADV_REPORT_T *)eventParam);
1984:Generated_Source\PSoC4/Bluetooth_eventHandler.c ****         #endif /* CYBLE_CPS_CLIENT */
1985:Generated_Source\PSoC4/Bluetooth_eventHandler.c ****             break;
1986:Generated_Source\PSoC4/Bluetooth_eventHandler.c ****     #endif /* CYBLE_GATT_ROLE_CLIENT */
1987:Generated_Source\PSoC4/Bluetooth_eventHandler.c **** 
1988:Generated_Source\PSoC4/Bluetooth_eventHandler.c ****     #if(CYBLE_GATT_ROLE_SERVER)
1989:Generated_Source\PSoC4/Bluetooth_eventHandler.c ****         case CYBLE_EVT_GATTS_WRITE_REQ:
1990:Generated_Source\PSoC4/Bluetooth_eventHandler.c ****             CyBle_WriteReqHandler((CYBLE_GATTS_WRITE_REQ_PARAM_T *)eventParam);
 703              		.loc 1 1990 0
 704 0264 2800     		movs	r0, r5
 705              	.LVL59:
 706 0266 FFF7FEFF 		bl	CyBle_WriteReqHandler
 707              	.LVL60:
1991:Generated_Source\PSoC4/Bluetooth_eventHandler.c ****             break;
 708              		.loc 1 1991 0
 709 026a 10E0     		b	.L21
 710              	.LVL61:
 711              	.L37:
1992:Generated_Source\PSoC4/Bluetooth_eventHandler.c **** 
1993:Generated_Source\PSoC4/Bluetooth_eventHandler.c ****         case CYBLE_EVT_GATTS_WRITE_CMD_REQ:
1994:Generated_Source\PSoC4/Bluetooth_eventHandler.c ****         #ifdef CYBLE_AIOS_SERVER
1995:Generated_Source\PSoC4/Bluetooth_eventHandler.c ****             if((cyBle_eventHandlerFlag & CYBLE_CALLBACK) != 0u)
 712              		.loc 1 1995 0
 713 026c 104B     		ldr	r3, .L51
 714 026e 1B78     		ldrb	r3, [r3]
 715 0270 DB07     		lsls	r3, r3, #31
 716 0272 0CD5     		bpl	.L21
ARM GAS  C:\Windows\TEMP\ccTU3rlm.s 			page 49


1996:Generated_Source\PSoC4/Bluetooth_eventHandler.c ****             {
1997:Generated_Source\PSoC4/Bluetooth_eventHandler.c ****                 (void)CyBle_AiossWriteEventHandler((CYBLE_GATTS_WRITE_REQ_PARAM_T *)eventParam);
 717              		.loc 1 1997 0
 718 0274 2800     		movs	r0, r5
 719              	.LVL62:
 720 0276 FFF7FEFF 		bl	CyBle_AiossWriteEventHandler
 721              	.LVL63:
 722 027a 08E0     		b	.L21
 723              	.LVL64:
 724              	.L40:
1998:Generated_Source\PSoC4/Bluetooth_eventHandler.c ****             }
1999:Generated_Source\PSoC4/Bluetooth_eventHandler.c ****         #endif /* CYBLE_AIOS_SERVER */
2000:Generated_Source\PSoC4/Bluetooth_eventHandler.c ****         #ifdef CYBLE_IAS_SERVER
2001:Generated_Source\PSoC4/Bluetooth_eventHandler.c ****             if((cyBle_eventHandlerFlag & CYBLE_CALLBACK) != 0u)
2002:Generated_Source\PSoC4/Bluetooth_eventHandler.c ****             {
2003:Generated_Source\PSoC4/Bluetooth_eventHandler.c ****                 (void)CyBle_IassWriteCmdEventHandler((CYBLE_GATTS_WRITE_REQ_PARAM_T *)eventParam);
2004:Generated_Source\PSoC4/Bluetooth_eventHandler.c ****             }
2005:Generated_Source\PSoC4/Bluetooth_eventHandler.c ****         #endif /* CYBLE_IAS_SERVER */
2006:Generated_Source\PSoC4/Bluetooth_eventHandler.c ****         #ifdef CYBLE_IPS_SERVER
2007:Generated_Source\PSoC4/Bluetooth_eventHandler.c ****             if((cyBle_eventHandlerFlag & CYBLE_CALLBACK) != 0u)
2008:Generated_Source\PSoC4/Bluetooth_eventHandler.c ****             {
2009:Generated_Source\PSoC4/Bluetooth_eventHandler.c ****                 (void)CyBle_IpssWriteCmdEventHandler((CYBLE_GATTS_WRITE_REQ_PARAM_T *)eventParam);
2010:Generated_Source\PSoC4/Bluetooth_eventHandler.c ****             }
2011:Generated_Source\PSoC4/Bluetooth_eventHandler.c ****         #endif /* CYBLE_IPS_SERVER */
2012:Generated_Source\PSoC4/Bluetooth_eventHandler.c ****         #ifdef CYBLE_HIDS_SERVER
2013:Generated_Source\PSoC4/Bluetooth_eventHandler.c ****             if((cyBle_eventHandlerFlag & CYBLE_CALLBACK) != 0u)
2014:Generated_Source\PSoC4/Bluetooth_eventHandler.c ****             {
2015:Generated_Source\PSoC4/Bluetooth_eventHandler.c ****                 (void)CyBle_HidssWriteEventHandler((CYBLE_GATTS_WRITE_REQ_PARAM_T *)eventParam);
2016:Generated_Source\PSoC4/Bluetooth_eventHandler.c ****             }
2017:Generated_Source\PSoC4/Bluetooth_eventHandler.c ****         #endif /* CYBLE_HIDS_SERVER */
2018:Generated_Source\PSoC4/Bluetooth_eventHandler.c ****         #ifdef CYBLE_PASS_SERVER
2019:Generated_Source\PSoC4/Bluetooth_eventHandler.c ****             if((cyBle_eventHandlerFlag & CYBLE_CALLBACK) != 0u)
2020:Generated_Source\PSoC4/Bluetooth_eventHandler.c ****             {
2021:Generated_Source\PSoC4/Bluetooth_eventHandler.c ****                 (void)CyBle_PasssWriteCmdEventHandler((CYBLE_GATTS_WRITE_REQ_PARAM_T *)eventParam);
2022:Generated_Source\PSoC4/Bluetooth_eventHandler.c ****             }
2023:Generated_Source\PSoC4/Bluetooth_eventHandler.c ****         #endif /* CYBLE_PASS_SERVER */
2024:Generated_Source\PSoC4/Bluetooth_eventHandler.c ****         #ifdef CYBLE_RTUS_SERVER
2025:Generated_Source\PSoC4/Bluetooth_eventHandler.c ****             if((cyBle_eventHandlerFlag & CYBLE_CALLBACK) != 0u)
2026:Generated_Source\PSoC4/Bluetooth_eventHandler.c ****             {
2027:Generated_Source\PSoC4/Bluetooth_eventHandler.c ****                 (void)CyBle_RtussWriteCmdEventHandler((CYBLE_GATTS_WRITE_REQ_PARAM_T *)eventParam);
2028:Generated_Source\PSoC4/Bluetooth_eventHandler.c ****             }
2029:Generated_Source\PSoC4/Bluetooth_eventHandler.c ****         #endif /* CYBLE_RTUS_SERVER */
2030:Generated_Source\PSoC4/Bluetooth_eventHandler.c ****         #ifdef CYBLE_SCPS_SERVER
2031:Generated_Source\PSoC4/Bluetooth_eventHandler.c ****             if((cyBle_eventHandlerFlag & CYBLE_CALLBACK) != 0u)
2032:Generated_Source\PSoC4/Bluetooth_eventHandler.c ****             {
2033:Generated_Source\PSoC4/Bluetooth_eventHandler.c ****                 (void)CyBle_ScpssWriteEventHandler((CYBLE_GATTS_WRITE_REQ_PARAM_T *)eventParam);
2034:Generated_Source\PSoC4/Bluetooth_eventHandler.c ****             }
2035:Generated_Source\PSoC4/Bluetooth_eventHandler.c ****         #endif /* CYBLE_SCPS_SERVER */
2036:Generated_Source\PSoC4/Bluetooth_eventHandler.c ****             break;
2037:Generated_Source\PSoC4/Bluetooth_eventHandler.c ****         
2038:Generated_Source\PSoC4/Bluetooth_eventHandler.c ****         case CYBLE_EVT_GATTS_PREP_WRITE_REQ:
2039:Generated_Source\PSoC4/Bluetooth_eventHandler.c ****         #ifdef CYBLE_BMS_SERVER
2040:Generated_Source\PSoC4/Bluetooth_eventHandler.c ****             CyBle_BmssPrepareWriteRequestEventHandler((CYBLE_GATTS_PREP_WRITE_REQ_PARAM_T *)eventPa
2041:Generated_Source\PSoC4/Bluetooth_eventHandler.c ****         #endif /* CYBLE_BMS_SERVER */
2042:Generated_Source\PSoC4/Bluetooth_eventHandler.c ****         #ifdef CYBLE_BTS_SERVER
2043:Generated_Source\PSoC4/Bluetooth_eventHandler.c ****             if((cyBle_eventHandlerFlag & CYBLE_CALLBACK) != 0u)
2044:Generated_Source\PSoC4/Bluetooth_eventHandler.c ****             {
ARM GAS  C:\Windows\TEMP\ccTU3rlm.s 			page 50


2045:Generated_Source\PSoC4/Bluetooth_eventHandler.c ****                 CyBle_BtssPrepareWriteRequestEventHandler((CYBLE_GATTS_PREP_WRITE_REQ_PARAM_T *)eve
2046:Generated_Source\PSoC4/Bluetooth_eventHandler.c ****             }
2047:Generated_Source\PSoC4/Bluetooth_eventHandler.c ****         #endif /* CYBLE_BTS_SERVER */
2048:Generated_Source\PSoC4/Bluetooth_eventHandler.c ****         #ifdef CYBLE_ESS_SERVER
2049:Generated_Source\PSoC4/Bluetooth_eventHandler.c ****             if((cyBle_eventHandlerFlag & CYBLE_CALLBACK) != 0u)
2050:Generated_Source\PSoC4/Bluetooth_eventHandler.c ****             {
2051:Generated_Source\PSoC4/Bluetooth_eventHandler.c ****                 CyBle_EsssPrepareWriteRequestEventHandler((CYBLE_GATTS_PREP_WRITE_REQ_PARAM_T *)eve
2052:Generated_Source\PSoC4/Bluetooth_eventHandler.c ****             }
2053:Generated_Source\PSoC4/Bluetooth_eventHandler.c ****         #endif /* CYBLE_ESS_SERVER */
2054:Generated_Source\PSoC4/Bluetooth_eventHandler.c ****         #ifdef CYBLE_HPS_SERVER
2055:Generated_Source\PSoC4/Bluetooth_eventHandler.c ****             if((cyBle_eventHandlerFlag & CYBLE_CALLBACK) != 0u)
2056:Generated_Source\PSoC4/Bluetooth_eventHandler.c ****             {
2057:Generated_Source\PSoC4/Bluetooth_eventHandler.c ****                 CyBle_HpssPrepareWriteRequestEventHandler((CYBLE_GATTS_PREP_WRITE_REQ_PARAM_T *)eve
2058:Generated_Source\PSoC4/Bluetooth_eventHandler.c ****             }
2059:Generated_Source\PSoC4/Bluetooth_eventHandler.c ****         #endif /* CYBLE_HPS_SERVER */
2060:Generated_Source\PSoC4/Bluetooth_eventHandler.c ****         #ifdef CYBLE_IPS_SERVER
2061:Generated_Source\PSoC4/Bluetooth_eventHandler.c ****             if((cyBle_eventHandlerFlag & CYBLE_CALLBACK) != 0u)
2062:Generated_Source\PSoC4/Bluetooth_eventHandler.c ****             {
2063:Generated_Source\PSoC4/Bluetooth_eventHandler.c ****                 CyBle_IpssPrepareWriteRequestEventHandler((CYBLE_GATTS_PREP_WRITE_REQ_PARAM_T *)eve
2064:Generated_Source\PSoC4/Bluetooth_eventHandler.c ****             }
2065:Generated_Source\PSoC4/Bluetooth_eventHandler.c ****         #endif /* CYBLE_IPS_SERVER */
2066:Generated_Source\PSoC4/Bluetooth_eventHandler.c ****         #ifdef CYBLE_OTS_SERVER
2067:Generated_Source\PSoC4/Bluetooth_eventHandler.c ****             if((cyBle_eventHandlerFlag & CYBLE_CALLBACK) != 0u)
2068:Generated_Source\PSoC4/Bluetooth_eventHandler.c ****             {
2069:Generated_Source\PSoC4/Bluetooth_eventHandler.c ****                 CyBle_OtssPrepareWriteRequestEventHandler((CYBLE_GATTS_PREP_WRITE_REQ_PARAM_T *)eve
2070:Generated_Source\PSoC4/Bluetooth_eventHandler.c ****             }
2071:Generated_Source\PSoC4/Bluetooth_eventHandler.c ****         #endif /* CYBLE_OTS_SERVER */
2072:Generated_Source\PSoC4/Bluetooth_eventHandler.c ****         #ifdef CYBLE_UDS_SERVER
2073:Generated_Source\PSoC4/Bluetooth_eventHandler.c ****             if((cyBle_eventHandlerFlag & CYBLE_CALLBACK) != 0u)
2074:Generated_Source\PSoC4/Bluetooth_eventHandler.c ****             {
2075:Generated_Source\PSoC4/Bluetooth_eventHandler.c ****                 CyBle_UdssPrepareWriteRequestEventHandler((CYBLE_GATTS_PREP_WRITE_REQ_PARAM_T *)eve
2076:Generated_Source\PSoC4/Bluetooth_eventHandler.c ****             }
2077:Generated_Source\PSoC4/Bluetooth_eventHandler.c ****         #endif /* CYBLE_UDS_SERVER */
2078:Generated_Source\PSoC4/Bluetooth_eventHandler.c ****             break;
2079:Generated_Source\PSoC4/Bluetooth_eventHandler.c **** 
2080:Generated_Source\PSoC4/Bluetooth_eventHandler.c ****         case CYBLE_EVT_GATTS_EXEC_WRITE_REQ:
2081:Generated_Source\PSoC4/Bluetooth_eventHandler.c ****         #ifdef CYBLE_BMS_SERVER
2082:Generated_Source\PSoC4/Bluetooth_eventHandler.c ****             CyBle_BmssExecuteWriteRequestEventHandler((CYBLE_GATTS_EXEC_WRITE_REQ_T *)eventParam);
2083:Generated_Source\PSoC4/Bluetooth_eventHandler.c ****         #endif /* CYBLE_BMS_SERVER */
2084:Generated_Source\PSoC4/Bluetooth_eventHandler.c ****         #ifdef CYBLE_BTS_SERVER
2085:Generated_Source\PSoC4/Bluetooth_eventHandler.c ****             CyBle_BtssExecuteWriteRequestEventHandler((CYBLE_GATTS_EXEC_WRITE_REQ_T *)eventParam);
2086:Generated_Source\PSoC4/Bluetooth_eventHandler.c ****         #endif /* CYBLE_BTS_SERVER */
2087:Generated_Source\PSoC4/Bluetooth_eventHandler.c ****         #ifdef CYBLE_ESS_SERVER
2088:Generated_Source\PSoC4/Bluetooth_eventHandler.c ****             CyBle_EsssExecuteWriteRequestEventHandler((CYBLE_GATTS_EXEC_WRITE_REQ_T *)eventParam);
2089:Generated_Source\PSoC4/Bluetooth_eventHandler.c ****         #endif /* CYBLE_ESS_SERVER */
2090:Generated_Source\PSoC4/Bluetooth_eventHandler.c ****         #ifdef CYBLE_HPS_SERVER
2091:Generated_Source\PSoC4/Bluetooth_eventHandler.c ****             CyBle_HpssExecuteWriteRequestEventHandler((CYBLE_GATTS_EXEC_WRITE_REQ_T *)eventParam);
2092:Generated_Source\PSoC4/Bluetooth_eventHandler.c ****         #endif /* CYBLE_HPS_SERVER */
2093:Generated_Source\PSoC4/Bluetooth_eventHandler.c ****         #ifdef CYBLE_IPS_SERVER
2094:Generated_Source\PSoC4/Bluetooth_eventHandler.c ****             CyBle_IpssExecuteWriteRequestEventHandler((CYBLE_GATTS_EXEC_WRITE_REQ_T *)eventParam);
2095:Generated_Source\PSoC4/Bluetooth_eventHandler.c ****         #endif /* CYBLE_IPS_SERVER */
2096:Generated_Source\PSoC4/Bluetooth_eventHandler.c ****         #ifdef CYBLE_OTS_SERVER
2097:Generated_Source\PSoC4/Bluetooth_eventHandler.c ****             CyBle_OtssExecuteWriteRequestEventHandler((CYBLE_GATTS_EXEC_WRITE_REQ_T *)eventParam);
2098:Generated_Source\PSoC4/Bluetooth_eventHandler.c ****         #endif /* CYBLE_OTS_SERVER */
2099:Generated_Source\PSoC4/Bluetooth_eventHandler.c **** 		#ifdef CYBLE_UDS_SERVER
2100:Generated_Source\PSoC4/Bluetooth_eventHandler.c ****             CyBle_UdssExecuteWriteRequestEventHandler((CYBLE_GATTS_EXEC_WRITE_REQ_T *)eventParam);
2101:Generated_Source\PSoC4/Bluetooth_eventHandler.c ****         #endif /* CYBLE_UDS_SERVER */
ARM GAS  C:\Windows\TEMP\ccTU3rlm.s 			page 51


2102:Generated_Source\PSoC4/Bluetooth_eventHandler.c ****             break;
2103:Generated_Source\PSoC4/Bluetooth_eventHandler.c ****         
2104:Generated_Source\PSoC4/Bluetooth_eventHandler.c ****         case CYBLE_EVT_GATTS_HANDLE_VALUE_CNF:
2105:Generated_Source\PSoC4/Bluetooth_eventHandler.c ****             CyBle_ValueConfirmation((CYBLE_CONN_HANDLE_T *)eventParam);
 725              		.loc 1 2105 0
 726 027c 2800     		movs	r0, r5
 727              	.LVL65:
 728 027e FFF7FEFF 		bl	CyBle_ValueConfirmation
 729              	.LVL66:
2106:Generated_Source\PSoC4/Bluetooth_eventHandler.c ****             break;
 730              		.loc 1 2106 0
 731 0282 04E0     		b	.L21
 732              	.LVL67:
 733              	.L41:
2107:Generated_Source\PSoC4/Bluetooth_eventHandler.c ****             
2108:Generated_Source\PSoC4/Bluetooth_eventHandler.c ****         case CYBLE_EVT_GATTS_READ_CHAR_VAL_ACCESS_REQ:
2109:Generated_Source\PSoC4/Bluetooth_eventHandler.c ****         #ifdef CYBLE_UDS_SERVER
2110:Generated_Source\PSoC4/Bluetooth_eventHandler.c ****             CyBle_UdssReadRequestEventHandler((CYBLE_GATTS_CHAR_VAL_READ_REQ_T *)eventParam);
2111:Generated_Source\PSoC4/Bluetooth_eventHandler.c ****         #endif /* CYBLE_UDS_SERVER */
2112:Generated_Source\PSoC4/Bluetooth_eventHandler.c ****             break;
2113:Generated_Source\PSoC4/Bluetooth_eventHandler.c ****             
2114:Generated_Source\PSoC4/Bluetooth_eventHandler.c ****     #endif /* CYBLE_GATT_ROLE_SERVER */
2115:Generated_Source\PSoC4/Bluetooth_eventHandler.c **** 
2116:Generated_Source\PSoC4/Bluetooth_eventHandler.c ****     #if (CYBLE_GATT_ROLE_CLIENT)
2117:Generated_Source\PSoC4/Bluetooth_eventHandler.c ****         
2118:Generated_Source\PSoC4/Bluetooth_eventHandler.c ****         case CYBLE_EVT_GATTC_READ_BY_GROUP_TYPE_RSP:
2119:Generated_Source\PSoC4/Bluetooth_eventHandler.c ****             CyBle_ReadByGroupEventHandler((CYBLE_GATTC_READ_BY_GRP_RSP_PARAM_T *)eventParam);
2120:Generated_Source\PSoC4/Bluetooth_eventHandler.c ****             break;
2121:Generated_Source\PSoC4/Bluetooth_eventHandler.c **** 
2122:Generated_Source\PSoC4/Bluetooth_eventHandler.c ****         case CYBLE_EVT_GATTC_READ_BY_TYPE_RSP:
2123:Generated_Source\PSoC4/Bluetooth_eventHandler.c ****             CyBle_ReadByTypeEventHandler((CYBLE_GATTC_READ_BY_TYPE_RSP_PARAM_T *)eventParam);
2124:Generated_Source\PSoC4/Bluetooth_eventHandler.c ****             break;
2125:Generated_Source\PSoC4/Bluetooth_eventHandler.c **** 
2126:Generated_Source\PSoC4/Bluetooth_eventHandler.c ****         case CYBLE_EVT_GATTC_READ_BLOB_RSP:
2127:Generated_Source\PSoC4/Bluetooth_eventHandler.c ****         #ifdef CYBLE_ESS_CLIENT
2128:Generated_Source\PSoC4/Bluetooth_eventHandler.c ****             CyBle_EsscReadLongRespEventHandler((CYBLE_GATTC_READ_RSP_PARAM_T *)eventParam);
2129:Generated_Source\PSoC4/Bluetooth_eventHandler.c ****         #endif /* CYBLE_ESS_CLIENT */
2130:Generated_Source\PSoC4/Bluetooth_eventHandler.c ****         #ifdef CYBLE_HPS_CLIENT
2131:Generated_Source\PSoC4/Bluetooth_eventHandler.c ****             CyBle_HpscReadLongRespEventHandler((CYBLE_GATTC_READ_RSP_PARAM_T *)eventParam);
2132:Generated_Source\PSoC4/Bluetooth_eventHandler.c ****         #endif /* CYBLE_HPS_CLIENT */
2133:Generated_Source\PSoC4/Bluetooth_eventHandler.c **** 		#ifdef CYBLE_IPS_CLIENT
2134:Generated_Source\PSoC4/Bluetooth_eventHandler.c ****             CyBle_IpscReadLongRespEventHandler((CYBLE_GATTC_READ_RSP_PARAM_T *)eventParam);
2135:Generated_Source\PSoC4/Bluetooth_eventHandler.c ****         #endif /* CYBLE_IPS_CLIENT */
2136:Generated_Source\PSoC4/Bluetooth_eventHandler.c ****         #ifdef CYBLE_OTS_CLIENT
2137:Generated_Source\PSoC4/Bluetooth_eventHandler.c ****             CyBle_OtscReadLongRespEventHandler((CYBLE_GATTC_READ_RSP_PARAM_T *)eventParam);
2138:Generated_Source\PSoC4/Bluetooth_eventHandler.c ****         #endif /* CYBLE_OTS_CLIENT */
2139:Generated_Source\PSoC4/Bluetooth_eventHandler.c ****         #ifdef CYBLE_UDS_CLIENT
2140:Generated_Source\PSoC4/Bluetooth_eventHandler.c ****             if((cyBle_eventHandlerFlag & CYBLE_CALLBACK) != 0u)
2141:Generated_Source\PSoC4/Bluetooth_eventHandler.c ****             {
2142:Generated_Source\PSoC4/Bluetooth_eventHandler.c ****                 CyBle_UdscReadLongRespEventHandler((CYBLE_GATTC_READ_RSP_PARAM_T *)eventParam);
2143:Generated_Source\PSoC4/Bluetooth_eventHandler.c ****             }
2144:Generated_Source\PSoC4/Bluetooth_eventHandler.c ****         #endif /* CYBLE_UDS_CLIENT */
2145:Generated_Source\PSoC4/Bluetooth_eventHandler.c ****             break;
2146:Generated_Source\PSoC4/Bluetooth_eventHandler.c ****         
2147:Generated_Source\PSoC4/Bluetooth_eventHandler.c ****         case CYBLE_EVT_GATTC_LONG_PROCEDURE_END:
2148:Generated_Source\PSoC4/Bluetooth_eventHandler.c ****             CyBle_LongProcedureEndEventHandler();
2149:Generated_Source\PSoC4/Bluetooth_eventHandler.c ****             break;
ARM GAS  C:\Windows\TEMP\ccTU3rlm.s 			page 52


2150:Generated_Source\PSoC4/Bluetooth_eventHandler.c ****         
2151:Generated_Source\PSoC4/Bluetooth_eventHandler.c ****         case CYBLE_EVT_GATTC_FIND_INFO_RSP:
2152:Generated_Source\PSoC4/Bluetooth_eventHandler.c ****             CyBle_FindInfoEventHandler((CYBLE_GATTC_FIND_INFO_RSP_PARAM_T *)eventParam);
2153:Generated_Source\PSoC4/Bluetooth_eventHandler.c ****             break;
2154:Generated_Source\PSoC4/Bluetooth_eventHandler.c **** 
2155:Generated_Source\PSoC4/Bluetooth_eventHandler.c ****         case CYBLE_EVT_GATTC_ERROR_RSP:
2156:Generated_Source\PSoC4/Bluetooth_eventHandler.c ****             CyBle_ErrorResponseEventHandler((CYBLE_GATTC_ERR_RSP_PARAM_T *)eventParam);
2157:Generated_Source\PSoC4/Bluetooth_eventHandler.c ****             break;
2158:Generated_Source\PSoC4/Bluetooth_eventHandler.c **** 
2159:Generated_Source\PSoC4/Bluetooth_eventHandler.c ****         case CYBLE_EVT_GATTC_HANDLE_VALUE_NTF:
2160:Generated_Source\PSoC4/Bluetooth_eventHandler.c ****             CyBle_NotificationEventHandler((CYBLE_GATTC_HANDLE_VALUE_NTF_PARAM_T *)eventParam);
2161:Generated_Source\PSoC4/Bluetooth_eventHandler.c ****             break;
2162:Generated_Source\PSoC4/Bluetooth_eventHandler.c **** 
2163:Generated_Source\PSoC4/Bluetooth_eventHandler.c ****         case CYBLE_EVT_GATTC_HANDLE_VALUE_IND:
2164:Generated_Source\PSoC4/Bluetooth_eventHandler.c ****             CyBle_GattcIndicationEventHandler((CYBLE_GATTC_HANDLE_VALUE_IND_PARAM_T *)eventParam);
2165:Generated_Source\PSoC4/Bluetooth_eventHandler.c ****             CyBle_IndicationEventHandler((CYBLE_GATTC_HANDLE_VALUE_IND_PARAM_T *)eventParam);
2166:Generated_Source\PSoC4/Bluetooth_eventHandler.c ****         
2167:Generated_Source\PSoC4/Bluetooth_eventHandler.c ****             /* Respond with a Handle Value Confirmation when request handled */
2168:Generated_Source\PSoC4/Bluetooth_eventHandler.c ****             if((cyBle_eventHandlerFlag & CYBLE_CALLBACK) == 0u)
2169:Generated_Source\PSoC4/Bluetooth_eventHandler.c ****             {
2170:Generated_Source\PSoC4/Bluetooth_eventHandler.c ****                 (void)CyBle_GattcConfirmation(((CYBLE_GATTC_HANDLE_VALUE_IND_PARAM_T *)eventParam)-
2171:Generated_Source\PSoC4/Bluetooth_eventHandler.c ****             }
2172:Generated_Source\PSoC4/Bluetooth_eventHandler.c ****             break;
2173:Generated_Source\PSoC4/Bluetooth_eventHandler.c ****         
2174:Generated_Source\PSoC4/Bluetooth_eventHandler.c ****         case CYBLE_EVT_GATTC_READ_RSP:
2175:Generated_Source\PSoC4/Bluetooth_eventHandler.c ****             CyBle_ReadResponseEventHandler((CYBLE_GATTC_READ_RSP_PARAM_T *)eventParam);
2176:Generated_Source\PSoC4/Bluetooth_eventHandler.c ****             break;
2177:Generated_Source\PSoC4/Bluetooth_eventHandler.c ****         
2178:Generated_Source\PSoC4/Bluetooth_eventHandler.c ****         case CYBLE_EVT_GATTC_READ_MULTI_RSP:
2179:Generated_Source\PSoC4/Bluetooth_eventHandler.c ****             CyBle_ReadMultipleResponseEventHandler((CYBLE_GATTC_READ_RSP_PARAM_T *)eventParam);
2180:Generated_Source\PSoC4/Bluetooth_eventHandler.c ****             break;
2181:Generated_Source\PSoC4/Bluetooth_eventHandler.c ****             
2182:Generated_Source\PSoC4/Bluetooth_eventHandler.c ****         case CYBLE_EVT_GATTC_WRITE_RSP:
2183:Generated_Source\PSoC4/Bluetooth_eventHandler.c ****             CyBle_GattcWriteResponseEventHandler((CYBLE_CONN_HANDLE_T *)eventParam);
2184:Generated_Source\PSoC4/Bluetooth_eventHandler.c ****             break;
2185:Generated_Source\PSoC4/Bluetooth_eventHandler.c ****             
2186:Generated_Source\PSoC4/Bluetooth_eventHandler.c ****         case CYBLE_EVT_GATTC_EXEC_WRITE_RSP:
2187:Generated_Source\PSoC4/Bluetooth_eventHandler.c ****         #ifdef CYBLE_BMS_CLIENT
2188:Generated_Source\PSoC4/Bluetooth_eventHandler.c ****             CyBle_BmscExecuteWriteResponseEventHandler((CYBLE_GATTC_EXEC_WRITE_RSP_T *)eventParam);
2189:Generated_Source\PSoC4/Bluetooth_eventHandler.c ****         #endif /* CYBLE_BMS_CLIENT */
2190:Generated_Source\PSoC4/Bluetooth_eventHandler.c ****         #ifdef CYBLE_ESS_CLIENT
2191:Generated_Source\PSoC4/Bluetooth_eventHandler.c ****             if((cyBle_eventHandlerFlag & CYBLE_CALLBACK) != 0u)
2192:Generated_Source\PSoC4/Bluetooth_eventHandler.c ****             {
2193:Generated_Source\PSoC4/Bluetooth_eventHandler.c ****                 CyBle_EsscExecuteWriteResponseEventHandler((CYBLE_GATTC_EXEC_WRITE_RSP_T *)eventPar
2194:Generated_Source\PSoC4/Bluetooth_eventHandler.c ****             }
2195:Generated_Source\PSoC4/Bluetooth_eventHandler.c ****         #endif /* CYBLE_ESS_CLIENT */
2196:Generated_Source\PSoC4/Bluetooth_eventHandler.c ****         #ifdef CYBLE_HPS_CLIENT
2197:Generated_Source\PSoC4/Bluetooth_eventHandler.c ****             if((cyBle_eventHandlerFlag & CYBLE_CALLBACK) != 0u)
2198:Generated_Source\PSoC4/Bluetooth_eventHandler.c ****             {
2199:Generated_Source\PSoC4/Bluetooth_eventHandler.c ****                 CyBle_HpscExecuteWriteResponseEventHandler((CYBLE_GATTC_EXEC_WRITE_RSP_T *)eventPar
2200:Generated_Source\PSoC4/Bluetooth_eventHandler.c ****             }
2201:Generated_Source\PSoC4/Bluetooth_eventHandler.c ****         #endif /* CYBLE_HPS_CLIENT */
2202:Generated_Source\PSoC4/Bluetooth_eventHandler.c ****         #ifdef CYBLE_IPS_CLIENT
2203:Generated_Source\PSoC4/Bluetooth_eventHandler.c ****             if((cyBle_eventHandlerFlag & CYBLE_CALLBACK) != 0u)
2204:Generated_Source\PSoC4/Bluetooth_eventHandler.c ****             {
2205:Generated_Source\PSoC4/Bluetooth_eventHandler.c ****                 CyBle_IpscExecuteWriteResponseEventHandler((CYBLE_GATTC_EXEC_WRITE_RSP_T *)eventPar
2206:Generated_Source\PSoC4/Bluetooth_eventHandler.c ****             }
ARM GAS  C:\Windows\TEMP\ccTU3rlm.s 			page 53


2207:Generated_Source\PSoC4/Bluetooth_eventHandler.c ****         #endif /* CYBLE_IPS_CLIENT */
2208:Generated_Source\PSoC4/Bluetooth_eventHandler.c ****         #ifdef CYBLE_OTS_CLIENT
2209:Generated_Source\PSoC4/Bluetooth_eventHandler.c ****             if((cyBle_eventHandlerFlag & CYBLE_CALLBACK) != 0u)
2210:Generated_Source\PSoC4/Bluetooth_eventHandler.c ****             {
2211:Generated_Source\PSoC4/Bluetooth_eventHandler.c ****                 CyBle_OtscExecuteWriteResponseEventHandler((CYBLE_GATTC_EXEC_WRITE_RSP_T *)eventPar
2212:Generated_Source\PSoC4/Bluetooth_eventHandler.c ****             }
2213:Generated_Source\PSoC4/Bluetooth_eventHandler.c ****         #endif /* CYBLE_OTS_CLIENT */
2214:Generated_Source\PSoC4/Bluetooth_eventHandler.c ****         #ifdef CYBLE_UDS_CLIENT
2215:Generated_Source\PSoC4/Bluetooth_eventHandler.c ****             if((cyBle_eventHandlerFlag & CYBLE_CALLBACK) != 0u)
2216:Generated_Source\PSoC4/Bluetooth_eventHandler.c ****             {
2217:Generated_Source\PSoC4/Bluetooth_eventHandler.c ****                 CyBle_UdscExecuteWriteResponseEventHandler((CYBLE_GATTC_EXEC_WRITE_RSP_T *)eventPar
2218:Generated_Source\PSoC4/Bluetooth_eventHandler.c ****             }
2219:Generated_Source\PSoC4/Bluetooth_eventHandler.c ****         #endif /* CYBLE_UDS_CLIENT */
2220:Generated_Source\PSoC4/Bluetooth_eventHandler.c ****             break;
2221:Generated_Source\PSoC4/Bluetooth_eventHandler.c ****             
2222:Generated_Source\PSoC4/Bluetooth_eventHandler.c ****     #endif /* CYBLE_GATT_ROLE_CLIENT */
2223:Generated_Source\PSoC4/Bluetooth_eventHandler.c **** 
2224:Generated_Source\PSoC4/Bluetooth_eventHandler.c ****     #if((CYBLE_GAP_ROLE_PERIPHERAL || CYBLE_GAP_ROLE_CENTRAL) && (CYBLE_BONDING_REQUIREMENT == CYBL
2225:Generated_Source\PSoC4/Bluetooth_eventHandler.c **** 
2226:Generated_Source\PSoC4/Bluetooth_eventHandler.c ****         case CYBLE_EVT_PENDING_FLASH_WRITE:
2227:Generated_Source\PSoC4/Bluetooth_eventHandler.c ****             cyBle_pendingFlashWrite |= CYBLE_PENDING_STACK_FLASH_WRITE_BIT;
 734              		.loc 1 2227 0
 735 0284 1D4A     		ldr	r2, .L51+76
 736 0286 1178     		ldrb	r1, [r2]
 737 0288 0123     		movs	r3, #1
 738 028a 0B43     		orrs	r3, r1
 739 028c 1370     		strb	r3, [r2]
 740              	.LVL68:
 741              	.L21:
2228:Generated_Source\PSoC4/Bluetooth_eventHandler.c ****             break;
2229:Generated_Source\PSoC4/Bluetooth_eventHandler.c ****         
2230:Generated_Source\PSoC4/Bluetooth_eventHandler.c ****     #endif  /* (CYBLE_BONDING_REQUIREMENT == CYBLE_BONDING_YES) */
2231:Generated_Source\PSoC4/Bluetooth_eventHandler.c ****     
2232:Generated_Source\PSoC4/Bluetooth_eventHandler.c ****         default:
2233:Generated_Source\PSoC4/Bluetooth_eventHandler.c ****             break;
2234:Generated_Source\PSoC4/Bluetooth_eventHandler.c ****     }
2235:Generated_Source\PSoC4/Bluetooth_eventHandler.c **** 
2236:Generated_Source\PSoC4/Bluetooth_eventHandler.c ****     if(0u != (cyBle_eventHandlerFlag & (CYBLE_CALLBACK | CYBLE_ENABLE_ALL_EVENTS))) 
 742              		.loc 1 2236 0
 743 028e 084B     		ldr	r3, .L51
 744 0290 1A78     		ldrb	r2, [r3]
 745 0292 1123     		movs	r3, #17
 746 0294 1A42     		tst	r2, r3
 747 0296 09D0     		beq	.L20
2237:Generated_Source\PSoC4/Bluetooth_eventHandler.c ****     {
2238:Generated_Source\PSoC4/Bluetooth_eventHandler.c ****         cyBle_eventHandlerFlag &= (uint8)~CYBLE_CALLBACK;
 748              		.loc 1 2238 0
 749 0298 054A     		ldr	r2, .L51
 750 029a 1378     		ldrb	r3, [r2]
 751 029c 0121     		movs	r1, #1
 752 029e 8B43     		bics	r3, r1
 753 02a0 1370     		strb	r3, [r2]
2239:Generated_Source\PSoC4/Bluetooth_eventHandler.c ****         CyBle_ApplCallback((uint32)eventCode, eventParam);
 754              		.loc 1 2239 0
 755 02a2 114B     		ldr	r3, .L51+56
 756 02a4 1B68     		ldr	r3, [r3]
 757 02a6 2900     		movs	r1, r5
ARM GAS  C:\Windows\TEMP\ccTU3rlm.s 			page 54


 758 02a8 2000     		movs	r0, r4
 759 02aa 9847     		blx	r3
 760              	.LVL69:
 761              	.L20:
2240:Generated_Source\PSoC4/Bluetooth_eventHandler.c ****     }
2241:Generated_Source\PSoC4/Bluetooth_eventHandler.c **** }
 762              		.loc 1 2241 0
 763 02ac 03B0     		add	sp, sp, #12
 764              		@ sp needed
 765              	.LVL70:
 766 02ae F0BD     		pop	{r4, r5, r6, r7, pc}
 767              	.L52:
 768              		.align	2
 769              	.L51:
 770 02b0 00000000 		.word	cyBle_eventHandlerFlag
 771 02b4 00000000 		.word	cyBle_sflashDeviceAddress
 772 02b8 7CF2FF0F 		.word	268431996
 773 02bc 7DF2FF0F 		.word	268431997
 774 02c0 7BF2FF0F 		.word	268431995
 775 02c4 78F2FF0F 		.word	268431992
 776 02c8 00000000 		.word	cyBle_deviceAddress
 777 02cc 00000000 		.word	.LANCHOR0
 778 02d0 00000000 		.word	cyBle_state
 779 02d4 00000000 		.word	cyBle_busyStatus
 780 02d8 00000000 		.word	.LANCHOR1
 781 02dc 800D0000 		.word	cyBle_stackMemoryRam+3456
 782 02e0 00000000 		.word	.LANCHOR2
 783 02e4 00000000 		.word	cyBle_connHandle
 784 02e8 00000000 		.word	CyBle_ApplCallback
 785 02ec 00000000 		.word	cyBle_peerBonding
 786 02f0 00000000 		.word	cyBle_flashStorage
 787 02f4 79020000 		.word	633
 788 02f8 00000000 		.word	cyBle_attValuesCCCD
 789 02fc 00000000 		.word	cyBle_pendingFlashWrite
 790              		.cfi_endproc
 791              	.LFE10:
 792              		.size	CyBle_EventHandler, .-CyBle_EventHandler
 793              		.global	cyBle_authInfo
 794              		.comm	cyBle_advertisingIntervalType,1,1
 795              		.global	cyBle_gaps
 796              		.comm	cyBle_busyStatus,1,1
 797              		.comm	cyBle_eventHandlerFlag,1,1
 798              		.comm	cyBle_connHandle,2,4
 799              		.section	.rodata
 800              		.align	2
 801              		.set	.LANCHOR0,. + 0
 802              	.LC0:
 803 0000 3F       		.byte	63
 804 0001 06       		.byte	6
 805 0002 0000     		.space	2
 806              		.type	cyBle_gaps, %object
 807              		.size	cyBle_gaps, 12
 808              	cyBle_gaps:
 809 0004 0100     		.short	1
 810 0006 0300     		.short	3
 811 0008 0500     		.short	5
 812 000a 0700     		.short	7
ARM GAS  C:\Windows\TEMP\ccTU3rlm.s 			page 55


 813 000c 0900     		.short	9
 814 000e 0B00     		.short	11
 815              		.data
 816              		.align	2
 817              		.set	.LANCHOR2,. + 0
 818              		.type	cyBle_authInfo, %object
 819              		.size	cyBle_authInfo, 5
 820              	cyBle_authInfo:
 821 0000 10       		.byte	16
 822 0001 01       		.byte	1
 823 0002 10       		.byte	16
 824 0003 00       		.byte	0
 825 0004 01       		.byte	1
 826              		.bss
 827              		.align	2
 828              		.set	.LANCHOR1,. + 0
 829              		.type	gPrepWriteReqMem.6766, %object
 830              		.size	gPrepWriteReqMem.6766, 8
 831              	gPrepWriteReqMem.6766:
 832 0000 00000000 		.space	8
 832      00000000 
 833              		.text
 834              	.Letext0:
 835              		.file 2 "Generated_Source\\PSoC4\\cytypes.h"
 836              		.file 3 "Generated_Source\\PSoC4\\Bluetooth_Stack.h"
 837              		.file 4 "Generated_Source\\PSoC4\\Bluetooth_StackHostMain.h"
 838              		.file 5 "Generated_Source\\PSoC4\\Bluetooth_StackGap.h"
 839              		.file 6 "Generated_Source\\PSoC4\\Bluetooth_StackGatt.h"
 840              		.file 7 "Generated_Source\\PSoC4\\Bluetooth_StackGattServer.h"
 841              		.file 8 "Generated_Source\\PSoC4\\Bluetooth.h"
 842              		.file 9 "Generated_Source\\PSoC4\\Bluetooth_gatt.h"
 843              		.file 10 "Generated_Source\\PSoC4\\Bluetooth_aios.h"
 844              		.file 11 "Generated_Source\\PSoC4\\Bluetooth_eventHandler.h"
 845              		.section	.debug_info,"",%progbits
 846              	.Ldebug_info0:
 847 0000 ED110000 		.4byte	0x11ed
 848 0004 0400     		.2byte	0x4
 849 0006 00000000 		.4byte	.Ldebug_abbrev0
 850 000a 04       		.byte	0x4
 851 000b 01       		.uleb128 0x1
 852 000c 1D030000 		.4byte	.LASF374
 853 0010 0C       		.byte	0xc
 854 0011 AE0F0000 		.4byte	.LASF375
 855 0015 AC100000 		.4byte	.LASF376
 856 0019 00000000 		.4byte	.Ldebug_ranges0+0
 857 001d 00000000 		.4byte	0
 858 0021 00000000 		.4byte	.Ldebug_line0
 859 0025 02       		.uleb128 0x2
 860 0026 01       		.byte	0x1
 861 0027 06       		.byte	0x6
 862 0028 18090000 		.4byte	.LASF0
 863 002c 02       		.uleb128 0x2
 864 002d 01       		.byte	0x1
 865 002e 08       		.byte	0x8
 866 002f 6D0A0000 		.4byte	.LASF1
 867 0033 02       		.uleb128 0x2
 868 0034 02       		.byte	0x2
ARM GAS  C:\Windows\TEMP\ccTU3rlm.s 			page 56


 869 0035 05       		.byte	0x5
 870 0036 09210000 		.4byte	.LASF2
 871 003a 02       		.uleb128 0x2
 872 003b 02       		.byte	0x2
 873 003c 07       		.byte	0x7
 874 003d FA250000 		.4byte	.LASF3
 875 0041 02       		.uleb128 0x2
 876 0042 04       		.byte	0x4
 877 0043 05       		.byte	0x5
 878 0044 D9060000 		.4byte	.LASF4
 879 0048 02       		.uleb128 0x2
 880 0049 04       		.byte	0x4
 881 004a 07       		.byte	0x7
 882 004b 13120000 		.4byte	.LASF5
 883 004f 02       		.uleb128 0x2
 884 0050 08       		.byte	0x8
 885 0051 05       		.byte	0x5
 886 0052 66150000 		.4byte	.LASF6
 887 0056 02       		.uleb128 0x2
 888 0057 08       		.byte	0x8
 889 0058 07       		.byte	0x7
 890 0059 6A1D0000 		.4byte	.LASF7
 891 005d 03       		.uleb128 0x3
 892 005e 04       		.byte	0x4
 893 005f 05       		.byte	0x5
 894 0060 696E7400 		.ascii	"int\000"
 895 0064 02       		.uleb128 0x2
 896 0065 04       		.byte	0x4
 897 0066 07       		.byte	0x7
 898 0067 31180000 		.4byte	.LASF8
 899 006b 04       		.uleb128 0x4
 900 006c BB200000 		.4byte	.LASF9
 901 0070 02       		.byte	0x2
 902 0071 FC01     		.2byte	0x1fc
 903 0073 2C000000 		.4byte	0x2c
 904 0077 04       		.uleb128 0x4
 905 0078 E6270000 		.4byte	.LASF10
 906 007c 02       		.byte	0x2
 907 007d FD01     		.2byte	0x1fd
 908 007f 3A000000 		.4byte	0x3a
 909 0083 04       		.uleb128 0x4
 910 0084 B5010000 		.4byte	.LASF11
 911 0088 02       		.byte	0x2
 912 0089 FE01     		.2byte	0x1fe
 913 008b 48000000 		.4byte	0x48
 914 008f 02       		.uleb128 0x2
 915 0090 04       		.byte	0x4
 916 0091 04       		.byte	0x4
 917 0092 7B170000 		.4byte	.LASF12
 918 0096 02       		.uleb128 0x2
 919 0097 08       		.byte	0x8
 920 0098 04       		.byte	0x4
 921 0099 36160000 		.4byte	.LASF13
 922 009d 02       		.uleb128 0x2
 923 009e 01       		.byte	0x1
 924 009f 08       		.byte	0x8
 925 00a0 C00B0000 		.4byte	.LASF14
ARM GAS  C:\Windows\TEMP\ccTU3rlm.s 			page 57


 926 00a4 05       		.uleb128 0x5
 927 00a5 6B000000 		.4byte	0x6b
 928 00a9 02       		.uleb128 0x2
 929 00aa 08       		.byte	0x8
 930 00ab 04       		.byte	0x4
 931 00ac 971B0000 		.4byte	.LASF15
 932 00b0 02       		.uleb128 0x2
 933 00b1 04       		.byte	0x4
 934 00b2 07       		.byte	0x7
 935 00b3 2D000000 		.4byte	.LASF16
 936 00b7 06       		.uleb128 0x6
 937 00b8 04       		.byte	0x4
 938 00b9 07       		.uleb128 0x7
 939 00ba 04       		.byte	0x4
 940 00bb BF000000 		.4byte	0xbf
 941 00bf 08       		.uleb128 0x8
 942 00c0 CF000000 		.4byte	0xcf
 943 00c4 09       		.uleb128 0x9
 944 00c5 83000000 		.4byte	0x83
 945 00c9 09       		.uleb128 0x9
 946 00ca B7000000 		.4byte	0xb7
 947 00ce 00       		.byte	0
 948 00cf 0A       		.uleb128 0xa
 949 00d0 01       		.byte	0x1
 950 00d1 2C000000 		.4byte	0x2c
 951 00d5 03       		.byte	0x3
 952 00d6 3501     		.2byte	0x135
 953 00d8 8D020000 		.4byte	0x28d
 954 00dc 0B       		.uleb128 0xb
 955 00dd 6C0C0000 		.4byte	.LASF17
 956 00e1 00       		.byte	0
 957 00e2 0B       		.uleb128 0xb
 958 00e3 82070000 		.4byte	.LASF18
 959 00e7 01       		.byte	0x1
 960 00e8 0B       		.uleb128 0xb
 961 00e9 9F1D0000 		.4byte	.LASF19
 962 00ed 02       		.byte	0x2
 963 00ee 0B       		.uleb128 0xb
 964 00ef 59090000 		.4byte	.LASF20
 965 00f3 03       		.byte	0x3
 966 00f4 0B       		.uleb128 0xb
 967 00f5 E4260000 		.4byte	.LASF21
 968 00f9 04       		.byte	0x4
 969 00fa 0B       		.uleb128 0xb
 970 00fb 62240000 		.4byte	.LASF22
 971 00ff 05       		.byte	0x5
 972 0100 0B       		.uleb128 0xb
 973 0101 E01B0000 		.4byte	.LASF23
 974 0105 06       		.byte	0x6
 975 0106 0B       		.uleb128 0xb
 976 0107 1A220000 		.4byte	.LASF24
 977 010b 20       		.byte	0x20
 978 010c 0B       		.uleb128 0xb
 979 010d C1040000 		.4byte	.LASF25
 980 0111 21       		.byte	0x21
 981 0112 0B       		.uleb128 0xb
 982 0113 73140000 		.4byte	.LASF26
ARM GAS  C:\Windows\TEMP\ccTU3rlm.s 			page 58


 983 0117 22       		.byte	0x22
 984 0118 0B       		.uleb128 0xb
 985 0119 561A0000 		.4byte	.LASF27
 986 011d 23       		.byte	0x23
 987 011e 0B       		.uleb128 0xb
 988 011f 1C110000 		.4byte	.LASF28
 989 0123 24       		.byte	0x24
 990 0124 0B       		.uleb128 0xb
 991 0125 38110000 		.4byte	.LASF29
 992 0129 25       		.byte	0x25
 993 012a 0B       		.uleb128 0xb
 994 012b 93200000 		.4byte	.LASF30
 995 012f 26       		.byte	0x26
 996 0130 0B       		.uleb128 0xb
 997 0131 33010000 		.4byte	.LASF31
 998 0135 27       		.byte	0x27
 999 0136 0B       		.uleb128 0xb
 1000 0137 A3270000 		.4byte	.LASF32
 1001 013b 28       		.byte	0x28
 1002 013c 0B       		.uleb128 0xb
 1003 013d 421C0000 		.4byte	.LASF33
 1004 0141 29       		.byte	0x29
 1005 0142 0B       		.uleb128 0xb
 1006 0143 AE130000 		.4byte	.LASF34
 1007 0147 2A       		.byte	0x2a
 1008 0148 0B       		.uleb128 0xb
 1009 0149 CB190000 		.4byte	.LASF35
 1010 014d 2B       		.byte	0x2b
 1011 014e 0B       		.uleb128 0xb
 1012 014f D7240000 		.4byte	.LASF36
 1013 0153 2C       		.byte	0x2c
 1014 0154 0B       		.uleb128 0xb
 1015 0155 72000000 		.4byte	.LASF37
 1016 0159 2D       		.byte	0x2d
 1017 015a 0B       		.uleb128 0xb
 1018 015b D0200000 		.4byte	.LASF38
 1019 015f 2E       		.byte	0x2e
 1020 0160 0B       		.uleb128 0xb
 1021 0161 92050000 		.4byte	.LASF39
 1022 0165 2F       		.byte	0x2f
 1023 0166 0B       		.uleb128 0xb
 1024 0167 9F0B0000 		.4byte	.LASF40
 1025 016b 30       		.byte	0x30
 1026 016c 0B       		.uleb128 0xb
 1027 016d FD160000 		.4byte	.LASF41
 1028 0171 31       		.byte	0x31
 1029 0172 0B       		.uleb128 0xb
 1030 0173 BC0C0000 		.4byte	.LASF42
 1031 0177 32       		.byte	0x32
 1032 0178 0B       		.uleb128 0xb
 1033 0179 B50A0000 		.4byte	.LASF43
 1034 017d 33       		.byte	0x33
 1035 017e 0B       		.uleb128 0xb
 1036 017f DC0A0000 		.4byte	.LASF44
 1037 0183 34       		.byte	0x34
 1038 0184 0B       		.uleb128 0xb
 1039 0185 CC220000 		.4byte	.LASF45
ARM GAS  C:\Windows\TEMP\ccTU3rlm.s 			page 59


 1040 0189 35       		.byte	0x35
 1041 018a 0B       		.uleb128 0xb
 1042 018b 29050000 		.4byte	.LASF46
 1043 018f 36       		.byte	0x36
 1044 0190 0B       		.uleb128 0xb
 1045 0191 EB1C0000 		.4byte	.LASF47
 1046 0195 37       		.byte	0x37
 1047 0196 0B       		.uleb128 0xb
 1048 0197 94210000 		.4byte	.LASF48
 1049 019b 40       		.byte	0x40
 1050 019c 0B       		.uleb128 0xb
 1051 019d 73010000 		.4byte	.LASF49
 1052 01a1 41       		.byte	0x41
 1053 01a2 0B       		.uleb128 0xb
 1054 01a3 F9260000 		.4byte	.LASF50
 1055 01a7 42       		.byte	0x42
 1056 01a8 0B       		.uleb128 0xb
 1057 01a9 881C0000 		.4byte	.LASF51
 1058 01ad 43       		.byte	0x43
 1059 01ae 0B       		.uleb128 0xb
 1060 01af 7B0A0000 		.4byte	.LASF52
 1061 01b3 44       		.byte	0x44
 1062 01b4 0B       		.uleb128 0xb
 1063 01b5 DD090000 		.4byte	.LASF53
 1064 01b9 45       		.byte	0x45
 1065 01ba 0B       		.uleb128 0xb
 1066 01bb AE1F0000 		.4byte	.LASF54
 1067 01bf 46       		.byte	0x46
 1068 01c0 0B       		.uleb128 0xb
 1069 01c1 901F0000 		.4byte	.LASF55
 1070 01c5 47       		.byte	0x47
 1071 01c6 0B       		.uleb128 0xb
 1072 01c7 540B0000 		.4byte	.LASF56
 1073 01cb 48       		.byte	0x48
 1074 01cc 0B       		.uleb128 0xb
 1075 01cd F21A0000 		.4byte	.LASF57
 1076 01d1 49       		.byte	0x49
 1077 01d2 0B       		.uleb128 0xb
 1078 01d3 130D0000 		.4byte	.LASF58
 1079 01d7 4A       		.byte	0x4a
 1080 01d8 0B       		.uleb128 0xb
 1081 01d9 190C0000 		.4byte	.LASF59
 1082 01dd 4B       		.byte	0x4b
 1083 01de 0B       		.uleb128 0xb
 1084 01df 241A0000 		.4byte	.LASF60
 1085 01e3 4C       		.byte	0x4c
 1086 01e4 0B       		.uleb128 0xb
 1087 01e5 59200000 		.4byte	.LASF61
 1088 01e9 4D       		.byte	0x4d
 1089 01ea 0B       		.uleb128 0xb
 1090 01eb 98060000 		.4byte	.LASF62
 1091 01ef 4E       		.byte	0x4e
 1092 01f0 0B       		.uleb128 0xb
 1093 01f1 3E180000 		.4byte	.LASF63
 1094 01f5 4F       		.byte	0x4f
 1095 01f6 0B       		.uleb128 0xb
 1096 01f7 FB210000 		.4byte	.LASF64
ARM GAS  C:\Windows\TEMP\ccTU3rlm.s 			page 60


 1097 01fb 50       		.byte	0x50
 1098 01fc 0B       		.uleb128 0xb
 1099 01fd 560D0000 		.4byte	.LASF65
 1100 0201 51       		.byte	0x51
 1101 0202 0B       		.uleb128 0xb
 1102 0203 A0040000 		.4byte	.LASF66
 1103 0207 52       		.byte	0x52
 1104 0208 0B       		.uleb128 0xb
 1105 0209 20240000 		.4byte	.LASF67
 1106 020d 53       		.byte	0x53
 1107 020e 0B       		.uleb128 0xb
 1108 020f C5270000 		.4byte	.LASF68
 1109 0213 54       		.byte	0x54
 1110 0214 0B       		.uleb128 0xb
 1111 0215 C3020000 		.4byte	.LASF69
 1112 0219 55       		.byte	0x55
 1113 021a 0B       		.uleb128 0xb
 1114 021b E60D0000 		.4byte	.LASF70
 1115 021f 56       		.byte	0x56
 1116 0220 0B       		.uleb128 0xb
 1117 0221 A6170000 		.4byte	.LASF71
 1118 0225 57       		.byte	0x57
 1119 0226 0B       		.uleb128 0xb
 1120 0227 72270000 		.4byte	.LASF72
 1121 022b 58       		.byte	0x58
 1122 022c 0B       		.uleb128 0xb
 1123 022d 45250000 		.4byte	.LASF73
 1124 0231 70       		.byte	0x70
 1125 0232 0B       		.uleb128 0xb
 1126 0233 2B100000 		.4byte	.LASF74
 1127 0237 71       		.byte	0x71
 1128 0238 0B       		.uleb128 0xb
 1129 0239 84080000 		.4byte	.LASF75
 1130 023d 72       		.byte	0x72
 1131 023e 0B       		.uleb128 0xb
 1132 023f DD210000 		.4byte	.LASF76
 1133 0243 73       		.byte	0x73
 1134 0244 0B       		.uleb128 0xb
 1135 0245 451B0000 		.4byte	.LASF77
 1136 0249 74       		.byte	0x74
 1137 024a 0B       		.uleb128 0xb
 1138 024b 52140000 		.4byte	.LASF78
 1139 024f 75       		.byte	0x75
 1140 0250 0B       		.uleb128 0xb
 1141 0251 330B0000 		.4byte	.LASF79
 1142 0255 76       		.byte	0x76
 1143 0256 0B       		.uleb128 0xb
 1144 0257 281E0000 		.4byte	.LASF80
 1145 025b 77       		.byte	0x77
 1146 025c 0B       		.uleb128 0xb
 1147 025d E7020000 		.4byte	.LASF81
 1148 0261 78       		.byte	0x78
 1149 0262 0B       		.uleb128 0xb
 1150 0263 B6060000 		.4byte	.LASF82
 1151 0267 79       		.byte	0x79
 1152 0268 0B       		.uleb128 0xb
 1153 0269 37270000 		.4byte	.LASF83
ARM GAS  C:\Windows\TEMP\ccTU3rlm.s 			page 61


 1154 026d 7A       		.byte	0x7a
 1155 026e 0B       		.uleb128 0xb
 1156 026f 5F160000 		.4byte	.LASF84
 1157 0273 FA       		.byte	0xfa
 1158 0274 0B       		.uleb128 0xb
 1159 0275 C3230000 		.4byte	.LASF85
 1160 0279 FB       		.byte	0xfb
 1161 027a 0B       		.uleb128 0xb
 1162 027b 78100000 		.4byte	.LASF86
 1163 027f FC       		.byte	0xfc
 1164 0280 0B       		.uleb128 0xb
 1165 0281 7F1B0000 		.4byte	.LASF87
 1166 0285 FD       		.byte	0xfd
 1167 0286 0B       		.uleb128 0xb
 1168 0287 BD190000 		.4byte	.LASF88
 1169 028b FF       		.byte	0xff
 1170 028c 00       		.byte	0
 1171 028d 0A       		.uleb128 0xa
 1172 028e 02       		.byte	0x2
 1173 028f 3A000000 		.4byte	0x3a
 1174 0293 03       		.byte	0x3
 1175 0294 EA03     		.2byte	0x3ea
 1176 0296 6C030000 		.4byte	0x36c
 1177 029a 0B       		.uleb128 0xb
 1178 029b 85090000 		.4byte	.LASF89
 1179 029f 00       		.byte	0
 1180 02a0 0B       		.uleb128 0xb
 1181 02a1 9B0E0000 		.4byte	.LASF90
 1182 02a5 01       		.byte	0x1
 1183 02a6 0B       		.uleb128 0xb
 1184 02a7 C6260000 		.4byte	.LASF91
 1185 02ab 02       		.byte	0x2
 1186 02ac 0B       		.uleb128 0xb
 1187 02ad F90E0000 		.4byte	.LASF92
 1188 02b1 03       		.byte	0x3
 1189 02b2 0B       		.uleb128 0xb
 1190 02b3 90110000 		.4byte	.LASF93
 1191 02b7 04       		.byte	0x4
 1192 02b8 0B       		.uleb128 0xb
 1193 02b9 18160000 		.4byte	.LASF94
 1194 02bd 05       		.byte	0x5
 1195 02be 0B       		.uleb128 0xb
 1196 02bf 76230000 		.4byte	.LASF95
 1197 02c3 06       		.byte	0x6
 1198 02c4 0B       		.uleb128 0xb
 1199 02c5 F60C0000 		.4byte	.LASF96
 1200 02c9 07       		.byte	0x7
 1201 02ca 0B       		.uleb128 0xb
 1202 02cb 45170000 		.4byte	.LASF97
 1203 02cf 08       		.byte	0x8
 1204 02d0 0B       		.uleb128 0xb
 1205 02d1 84220000 		.4byte	.LASF98
 1206 02d5 09       		.byte	0x9
 1207 02d6 0B       		.uleb128 0xb
 1208 02d7 ED270000 		.4byte	.LASF99
 1209 02db 0A       		.byte	0xa
 1210 02dc 0B       		.uleb128 0xb
ARM GAS  C:\Windows\TEMP\ccTU3rlm.s 			page 62


 1211 02dd EC040000 		.4byte	.LASF100
 1212 02e1 0B       		.byte	0xb
 1213 02e2 0B       		.uleb128 0xb
 1214 02e3 4B240000 		.4byte	.LASF101
 1215 02e7 0C       		.byte	0xc
 1216 02e8 0B       		.uleb128 0xb
 1217 02e9 47190000 		.4byte	.LASF102
 1218 02ed 0D       		.byte	0xd
 1219 02ee 0B       		.uleb128 0xb
 1220 02ef 3C130000 		.4byte	.LASF103
 1221 02f3 0E       		.byte	0xe
 1222 02f4 0B       		.uleb128 0xb
 1223 02f5 F3150000 		.4byte	.LASF104
 1224 02f9 0F       		.byte	0xf
 1225 02fa 0B       		.uleb128 0xb
 1226 02fb 79020000 		.4byte	.LASF105
 1227 02ff 10       		.byte	0x10
 1228 0300 0B       		.uleb128 0xb
 1229 0301 21170000 		.4byte	.LASF106
 1230 0305 11       		.byte	0x11
 1231 0306 0B       		.uleb128 0xb
 1232 0307 95070000 		.4byte	.LASF107
 1233 030b 12       		.byte	0x12
 1234 030c 0B       		.uleb128 0xb
 1235 030d F0080000 		.4byte	.LASF108
 1236 0311 13       		.byte	0x13
 1237 0312 0B       		.uleb128 0xb
 1238 0313 3D160000 		.4byte	.LASF109
 1239 0317 27       		.byte	0x27
 1240 0318 0B       		.uleb128 0xb
 1241 0319 81170000 		.4byte	.LASF110
 1242 031d 28       		.byte	0x28
 1243 031e 0B       		.uleb128 0xb
 1244 031f A7020000 		.4byte	.LASF111
 1245 0323 29       		.byte	0x29
 1246 0324 0B       		.uleb128 0xb
 1247 0325 1B210000 		.4byte	.LASF112
 1248 0329 2A       		.byte	0x2a
 1249 032a 0B       		.uleb128 0xb
 1250 032b 5B120000 		.4byte	.LASF113
 1251 032f 2B       		.byte	0x2b
 1252 0330 0B       		.uleb128 0xb
 1253 0331 891E0000 		.4byte	.LASF114
 1254 0335 2C       		.byte	0x2c
 1255 0336 0B       		.uleb128 0xb
 1256 0337 1D200000 		.4byte	.LASF115
 1257 033b 2D       		.byte	0x2d
 1258 033c 0B       		.uleb128 0xb
 1259 033d 7F0E0000 		.4byte	.LASF116
 1260 0341 FE       		.byte	0xfe
 1261 0342 0B       		.uleb128 0xb
 1262 0343 1B100000 		.4byte	.LASF117
 1263 0347 FF       		.byte	0xff
 1264 0348 0C       		.uleb128 0xc
 1265 0349 951A0000 		.4byte	.LASF118
 1266 034d 0001     		.2byte	0x100
 1267 034f 0C       		.uleb128 0xc
ARM GAS  C:\Windows\TEMP\ccTU3rlm.s 			page 63


 1268 0350 7C1A0000 		.4byte	.LASF119
 1269 0354 0101     		.2byte	0x101
 1270 0356 0C       		.uleb128 0xc
 1271 0357 38080000 		.4byte	.LASF120
 1272 035b 0201     		.2byte	0x102
 1273 035d 0C       		.uleb128 0xc
 1274 035e E21D0000 		.4byte	.LASF121
 1275 0362 0301     		.2byte	0x103
 1276 0364 0C       		.uleb128 0xc
 1277 0365 5C110000 		.4byte	.LASF122
 1278 0369 0401     		.2byte	0x104
 1279 036b 00       		.byte	0
 1280 036c 04       		.uleb128 0x4
 1281 036d E2230000 		.4byte	.LASF123
 1282 0371 03       		.byte	0x3
 1283 0372 5C04     		.2byte	0x45c
 1284 0374 8D020000 		.4byte	0x28d
 1285 0378 0A       		.uleb128 0xa
 1286 0379 01       		.byte	0x1
 1287 037a 2C000000 		.4byte	0x2c
 1288 037e 03       		.byte	0x3
 1289 037f 9504     		.2byte	0x495
 1290 0381 BC030000 		.4byte	0x3bc
 1291 0385 0B       		.uleb128 0xb
 1292 0386 24090000 		.4byte	.LASF124
 1293 038a 01       		.byte	0x1
 1294 038b 0B       		.uleb128 0xb
 1295 038c 63060000 		.4byte	.LASF125
 1296 0390 02       		.byte	0x2
 1297 0391 0B       		.uleb128 0xb
 1298 0392 C51B0000 		.4byte	.LASF126
 1299 0396 03       		.byte	0x3
 1300 0397 0B       		.uleb128 0xb
 1301 0398 4A050000 		.4byte	.LASF127
 1302 039c 04       		.byte	0x4
 1303 039d 0B       		.uleb128 0xb
 1304 039e C50B0000 		.4byte	.LASF128
 1305 03a2 05       		.byte	0x5
 1306 03a3 0B       		.uleb128 0xb
 1307 03a4 40120000 		.4byte	.LASF129
 1308 03a8 06       		.byte	0x6
 1309 03a9 0B       		.uleb128 0xb
 1310 03aa 90230000 		.4byte	.LASF130
 1311 03ae 07       		.byte	0x7
 1312 03af 0B       		.uleb128 0xb
 1313 03b0 FC110000 		.4byte	.LASF131
 1314 03b4 08       		.byte	0x8
 1315 03b5 0B       		.uleb128 0xb
 1316 03b6 A6160000 		.4byte	.LASF132
 1317 03ba 09       		.byte	0x9
 1318 03bb 00       		.byte	0
 1319 03bc 04       		.uleb128 0x4
 1320 03bd BF140000 		.4byte	.LASF133
 1321 03c1 03       		.byte	0x3
 1322 03c2 AC04     		.2byte	0x4ac
 1323 03c4 78030000 		.4byte	0x378
 1324 03c8 0A       		.uleb128 0xa
ARM GAS  C:\Windows\TEMP\ccTU3rlm.s 			page 64


 1325 03c9 01       		.byte	0x1
 1326 03ca 2C000000 		.4byte	0x2c
 1327 03ce 03       		.byte	0x3
 1328 03cf B004     		.2byte	0x4b0
 1329 03d1 E8030000 		.4byte	0x3e8
 1330 03d5 0B       		.uleb128 0xb
 1331 03d6 AE230000 		.4byte	.LASF134
 1332 03da 00       		.byte	0
 1333 03db 0B       		.uleb128 0xb
 1334 03dc CD180000 		.4byte	.LASF135
 1335 03e0 01       		.byte	0x1
 1336 03e1 0B       		.uleb128 0xb
 1337 03e2 30250000 		.4byte	.LASF136
 1338 03e6 02       		.byte	0x2
 1339 03e7 00       		.byte	0
 1340 03e8 04       		.uleb128 0x4
 1341 03e9 94090000 		.4byte	.LASF137
 1342 03ed 03       		.byte	0x3
 1343 03ee B704     		.2byte	0x4b7
 1344 03f0 C8030000 		.4byte	0x3c8
 1345 03f4 0D       		.uleb128 0xd
 1346 03f5 02       		.byte	0x2
 1347 03f6 03       		.byte	0x3
 1348 03f7 BA04     		.2byte	0x4ba
 1349 03f9 18040000 		.4byte	0x418
 1350 03fd 0E       		.uleb128 0xe
 1351 03fe D1010000 		.4byte	.LASF138
 1352 0402 03       		.byte	0x3
 1353 0403 BD04     		.2byte	0x4bd
 1354 0405 BC030000 		.4byte	0x3bc
 1355 0409 00       		.byte	0
 1356 040a 0E       		.uleb128 0xe
 1357 040b 7A080000 		.4byte	.LASF139
 1358 040f 03       		.byte	0x3
 1359 0410 BF04     		.2byte	0x4bf
 1360 0412 E8030000 		.4byte	0x3e8
 1361 0416 01       		.byte	0x1
 1362 0417 00       		.byte	0
 1363 0418 04       		.uleb128 0x4
 1364 0419 18250000 		.4byte	.LASF140
 1365 041d 03       		.byte	0x3
 1366 041e C004     		.2byte	0x4c0
 1367 0420 F4030000 		.4byte	0x3f4
 1368 0424 0A       		.uleb128 0xa
 1369 0425 01       		.byte	0x1
 1370 0426 2C000000 		.4byte	0x2c
 1371 042a 03       		.byte	0x3
 1372 042b EA04     		.2byte	0x4ea
 1373 042d 3E040000 		.4byte	0x43e
 1374 0431 0B       		.uleb128 0xb
 1375 0432 201D0000 		.4byte	.LASF141
 1376 0436 00       		.byte	0
 1377 0437 0B       		.uleb128 0xb
 1378 0438 8E120000 		.4byte	.LASF142
 1379 043c 01       		.byte	0x1
 1380 043d 00       		.byte	0
 1381 043e 04       		.uleb128 0x4
ARM GAS  C:\Windows\TEMP\ccTU3rlm.s 			page 65


 1382 043f B1250000 		.4byte	.LASF143
 1383 0443 03       		.byte	0x3
 1384 0444 F104     		.2byte	0x4f1
 1385 0446 24040000 		.4byte	0x424
 1386 044a 0D       		.uleb128 0xd
 1387 044b 08       		.byte	0x8
 1388 044c 03       		.byte	0x3
 1389 044d F404     		.2byte	0x4f4
 1390 044f 7B040000 		.4byte	0x47b
 1391 0453 0E       		.uleb128 0xe
 1392 0454 CD000000 		.4byte	.LASF144
 1393 0458 03       		.byte	0x3
 1394 0459 F704     		.2byte	0x4f7
 1395 045b 3E040000 		.4byte	0x43e
 1396 045f 00       		.byte	0
 1397 0460 0E       		.uleb128 0xe
 1398 0461 52110000 		.4byte	.LASF145
 1399 0465 03       		.byte	0x3
 1400 0466 FC04     		.2byte	0x4fc
 1401 0468 6B000000 		.4byte	0x6b
 1402 046c 01       		.byte	0x1
 1403 046d 0E       		.uleb128 0xe
 1404 046e 260B0000 		.4byte	.LASF146
 1405 0472 03       		.byte	0x3
 1406 0473 0405     		.2byte	0x504
 1407 0475 B7000000 		.4byte	0xb7
 1408 0479 04       		.byte	0x4
 1409 047a 00       		.byte	0
 1410 047b 04       		.uleb128 0x4
 1411 047c AB150000 		.4byte	.LASF147
 1412 0480 03       		.byte	0x3
 1413 0481 0605     		.2byte	0x506
 1414 0483 4A040000 		.4byte	0x44a
 1415 0487 0D       		.uleb128 0xd
 1416 0488 07       		.byte	0x7
 1417 0489 03       		.byte	0x3
 1418 048a 2A05     		.2byte	0x52a
 1419 048c AB040000 		.4byte	0x4ab
 1420 0490 0E       		.uleb128 0xe
 1421 0491 09230000 		.4byte	.LASF148
 1422 0495 03       		.byte	0x3
 1423 0496 2D05     		.2byte	0x52d
 1424 0498 AB040000 		.4byte	0x4ab
 1425 049c 00       		.byte	0
 1426 049d 0E       		.uleb128 0xe
 1427 049e CF030000 		.4byte	.LASF149
 1428 04a2 03       		.byte	0x3
 1429 04a3 2F05     		.2byte	0x52f
 1430 04a5 6B000000 		.4byte	0x6b
 1431 04a9 06       		.byte	0x6
 1432 04aa 00       		.byte	0
 1433 04ab 0F       		.uleb128 0xf
 1434 04ac 6B000000 		.4byte	0x6b
 1435 04b0 BB040000 		.4byte	0x4bb
 1436 04b4 10       		.uleb128 0x10
 1437 04b5 B0000000 		.4byte	0xb0
 1438 04b9 05       		.byte	0x5
ARM GAS  C:\Windows\TEMP\ccTU3rlm.s 			page 66


 1439 04ba 00       		.byte	0
 1440 04bb 04       		.uleb128 0x4
 1441 04bc E01E0000 		.4byte	.LASF150
 1442 04c0 03       		.byte	0x3
 1443 04c1 3005     		.2byte	0x530
 1444 04c3 87040000 		.4byte	0x487
 1445 04c7 07       		.uleb128 0x7
 1446 04c8 04       		.byte	0x4
 1447 04c9 6B000000 		.4byte	0x6b
 1448 04cd 11       		.uleb128 0x11
 1449 04ce 01       		.byte	0x1
 1450 04cf 2C000000 		.4byte	0x2c
 1451 04d3 04       		.byte	0x4
 1452 04d4 2F       		.byte	0x2f
 1453 04d5 F2040000 		.4byte	0x4f2
 1454 04d9 0B       		.uleb128 0xb
 1455 04da 0D1F0000 		.4byte	.LASF151
 1456 04de 01       		.byte	0x1
 1457 04df 0B       		.uleb128 0xb
 1458 04e0 A11E0000 		.4byte	.LASF152
 1459 04e4 02       		.byte	0x2
 1460 04e5 0B       		.uleb128 0xb
 1461 04e6 25270000 		.4byte	.LASF153
 1462 04ea 03       		.byte	0x3
 1463 04eb 0B       		.uleb128 0xb
 1464 04ec 671F0000 		.4byte	.LASF154
 1465 04f0 04       		.byte	0x4
 1466 04f1 00       		.byte	0
 1467 04f2 12       		.uleb128 0x12
 1468 04f3 D4030000 		.4byte	.LASF155
 1469 04f7 04       		.byte	0x4
 1470 04f8 3C       		.byte	0x3c
 1471 04f9 CD040000 		.4byte	0x4cd
 1472 04fd 0A       		.uleb128 0xa
 1473 04fe 01       		.byte	0x1
 1474 04ff 2C000000 		.4byte	0x2c
 1475 0503 05       		.byte	0x5
 1476 0504 0801     		.2byte	0x108
 1477 0506 29050000 		.4byte	0x529
 1478 050a 0B       		.uleb128 0xb
 1479 050b 08070000 		.4byte	.LASF156
 1480 050f 00       		.byte	0
 1481 0510 0B       		.uleb128 0xb
 1482 0511 1E070000 		.4byte	.LASF157
 1483 0515 01       		.byte	0x1
 1484 0516 0B       		.uleb128 0xb
 1485 0517 34070000 		.4byte	.LASF158
 1486 051b 02       		.byte	0x2
 1487 051c 0B       		.uleb128 0xb
 1488 051d 4A070000 		.4byte	.LASF159
 1489 0521 03       		.byte	0x3
 1490 0522 0B       		.uleb128 0xb
 1491 0523 CD0D0000 		.4byte	.LASF160
 1492 0527 0F       		.byte	0xf
 1493 0528 00       		.byte	0
 1494 0529 0A       		.uleb128 0xa
 1495 052a 01       		.byte	0x1
ARM GAS  C:\Windows\TEMP\ccTU3rlm.s 			page 67


 1496 052b 2C000000 		.4byte	0x2c
 1497 052f 05       		.byte	0x5
 1498 0530 2701     		.2byte	0x127
 1499 0532 55050000 		.4byte	0x555
 1500 0536 0B       		.uleb128 0xb
 1501 0537 0C050000 		.4byte	.LASF161
 1502 053b 00       		.byte	0
 1503 053c 0B       		.uleb128 0xb
 1504 053d B9240000 		.4byte	.LASF162
 1505 0541 01       		.byte	0x1
 1506 0542 0B       		.uleb128 0xb
 1507 0543 4E0C0000 		.4byte	.LASF163
 1508 0547 02       		.byte	0x2
 1509 0548 0B       		.uleb128 0xb
 1510 0549 52010000 		.4byte	.LASF164
 1511 054d 03       		.byte	0x3
 1512 054e 0B       		.uleb128 0xb
 1513 054f AE210000 		.4byte	.LASF165
 1514 0553 04       		.byte	0x4
 1515 0554 00       		.byte	0
 1516 0555 0A       		.uleb128 0xa
 1517 0556 01       		.byte	0x1
 1518 0557 2C000000 		.4byte	0x2c
 1519 055b 05       		.byte	0x5
 1520 055c 3D01     		.2byte	0x13d
 1521 055e CF050000 		.4byte	0x5cf
 1522 0562 0B       		.uleb128 0xb
 1523 0563 281C0000 		.4byte	.LASF166
 1524 0567 00       		.byte	0
 1525 0568 0B       		.uleb128 0xb
 1526 0569 FE050000 		.4byte	.LASF167
 1527 056d 01       		.byte	0x1
 1528 056e 0B       		.uleb128 0xb
 1529 056f BF1C0000 		.4byte	.LASF168
 1530 0573 02       		.byte	0x2
 1531 0574 0B       		.uleb128 0xb
 1532 0575 CF120000 		.4byte	.LASF169
 1533 0579 03       		.byte	0x3
 1534 057a 0B       		.uleb128 0xb
 1535 057b 0B080000 		.4byte	.LASF170
 1536 057f 04       		.byte	0x4
 1537 0580 0B       		.uleb128 0xb
 1538 0581 3C1F0000 		.4byte	.LASF171
 1539 0585 05       		.byte	0x5
 1540 0586 0B       		.uleb128 0xb
 1541 0587 18150000 		.4byte	.LASF172
 1542 058b 06       		.byte	0x6
 1543 058c 0B       		.uleb128 0xb
 1544 058d A4120000 		.4byte	.LASF173
 1545 0591 07       		.byte	0x7
 1546 0592 0B       		.uleb128 0xb
 1547 0593 4B040000 		.4byte	.LASF174
 1548 0597 08       		.byte	0x8
 1549 0598 0B       		.uleb128 0xb
 1550 0599 2B140000 		.4byte	.LASF175
 1551 059d 09       		.byte	0x9
 1552 059e 0B       		.uleb128 0xb
ARM GAS  C:\Windows\TEMP\ccTU3rlm.s 			page 68


 1553 059f FE0A0000 		.4byte	.LASF176
 1554 05a3 0A       		.byte	0xa
 1555 05a4 0B       		.uleb128 0xb
 1556 05a5 97140000 		.4byte	.LASF177
 1557 05a9 0B       		.byte	0xb
 1558 05aa 0B       		.uleb128 0xb
 1559 05ab 8A240000 		.4byte	.LASF178
 1560 05af 0C       		.byte	0xc
 1561 05b0 0B       		.uleb128 0xb
 1562 05b1 C90E0000 		.4byte	.LASF179
 1563 05b5 0D       		.byte	0xd
 1564 05b6 0B       		.uleb128 0xb
 1565 05b7 040A0000 		.4byte	.LASF180
 1566 05bb 0E       		.byte	0xe
 1567 05bc 0B       		.uleb128 0xb
 1568 05bd D5000000 		.4byte	.LASF181
 1569 05c1 0F       		.byte	0xf
 1570 05c2 0B       		.uleb128 0xb
 1571 05c3 1F040000 		.4byte	.LASF182
 1572 05c7 15       		.byte	0x15
 1573 05c8 0B       		.uleb128 0xb
 1574 05c9 51100000 		.4byte	.LASF183
 1575 05cd 18       		.byte	0x18
 1576 05ce 00       		.byte	0
 1577 05cf 04       		.uleb128 0x4
 1578 05d0 051A0000 		.4byte	.LASF184
 1579 05d4 05       		.byte	0x5
 1580 05d5 7D01     		.2byte	0x17d
 1581 05d7 55050000 		.4byte	0x555
 1582 05db 0A       		.uleb128 0xa
 1583 05dc 01       		.byte	0x1
 1584 05dd 2C000000 		.4byte	0x2c
 1585 05e1 05       		.byte	0x5
 1586 05e2 A801     		.2byte	0x1a8
 1587 05e4 01060000 		.4byte	0x601
 1588 05e8 0B       		.uleb128 0xb
 1589 05e9 FD140000 		.4byte	.LASF185
 1590 05ed 00       		.byte	0
 1591 05ee 0B       		.uleb128 0xb
 1592 05ef E2060000 		.4byte	.LASF186
 1593 05f3 01       		.byte	0x1
 1594 05f4 0B       		.uleb128 0xb
 1595 05f5 7B0B0000 		.4byte	.LASF187
 1596 05f9 02       		.byte	0x2
 1597 05fa 0B       		.uleb128 0xb
 1598 05fb 080E0000 		.4byte	.LASF188
 1599 05ff 03       		.byte	0x3
 1600 0600 00       		.byte	0
 1601 0601 04       		.uleb128 0x4
 1602 0602 39260000 		.4byte	.LASF189
 1603 0606 05       		.byte	0x5
 1604 0607 B501     		.2byte	0x1b5
 1605 0609 DB050000 		.4byte	0x5db
 1606 060d 0D       		.uleb128 0xd
 1607 060e 05       		.byte	0x5
 1608 060f 05       		.byte	0x5
 1609 0610 C601     		.2byte	0x1c6
ARM GAS  C:\Windows\TEMP\ccTU3rlm.s 			page 69


 1610 0612 58060000 		.4byte	0x658
 1611 0616 0E       		.uleb128 0xe
 1612 0617 C2150000 		.4byte	.LASF190
 1613 061b 05       		.byte	0x5
 1614 061c D001     		.2byte	0x1d0
 1615 061e 6B000000 		.4byte	0x6b
 1616 0622 00       		.byte	0
 1617 0623 0E       		.uleb128 0xe
 1618 0624 0B180000 		.4byte	.LASF191
 1619 0628 05       		.byte	0x5
 1620 0629 D601     		.2byte	0x1d6
 1621 062b 6B000000 		.4byte	0x6b
 1622 062f 01       		.byte	0x1
 1623 0630 0E       		.uleb128 0xe
 1624 0631 36000000 		.4byte	.LASF192
 1625 0635 05       		.byte	0x5
 1626 0636 DD01     		.2byte	0x1dd
 1627 0638 6B000000 		.4byte	0x6b
 1628 063c 02       		.byte	0x2
 1629 063d 0E       		.uleb128 0xe
 1630 063e 13210000 		.4byte	.LASF193
 1631 0642 05       		.byte	0x5
 1632 0643 E101     		.2byte	0x1e1
 1633 0645 CF050000 		.4byte	0x5cf
 1634 0649 03       		.byte	0x3
 1635 064a 0E       		.uleb128 0xe
 1636 064b 47200000 		.4byte	.LASF194
 1637 064f 05       		.byte	0x5
 1638 0650 EB01     		.2byte	0x1eb
 1639 0652 6B000000 		.4byte	0x6b
 1640 0656 04       		.byte	0x4
 1641 0657 00       		.byte	0
 1642 0658 04       		.uleb128 0x4
 1643 0659 380C0000 		.4byte	.LASF195
 1644 065d 05       		.byte	0x5
 1645 065e ED01     		.2byte	0x1ed
 1646 0660 0D060000 		.4byte	0x60d
 1647 0664 0D       		.uleb128 0xd
 1648 0665 08       		.byte	0x8
 1649 0666 05       		.byte	0x5
 1650 0667 7203     		.2byte	0x372
 1651 0669 A2060000 		.4byte	0x6a2
 1652 066d 0E       		.uleb128 0xe
 1653 066e 39120000 		.4byte	.LASF196
 1654 0672 05       		.byte	0x5
 1655 0673 7803     		.2byte	0x378
 1656 0675 6B000000 		.4byte	0x6b
 1657 0679 00       		.byte	0
 1658 067a 0E       		.uleb128 0xe
 1659 067b F1250000 		.4byte	.LASF197
 1660 067f 05       		.byte	0x5
 1661 0680 7E03     		.2byte	0x37e
 1662 0682 77000000 		.4byte	0x77
 1663 0686 02       		.byte	0x2
 1664 0687 0E       		.uleb128 0xe
 1665 0688 7E240000 		.4byte	.LASF198
 1666 068c 05       		.byte	0x5
ARM GAS  C:\Windows\TEMP\ccTU3rlm.s 			page 70


 1667 068d 8303     		.2byte	0x383
 1668 068f 77000000 		.4byte	0x77
 1669 0693 04       		.byte	0x4
 1670 0694 0E       		.uleb128 0xe
 1671 0695 17270000 		.4byte	.LASF199
 1672 0699 05       		.byte	0x5
 1673 069a 8903     		.2byte	0x389
 1674 069c 77000000 		.4byte	0x77
 1675 06a0 06       		.byte	0x6
 1676 06a1 00       		.byte	0
 1677 06a2 04       		.uleb128 0x4
 1678 06a3 3D1D0000 		.4byte	.LASF200
 1679 06a7 05       		.byte	0x5
 1680 06a8 8B03     		.2byte	0x38b
 1681 06aa 64060000 		.4byte	0x664
 1682 06ae 0D       		.uleb128 0xd
 1683 06af 1C       		.byte	0x1c
 1684 06b0 05       		.byte	0x5
 1685 06b1 2304     		.2byte	0x423
 1686 06b3 3A070000 		.4byte	0x73a
 1687 06b7 0E       		.uleb128 0xe
 1688 06b8 F1250000 		.4byte	.LASF197
 1689 06bc 05       		.byte	0x5
 1690 06bd 2904     		.2byte	0x429
 1691 06bf 77000000 		.4byte	0x77
 1692 06c3 00       		.byte	0
 1693 06c4 0E       		.uleb128 0xe
 1694 06c5 7E240000 		.4byte	.LASF198
 1695 06c9 05       		.byte	0x5
 1696 06ca 2E04     		.2byte	0x42e
 1697 06cc 77000000 		.4byte	0x77
 1698 06d0 02       		.byte	0x2
 1699 06d1 0E       		.uleb128 0xe
 1700 06d2 95270000 		.4byte	.LASF201
 1701 06d6 05       		.byte	0x5
 1702 06d7 3404     		.2byte	0x434
 1703 06d9 77000000 		.4byte	0x77
 1704 06dd 04       		.byte	0x4
 1705 06de 0E       		.uleb128 0xe
 1706 06df B0090000 		.4byte	.LASF202
 1707 06e3 05       		.byte	0x5
 1708 06e4 3704     		.2byte	0x437
 1709 06e6 C7040000 		.4byte	0x4c7
 1710 06ea 08       		.byte	0x8
 1711 06eb 0E       		.uleb128 0xe
 1712 06ec 2E190000 		.4byte	.LASF203
 1713 06f0 05       		.byte	0x5
 1714 06f1 3A04     		.2byte	0x43a
 1715 06f3 01060000 		.4byte	0x601
 1716 06f7 0C       		.byte	0xc
 1717 06f8 0E       		.uleb128 0xe
 1718 06f9 4C060000 		.4byte	.LASF204
 1719 06fd 05       		.byte	0x5
 1720 06fe 4404     		.2byte	0x444
 1721 0700 C7040000 		.4byte	0x4c7
 1722 0704 10       		.byte	0x10
 1723 0705 0E       		.uleb128 0xe
ARM GAS  C:\Windows\TEMP\ccTU3rlm.s 			page 71


 1724 0706 B11D0000 		.4byte	.LASF205
 1725 070a 05       		.byte	0x5
 1726 070b 4D04     		.2byte	0x44d
 1727 070d C7040000 		.4byte	0x4c7
 1728 0711 14       		.byte	0x14
 1729 0712 0E       		.uleb128 0xe
 1730 0713 34260000 		.4byte	.LASF206
 1731 0717 05       		.byte	0x5
 1732 0718 5304     		.2byte	0x453
 1733 071a 6B000000 		.4byte	0x6b
 1734 071e 18       		.byte	0x18
 1735 071f 0E       		.uleb128 0xe
 1736 0720 8A100000 		.4byte	.LASF207
 1737 0724 05       		.byte	0x5
 1738 0725 5F04     		.2byte	0x45f
 1739 0727 6B000000 		.4byte	0x6b
 1740 072b 19       		.byte	0x19
 1741 072c 0E       		.uleb128 0xe
 1742 072d 39120000 		.4byte	.LASF196
 1743 0731 05       		.byte	0x5
 1744 0732 6604     		.2byte	0x466
 1745 0734 6B000000 		.4byte	0x6b
 1746 0738 1A       		.byte	0x1a
 1747 0739 00       		.byte	0
 1748 073a 04       		.uleb128 0x4
 1749 073b BB090000 		.4byte	.LASF208
 1750 073f 05       		.byte	0x5
 1751 0740 6804     		.2byte	0x468
 1752 0742 AE060000 		.4byte	0x6ae
 1753 0746 11       		.uleb128 0x11
 1754 0747 01       		.byte	0x1
 1755 0748 2C000000 		.4byte	0x2c
 1756 074c 06       		.byte	0x6
 1757 074d 49       		.byte	0x49
 1758 074e 01080000 		.4byte	0x801
 1759 0752 0B       		.uleb128 0xb
 1760 0753 6A0E0000 		.4byte	.LASF209
 1761 0757 01       		.byte	0x1
 1762 0758 0B       		.uleb128 0xb
 1763 0759 DD0C0000 		.4byte	.LASF210
 1764 075d 02       		.byte	0x2
 1765 075e 0B       		.uleb128 0xb
 1766 075f 7F060000 		.4byte	.LASF211
 1767 0763 03       		.byte	0x3
 1768 0764 0B       		.uleb128 0xb
 1769 0765 40090000 		.4byte	.LASF212
 1770 0769 04       		.byte	0x4
 1771 076a 0B       		.uleb128 0xb
 1772 076b A61C0000 		.4byte	.LASF213
 1773 076f 05       		.byte	0x5
 1774 0770 0B       		.uleb128 0xb
 1775 0771 A31B0000 		.4byte	.LASF214
 1776 0775 06       		.byte	0x6
 1777 0776 0B       		.uleb128 0xb
 1778 0777 60070000 		.4byte	.LASF215
 1779 077b 07       		.byte	0x7
 1780 077c 0B       		.uleb128 0xb
ARM GAS  C:\Windows\TEMP\ccTU3rlm.s 			page 72


 1781 077d 291B0000 		.4byte	.LASF216
 1782 0781 08       		.byte	0x8
 1783 0782 0B       		.uleb128 0xb
 1784 0783 73040000 		.4byte	.LASF217
 1785 0787 09       		.byte	0x9
 1786 0788 0B       		.uleb128 0xb
 1787 0789 25120000 		.4byte	.LASF218
 1788 078d 0A       		.byte	0xa
 1789 078e 0B       		.uleb128 0xb
 1790 078f 58230000 		.4byte	.LASF219
 1791 0793 0B       		.byte	0xb
 1792 0794 0B       		.uleb128 0xb
 1793 0795 F41E0000 		.4byte	.LASF220
 1794 0799 0C       		.byte	0xc
 1795 079a 0B       		.uleb128 0xb
 1796 079b B2080000 		.4byte	.LASF221
 1797 079f 0D       		.byte	0xd
 1798 07a0 0B       		.uleb128 0xb
 1799 07a1 AE1A0000 		.4byte	.LASF222
 1800 07a5 0E       		.byte	0xe
 1801 07a6 0B       		.uleb128 0xb
 1802 07a7 B2030000 		.4byte	.LASF223
 1803 07ab 0F       		.byte	0xf
 1804 07ac 0B       		.uleb128 0xb
 1805 07ad 84260000 		.4byte	.LASF224
 1806 07b1 10       		.byte	0x10
 1807 07b2 0B       		.uleb128 0xb
 1808 07b3 73110000 		.4byte	.LASF225
 1809 07b7 11       		.byte	0x11
 1810 07b8 0B       		.uleb128 0xb
 1811 07b9 F4200000 		.4byte	.LASF226
 1812 07bd 12       		.byte	0x12
 1813 07be 0B       		.uleb128 0xb
 1814 07bf E00B0000 		.4byte	.LASF227
 1815 07c3 13       		.byte	0x13
 1816 07c4 0B       		.uleb128 0xb
 1817 07c5 A0010000 		.4byte	.LASF228
 1818 07c9 52       		.byte	0x52
 1819 07ca 0B       		.uleb128 0xb
 1820 07cb 36020000 		.4byte	.LASF229
 1821 07cf 16       		.byte	0x16
 1822 07d0 0B       		.uleb128 0xb
 1823 07d1 6C190000 		.4byte	.LASF230
 1824 07d5 17       		.byte	0x17
 1825 07d6 0B       		.uleb128 0xb
 1826 07d7 FB240000 		.4byte	.LASF231
 1827 07db 18       		.byte	0x18
 1828 07dc 0B       		.uleb128 0xb
 1829 07dd FE0F0000 		.4byte	.LASF232
 1830 07e1 19       		.byte	0x19
 1831 07e2 0B       		.uleb128 0xb
 1832 07e3 20130000 		.4byte	.LASF233
 1833 07e7 1B       		.byte	0x1b
 1834 07e8 0B       		.uleb128 0xb
 1835 07e9 990A0000 		.4byte	.LASF234
 1836 07ed 1D       		.byte	0x1d
 1837 07ee 0B       		.uleb128 0xb
ARM GAS  C:\Windows\TEMP\ccTU3rlm.s 			page 73


 1838 07ef 3F000000 		.4byte	.LASF235
 1839 07f3 1E       		.byte	0x1e
 1840 07f4 0B       		.uleb128 0xb
 1841 07f5 670F0000 		.4byte	.LASF236
 1842 07f9 D2       		.byte	0xd2
 1843 07fa 0B       		.uleb128 0xb
 1844 07fb C71D0000 		.4byte	.LASF237
 1845 07ff FF       		.byte	0xff
 1846 0800 00       		.byte	0
 1847 0801 11       		.uleb128 0x11
 1848 0802 01       		.byte	0x1
 1849 0803 2C000000 		.4byte	0x2c
 1850 0807 06       		.byte	0x6
 1851 0808 A5       		.byte	0xa5
 1852 0809 F8080000 		.4byte	0x8f8
 1853 080d 0B       		.uleb128 0xb
 1854 080e 471E0000 		.4byte	.LASF238
 1855 0812 00       		.byte	0
 1856 0813 0B       		.uleb128 0xb
 1857 0814 811D0000 		.4byte	.LASF239
 1858 0818 01       		.byte	0x1
 1859 0819 0B       		.uleb128 0xb
 1860 081a E2010000 		.4byte	.LASF240
 1861 081e 02       		.byte	0x2
 1862 081f 0B       		.uleb128 0xb
 1863 0820 CE250000 		.4byte	.LASF241
 1864 0824 03       		.byte	0x3
 1865 0825 0B       		.uleb128 0xb
 1866 0826 F0070000 		.4byte	.LASF242
 1867 082a 04       		.byte	0x4
 1868 082b 0B       		.uleb128 0xb
 1869 082c 5D180000 		.4byte	.LASF243
 1870 0830 05       		.byte	0x5
 1871 0831 0B       		.uleb128 0xb
 1872 0832 6F210000 		.4byte	.LASF244
 1873 0836 06       		.byte	0x6
 1874 0837 0B       		.uleb128 0xb
 1875 0838 0B1B0000 		.4byte	.LASF245
 1876 083c 07       		.byte	0x7
 1877 083d 0B       		.uleb128 0xb
 1878 083e D6170000 		.4byte	.LASF246
 1879 0842 08       		.byte	0x8
 1880 0843 0B       		.uleb128 0xb
 1881 0844 CB150000 		.4byte	.LASF247
 1882 0848 09       		.byte	0x9
 1883 0849 0B       		.uleb128 0xb
 1884 084a 9A190000 		.4byte	.LASF248
 1885 084e 0A       		.byte	0xa
 1886 084f 0B       		.uleb128 0xb
 1887 0850 AB0D0000 		.4byte	.LASF249
 1888 0854 0B       		.byte	0xb
 1889 0855 0B       		.uleb128 0xb
 1890 0856 7D160000 		.4byte	.LASF250
 1891 085a 0C       		.byte	0xc
 1892 085b 0B       		.uleb128 0xb
 1893 085c CB080000 		.4byte	.LASF251
 1894 0860 0D       		.byte	0xd
ARM GAS  C:\Windows\TEMP\ccTU3rlm.s 			page 74


 1895 0861 0B       		.uleb128 0xb
 1896 0862 9E0C0000 		.4byte	.LASF252
 1897 0866 0E       		.byte	0xe
 1898 0867 0B       		.uleb128 0xb
 1899 0868 0D260000 		.4byte	.LASF253
 1900 086c 0F       		.byte	0xf
 1901 086d 0B       		.uleb128 0xb
 1902 086e 53020000 		.4byte	.LASF254
 1903 0872 10       		.byte	0x10
 1904 0873 0B       		.uleb128 0xb
 1905 0874 04020000 		.4byte	.LASF255
 1906 0878 11       		.byte	0x11
 1907 0879 0B       		.uleb128 0xb
 1908 087a EB030000 		.4byte	.LASF256
 1909 087e 80       		.byte	0x80
 1910 087f 0B       		.uleb128 0xb
 1911 0880 750D0000 		.4byte	.LASF257
 1912 0884 80       		.byte	0x80
 1913 0885 0B       		.uleb128 0xb
 1914 0886 EE100000 		.4byte	.LASF258
 1915 088a 80       		.byte	0x80
 1916 088b 0B       		.uleb128 0xb
 1917 088c 38210000 		.4byte	.LASF259
 1918 0890 80       		.byte	0x80
 1919 0891 0B       		.uleb128 0xb
 1920 0892 B31E0000 		.4byte	.LASF260
 1921 0896 80       		.byte	0x80
 1922 0897 0B       		.uleb128 0xb
 1923 0898 00190000 		.4byte	.LASF261
 1924 089c 80       		.byte	0x80
 1925 089d 0B       		.uleb128 0xb
 1926 089e D7110000 		.4byte	.LASF262
 1927 08a2 80       		.byte	0x80
 1928 08a3 0B       		.uleb128 0xb
 1929 08a4 830C0000 		.4byte	.LASF263
 1930 08a8 80       		.byte	0x80
 1931 08a9 0B       		.uleb128 0xb
 1932 08aa 830F0000 		.4byte	.LASF264
 1933 08ae 81       		.byte	0x81
 1934 08af 0B       		.uleb128 0xb
 1935 08b0 CF1F0000 		.4byte	.LASF265
 1936 08b4 81       		.byte	0x81
 1937 08b5 0B       		.uleb128 0xb
 1938 08b6 12000000 		.4byte	.LASF266
 1939 08ba 81       		.byte	0x81
 1940 08bb 0B       		.uleb128 0xb
 1941 08bc CC070000 		.4byte	.LASF267
 1942 08c0 81       		.byte	0x81
 1943 08c1 0B       		.uleb128 0xb
 1944 08c2 D8050000 		.4byte	.LASF268
 1945 08c6 82       		.byte	0x82
 1946 08c7 0B       		.uleb128 0xb
 1947 08c8 10230000 		.4byte	.LASF269
 1948 08cc A0       		.byte	0xa0
 1949 08cd 0B       		.uleb128 0xb
 1950 08ce 65130000 		.4byte	.LASF270
 1951 08d2 A0       		.byte	0xa0
ARM GAS  C:\Windows\TEMP\ccTU3rlm.s 			page 75


 1952 08d3 0B       		.uleb128 0xb
 1953 08d4 28060000 		.4byte	.LASF271
 1954 08d8 A1       		.byte	0xa1
 1955 08d9 0B       		.uleb128 0xb
 1956 08da 5E220000 		.4byte	.LASF272
 1957 08de A2       		.byte	0xa2
 1958 08df 0B       		.uleb128 0xb
 1959 08e0 2C0E0000 		.4byte	.LASF273
 1960 08e4 A3       		.byte	0xa3
 1961 08e5 0B       		.uleb128 0xb
 1962 08e6 FE000000 		.4byte	.LASF274
 1963 08ea FD       		.byte	0xfd
 1964 08eb 0B       		.uleb128 0xb
 1965 08ec D0160000 		.4byte	.LASF275
 1966 08f0 FE       		.byte	0xfe
 1967 08f1 0B       		.uleb128 0xb
 1968 08f2 631B0000 		.4byte	.LASF276
 1969 08f6 FF       		.byte	0xff
 1970 08f7 00       		.byte	0
 1971 08f8 04       		.uleb128 0x4
 1972 08f9 3E220000 		.4byte	.LASF277
 1973 08fd 06       		.byte	0x6
 1974 08fe 5F01     		.2byte	0x15f
 1975 0900 01080000 		.4byte	0x801
 1976 0904 04       		.uleb128 0x4
 1977 0905 FC1D0000 		.4byte	.LASF278
 1978 0909 06       		.byte	0x6
 1979 090a 8901     		.2byte	0x189
 1980 090c 77000000 		.4byte	0x77
 1981 0910 0D       		.uleb128 0xd
 1982 0911 02       		.byte	0x2
 1983 0912 06       		.byte	0x6
 1984 0913 9301     		.2byte	0x193
 1985 0915 34090000 		.4byte	0x934
 1986 0919 0E       		.uleb128 0xe
 1987 091a CF050000 		.4byte	.LASF279
 1988 091e 06       		.byte	0x6
 1989 091f 9A01     		.2byte	0x19a
 1990 0921 6B000000 		.4byte	0x6b
 1991 0925 00       		.byte	0
 1992 0926 0E       		.uleb128 0xe
 1993 0927 C0260000 		.4byte	.LASF280
 1994 092b 06       		.byte	0x6
 1995 092c A001     		.2byte	0x1a0
 1996 092e 6B000000 		.4byte	0x6b
 1997 0932 01       		.byte	0x1
 1998 0933 00       		.byte	0
 1999 0934 04       		.uleb128 0x4
 2000 0935 D8040000 		.4byte	.LASF281
 2001 0939 06       		.byte	0x6
 2002 093a A201     		.2byte	0x1a2
 2003 093c 10090000 		.4byte	0x910
 2004 0940 0D       		.uleb128 0xd
 2005 0941 08       		.byte	0x8
 2006 0942 06       		.byte	0x6
 2007 0943 BE01     		.2byte	0x1be
 2008 0945 71090000 		.4byte	0x971
ARM GAS  C:\Windows\TEMP\ccTU3rlm.s 			page 76


 2009 0949 13       		.uleb128 0x13
 2010 094a 76616C00 		.ascii	"val\000"
 2011 094e 06       		.byte	0x6
 2012 094f C101     		.2byte	0x1c1
 2013 0951 C7040000 		.4byte	0x4c7
 2014 0955 00       		.byte	0
 2015 0956 13       		.uleb128 0x13
 2016 0957 6C656E00 		.ascii	"len\000"
 2017 095b 06       		.byte	0x6
 2018 095c C401     		.2byte	0x1c4
 2019 095e 77000000 		.4byte	0x77
 2020 0962 04       		.byte	0x4
 2021 0963 0E       		.uleb128 0xe
 2022 0964 69260000 		.4byte	.LASF282
 2023 0968 06       		.byte	0x6
 2024 0969 CB01     		.2byte	0x1cb
 2025 096b 77000000 		.4byte	0x77
 2026 096f 06       		.byte	0x6
 2027 0970 00       		.byte	0
 2028 0971 04       		.uleb128 0x4
 2029 0972 0A030000 		.4byte	.LASF283
 2030 0976 06       		.byte	0x6
 2031 0977 CD01     		.2byte	0x1cd
 2032 0979 40090000 		.4byte	0x940
 2033 097d 0D       		.uleb128 0xd
 2034 097e 0C       		.byte	0xc
 2035 097f 06       		.byte	0x6
 2036 0980 D001     		.2byte	0x1d0
 2037 0982 A1090000 		.4byte	0x9a1
 2038 0986 0E       		.uleb128 0xe
 2039 0987 5B1E0000 		.4byte	.LASF284
 2040 098b 06       		.byte	0x6
 2041 098c D301     		.2byte	0x1d3
 2042 098e 71090000 		.4byte	0x971
 2043 0992 00       		.byte	0
 2044 0993 0E       		.uleb128 0xe
 2045 0994 00180000 		.4byte	.LASF285
 2046 0998 06       		.byte	0x6
 2047 0999 D601     		.2byte	0x1d6
 2048 099b 04090000 		.4byte	0x904
 2049 099f 08       		.byte	0x8
 2050 09a0 00       		.byte	0
 2051 09a1 04       		.uleb128 0x4
 2052 09a2 5B080000 		.4byte	.LASF286
 2053 09a6 06       		.byte	0x6
 2054 09a7 D801     		.2byte	0x1d8
 2055 09a9 7D090000 		.4byte	0x97d
 2056 09ad 0D       		.uleb128 0xd
 2057 09ae 04       		.byte	0x4
 2058 09af 06       		.byte	0x6
 2059 09b0 E601     		.2byte	0x1e6
 2060 09b2 D1090000 		.4byte	0x9d1
 2061 09b6 0E       		.uleb128 0xe
 2062 09b7 311F0000 		.4byte	.LASF287
 2063 09bb 06       		.byte	0x6
 2064 09bc E901     		.2byte	0x1e9
 2065 09be 34090000 		.4byte	0x934
ARM GAS  C:\Windows\TEMP\ccTU3rlm.s 			page 77


 2066 09c2 00       		.byte	0
 2067 09c3 13       		.uleb128 0x13
 2068 09c4 6D747500 		.ascii	"mtu\000"
 2069 09c8 06       		.byte	0x6
 2070 09c9 EC01     		.2byte	0x1ec
 2071 09cb 77000000 		.4byte	0x77
 2072 09cf 02       		.byte	0x2
 2073 09d0 00       		.byte	0
 2074 09d1 04       		.uleb128 0x4
 2075 09d2 9B180000 		.4byte	.LASF288
 2076 09d6 06       		.byte	0x6
 2077 09d7 EE01     		.2byte	0x1ee
 2078 09d9 AD090000 		.4byte	0x9ad
 2079 09dd 0D       		.uleb128 0xd
 2080 09de 08       		.byte	0x8
 2081 09df 06       		.byte	0x6
 2082 09e0 FC01     		.2byte	0x1fc
 2083 09e2 0E0A0000 		.4byte	0xa0e
 2084 09e6 0E       		.uleb128 0xe
 2085 09e7 7C1C0000 		.4byte	.LASF289
 2086 09eb 06       		.byte	0x6
 2087 09ec 0102     		.2byte	0x201
 2088 09ee C7040000 		.4byte	0x4c7
 2089 09f2 00       		.byte	0
 2090 09f3 0E       		.uleb128 0xe
 2091 09f4 611E0000 		.4byte	.LASF290
 2092 09f8 06       		.byte	0x6
 2093 09f9 0602     		.2byte	0x206
 2094 09fb 77000000 		.4byte	0x77
 2095 09ff 04       		.byte	0x4
 2096 0a00 0E       		.uleb128 0xe
 2097 0a01 1E0F0000 		.4byte	.LASF291
 2098 0a05 06       		.byte	0x6
 2099 0a06 0D02     		.2byte	0x20d
 2100 0a08 77000000 		.4byte	0x77
 2101 0a0c 06       		.byte	0x6
 2102 0a0d 00       		.byte	0
 2103 0a0e 04       		.uleb128 0x4
 2104 0a0f 89130000 		.4byte	.LASF292
 2105 0a13 06       		.byte	0x6
 2106 0a14 0F02     		.2byte	0x20f
 2107 0a16 DD090000 		.4byte	0x9dd
 2108 0a1a 14       		.uleb128 0x14
 2109 0a1b 04       		.byte	0x4
 2110 0a1c 07       		.byte	0x7
 2111 0a1d 3A       		.byte	0x3a
 2112 0a1e 470A0000 		.4byte	0xa47
 2113 0a22 15       		.uleb128 0x15
 2114 0a23 00180000 		.4byte	.LASF285
 2115 0a27 07       		.byte	0x7
 2116 0a28 3D       		.byte	0x3d
 2117 0a29 04090000 		.4byte	0x904
 2118 0a2d 00       		.byte	0
 2119 0a2e 15       		.uleb128 0x15
 2120 0a2f CF170000 		.4byte	.LASF293
 2121 0a33 07       		.byte	0x7
 2122 0a34 43       		.byte	0x43
ARM GAS  C:\Windows\TEMP\ccTU3rlm.s 			page 78


 2123 0a35 6B000000 		.4byte	0x6b
 2124 0a39 02       		.byte	0x2
 2125 0a3a 15       		.uleb128 0x15
 2126 0a3b F40A0000 		.4byte	.LASF294
 2127 0a3f 07       		.byte	0x7
 2128 0a40 46       		.byte	0x46
 2129 0a41 F8080000 		.4byte	0x8f8
 2130 0a45 03       		.byte	0x3
 2131 0a46 00       		.byte	0
 2132 0a47 12       		.uleb128 0x12
 2133 0a48 550A0000 		.4byte	.LASF295
 2134 0a4c 07       		.byte	0x7
 2135 0a4d 48       		.byte	0x48
 2136 0a4e 1A0A0000 		.4byte	0xa1a
 2137 0a52 14       		.uleb128 0x14
 2138 0a53 10       		.byte	0x10
 2139 0a54 07       		.byte	0x7
 2140 0a55 8A       		.byte	0x8a
 2141 0a56 730A0000 		.4byte	0xa73
 2142 0a5a 15       		.uleb128 0x15
 2143 0a5b 311F0000 		.4byte	.LASF287
 2144 0a5f 07       		.byte	0x7
 2145 0a60 8D       		.byte	0x8d
 2146 0a61 34090000 		.4byte	0x934
 2147 0a65 00       		.byte	0
 2148 0a66 15       		.uleb128 0x15
 2149 0a67 231F0000 		.4byte	.LASF296
 2150 0a6b 07       		.byte	0x7
 2151 0a6c 90       		.byte	0x90
 2152 0a6d A1090000 		.4byte	0x9a1
 2153 0a71 04       		.byte	0x4
 2154 0a72 00       		.byte	0
 2155 0a73 12       		.uleb128 0x12
 2156 0a74 13180000 		.4byte	.LASF297
 2157 0a78 07       		.byte	0x7
 2158 0a79 92       		.byte	0x92
 2159 0a7a 520A0000 		.4byte	0xa52
 2160 0a7e 04       		.uleb128 0x4
 2161 0a7f 8F040000 		.4byte	.LASF298
 2162 0a83 08       		.byte	0x8
 2163 0a84 0302     		.2byte	0x203
 2164 0a86 B9000000 		.4byte	0xb9
 2165 0a8a 16       		.uleb128 0x16
 2166 0a8b B702     		.2byte	0x2b7
 2167 0a8d 09       		.byte	0x9
 2168 0a8e 9D       		.byte	0x9d
 2169 0a8f C70A0000 		.4byte	0xac7
 2170 0a93 15       		.uleb128 0x15
 2171 0a94 9E100000 		.4byte	.LASF299
 2172 0a98 09       		.byte	0x9
 2173 0a99 A0       		.byte	0xa0
 2174 0a9a C70A0000 		.4byte	0xac7
 2175 0a9e 00       		.byte	0
 2176 0a9f 17       		.uleb128 0x17
 2177 0aa0 4E0F0000 		.4byte	.LASF300
 2178 0aa4 09       		.byte	0x9
 2179 0aa5 A3       		.byte	0xa3
ARM GAS  C:\Windows\TEMP\ccTU3rlm.s 			page 79


 2180 0aa6 D80A0000 		.4byte	0xad8
 2181 0aaa 7902     		.2byte	0x279
 2182 0aac 17       		.uleb128 0x17
 2183 0aad 54220000 		.4byte	.LASF301
 2184 0ab1 09       		.byte	0x9
 2185 0ab2 A6       		.byte	0xa6
 2186 0ab3 6B000000 		.4byte	0x6b
 2187 0ab7 B502     		.2byte	0x2b5
 2188 0ab9 17       		.uleb128 0x17
 2189 0aba B90E0000 		.4byte	.LASF302
 2190 0abe 09       		.byte	0x9
 2191 0abf A9       		.byte	0xa9
 2192 0ac0 6B000000 		.4byte	0x6b
 2193 0ac4 B602     		.2byte	0x2b6
 2194 0ac6 00       		.byte	0
 2195 0ac7 0F       		.uleb128 0xf
 2196 0ac8 6B000000 		.4byte	0x6b
 2197 0acc D80A0000 		.4byte	0xad8
 2198 0ad0 18       		.uleb128 0x18
 2199 0ad1 B0000000 		.4byte	0xb0
 2200 0ad5 7802     		.2byte	0x278
 2201 0ad7 00       		.byte	0
 2202 0ad8 0F       		.uleb128 0xf
 2203 0ad9 6B000000 		.4byte	0x6b
 2204 0add EE0A0000 		.4byte	0xaee
 2205 0ae1 10       		.uleb128 0x10
 2206 0ae2 B0000000 		.4byte	0xb0
 2207 0ae6 04       		.byte	0x4
 2208 0ae7 10       		.uleb128 0x10
 2209 0ae8 B0000000 		.4byte	0xb0
 2210 0aec 0B       		.byte	0xb
 2211 0aed 00       		.byte	0
 2212 0aee 12       		.uleb128 0x12
 2213 0aef D5140000 		.4byte	.LASF303
 2214 0af3 09       		.byte	0x9
 2215 0af4 AA       		.byte	0xaa
 2216 0af5 8A0A0000 		.4byte	0xa8a
 2217 0af9 11       		.uleb128 0x11
 2218 0afa 01       		.byte	0x1
 2219 0afb 2C000000 		.4byte	0x2c
 2220 0aff 0A       		.byte	0xa
 2221 0b00 2B       		.byte	0x2b
 2222 0b01 1E0B0000 		.4byte	0xb1e
 2223 0b05 0B       		.uleb128 0xb
 2224 0b06 88180000 		.4byte	.LASF304
 2225 0b0a 00       		.byte	0
 2226 0b0b 0B       		.uleb128 0xb
 2227 0b0c 8E010000 		.4byte	.LASF305
 2228 0b10 01       		.byte	0x1
 2229 0b11 0B       		.uleb128 0xb
 2230 0b12 65050000 		.4byte	.LASF306
 2231 0b16 02       		.byte	0x2
 2232 0b17 0B       		.uleb128 0xb
 2233 0b18 B7180000 		.4byte	.LASF307
 2234 0b1c 03       		.byte	0x3
 2235 0b1d 00       		.byte	0
 2236 0b1e 11       		.uleb128 0x11
ARM GAS  C:\Windows\TEMP\ccTU3rlm.s 			page 80


 2237 0b1f 01       		.byte	0x1
 2238 0b20 2C000000 		.4byte	0x2c
 2239 0b24 0A       		.byte	0xa
 2240 0b25 34       		.byte	0x34
 2241 0b26 610B0000 		.4byte	0xb61
 2242 0b2a 0B       		.uleb128 0xb
 2243 0b2b A1260000 		.4byte	.LASF308
 2244 0b2f 00       		.byte	0
 2245 0b30 0B       		.uleb128 0xb
 2246 0b31 B3110000 		.4byte	.LASF309
 2247 0b35 01       		.byte	0x1
 2248 0b36 0B       		.uleb128 0xb
 2249 0b37 CB1A0000 		.4byte	.LASF310
 2250 0b3b 02       		.byte	0x2
 2251 0b3c 0B       		.uleb128 0xb
 2252 0b3d F50B0000 		.4byte	.LASF311
 2253 0b41 03       		.byte	0x3
 2254 0b42 0B       		.uleb128 0xb
 2255 0b43 6B250000 		.4byte	.LASF312
 2256 0b47 04       		.byte	0x4
 2257 0b48 0B       		.uleb128 0xb
 2258 0b49 FF120000 		.4byte	.LASF313
 2259 0b4d 05       		.byte	0x5
 2260 0b4e 0B       		.uleb128 0xb
 2261 0b4f B1260000 		.4byte	.LASF314
 2262 0b53 06       		.byte	0x6
 2263 0b54 0B       		.uleb128 0xb
 2264 0b55 DE0F0000 		.4byte	.LASF315
 2265 0b59 06       		.byte	0x6
 2266 0b5a 0B       		.uleb128 0xb
 2267 0b5b 5B270000 		.4byte	.LASF316
 2268 0b5f 07       		.byte	0x7
 2269 0b60 00       		.byte	0
 2270 0b61 0A       		.uleb128 0xa
 2271 0b62 01       		.byte	0x1
 2272 0b63 2C000000 		.4byte	0x2c
 2273 0b67 0B       		.byte	0xb
 2274 0b68 A808     		.2byte	0x8a8
 2275 0b6a 8D0B0000 		.4byte	0xb8d
 2276 0b6e 0B       		.uleb128 0xb
 2277 0b6f 410A0000 		.4byte	.LASF317
 2278 0b73 00       		.byte	0
 2279 0b74 0B       		.uleb128 0xb
 2280 0b75 04140000 		.4byte	.LASF318
 2281 0b79 01       		.byte	0x1
 2282 0b7a 0B       		.uleb128 0xb
 2283 0b7b 53260000 		.4byte	.LASF319
 2284 0b7f 02       		.byte	0x2
 2285 0b80 0B       		.uleb128 0xb
 2286 0b81 7A050000 		.4byte	.LASF320
 2287 0b85 03       		.byte	0x3
 2288 0b86 0B       		.uleb128 0xb
 2289 0b87 73200000 		.4byte	.LASF321
 2290 0b8b 04       		.byte	0x4
 2291 0b8c 00       		.byte	0
 2292 0b8d 04       		.uleb128 0x4
 2293 0b8e CF210000 		.4byte	.LASF322
ARM GAS  C:\Windows\TEMP\ccTU3rlm.s 			page 81


 2294 0b92 0B       		.byte	0xb
 2295 0b93 B608     		.2byte	0x8b6
 2296 0b95 610B0000 		.4byte	0xb61
 2297 0b99 0D       		.uleb128 0xd
 2298 0b9a 0C       		.byte	0xc
 2299 0b9b 0B       		.byte	0xb
 2300 0b9c 060A     		.2byte	0xa06
 2301 0b9e F10B0000 		.4byte	0xbf1
 2302 0ba2 0E       		.uleb128 0xe
 2303 0ba3 BC010000 		.4byte	.LASF323
 2304 0ba7 0B       		.byte	0xb
 2305 0ba8 090A     		.2byte	0xa09
 2306 0baa 04090000 		.4byte	0x904
 2307 0bae 00       		.byte	0
 2308 0baf 0E       		.uleb128 0xe
 2309 0bb0 BB160000 		.4byte	.LASF324
 2310 0bb4 0B       		.byte	0xb
 2311 0bb5 0B0A     		.2byte	0xa0b
 2312 0bb7 04090000 		.4byte	0x904
 2313 0bbb 02       		.byte	0x2
 2314 0bbc 0E       		.uleb128 0xe
 2315 0bbd F91B0000 		.4byte	.LASF325
 2316 0bc1 0B       		.byte	0xb
 2317 0bc2 0D0A     		.2byte	0xa0d
 2318 0bc4 04090000 		.4byte	0x904
 2319 0bc8 04       		.byte	0x4
 2320 0bc9 0E       		.uleb128 0xe
 2321 0bca 3E1A0000 		.4byte	.LASF326
 2322 0bce 0B       		.byte	0xb
 2323 0bcf 100A     		.2byte	0xa10
 2324 0bd1 04090000 		.4byte	0x904
 2325 0bd5 06       		.byte	0x6
 2326 0bd6 0E       		.uleb128 0xe
 2327 0bd7 E9220000 		.4byte	.LASF327
 2328 0bdb 0B       		.byte	0xb
 2329 0bdc 120A     		.2byte	0xa12
 2330 0bde 04090000 		.4byte	0x904
 2331 0be2 08       		.byte	0x8
 2332 0be3 0E       		.uleb128 0xe
 2333 0be4 A0080000 		.4byte	.LASF328
 2334 0be8 0B       		.byte	0xb
 2335 0be9 140A     		.2byte	0xa14
 2336 0beb 04090000 		.4byte	0x904
 2337 0bef 0A       		.byte	0xa
 2338 0bf0 00       		.byte	0
 2339 0bf1 04       		.uleb128 0x4
 2340 0bf2 D31E0000 		.4byte	.LASF329
 2341 0bf6 0B       		.byte	0xb
 2342 0bf7 150A     		.2byte	0xa15
 2343 0bf9 990B0000 		.4byte	0xb99
 2344 0bfd 19       		.uleb128 0x19
 2345 0bfe 8A150000 		.4byte	.LASF377
 2346 0c02 01       		.byte	0x1
 2347 0c03 6E05     		.2byte	0x56e
 2348 0c05 00000000 		.4byte	.LFB4
 2349 0c09 10000000 		.4byte	.LFE4-.LFB4
 2350 0c0d 01       		.uleb128 0x1
ARM GAS  C:\Windows\TEMP\ccTU3rlm.s 			page 82


 2351 0c0e 9C       		.byte	0x9c
 2352 0c0f 1A       		.uleb128 0x1a
 2353 0c10 B7000000 		.4byte	.LASF332
 2354 0c14 01       		.byte	0x1
 2355 0c15 FC       		.byte	0xfc
 2356 0c16 00000000 		.4byte	.LFB2
 2357 0c1a 4C000000 		.4byte	.LFE2-.LFB2
 2358 0c1e 01       		.uleb128 0x1
 2359 0c1f 9C       		.byte	0x9c
 2360 0c20 A10C0000 		.4byte	0xca1
 2361 0c24 1B       		.uleb128 0x1b
 2362 0c25 28010000 		.4byte	.LASF334
 2363 0c29 01       		.byte	0x1
 2364 0c2a FC       		.byte	0xfc
 2365 0c2b A10C0000 		.4byte	0xca1
 2366 0c2f 00000000 		.4byte	.LLST0
 2367 0c33 1C       		.uleb128 0x1c
 2368 0c34 C6250000 		.4byte	.LASF330
 2369 0c38 01       		.byte	0x1
 2370 0c39 FE       		.byte	0xfe
 2371 0c3a F8080000 		.4byte	0x8f8
 2372 0c3e 2C000000 		.4byte	.LLST1
 2373 0c42 1D       		.uleb128 0x1d
 2374 0c43 28000000 		.4byte	.LBB2
 2375 0c47 12000000 		.4byte	.LBE2-.LBB2
 2376 0c4b 6F0C0000 		.4byte	0xc6f
 2377 0c4f 1E       		.uleb128 0x1e
 2378 0c50 3D190000 		.4byte	.LASF331
 2379 0c54 01       		.byte	0x1
 2380 0c55 BE01     		.2byte	0x1be
 2381 0c57 470A0000 		.4byte	0xa47
 2382 0c5b 02       		.uleb128 0x2
 2383 0c5c 91       		.byte	0x91
 2384 0c5d 74       		.sleb128 -12
 2385 0c5e 1F       		.uleb128 0x1f
 2386 0c5f 3A000000 		.4byte	.LVL5
 2387 0c63 4E110000 		.4byte	0x114e
 2388 0c67 20       		.uleb128 0x20
 2389 0c68 01       		.uleb128 0x1
 2390 0c69 51       		.byte	0x51
 2391 0c6a 02       		.uleb128 0x2
 2392 0c6b 91       		.byte	0x91
 2393 0c6c 74       		.sleb128 -12
 2394 0c6d 00       		.byte	0
 2395 0c6e 00       		.byte	0
 2396 0c6f 21       		.uleb128 0x21
 2397 0c70 0A000000 		.4byte	.LVL1
 2398 0c74 5A110000 		.4byte	0x115a
 2399 0c78 830C0000 		.4byte	0xc83
 2400 0c7c 20       		.uleb128 0x20
 2401 0c7d 01       		.uleb128 0x1
 2402 0c7e 50       		.byte	0x50
 2403 0c7f 02       		.uleb128 0x2
 2404 0c80 74       		.byte	0x74
 2405 0c81 00       		.sleb128 0
 2406 0c82 00       		.byte	0
 2407 0c83 21       		.uleb128 0x21
ARM GAS  C:\Windows\TEMP\ccTU3rlm.s 			page 83


 2408 0c84 1C000000 		.4byte	.LVL3
 2409 0c88 65110000 		.4byte	0x1165
 2410 0c8c 970C0000 		.4byte	0xc97
 2411 0c90 20       		.uleb128 0x20
 2412 0c91 01       		.uleb128 0x1
 2413 0c92 50       		.byte	0x50
 2414 0c93 02       		.uleb128 0x2
 2415 0c94 74       		.byte	0x74
 2416 0c95 00       		.sleb128 0
 2417 0c96 00       		.byte	0
 2418 0c97 22       		.uleb128 0x22
 2419 0c98 42000000 		.4byte	.LVL8
 2420 0c9c 70110000 		.4byte	0x1170
 2421 0ca0 00       		.byte	0
 2422 0ca1 07       		.uleb128 0x7
 2423 0ca2 04       		.byte	0x4
 2424 0ca3 730A0000 		.4byte	0xa73
 2425 0ca7 23       		.uleb128 0x23
 2426 0ca8 63170000 		.4byte	.LASF333
 2427 0cac 01       		.byte	0x1
 2428 0cad DB01     		.2byte	0x1db
 2429 0caf 00000000 		.4byte	.LFB3
 2430 0cb3 18000000 		.4byte	.LFE3-.LFB3
 2431 0cb7 01       		.uleb128 0x1
 2432 0cb8 9C       		.byte	0x9c
 2433 0cb9 DF0C0000 		.4byte	0xcdf
 2434 0cbd 24       		.uleb128 0x24
 2435 0cbe 28010000 		.4byte	.LASF334
 2436 0cc2 01       		.byte	0x1
 2437 0cc3 DB01     		.2byte	0x1db
 2438 0cc5 DF0C0000 		.4byte	0xcdf
 2439 0cc9 61000000 		.4byte	.LLST2
 2440 0ccd 1F       		.uleb128 0x1f
 2441 0cce 12000000 		.4byte	.LVL11
 2442 0cd2 7C110000 		.4byte	0x117c
 2443 0cd6 20       		.uleb128 0x20
 2444 0cd7 01       		.uleb128 0x1
 2445 0cd8 50       		.byte	0x50
 2446 0cd9 03       		.uleb128 0x3
 2447 0cda F3       		.byte	0xf3
 2448 0cdb 01       		.uleb128 0x1
 2449 0cdc 50       		.byte	0x50
 2450 0cdd 00       		.byte	0
 2451 0cde 00       		.byte	0
 2452 0cdf 07       		.uleb128 0x7
 2453 0ce0 04       		.byte	0x4
 2454 0ce1 E50C0000 		.4byte	0xce5
 2455 0ce5 25       		.uleb128 0x25
 2456 0ce6 34090000 		.4byte	0x934
 2457 0cea 26       		.uleb128 0x26
 2458 0ceb EA190000 		.4byte	.LASF378
 2459 0cef 01       		.byte	0x1
 2460 0cf0 0A06     		.2byte	0x60a
 2461 0cf2 6B000000 		.4byte	0x6b
 2462 0cf6 00000000 		.4byte	.LFB7
 2463 0cfa 24000000 		.4byte	.LFE7-.LFB7
 2464 0cfe 01       		.uleb128 0x1
ARM GAS  C:\Windows\TEMP\ccTU3rlm.s 			page 84


 2465 0cff 9C       		.byte	0x9c
 2466 0d00 330D0000 		.4byte	0xd33
 2467 0d04 24       		.uleb128 0x24
 2468 0d05 310D0000 		.4byte	.LASF335
 2469 0d09 01       		.byte	0x1
 2470 0d0a 0A06     		.2byte	0x60a
 2471 0d0c 330D0000 		.4byte	0xd33
 2472 0d10 82000000 		.4byte	.LLST3
 2473 0d14 27       		.uleb128 0x27
 2474 0d15 6900     		.ascii	"i\000"
 2475 0d17 01       		.byte	0x1
 2476 0d18 0C06     		.2byte	0x60c
 2477 0d1a 6B000000 		.4byte	0x6b
 2478 0d1e D5000000 		.4byte	.LLST4
 2479 0d22 28       		.uleb128 0x28
 2480 0d23 29020000 		.4byte	.LASF336
 2481 0d27 01       		.byte	0x1
 2482 0d28 0D06     		.2byte	0x60d
 2483 0d2a 6B000000 		.4byte	0x6b
 2484 0d2e FE000000 		.4byte	.LLST5
 2485 0d32 00       		.byte	0
 2486 0d33 07       		.uleb128 0x7
 2487 0d34 04       		.byte	0x4
 2488 0d35 390D0000 		.4byte	0xd39
 2489 0d39 25       		.uleb128 0x25
 2490 0d3a BB040000 		.4byte	0x4bb
 2491 0d3e 29       		.uleb128 0x29
 2492 0d3f 72090000 		.4byte	.LASF379
 2493 0d43 01       		.byte	0x1
 2494 0d44 6206     		.2byte	0x662
 2495 0d46 00000000 		.4byte	.LFB10
 2496 0d4a 00030000 		.4byte	.LFE10-.LFB10
 2497 0d4e 01       		.uleb128 0x1
 2498 0d4f 9C       		.byte	0x9c
 2499 0d50 31100000 		.4byte	0x1031
 2500 0d54 24       		.uleb128 0x24
 2501 0d55 41240000 		.4byte	.LASF337
 2502 0d59 01       		.byte	0x1
 2503 0d5a 6206     		.2byte	0x662
 2504 0d5c 6B000000 		.4byte	0x6b
 2505 0d60 1D010000 		.4byte	.LLST6
 2506 0d64 24       		.uleb128 0x24
 2507 0d65 28010000 		.4byte	.LASF334
 2508 0d69 01       		.byte	0x1
 2509 0d6a 6206     		.2byte	0x662
 2510 0d6c B7000000 		.4byte	0xb7
 2511 0d70 06020000 		.4byte	.LLST7
 2512 0d74 1D       		.uleb128 0x1d
 2513 0d75 82000000 		.4byte	.LBB3
 2514 0d79 20000000 		.4byte	.LBE3-.LBB3
 2515 0d7d C20D0000 		.4byte	0xdc2
 2516 0d81 1E       		.uleb128 0x1e
 2517 0d82 181E0000 		.4byte	.LASF338
 2518 0d86 01       		.byte	0x1
 2519 0d87 6F06     		.2byte	0x66f
 2520 0d89 18040000 		.4byte	0x418
 2521 0d8d 02       		.uleb128 0x2
ARM GAS  C:\Windows\TEMP\ccTU3rlm.s 			page 85


 2522 0d8e 91       		.byte	0x91
 2523 0d8f 64       		.sleb128 -28
 2524 0d90 21       		.uleb128 0x21
 2525 0d91 92000000 		.4byte	.LVL25
 2526 0d95 87110000 		.4byte	0x1187
 2527 0d99 A40D0000 		.4byte	0xda4
 2528 0d9d 20       		.uleb128 0x20
 2529 0d9e 01       		.uleb128 0x1
 2530 0d9f 50       		.byte	0x50
 2531 0da0 02       		.uleb128 0x2
 2532 0da1 76       		.byte	0x76
 2533 0da2 00       		.sleb128 0
 2534 0da3 00       		.byte	0
 2535 0da4 21       		.uleb128 0x21
 2536 0da5 9E000000 		.4byte	.LVL26
 2537 0da9 87110000 		.4byte	0x1187
 2538 0dad B80D0000 		.4byte	0xdb8
 2539 0db1 20       		.uleb128 0x20
 2540 0db2 01       		.uleb128 0x1
 2541 0db3 50       		.byte	0x50
 2542 0db4 02       		.uleb128 0x2
 2543 0db5 76       		.byte	0x76
 2544 0db6 00       		.sleb128 0
 2545 0db7 00       		.byte	0
 2546 0db8 22       		.uleb128 0x22
 2547 0db9 A2000000 		.4byte	.LVL27
 2548 0dbd 93110000 		.4byte	0x1193
 2549 0dc1 00       		.byte	0
 2550 0dc2 1D       		.uleb128 0x1d
 2551 0dc3 CA000000 		.4byte	.LBB4
 2552 0dc7 40000000 		.4byte	.LBE4-.LBB4
 2553 0dcb E00D0000 		.4byte	0xde0
 2554 0dcf 28       		.uleb128 0x28
 2555 0dd0 6C230000 		.4byte	.LASF339
 2556 0dd4 01       		.byte	0x1
 2557 0dd5 9806     		.2byte	0x698
 2558 0dd7 83000000 		.4byte	0x83
 2559 0ddb 32020000 		.4byte	.LLST8
 2560 0ddf 00       		.byte	0
 2561 0de0 1D       		.uleb128 0x1d
 2562 0de1 26010000 		.4byte	.LBB5
 2563 0de5 10000000 		.4byte	.LBE5-.LBB5
 2564 0de9 2F0E0000 		.4byte	0xe2f
 2565 0ded 1E       		.uleb128 0x1e
 2566 0dee 8C200000 		.4byte	.LASF340
 2567 0df2 01       		.byte	0x1
 2568 0df3 B006     		.2byte	0x6b0
 2569 0df5 31100000 		.4byte	0x1031
 2570 0df9 02       		.uleb128 0x2
 2571 0dfa 91       		.byte	0x91
 2572 0dfb 64       		.sleb128 -28
 2573 0dfc 21       		.uleb128 0x21
 2574 0dfd 30010000 		.4byte	.LVL38
 2575 0e01 9F110000 		.4byte	0x119f
 2576 0e05 1E0E0000 		.4byte	0xe1e
 2577 0e09 20       		.uleb128 0x20
 2578 0e0a 01       		.uleb128 0x1
ARM GAS  C:\Windows\TEMP\ccTU3rlm.s 			page 86


 2579 0e0b 50       		.byte	0x50
 2580 0e0c 02       		.uleb128 0x2
 2581 0e0d 91       		.byte	0x91
 2582 0e0e 64       		.sleb128 -28
 2583 0e0f 20       		.uleb128 0x20
 2584 0e10 01       		.uleb128 0x1
 2585 0e11 51       		.byte	0x51
 2586 0e12 05       		.uleb128 0x5
 2587 0e13 03       		.byte	0x3
 2588 0e14 00000000 		.4byte	.LANCHOR0
 2589 0e18 20       		.uleb128 0x20
 2590 0e19 01       		.uleb128 0x1
 2591 0e1a 52       		.byte	0x52
 2592 0e1b 01       		.uleb128 0x1
 2593 0e1c 32       		.byte	0x32
 2594 0e1d 00       		.byte	0
 2595 0e1e 1F       		.uleb128 0x1f
 2596 0e1f 36010000 		.4byte	.LVL39
 2597 0e23 A8110000 		.4byte	0x11a8
 2598 0e27 20       		.uleb128 0x20
 2599 0e28 01       		.uleb128 0x1
 2600 0e29 50       		.byte	0x50
 2601 0e2a 02       		.uleb128 0x2
 2602 0e2b 91       		.byte	0x91
 2603 0e2c 64       		.sleb128 -28
 2604 0e2d 00       		.byte	0
 2605 0e2e 00       		.byte	0
 2606 0e2f 1D       		.uleb128 0x1d
 2607 0e30 46010000 		.4byte	.LBB6
 2608 0e34 28000000 		.4byte	.LBE6-.LBB6
 2609 0e38 690E0000 		.4byte	0xe69
 2610 0e3c 28       		.uleb128 0x28
 2611 0e3d AB030000 		.4byte	.LASF341
 2612 0e41 01       		.byte	0x1
 2613 0e42 C806     		.2byte	0x6c8
 2614 0e44 41100000 		.4byte	0x1041
 2615 0e48 45020000 		.4byte	.LLST9
 2616 0e4c 2A       		.uleb128 0x2a
 2617 0e4d 54010000 		.4byte	.LBB7
 2618 0e51 0E000000 		.4byte	.LBE7-.LBB7
 2619 0e55 1E       		.uleb128 0x1e
 2620 0e56 89190000 		.4byte	.LASF342
 2621 0e5a 01       		.byte	0x1
 2622 0e5b CF06     		.2byte	0x6cf
 2623 0e5d 0E0A0000 		.4byte	0xa0e
 2624 0e61 05       		.uleb128 0x5
 2625 0e62 03       		.byte	0x3
 2626 0e63 00000000 		.4byte	gPrepWriteReqMem.6766
 2627 0e67 00       		.byte	0
 2628 0e68 00       		.byte	0
 2629 0e69 1D       		.uleb128 0x1d
 2630 0e6a 86010000 		.4byte	.LBB8
 2631 0e6e 2A000000 		.4byte	.LBE8-.LBB8
 2632 0e72 AF0E0000 		.4byte	0xeaf
 2633 0e76 1E       		.uleb128 0x1e
 2634 0e77 AD000000 		.4byte	.LASF343
 2635 0e7b 01       		.byte	0x1
ARM GAS  C:\Windows\TEMP\ccTU3rlm.s 			page 87


 2636 0e7c F106     		.2byte	0x6f1
 2637 0e7e 6C030000 		.4byte	0x36c
 2638 0e82 02       		.uleb128 0x2
 2639 0e83 91       		.byte	0x91
 2640 0e84 64       		.sleb128 -28
 2641 0e85 21       		.uleb128 0x21
 2642 0e86 90010000 		.4byte	.LVL44
 2643 0e8a B4110000 		.4byte	0x11b4
 2644 0e8e 9C0E0000 		.4byte	0xe9c
 2645 0e92 20       		.uleb128 0x20
 2646 0e93 01       		.uleb128 0x1
 2647 0e94 51       		.byte	0x51
 2648 0e95 05       		.uleb128 0x5
 2649 0e96 03       		.byte	0x3
 2650 0e97 00000000 		.4byte	.LANCHOR2
 2651 0e9b 00       		.byte	0
 2652 0e9c 2B       		.uleb128 0x2b
 2653 0e9d A2010000 		.4byte	.LVL45
 2654 0ea1 20       		.uleb128 0x20
 2655 0ea2 01       		.uleb128 0x1
 2656 0ea3 50       		.byte	0x50
 2657 0ea4 02       		.uleb128 0x2
 2658 0ea5 08       		.byte	0x8
 2659 0ea6 36       		.byte	0x36
 2660 0ea7 20       		.uleb128 0x20
 2661 0ea8 01       		.uleb128 0x1
 2662 0ea9 51       		.byte	0x51
 2663 0eaa 02       		.uleb128 0x2
 2664 0eab 91       		.byte	0x91
 2665 0eac 64       		.sleb128 -28
 2666 0ead 00       		.byte	0
 2667 0eae 00       		.byte	0
 2668 0eaf 1D       		.uleb128 0x1d
 2669 0eb0 B8010000 		.4byte	.LBB9
 2670 0eb4 06000000 		.4byte	.LBE9-.LBB9
 2671 0eb8 D90E0000 		.4byte	0xed9
 2672 0ebc 2C       		.uleb128 0x2c
 2673 0ebd 4D230000 		.4byte	.LASF380
 2674 0ec1 01       		.byte	0x1
 2675 0ec2 1307     		.2byte	0x713
 2676 0ec4 A2060000 		.4byte	0x6a2
 2677 0ec8 28       		.uleb128 0x28
 2678 0ec9 73260000 		.4byte	.LASF344
 2679 0ecd 01       		.byte	0x1
 2680 0ece 1407     		.2byte	0x714
 2681 0ed0 47100000 		.4byte	0x1047
 2682 0ed4 58020000 		.4byte	.LLST10
 2683 0ed8 00       		.byte	0
 2684 0ed9 1D       		.uleb128 0x1d
 2685 0eda 54020000 		.4byte	.LBB10
 2686 0ede 0E000000 		.4byte	.LBE10-.LBB10
 2687 0ee2 000F0000 		.4byte	0xf00
 2688 0ee6 28       		.uleb128 0x28
 2689 0ee7 1D140000 		.4byte	.LASF345
 2690 0eeb 01       		.byte	0x1
 2691 0eec AE07     		.2byte	0x7ae
 2692 0eee 77000000 		.4byte	0x77
ARM GAS  C:\Windows\TEMP\ccTU3rlm.s 			page 88


 2693 0ef2 6B020000 		.4byte	.LLST11
 2694 0ef6 22       		.uleb128 0x22
 2695 0ef7 62020000 		.4byte	.LVL57
 2696 0efb C0110000 		.4byte	0x11c0
 2697 0eff 00       		.byte	0
 2698 0f00 21       		.uleb128 0x21
 2699 0f01 AC000000 		.4byte	.LVL28
 2700 0f05 EA0C0000 		.4byte	0xcea
 2701 0f09 140F0000 		.4byte	0xf14
 2702 0f0d 20       		.uleb128 0x20
 2703 0f0e 01       		.uleb128 0x1
 2704 0f0f 50       		.byte	0x50
 2705 0f10 02       		.uleb128 0x2
 2706 0f11 76       		.byte	0x76
 2707 0f12 00       		.sleb128 0
 2708 0f13 00       		.byte	0
 2709 0f14 21       		.uleb128 0x21
 2710 0f15 B6000000 		.4byte	.LVL29
 2711 0f19 CC110000 		.4byte	0x11cc
 2712 0f1d 280F0000 		.4byte	0xf28
 2713 0f21 20       		.uleb128 0x20
 2714 0f22 01       		.uleb128 0x1
 2715 0f23 50       		.byte	0x50
 2716 0f24 02       		.uleb128 0x2
 2717 0f25 76       		.byte	0x76
 2718 0f26 00       		.sleb128 0
 2719 0f27 00       		.byte	0
 2720 0f28 21       		.uleb128 0x21
 2721 0f29 C0000000 		.4byte	.LVL30
 2722 0f2d D8110000 		.4byte	0x11d8
 2723 0f31 3B0F0000 		.4byte	0xf3b
 2724 0f35 20       		.uleb128 0x20
 2725 0f36 01       		.uleb128 0x1
 2726 0f37 51       		.byte	0x51
 2727 0f38 01       		.uleb128 0x1
 2728 0f39 30       		.byte	0x30
 2729 0f3a 00       		.byte	0
 2730 0f3b 21       		.uleb128 0x21
 2731 0f3c C8000000 		.4byte	.LVL31
 2732 0f40 D8110000 		.4byte	0x11d8
 2733 0f44 4E0F0000 		.4byte	0xf4e
 2734 0f48 20       		.uleb128 0x20
 2735 0f49 01       		.uleb128 0x1
 2736 0f4a 51       		.byte	0x51
 2737 0f4b 01       		.uleb128 0x1
 2738 0f4c 31       		.byte	0x31
 2739 0f4d 00       		.byte	0
 2740 0f4e 21       		.uleb128 0x21
 2741 0f4f 10010000 		.4byte	.LVL34
 2742 0f53 CC110000 		.4byte	0x11cc
 2743 0f57 620F0000 		.4byte	0xf62
 2744 0f5b 20       		.uleb128 0x20
 2745 0f5c 01       		.uleb128 0x1
 2746 0f5d 50       		.byte	0x50
 2747 0f5e 02       		.uleb128 0x2
 2748 0f5f 76       		.byte	0x76
 2749 0f60 00       		.sleb128 0
ARM GAS  C:\Windows\TEMP\ccTU3rlm.s 			page 89


 2750 0f61 00       		.byte	0
 2751 0f62 21       		.uleb128 0x21
 2752 0f63 18010000 		.4byte	.LVL35
 2753 0f67 D8110000 		.4byte	0x11d8
 2754 0f6b 7B0F0000 		.4byte	0xf7b
 2755 0f6f 20       		.uleb128 0x20
 2756 0f70 01       		.uleb128 0x1
 2757 0f71 50       		.byte	0x50
 2758 0f72 02       		.uleb128 0x2
 2759 0f73 76       		.byte	0x76
 2760 0f74 00       		.sleb128 0
 2761 0f75 20       		.uleb128 0x20
 2762 0f76 01       		.uleb128 0x1
 2763 0f77 51       		.byte	0x51
 2764 0f78 01       		.uleb128 0x1
 2765 0f79 30       		.byte	0x30
 2766 0f7a 00       		.byte	0
 2767 0f7b 21       		.uleb128 0x21
 2768 0f7c 20010000 		.4byte	.LVL36
 2769 0f80 D8110000 		.4byte	0x11d8
 2770 0f84 940F0000 		.4byte	0xf94
 2771 0f88 20       		.uleb128 0x20
 2772 0f89 01       		.uleb128 0x1
 2773 0f8a 50       		.byte	0x50
 2774 0f8b 02       		.uleb128 0x2
 2775 0f8c 76       		.byte	0x76
 2776 0f8d 00       		.sleb128 0
 2777 0f8e 20       		.uleb128 0x20
 2778 0f8f 01       		.uleb128 0x1
 2779 0f90 51       		.byte	0x51
 2780 0f91 01       		.uleb128 0x1
 2781 0f92 31       		.byte	0x31
 2782 0f93 00       		.byte	0
 2783 0f94 21       		.uleb128 0x21
 2784 0f95 26010000 		.4byte	.LVL37
 2785 0f99 E4110000 		.4byte	0x11e4
 2786 0f9d A70F0000 		.4byte	0xfa7
 2787 0fa1 20       		.uleb128 0x20
 2788 0fa2 01       		.uleb128 0x1
 2789 0fa3 50       		.byte	0x50
 2790 0fa4 01       		.uleb128 0x1
 2791 0fa5 30       		.byte	0x30
 2792 0fa6 00       		.byte	0
 2793 0fa7 21       		.uleb128 0x21
 2794 0fa8 2C020000 		.4byte	.LVL50
 2795 0fac 9F110000 		.4byte	0x119f
 2796 0fb0 C60F0000 		.4byte	0xfc6
 2797 0fb4 20       		.uleb128 0x20
 2798 0fb5 01       		.uleb128 0x1
 2799 0fb6 50       		.byte	0x50
 2800 0fb7 02       		.uleb128 0x2
 2801 0fb8 76       		.byte	0x76
 2802 0fb9 00       		.sleb128 0
 2803 0fba 20       		.uleb128 0x20
 2804 0fbb 01       		.uleb128 0x1
 2805 0fbc 51       		.byte	0x51
 2806 0fbd 02       		.uleb128 0x2
ARM GAS  C:\Windows\TEMP\ccTU3rlm.s 			page 90


 2807 0fbe 75       		.byte	0x75
 2808 0fbf 00       		.sleb128 0
 2809 0fc0 20       		.uleb128 0x20
 2810 0fc1 01       		.uleb128 0x1
 2811 0fc2 52       		.byte	0x52
 2812 0fc3 01       		.uleb128 0x1
 2813 0fc4 32       		.byte	0x32
 2814 0fc5 00       		.byte	0
 2815 0fc6 21       		.uleb128 0x21
 2816 0fc7 4C020000 		.4byte	.LVL51
 2817 0fcb 9F110000 		.4byte	0x119f
 2818 0fcf D90F0000 		.4byte	0xfd9
 2819 0fd3 20       		.uleb128 0x20
 2820 0fd4 01       		.uleb128 0x1
 2821 0fd5 52       		.byte	0x52
 2822 0fd6 01       		.uleb128 0x1
 2823 0fd7 3C       		.byte	0x3c
 2824 0fd8 00       		.byte	0
 2825 0fd9 22       		.uleb128 0x22
 2826 0fda 52020000 		.4byte	.LVL53
 2827 0fde FD0B0000 		.4byte	0xbfd
 2828 0fe2 21       		.uleb128 0x21
 2829 0fe3 6A020000 		.4byte	.LVL60
 2830 0fe7 0F0C0000 		.4byte	0xc0f
 2831 0feb F60F0000 		.4byte	0xff6
 2832 0fef 20       		.uleb128 0x20
 2833 0ff0 01       		.uleb128 0x1
 2834 0ff1 50       		.byte	0x50
 2835 0ff2 02       		.uleb128 0x2
 2836 0ff3 75       		.byte	0x75
 2837 0ff4 00       		.sleb128 0
 2838 0ff5 00       		.byte	0
 2839 0ff6 21       		.uleb128 0x21
 2840 0ff7 7A020000 		.4byte	.LVL63
 2841 0ffb 65110000 		.4byte	0x1165
 2842 0fff 0A100000 		.4byte	0x100a
 2843 1003 20       		.uleb128 0x20
 2844 1004 01       		.uleb128 0x1
 2845 1005 50       		.byte	0x50
 2846 1006 02       		.uleb128 0x2
 2847 1007 75       		.byte	0x75
 2848 1008 00       		.sleb128 0
 2849 1009 00       		.byte	0
 2850 100a 21       		.uleb128 0x21
 2851 100b 82020000 		.4byte	.LVL66
 2852 100f A70C0000 		.4byte	0xca7
 2853 1013 1E100000 		.4byte	0x101e
 2854 1017 20       		.uleb128 0x20
 2855 1018 01       		.uleb128 0x1
 2856 1019 50       		.byte	0x50
 2857 101a 02       		.uleb128 0x2
 2858 101b 75       		.byte	0x75
 2859 101c 00       		.sleb128 0
 2860 101d 00       		.byte	0
 2861 101e 2B       		.uleb128 0x2b
 2862 101f AC020000 		.4byte	.LVL69
 2863 1023 20       		.uleb128 0x20
ARM GAS  C:\Windows\TEMP\ccTU3rlm.s 			page 91


 2864 1024 01       		.uleb128 0x1
 2865 1025 50       		.byte	0x50
 2866 1026 02       		.uleb128 0x2
 2867 1027 74       		.byte	0x74
 2868 1028 00       		.sleb128 0
 2869 1029 20       		.uleb128 0x20
 2870 102a 01       		.uleb128 0x1
 2871 102b 51       		.byte	0x51
 2872 102c 02       		.uleb128 0x2
 2873 102d 75       		.byte	0x75
 2874 102e 00       		.sleb128 0
 2875 102f 00       		.byte	0
 2876 1030 00       		.byte	0
 2877 1031 0F       		.uleb128 0xf
 2878 1032 6B000000 		.4byte	0x6b
 2879 1036 41100000 		.4byte	0x1041
 2880 103a 10       		.uleb128 0x10
 2881 103b B0000000 		.4byte	0xb0
 2882 103f 01       		.byte	0x1
 2883 1040 00       		.byte	0
 2884 1041 07       		.uleb128 0x7
 2885 1042 04       		.byte	0x4
 2886 1043 7B040000 		.4byte	0x47b
 2887 1047 07       		.uleb128 0x7
 2888 1048 04       		.byte	0x4
 2889 1049 3A070000 		.4byte	0x73a
 2890 104d 2D       		.uleb128 0x2d
 2891 104e 761E0000 		.4byte	.LASF346
 2892 1052 08       		.byte	0x8
 2893 1053 9C02     		.2byte	0x29c
 2894 1055 7E0A0000 		.4byte	0xa7e
 2895 1059 0F       		.uleb128 0xf
 2896 105a 6B000000 		.4byte	0x6b
 2897 105e 6A100000 		.4byte	0x106a
 2898 1062 18       		.uleb128 0x18
 2899 1063 B0000000 		.4byte	0xb0
 2900 1067 7F0D     		.2byte	0xd7f
 2901 1069 00       		.byte	0
 2902 106a 2D       		.uleb128 0x2d
 2903 106b 99220000 		.4byte	.LASF347
 2904 106f 08       		.byte	0x8
 2905 1070 A102     		.2byte	0x2a1
 2906 1072 59100000 		.4byte	0x1059
 2907 1076 2E       		.uleb128 0x2e
 2908 1077 3F0D0000 		.4byte	.LASF348
 2909 107b 01       		.byte	0x1
 2910 107c 3D       		.byte	0x3d
 2911 107d A4000000 		.4byte	0xa4
 2912 1081 05       		.uleb128 0x5
 2913 1082 03       		.byte	0x3
 2914 1083 00000000 		.4byte	cyBle_eventHandlerFlag
 2915 1087 2D       		.uleb128 0x2d
 2916 1088 B8070000 		.4byte	.LASF349
 2917 108c 08       		.byte	0x8
 2918 108d A402     		.2byte	0x2a4
 2919 108f BB040000 		.4byte	0x4bb
 2920 1093 2D       		.uleb128 0x2d
ARM GAS  C:\Windows\TEMP\ccTU3rlm.s 			page 92


 2921 1094 340F0000 		.4byte	.LASF350
 2922 1098 08       		.byte	0x8
 2923 1099 A502     		.2byte	0x2a5
 2924 109b 9F100000 		.4byte	0x109f
 2925 109f 07       		.uleb128 0x7
 2926 10a0 04       		.byte	0x4
 2927 10a1 BB040000 		.4byte	0x4bb
 2928 10a5 2E       		.uleb128 0x2e
 2929 10a6 C1200000 		.4byte	.LASF351
 2930 10aa 01       		.byte	0x1
 2931 10ab E4       		.byte	0xe4
 2932 10ac 58060000 		.4byte	0x658
 2933 10b0 05       		.uleb128 0x5
 2934 10b1 03       		.byte	0x3
 2935 10b2 00000000 		.4byte	cyBle_authInfo
 2936 10b6 2D       		.uleb128 0x2d
 2937 10b7 781F0000 		.4byte	.LASF352
 2938 10bb 08       		.byte	0x8
 2939 10bc C202     		.2byte	0x2c2
 2940 10be 6B000000 		.4byte	0x6b
 2941 10c2 2D       		.uleb128 0x2d
 2942 10c3 00000000 		.4byte	.LASF353
 2943 10c7 08       		.byte	0x8
 2944 10c8 C802     		.2byte	0x2c8
 2945 10ca 6B000000 		.4byte	0x6b
 2946 10ce 0F       		.uleb128 0xf
 2947 10cf 6B000000 		.4byte	0x6b
 2948 10d3 DE100000 		.4byte	0x10de
 2949 10d7 10       		.uleb128 0x10
 2950 10d8 B0000000 		.4byte	0xb0
 2951 10dc 0B       		.byte	0xb
 2952 10dd 00       		.byte	0
 2953 10de 2F       		.uleb128 0x2f
 2954 10df F5230000 		.4byte	.LASF354
 2955 10e3 09       		.byte	0x9
 2956 10e4 ED       		.byte	0xed
 2957 10e5 CE100000 		.4byte	0x10ce
 2958 10e9 2F       		.uleb128 0x2f
 2959 10ea EA140000 		.4byte	.LASF355
 2960 10ee 09       		.byte	0x9
 2961 10ef F5       		.byte	0xf5
 2962 10f0 F4100000 		.4byte	0x10f4
 2963 10f4 25       		.uleb128 0x25
 2964 10f5 EE0A0000 		.4byte	0xaee
 2965 10f9 2D       		.uleb128 0x2d
 2966 10fa F01F0000 		.4byte	.LASF356
 2967 10fe 0B       		.byte	0xb
 2968 10ff 160B     		.2byte	0xb16
 2969 1101 8D0B0000 		.4byte	0xb8d
 2970 1105 2E       		.uleb128 0x2e
 2971 1106 590E0000 		.4byte	.LASF357
 2972 110a 01       		.byte	0x1
 2973 110b 3B       		.byte	0x3b
 2974 110c 34090000 		.4byte	0x934
 2975 1110 05       		.uleb128 0x5
 2976 1111 03       		.byte	0x3
 2977 1112 00000000 		.4byte	cyBle_connHandle
ARM GAS  C:\Windows\TEMP\ccTU3rlm.s 			page 93


 2978 1116 2E       		.uleb128 0x2e
 2979 1117 D7130000 		.4byte	.LASF358
 2980 111b 01       		.byte	0x1
 2981 111c 3E       		.byte	0x3e
 2982 111d A4000000 		.4byte	0xa4
 2983 1121 05       		.uleb128 0x5
 2984 1122 03       		.byte	0x3
 2985 1123 00000000 		.4byte	cyBle_busyStatus
 2986 1127 2E       		.uleb128 0x2e
 2987 1128 4E0E0000 		.4byte	.LASF359
 2988 112c 01       		.byte	0x1
 2989 112d 40       		.byte	0x40
 2990 112e 38110000 		.4byte	0x1138
 2991 1132 05       		.uleb128 0x5
 2992 1133 03       		.byte	0x3
 2993 1134 00000000 		.4byte	cyBle_gaps
 2994 1138 25       		.uleb128 0x25
 2995 1139 F10B0000 		.4byte	0xbf1
 2996 113d 2E       		.uleb128 0x2e
 2997 113e AE220000 		.4byte	.LASF360
 2998 1142 01       		.byte	0x1
 2999 1143 4C       		.byte	0x4c
 3000 1144 6B000000 		.4byte	0x6b
 3001 1148 05       		.uleb128 0x5
 3002 1149 03       		.byte	0x3
 3003 114a 00000000 		.4byte	cyBle_advertisingIntervalType
 3004 114e 30       		.uleb128 0x30
 3005 114f 39230000 		.4byte	.LASF361
 3006 1153 39230000 		.4byte	.LASF361
 3007 1157 07       		.byte	0x7
 3008 1158 4001     		.2byte	0x140
 3009 115a 31       		.uleb128 0x31
 3010 115b E3180000 		.4byte	.LASF362
 3011 115f E3180000 		.4byte	.LASF362
 3012 1163 09       		.byte	0x9
 3013 1164 D4       		.byte	0xd4
 3014 1165 31       		.uleb128 0x31
 3015 1166 5F1C0000 		.4byte	.LASF363
 3016 116a 5F1C0000 		.4byte	.LASF363
 3017 116e 0A       		.byte	0xa
 3018 116f F0       		.byte	0xf0
 3019 1170 30       		.uleb128 0x30
 3020 1171 BB050000 		.4byte	.LASF364
 3021 1175 BB050000 		.4byte	.LASF364
 3022 1179 07       		.byte	0x7
 3023 117a C201     		.2byte	0x1c2
 3024 117c 31       		.uleb128 0x31
 3025 117d 8D250000 		.4byte	.LASF365
 3026 1181 8D250000 		.4byte	.LASF365
 3027 1185 0A       		.byte	0xa
 3028 1186 F1       		.byte	0xf1
 3029 1187 30       		.uleb128 0x30
 3030 1188 74150000 		.4byte	.LASF366
 3031 118c 74150000 		.4byte	.LASF366
 3032 1190 03       		.byte	0x3
 3033 1191 7108     		.2byte	0x871
 3034 1193 30       		.uleb128 0x30
ARM GAS  C:\Windows\TEMP\ccTU3rlm.s 			page 94


 3035 1194 FC1F0000 		.4byte	.LASF367
 3036 1198 FC1F0000 		.4byte	.LASF367
 3037 119c 03       		.byte	0x3
 3038 119d 470C     		.2byte	0xc47
 3039 119f 32       		.uleb128 0x32
 3040 11a0 A7230000 		.4byte	.LASF381
 3041 11a4 A7230000 		.4byte	.LASF381
 3042 11a8 30       		.uleb128 0x30
 3043 11a9 4E150000 		.4byte	.LASF368
 3044 11ad 4E150000 		.4byte	.LASF368
 3045 11b1 05       		.byte	0x5
 3046 11b2 370D     		.2byte	0xd37
 3047 11b4 30       		.uleb128 0x30
 3048 11b5 09240000 		.4byte	.LASF369
 3049 11b9 09240000 		.4byte	.LASF369
 3050 11bd 05       		.byte	0x5
 3051 11be 7808     		.2byte	0x878
 3052 11c0 30       		.uleb128 0x30
 3053 11c1 0E1C0000 		.4byte	.LASF370
 3054 11c5 0E1C0000 		.4byte	.LASF370
 3055 11c9 07       		.byte	0x7
 3056 11ca 7C01     		.2byte	0x17c
 3057 11cc 30       		.uleb128 0x30
 3058 11cd 5B000000 		.4byte	.LASF371
 3059 11d1 5B000000 		.4byte	.LASF371
 3060 11d5 03       		.byte	0x3
 3061 11d6 F207     		.2byte	0x7f2
 3062 11d8 30       		.uleb128 0x30
 3063 11d9 E8130000 		.4byte	.LASF372
 3064 11dd E8130000 		.4byte	.LASF372
 3065 11e1 08       		.byte	0x8
 3066 11e2 8202     		.2byte	0x282
 3067 11e4 30       		.uleb128 0x30
 3068 11e5 9B000000 		.4byte	.LASF373
 3069 11e9 9B000000 		.4byte	.LASF373
 3070 11ed 05       		.byte	0x5
 3071 11ee DB04     		.2byte	0x4db
 3072 11f0 00       		.byte	0
 3073              		.section	.debug_abbrev,"",%progbits
 3074              	.Ldebug_abbrev0:
 3075 0000 01       		.uleb128 0x1
 3076 0001 11       		.uleb128 0x11
 3077 0002 01       		.byte	0x1
 3078 0003 25       		.uleb128 0x25
 3079 0004 0E       		.uleb128 0xe
 3080 0005 13       		.uleb128 0x13
 3081 0006 0B       		.uleb128 0xb
 3082 0007 03       		.uleb128 0x3
 3083 0008 0E       		.uleb128 0xe
 3084 0009 1B       		.uleb128 0x1b
 3085 000a 0E       		.uleb128 0xe
 3086 000b 55       		.uleb128 0x55
 3087 000c 17       		.uleb128 0x17
 3088 000d 11       		.uleb128 0x11
 3089 000e 01       		.uleb128 0x1
 3090 000f 10       		.uleb128 0x10
 3091 0010 17       		.uleb128 0x17
ARM GAS  C:\Windows\TEMP\ccTU3rlm.s 			page 95


 3092 0011 00       		.byte	0
 3093 0012 00       		.byte	0
 3094 0013 02       		.uleb128 0x2
 3095 0014 24       		.uleb128 0x24
 3096 0015 00       		.byte	0
 3097 0016 0B       		.uleb128 0xb
 3098 0017 0B       		.uleb128 0xb
 3099 0018 3E       		.uleb128 0x3e
 3100 0019 0B       		.uleb128 0xb
 3101 001a 03       		.uleb128 0x3
 3102 001b 0E       		.uleb128 0xe
 3103 001c 00       		.byte	0
 3104 001d 00       		.byte	0
 3105 001e 03       		.uleb128 0x3
 3106 001f 24       		.uleb128 0x24
 3107 0020 00       		.byte	0
 3108 0021 0B       		.uleb128 0xb
 3109 0022 0B       		.uleb128 0xb
 3110 0023 3E       		.uleb128 0x3e
 3111 0024 0B       		.uleb128 0xb
 3112 0025 03       		.uleb128 0x3
 3113 0026 08       		.uleb128 0x8
 3114 0027 00       		.byte	0
 3115 0028 00       		.byte	0
 3116 0029 04       		.uleb128 0x4
 3117 002a 16       		.uleb128 0x16
 3118 002b 00       		.byte	0
 3119 002c 03       		.uleb128 0x3
 3120 002d 0E       		.uleb128 0xe
 3121 002e 3A       		.uleb128 0x3a
 3122 002f 0B       		.uleb128 0xb
 3123 0030 3B       		.uleb128 0x3b
 3124 0031 05       		.uleb128 0x5
 3125 0032 49       		.uleb128 0x49
 3126 0033 13       		.uleb128 0x13
 3127 0034 00       		.byte	0
 3128 0035 00       		.byte	0
 3129 0036 05       		.uleb128 0x5
 3130 0037 35       		.uleb128 0x35
 3131 0038 00       		.byte	0
 3132 0039 49       		.uleb128 0x49
 3133 003a 13       		.uleb128 0x13
 3134 003b 00       		.byte	0
 3135 003c 00       		.byte	0
 3136 003d 06       		.uleb128 0x6
 3137 003e 0F       		.uleb128 0xf
 3138 003f 00       		.byte	0
 3139 0040 0B       		.uleb128 0xb
 3140 0041 0B       		.uleb128 0xb
 3141 0042 00       		.byte	0
 3142 0043 00       		.byte	0
 3143 0044 07       		.uleb128 0x7
 3144 0045 0F       		.uleb128 0xf
 3145 0046 00       		.byte	0
 3146 0047 0B       		.uleb128 0xb
 3147 0048 0B       		.uleb128 0xb
 3148 0049 49       		.uleb128 0x49
ARM GAS  C:\Windows\TEMP\ccTU3rlm.s 			page 96


 3149 004a 13       		.uleb128 0x13
 3150 004b 00       		.byte	0
 3151 004c 00       		.byte	0
 3152 004d 08       		.uleb128 0x8
 3153 004e 15       		.uleb128 0x15
 3154 004f 01       		.byte	0x1
 3155 0050 27       		.uleb128 0x27
 3156 0051 19       		.uleb128 0x19
 3157 0052 01       		.uleb128 0x1
 3158 0053 13       		.uleb128 0x13
 3159 0054 00       		.byte	0
 3160 0055 00       		.byte	0
 3161 0056 09       		.uleb128 0x9
 3162 0057 05       		.uleb128 0x5
 3163 0058 00       		.byte	0
 3164 0059 49       		.uleb128 0x49
 3165 005a 13       		.uleb128 0x13
 3166 005b 00       		.byte	0
 3167 005c 00       		.byte	0
 3168 005d 0A       		.uleb128 0xa
 3169 005e 04       		.uleb128 0x4
 3170 005f 01       		.byte	0x1
 3171 0060 0B       		.uleb128 0xb
 3172 0061 0B       		.uleb128 0xb
 3173 0062 49       		.uleb128 0x49
 3174 0063 13       		.uleb128 0x13
 3175 0064 3A       		.uleb128 0x3a
 3176 0065 0B       		.uleb128 0xb
 3177 0066 3B       		.uleb128 0x3b
 3178 0067 05       		.uleb128 0x5
 3179 0068 01       		.uleb128 0x1
 3180 0069 13       		.uleb128 0x13
 3181 006a 00       		.byte	0
 3182 006b 00       		.byte	0
 3183 006c 0B       		.uleb128 0xb
 3184 006d 28       		.uleb128 0x28
 3185 006e 00       		.byte	0
 3186 006f 03       		.uleb128 0x3
 3187 0070 0E       		.uleb128 0xe
 3188 0071 1C       		.uleb128 0x1c
 3189 0072 0B       		.uleb128 0xb
 3190 0073 00       		.byte	0
 3191 0074 00       		.byte	0
 3192 0075 0C       		.uleb128 0xc
 3193 0076 28       		.uleb128 0x28
 3194 0077 00       		.byte	0
 3195 0078 03       		.uleb128 0x3
 3196 0079 0E       		.uleb128 0xe
 3197 007a 1C       		.uleb128 0x1c
 3198 007b 05       		.uleb128 0x5
 3199 007c 00       		.byte	0
 3200 007d 00       		.byte	0
 3201 007e 0D       		.uleb128 0xd
 3202 007f 13       		.uleb128 0x13
 3203 0080 01       		.byte	0x1
 3204 0081 0B       		.uleb128 0xb
 3205 0082 0B       		.uleb128 0xb
ARM GAS  C:\Windows\TEMP\ccTU3rlm.s 			page 97


 3206 0083 3A       		.uleb128 0x3a
 3207 0084 0B       		.uleb128 0xb
 3208 0085 3B       		.uleb128 0x3b
 3209 0086 05       		.uleb128 0x5
 3210 0087 01       		.uleb128 0x1
 3211 0088 13       		.uleb128 0x13
 3212 0089 00       		.byte	0
 3213 008a 00       		.byte	0
 3214 008b 0E       		.uleb128 0xe
 3215 008c 0D       		.uleb128 0xd
 3216 008d 00       		.byte	0
 3217 008e 03       		.uleb128 0x3
 3218 008f 0E       		.uleb128 0xe
 3219 0090 3A       		.uleb128 0x3a
 3220 0091 0B       		.uleb128 0xb
 3221 0092 3B       		.uleb128 0x3b
 3222 0093 05       		.uleb128 0x5
 3223 0094 49       		.uleb128 0x49
 3224 0095 13       		.uleb128 0x13
 3225 0096 38       		.uleb128 0x38
 3226 0097 0B       		.uleb128 0xb
 3227 0098 00       		.byte	0
 3228 0099 00       		.byte	0
 3229 009a 0F       		.uleb128 0xf
 3230 009b 01       		.uleb128 0x1
 3231 009c 01       		.byte	0x1
 3232 009d 49       		.uleb128 0x49
 3233 009e 13       		.uleb128 0x13
 3234 009f 01       		.uleb128 0x1
 3235 00a0 13       		.uleb128 0x13
 3236 00a1 00       		.byte	0
 3237 00a2 00       		.byte	0
 3238 00a3 10       		.uleb128 0x10
 3239 00a4 21       		.uleb128 0x21
 3240 00a5 00       		.byte	0
 3241 00a6 49       		.uleb128 0x49
 3242 00a7 13       		.uleb128 0x13
 3243 00a8 2F       		.uleb128 0x2f
 3244 00a9 0B       		.uleb128 0xb
 3245 00aa 00       		.byte	0
 3246 00ab 00       		.byte	0
 3247 00ac 11       		.uleb128 0x11
 3248 00ad 04       		.uleb128 0x4
 3249 00ae 01       		.byte	0x1
 3250 00af 0B       		.uleb128 0xb
 3251 00b0 0B       		.uleb128 0xb
 3252 00b1 49       		.uleb128 0x49
 3253 00b2 13       		.uleb128 0x13
 3254 00b3 3A       		.uleb128 0x3a
 3255 00b4 0B       		.uleb128 0xb
 3256 00b5 3B       		.uleb128 0x3b
 3257 00b6 0B       		.uleb128 0xb
 3258 00b7 01       		.uleb128 0x1
 3259 00b8 13       		.uleb128 0x13
 3260 00b9 00       		.byte	0
 3261 00ba 00       		.byte	0
 3262 00bb 12       		.uleb128 0x12
ARM GAS  C:\Windows\TEMP\ccTU3rlm.s 			page 98


 3263 00bc 16       		.uleb128 0x16
 3264 00bd 00       		.byte	0
 3265 00be 03       		.uleb128 0x3
 3266 00bf 0E       		.uleb128 0xe
 3267 00c0 3A       		.uleb128 0x3a
 3268 00c1 0B       		.uleb128 0xb
 3269 00c2 3B       		.uleb128 0x3b
 3270 00c3 0B       		.uleb128 0xb
 3271 00c4 49       		.uleb128 0x49
 3272 00c5 13       		.uleb128 0x13
 3273 00c6 00       		.byte	0
 3274 00c7 00       		.byte	0
 3275 00c8 13       		.uleb128 0x13
 3276 00c9 0D       		.uleb128 0xd
 3277 00ca 00       		.byte	0
 3278 00cb 03       		.uleb128 0x3
 3279 00cc 08       		.uleb128 0x8
 3280 00cd 3A       		.uleb128 0x3a
 3281 00ce 0B       		.uleb128 0xb
 3282 00cf 3B       		.uleb128 0x3b
 3283 00d0 05       		.uleb128 0x5
 3284 00d1 49       		.uleb128 0x49
 3285 00d2 13       		.uleb128 0x13
 3286 00d3 38       		.uleb128 0x38
 3287 00d4 0B       		.uleb128 0xb
 3288 00d5 00       		.byte	0
 3289 00d6 00       		.byte	0
 3290 00d7 14       		.uleb128 0x14
 3291 00d8 13       		.uleb128 0x13
 3292 00d9 01       		.byte	0x1
 3293 00da 0B       		.uleb128 0xb
 3294 00db 0B       		.uleb128 0xb
 3295 00dc 3A       		.uleb128 0x3a
 3296 00dd 0B       		.uleb128 0xb
 3297 00de 3B       		.uleb128 0x3b
 3298 00df 0B       		.uleb128 0xb
 3299 00e0 01       		.uleb128 0x1
 3300 00e1 13       		.uleb128 0x13
 3301 00e2 00       		.byte	0
 3302 00e3 00       		.byte	0
 3303 00e4 15       		.uleb128 0x15
 3304 00e5 0D       		.uleb128 0xd
 3305 00e6 00       		.byte	0
 3306 00e7 03       		.uleb128 0x3
 3307 00e8 0E       		.uleb128 0xe
 3308 00e9 3A       		.uleb128 0x3a
 3309 00ea 0B       		.uleb128 0xb
 3310 00eb 3B       		.uleb128 0x3b
 3311 00ec 0B       		.uleb128 0xb
 3312 00ed 49       		.uleb128 0x49
 3313 00ee 13       		.uleb128 0x13
 3314 00ef 38       		.uleb128 0x38
 3315 00f0 0B       		.uleb128 0xb
 3316 00f1 00       		.byte	0
 3317 00f2 00       		.byte	0
 3318 00f3 16       		.uleb128 0x16
 3319 00f4 13       		.uleb128 0x13
ARM GAS  C:\Windows\TEMP\ccTU3rlm.s 			page 99


 3320 00f5 01       		.byte	0x1
 3321 00f6 0B       		.uleb128 0xb
 3322 00f7 05       		.uleb128 0x5
 3323 00f8 3A       		.uleb128 0x3a
 3324 00f9 0B       		.uleb128 0xb
 3325 00fa 3B       		.uleb128 0x3b
 3326 00fb 0B       		.uleb128 0xb
 3327 00fc 01       		.uleb128 0x1
 3328 00fd 13       		.uleb128 0x13
 3329 00fe 00       		.byte	0
 3330 00ff 00       		.byte	0
 3331 0100 17       		.uleb128 0x17
 3332 0101 0D       		.uleb128 0xd
 3333 0102 00       		.byte	0
 3334 0103 03       		.uleb128 0x3
 3335 0104 0E       		.uleb128 0xe
 3336 0105 3A       		.uleb128 0x3a
 3337 0106 0B       		.uleb128 0xb
 3338 0107 3B       		.uleb128 0x3b
 3339 0108 0B       		.uleb128 0xb
 3340 0109 49       		.uleb128 0x49
 3341 010a 13       		.uleb128 0x13
 3342 010b 38       		.uleb128 0x38
 3343 010c 05       		.uleb128 0x5
 3344 010d 00       		.byte	0
 3345 010e 00       		.byte	0
 3346 010f 18       		.uleb128 0x18
 3347 0110 21       		.uleb128 0x21
 3348 0111 00       		.byte	0
 3349 0112 49       		.uleb128 0x49
 3350 0113 13       		.uleb128 0x13
 3351 0114 2F       		.uleb128 0x2f
 3352 0115 05       		.uleb128 0x5
 3353 0116 00       		.byte	0
 3354 0117 00       		.byte	0
 3355 0118 19       		.uleb128 0x19
 3356 0119 2E       		.uleb128 0x2e
 3357 011a 00       		.byte	0
 3358 011b 03       		.uleb128 0x3
 3359 011c 0E       		.uleb128 0xe
 3360 011d 3A       		.uleb128 0x3a
 3361 011e 0B       		.uleb128 0xb
 3362 011f 3B       		.uleb128 0x3b
 3363 0120 05       		.uleb128 0x5
 3364 0121 27       		.uleb128 0x27
 3365 0122 19       		.uleb128 0x19
 3366 0123 11       		.uleb128 0x11
 3367 0124 01       		.uleb128 0x1
 3368 0125 12       		.uleb128 0x12
 3369 0126 06       		.uleb128 0x6
 3370 0127 40       		.uleb128 0x40
 3371 0128 18       		.uleb128 0x18
 3372 0129 9742     		.uleb128 0x2117
 3373 012b 19       		.uleb128 0x19
 3374 012c 00       		.byte	0
 3375 012d 00       		.byte	0
 3376 012e 1A       		.uleb128 0x1a
ARM GAS  C:\Windows\TEMP\ccTU3rlm.s 			page 100


 3377 012f 2E       		.uleb128 0x2e
 3378 0130 01       		.byte	0x1
 3379 0131 03       		.uleb128 0x3
 3380 0132 0E       		.uleb128 0xe
 3381 0133 3A       		.uleb128 0x3a
 3382 0134 0B       		.uleb128 0xb
 3383 0135 3B       		.uleb128 0x3b
 3384 0136 0B       		.uleb128 0xb
 3385 0137 27       		.uleb128 0x27
 3386 0138 19       		.uleb128 0x19
 3387 0139 11       		.uleb128 0x11
 3388 013a 01       		.uleb128 0x1
 3389 013b 12       		.uleb128 0x12
 3390 013c 06       		.uleb128 0x6
 3391 013d 40       		.uleb128 0x40
 3392 013e 18       		.uleb128 0x18
 3393 013f 9742     		.uleb128 0x2117
 3394 0141 19       		.uleb128 0x19
 3395 0142 01       		.uleb128 0x1
 3396 0143 13       		.uleb128 0x13
 3397 0144 00       		.byte	0
 3398 0145 00       		.byte	0
 3399 0146 1B       		.uleb128 0x1b
 3400 0147 05       		.uleb128 0x5
 3401 0148 00       		.byte	0
 3402 0149 03       		.uleb128 0x3
 3403 014a 0E       		.uleb128 0xe
 3404 014b 3A       		.uleb128 0x3a
 3405 014c 0B       		.uleb128 0xb
 3406 014d 3B       		.uleb128 0x3b
 3407 014e 0B       		.uleb128 0xb
 3408 014f 49       		.uleb128 0x49
 3409 0150 13       		.uleb128 0x13
 3410 0151 02       		.uleb128 0x2
 3411 0152 17       		.uleb128 0x17
 3412 0153 00       		.byte	0
 3413 0154 00       		.byte	0
 3414 0155 1C       		.uleb128 0x1c
 3415 0156 34       		.uleb128 0x34
 3416 0157 00       		.byte	0
 3417 0158 03       		.uleb128 0x3
 3418 0159 0E       		.uleb128 0xe
 3419 015a 3A       		.uleb128 0x3a
 3420 015b 0B       		.uleb128 0xb
 3421 015c 3B       		.uleb128 0x3b
 3422 015d 0B       		.uleb128 0xb
 3423 015e 49       		.uleb128 0x49
 3424 015f 13       		.uleb128 0x13
 3425 0160 02       		.uleb128 0x2
 3426 0161 17       		.uleb128 0x17
 3427 0162 00       		.byte	0
 3428 0163 00       		.byte	0
 3429 0164 1D       		.uleb128 0x1d
 3430 0165 0B       		.uleb128 0xb
 3431 0166 01       		.byte	0x1
 3432 0167 11       		.uleb128 0x11
 3433 0168 01       		.uleb128 0x1
ARM GAS  C:\Windows\TEMP\ccTU3rlm.s 			page 101


 3434 0169 12       		.uleb128 0x12
 3435 016a 06       		.uleb128 0x6
 3436 016b 01       		.uleb128 0x1
 3437 016c 13       		.uleb128 0x13
 3438 016d 00       		.byte	0
 3439 016e 00       		.byte	0
 3440 016f 1E       		.uleb128 0x1e
 3441 0170 34       		.uleb128 0x34
 3442 0171 00       		.byte	0
 3443 0172 03       		.uleb128 0x3
 3444 0173 0E       		.uleb128 0xe
 3445 0174 3A       		.uleb128 0x3a
 3446 0175 0B       		.uleb128 0xb
 3447 0176 3B       		.uleb128 0x3b
 3448 0177 05       		.uleb128 0x5
 3449 0178 49       		.uleb128 0x49
 3450 0179 13       		.uleb128 0x13
 3451 017a 02       		.uleb128 0x2
 3452 017b 18       		.uleb128 0x18
 3453 017c 00       		.byte	0
 3454 017d 00       		.byte	0
 3455 017e 1F       		.uleb128 0x1f
 3456 017f 898201   		.uleb128 0x4109
 3457 0182 01       		.byte	0x1
 3458 0183 11       		.uleb128 0x11
 3459 0184 01       		.uleb128 0x1
 3460 0185 31       		.uleb128 0x31
 3461 0186 13       		.uleb128 0x13
 3462 0187 00       		.byte	0
 3463 0188 00       		.byte	0
 3464 0189 20       		.uleb128 0x20
 3465 018a 8A8201   		.uleb128 0x410a
 3466 018d 00       		.byte	0
 3467 018e 02       		.uleb128 0x2
 3468 018f 18       		.uleb128 0x18
 3469 0190 9142     		.uleb128 0x2111
 3470 0192 18       		.uleb128 0x18
 3471 0193 00       		.byte	0
 3472 0194 00       		.byte	0
 3473 0195 21       		.uleb128 0x21
 3474 0196 898201   		.uleb128 0x4109
 3475 0199 01       		.byte	0x1
 3476 019a 11       		.uleb128 0x11
 3477 019b 01       		.uleb128 0x1
 3478 019c 31       		.uleb128 0x31
 3479 019d 13       		.uleb128 0x13
 3480 019e 01       		.uleb128 0x1
 3481 019f 13       		.uleb128 0x13
 3482 01a0 00       		.byte	0
 3483 01a1 00       		.byte	0
 3484 01a2 22       		.uleb128 0x22
 3485 01a3 898201   		.uleb128 0x4109
 3486 01a6 00       		.byte	0
 3487 01a7 11       		.uleb128 0x11
 3488 01a8 01       		.uleb128 0x1
 3489 01a9 31       		.uleb128 0x31
 3490 01aa 13       		.uleb128 0x13
ARM GAS  C:\Windows\TEMP\ccTU3rlm.s 			page 102


 3491 01ab 00       		.byte	0
 3492 01ac 00       		.byte	0
 3493 01ad 23       		.uleb128 0x23
 3494 01ae 2E       		.uleb128 0x2e
 3495 01af 01       		.byte	0x1
 3496 01b0 03       		.uleb128 0x3
 3497 01b1 0E       		.uleb128 0xe
 3498 01b2 3A       		.uleb128 0x3a
 3499 01b3 0B       		.uleb128 0xb
 3500 01b4 3B       		.uleb128 0x3b
 3501 01b5 05       		.uleb128 0x5
 3502 01b6 27       		.uleb128 0x27
 3503 01b7 19       		.uleb128 0x19
 3504 01b8 11       		.uleb128 0x11
 3505 01b9 01       		.uleb128 0x1
 3506 01ba 12       		.uleb128 0x12
 3507 01bb 06       		.uleb128 0x6
 3508 01bc 40       		.uleb128 0x40
 3509 01bd 18       		.uleb128 0x18
 3510 01be 9742     		.uleb128 0x2117
 3511 01c0 19       		.uleb128 0x19
 3512 01c1 01       		.uleb128 0x1
 3513 01c2 13       		.uleb128 0x13
 3514 01c3 00       		.byte	0
 3515 01c4 00       		.byte	0
 3516 01c5 24       		.uleb128 0x24
 3517 01c6 05       		.uleb128 0x5
 3518 01c7 00       		.byte	0
 3519 01c8 03       		.uleb128 0x3
 3520 01c9 0E       		.uleb128 0xe
 3521 01ca 3A       		.uleb128 0x3a
 3522 01cb 0B       		.uleb128 0xb
 3523 01cc 3B       		.uleb128 0x3b
 3524 01cd 05       		.uleb128 0x5
 3525 01ce 49       		.uleb128 0x49
 3526 01cf 13       		.uleb128 0x13
 3527 01d0 02       		.uleb128 0x2
 3528 01d1 17       		.uleb128 0x17
 3529 01d2 00       		.byte	0
 3530 01d3 00       		.byte	0
 3531 01d4 25       		.uleb128 0x25
 3532 01d5 26       		.uleb128 0x26
 3533 01d6 00       		.byte	0
 3534 01d7 49       		.uleb128 0x49
 3535 01d8 13       		.uleb128 0x13
 3536 01d9 00       		.byte	0
 3537 01da 00       		.byte	0
 3538 01db 26       		.uleb128 0x26
 3539 01dc 2E       		.uleb128 0x2e
 3540 01dd 01       		.byte	0x1
 3541 01de 3F       		.uleb128 0x3f
 3542 01df 19       		.uleb128 0x19
 3543 01e0 03       		.uleb128 0x3
 3544 01e1 0E       		.uleb128 0xe
 3545 01e2 3A       		.uleb128 0x3a
 3546 01e3 0B       		.uleb128 0xb
 3547 01e4 3B       		.uleb128 0x3b
ARM GAS  C:\Windows\TEMP\ccTU3rlm.s 			page 103


 3548 01e5 05       		.uleb128 0x5
 3549 01e6 27       		.uleb128 0x27
 3550 01e7 19       		.uleb128 0x19
 3551 01e8 49       		.uleb128 0x49
 3552 01e9 13       		.uleb128 0x13
 3553 01ea 11       		.uleb128 0x11
 3554 01eb 01       		.uleb128 0x1
 3555 01ec 12       		.uleb128 0x12
 3556 01ed 06       		.uleb128 0x6
 3557 01ee 40       		.uleb128 0x40
 3558 01ef 18       		.uleb128 0x18
 3559 01f0 9742     		.uleb128 0x2117
 3560 01f2 19       		.uleb128 0x19
 3561 01f3 01       		.uleb128 0x1
 3562 01f4 13       		.uleb128 0x13
 3563 01f5 00       		.byte	0
 3564 01f6 00       		.byte	0
 3565 01f7 27       		.uleb128 0x27
 3566 01f8 34       		.uleb128 0x34
 3567 01f9 00       		.byte	0
 3568 01fa 03       		.uleb128 0x3
 3569 01fb 08       		.uleb128 0x8
 3570 01fc 3A       		.uleb128 0x3a
 3571 01fd 0B       		.uleb128 0xb
 3572 01fe 3B       		.uleb128 0x3b
 3573 01ff 05       		.uleb128 0x5
 3574 0200 49       		.uleb128 0x49
 3575 0201 13       		.uleb128 0x13
 3576 0202 02       		.uleb128 0x2
 3577 0203 17       		.uleb128 0x17
 3578 0204 00       		.byte	0
 3579 0205 00       		.byte	0
 3580 0206 28       		.uleb128 0x28
 3581 0207 34       		.uleb128 0x34
 3582 0208 00       		.byte	0
 3583 0209 03       		.uleb128 0x3
 3584 020a 0E       		.uleb128 0xe
 3585 020b 3A       		.uleb128 0x3a
 3586 020c 0B       		.uleb128 0xb
 3587 020d 3B       		.uleb128 0x3b
 3588 020e 05       		.uleb128 0x5
 3589 020f 49       		.uleb128 0x49
 3590 0210 13       		.uleb128 0x13
 3591 0211 02       		.uleb128 0x2
 3592 0212 17       		.uleb128 0x17
 3593 0213 00       		.byte	0
 3594 0214 00       		.byte	0
 3595 0215 29       		.uleb128 0x29
 3596 0216 2E       		.uleb128 0x2e
 3597 0217 01       		.byte	0x1
 3598 0218 3F       		.uleb128 0x3f
 3599 0219 19       		.uleb128 0x19
 3600 021a 03       		.uleb128 0x3
 3601 021b 0E       		.uleb128 0xe
 3602 021c 3A       		.uleb128 0x3a
 3603 021d 0B       		.uleb128 0xb
 3604 021e 3B       		.uleb128 0x3b
ARM GAS  C:\Windows\TEMP\ccTU3rlm.s 			page 104


 3605 021f 05       		.uleb128 0x5
 3606 0220 27       		.uleb128 0x27
 3607 0221 19       		.uleb128 0x19
 3608 0222 11       		.uleb128 0x11
 3609 0223 01       		.uleb128 0x1
 3610 0224 12       		.uleb128 0x12
 3611 0225 06       		.uleb128 0x6
 3612 0226 40       		.uleb128 0x40
 3613 0227 18       		.uleb128 0x18
 3614 0228 9742     		.uleb128 0x2117
 3615 022a 19       		.uleb128 0x19
 3616 022b 01       		.uleb128 0x1
 3617 022c 13       		.uleb128 0x13
 3618 022d 00       		.byte	0
 3619 022e 00       		.byte	0
 3620 022f 2A       		.uleb128 0x2a
 3621 0230 0B       		.uleb128 0xb
 3622 0231 01       		.byte	0x1
 3623 0232 11       		.uleb128 0x11
 3624 0233 01       		.uleb128 0x1
 3625 0234 12       		.uleb128 0x12
 3626 0235 06       		.uleb128 0x6
 3627 0236 00       		.byte	0
 3628 0237 00       		.byte	0
 3629 0238 2B       		.uleb128 0x2b
 3630 0239 898201   		.uleb128 0x4109
 3631 023c 01       		.byte	0x1
 3632 023d 11       		.uleb128 0x11
 3633 023e 01       		.uleb128 0x1
 3634 023f 00       		.byte	0
 3635 0240 00       		.byte	0
 3636 0241 2C       		.uleb128 0x2c
 3637 0242 34       		.uleb128 0x34
 3638 0243 00       		.byte	0
 3639 0244 03       		.uleb128 0x3
 3640 0245 0E       		.uleb128 0xe
 3641 0246 3A       		.uleb128 0x3a
 3642 0247 0B       		.uleb128 0xb
 3643 0248 3B       		.uleb128 0x3b
 3644 0249 05       		.uleb128 0x5
 3645 024a 49       		.uleb128 0x49
 3646 024b 13       		.uleb128 0x13
 3647 024c 00       		.byte	0
 3648 024d 00       		.byte	0
 3649 024e 2D       		.uleb128 0x2d
 3650 024f 34       		.uleb128 0x34
 3651 0250 00       		.byte	0
 3652 0251 03       		.uleb128 0x3
 3653 0252 0E       		.uleb128 0xe
 3654 0253 3A       		.uleb128 0x3a
 3655 0254 0B       		.uleb128 0xb
 3656 0255 3B       		.uleb128 0x3b
 3657 0256 05       		.uleb128 0x5
 3658 0257 49       		.uleb128 0x49
 3659 0258 13       		.uleb128 0x13
 3660 0259 3F       		.uleb128 0x3f
 3661 025a 19       		.uleb128 0x19
ARM GAS  C:\Windows\TEMP\ccTU3rlm.s 			page 105


 3662 025b 3C       		.uleb128 0x3c
 3663 025c 19       		.uleb128 0x19
 3664 025d 00       		.byte	0
 3665 025e 00       		.byte	0
 3666 025f 2E       		.uleb128 0x2e
 3667 0260 34       		.uleb128 0x34
 3668 0261 00       		.byte	0
 3669 0262 03       		.uleb128 0x3
 3670 0263 0E       		.uleb128 0xe
 3671 0264 3A       		.uleb128 0x3a
 3672 0265 0B       		.uleb128 0xb
 3673 0266 3B       		.uleb128 0x3b
 3674 0267 0B       		.uleb128 0xb
 3675 0268 49       		.uleb128 0x49
 3676 0269 13       		.uleb128 0x13
 3677 026a 3F       		.uleb128 0x3f
 3678 026b 19       		.uleb128 0x19
 3679 026c 02       		.uleb128 0x2
 3680 026d 18       		.uleb128 0x18
 3681 026e 00       		.byte	0
 3682 026f 00       		.byte	0
 3683 0270 2F       		.uleb128 0x2f
 3684 0271 34       		.uleb128 0x34
 3685 0272 00       		.byte	0
 3686 0273 03       		.uleb128 0x3
 3687 0274 0E       		.uleb128 0xe
 3688 0275 3A       		.uleb128 0x3a
 3689 0276 0B       		.uleb128 0xb
 3690 0277 3B       		.uleb128 0x3b
 3691 0278 0B       		.uleb128 0xb
 3692 0279 49       		.uleb128 0x49
 3693 027a 13       		.uleb128 0x13
 3694 027b 3F       		.uleb128 0x3f
 3695 027c 19       		.uleb128 0x19
 3696 027d 3C       		.uleb128 0x3c
 3697 027e 19       		.uleb128 0x19
 3698 027f 00       		.byte	0
 3699 0280 00       		.byte	0
 3700 0281 30       		.uleb128 0x30
 3701 0282 2E       		.uleb128 0x2e
 3702 0283 00       		.byte	0
 3703 0284 3F       		.uleb128 0x3f
 3704 0285 19       		.uleb128 0x19
 3705 0286 3C       		.uleb128 0x3c
 3706 0287 19       		.uleb128 0x19
 3707 0288 6E       		.uleb128 0x6e
 3708 0289 0E       		.uleb128 0xe
 3709 028a 03       		.uleb128 0x3
 3710 028b 0E       		.uleb128 0xe
 3711 028c 3A       		.uleb128 0x3a
 3712 028d 0B       		.uleb128 0xb
 3713 028e 3B       		.uleb128 0x3b
 3714 028f 05       		.uleb128 0x5
 3715 0290 00       		.byte	0
 3716 0291 00       		.byte	0
 3717 0292 31       		.uleb128 0x31
 3718 0293 2E       		.uleb128 0x2e
ARM GAS  C:\Windows\TEMP\ccTU3rlm.s 			page 106


 3719 0294 00       		.byte	0
 3720 0295 3F       		.uleb128 0x3f
 3721 0296 19       		.uleb128 0x19
 3722 0297 3C       		.uleb128 0x3c
 3723 0298 19       		.uleb128 0x19
 3724 0299 6E       		.uleb128 0x6e
 3725 029a 0E       		.uleb128 0xe
 3726 029b 03       		.uleb128 0x3
 3727 029c 0E       		.uleb128 0xe
 3728 029d 3A       		.uleb128 0x3a
 3729 029e 0B       		.uleb128 0xb
 3730 029f 3B       		.uleb128 0x3b
 3731 02a0 0B       		.uleb128 0xb
 3732 02a1 00       		.byte	0
 3733 02a2 00       		.byte	0
 3734 02a3 32       		.uleb128 0x32
 3735 02a4 2E       		.uleb128 0x2e
 3736 02a5 00       		.byte	0
 3737 02a6 3F       		.uleb128 0x3f
 3738 02a7 19       		.uleb128 0x19
 3739 02a8 3C       		.uleb128 0x3c
 3740 02a9 19       		.uleb128 0x19
 3741 02aa 6E       		.uleb128 0x6e
 3742 02ab 0E       		.uleb128 0xe
 3743 02ac 03       		.uleb128 0x3
 3744 02ad 0E       		.uleb128 0xe
 3745 02ae 00       		.byte	0
 3746 02af 00       		.byte	0
 3747 02b0 00       		.byte	0
 3748              		.section	.debug_loc,"",%progbits
 3749              	.Ldebug_loc0:
 3750              	.LLST0:
 3751 0000 00000000 		.4byte	.LVL0
 3752 0004 09000000 		.4byte	.LVL1-1
 3753 0008 0100     		.2byte	0x1
 3754 000a 50       		.byte	0x50
 3755 000b 09000000 		.4byte	.LVL1-1
 3756 000f 44000000 		.4byte	.LVL9
 3757 0013 0100     		.2byte	0x1
 3758 0015 54       		.byte	0x54
 3759 0016 44000000 		.4byte	.LVL9
 3760 001a 4C000000 		.4byte	.LFE2
 3761 001e 0400     		.2byte	0x4
 3762 0020 F3       		.byte	0xf3
 3763 0021 01       		.uleb128 0x1
 3764 0022 50       		.byte	0x50
 3765 0023 9F       		.byte	0x9f
 3766 0024 00000000 		.4byte	0
 3767 0028 00000000 		.4byte	0
 3768              	.LLST1:
 3769 002c 0A000000 		.4byte	.LVL1
 3770 0030 18000000 		.4byte	.LVL2
 3771 0034 0100     		.2byte	0x1
 3772 0036 50       		.byte	0x50
 3773 0037 1C000000 		.4byte	.LVL3
 3774 003b 36000000 		.4byte	.LVL4
 3775 003f 0100     		.2byte	0x1
ARM GAS  C:\Windows\TEMP\ccTU3rlm.s 			page 107


 3776 0041 50       		.byte	0x50
 3777 0042 36000000 		.4byte	.LVL4
 3778 0046 39000000 		.4byte	.LVL5-1
 3779 004a 0200     		.2byte	0x2
 3780 004c 71       		.byte	0x71
 3781 004d 03       		.sleb128 3
 3782 004e 3C000000 		.4byte	.LVL6
 3783 0052 3E000000 		.4byte	.LVL7
 3784 0056 0100     		.2byte	0x1
 3785 0058 50       		.byte	0x50
 3786 0059 00000000 		.4byte	0
 3787 005d 00000000 		.4byte	0
 3788              	.LLST2:
 3789 0061 00000000 		.4byte	.LVL10
 3790 0065 11000000 		.4byte	.LVL11-1
 3791 0069 0100     		.2byte	0x1
 3792 006b 50       		.byte	0x50
 3793 006c 11000000 		.4byte	.LVL11-1
 3794 0070 18000000 		.4byte	.LFE3
 3795 0074 0400     		.2byte	0x4
 3796 0076 F3       		.byte	0xf3
 3797 0077 01       		.uleb128 0x1
 3798 0078 50       		.byte	0x50
 3799 0079 9F       		.byte	0x9f
 3800 007a 00000000 		.4byte	0
 3801 007e 00000000 		.4byte	0
 3802              	.LLST3:
 3803 0082 00000000 		.4byte	.LVL12
 3804 0086 08000000 		.4byte	.LVL13
 3805 008a 0100     		.2byte	0x1
 3806 008c 50       		.byte	0x50
 3807 008d 08000000 		.4byte	.LVL13
 3808 0091 0A000000 		.4byte	.LVL14
 3809 0095 0400     		.2byte	0x4
 3810 0097 F3       		.byte	0xf3
 3811 0098 01       		.uleb128 0x1
 3812 0099 50       		.byte	0x50
 3813 009a 9F       		.byte	0x9f
 3814 009b 0A000000 		.4byte	.LVL14
 3815 009f 1E000000 		.4byte	.LVL19
 3816 00a3 0100     		.2byte	0x1
 3817 00a5 50       		.byte	0x50
 3818 00a6 1E000000 		.4byte	.LVL19
 3819 00aa 20000000 		.4byte	.LVL20
 3820 00ae 0400     		.2byte	0x4
 3821 00b0 F3       		.byte	0xf3
 3822 00b1 01       		.uleb128 0x1
 3823 00b2 50       		.byte	0x50
 3824 00b3 9F       		.byte	0x9f
 3825 00b4 20000000 		.4byte	.LVL20
 3826 00b8 22000000 		.4byte	.LVL21
 3827 00bc 0100     		.2byte	0x1
 3828 00be 50       		.byte	0x50
 3829 00bf 22000000 		.4byte	.LVL21
 3830 00c3 24000000 		.4byte	.LFE7
 3831 00c7 0400     		.2byte	0x4
 3832 00c9 F3       		.byte	0xf3
ARM GAS  C:\Windows\TEMP\ccTU3rlm.s 			page 108


 3833 00ca 01       		.uleb128 0x1
 3834 00cb 50       		.byte	0x50
 3835 00cc 9F       		.byte	0x9f
 3836 00cd 00000000 		.4byte	0
 3837 00d1 00000000 		.4byte	0
 3838              	.LLST4:
 3839 00d5 0A000000 		.4byte	.LVL14
 3840 00d9 12000000 		.4byte	.LVL15
 3841 00dd 0100     		.2byte	0x1
 3842 00df 53       		.byte	0x53
 3843 00e0 14000000 		.4byte	.LVL16
 3844 00e4 16000000 		.4byte	.LVL17
 3845 00e8 0100     		.2byte	0x1
 3846 00ea 53       		.byte	0x53
 3847 00eb 18000000 		.4byte	.LVL18
 3848 00ef 22000000 		.4byte	.LVL21
 3849 00f3 0100     		.2byte	0x1
 3850 00f5 53       		.byte	0x53
 3851 00f6 00000000 		.4byte	0
 3852 00fa 00000000 		.4byte	0
 3853              	.LLST5:
 3854 00fe 00000000 		.4byte	.LVL12
 3855 0102 22000000 		.4byte	.LVL21
 3856 0106 0200     		.2byte	0x2
 3857 0108 30       		.byte	0x30
 3858 0109 9F       		.byte	0x9f
 3859 010a 22000000 		.4byte	.LVL21
 3860 010e 24000000 		.4byte	.LFE7
 3861 0112 0100     		.2byte	0x1
 3862 0114 50       		.byte	0x50
 3863 0115 00000000 		.4byte	0
 3864 0119 00000000 		.4byte	0
 3865              	.LLST6:
 3866 011d 00000000 		.4byte	.LVL22
 3867 0121 8E000000 		.4byte	.LVL24
 3868 0125 0100     		.2byte	0x1
 3869 0127 50       		.byte	0x50
 3870 0128 8E000000 		.4byte	.LVL24
 3871 012c 3E010000 		.4byte	.LVL40
 3872 0130 0400     		.2byte	0x4
 3873 0132 F3       		.byte	0xf3
 3874 0133 01       		.uleb128 0x1
 3875 0134 50       		.byte	0x50
 3876 0135 9F       		.byte	0x9f
 3877 0136 3E010000 		.4byte	.LVL40
 3878 013a 8A010000 		.4byte	.LVL43
 3879 013e 0100     		.2byte	0x1
 3880 0140 50       		.byte	0x50
 3881 0141 8A010000 		.4byte	.LVL43
 3882 0145 B0010000 		.4byte	.LVL46
 3883 0149 0400     		.2byte	0x4
 3884 014b F3       		.byte	0xf3
 3885 014c 01       		.uleb128 0x1
 3886 014d 50       		.byte	0x50
 3887 014e 9F       		.byte	0x9f
 3888 014f B0010000 		.4byte	.LVL46
 3889 0153 28020000 		.4byte	.LVL49
ARM GAS  C:\Windows\TEMP\ccTU3rlm.s 			page 109


 3890 0157 0100     		.2byte	0x1
 3891 0159 50       		.byte	0x50
 3892 015a 28020000 		.4byte	.LVL49
 3893 015e 4E020000 		.4byte	.LVL52
 3894 0162 0400     		.2byte	0x4
 3895 0164 F3       		.byte	0xf3
 3896 0165 01       		.uleb128 0x1
 3897 0166 50       		.byte	0x50
 3898 0167 9F       		.byte	0x9f
 3899 0168 4E020000 		.4byte	.LVL52
 3900 016c 51020000 		.4byte	.LVL53-1
 3901 0170 0100     		.2byte	0x1
 3902 0172 50       		.byte	0x50
 3903 0173 51020000 		.4byte	.LVL53-1
 3904 0177 54020000 		.4byte	.LVL54
 3905 017b 0400     		.2byte	0x4
 3906 017d F3       		.byte	0xf3
 3907 017e 01       		.uleb128 0x1
 3908 017f 50       		.byte	0x50
 3909 0180 9F       		.byte	0x9f
 3910 0181 54020000 		.4byte	.LVL54
 3911 0185 5E020000 		.4byte	.LVL56
 3912 0189 0100     		.2byte	0x1
 3913 018b 50       		.byte	0x50
 3914 018c 5E020000 		.4byte	.LVL56
 3915 0190 64020000 		.4byte	.LVL58
 3916 0194 0400     		.2byte	0x4
 3917 0196 F3       		.byte	0xf3
 3918 0197 01       		.uleb128 0x1
 3919 0198 50       		.byte	0x50
 3920 0199 9F       		.byte	0x9f
 3921 019a 64020000 		.4byte	.LVL58
 3922 019e 66020000 		.4byte	.LVL59
 3923 01a2 0100     		.2byte	0x1
 3924 01a4 50       		.byte	0x50
 3925 01a5 66020000 		.4byte	.LVL59
 3926 01a9 6C020000 		.4byte	.LVL61
 3927 01ad 0400     		.2byte	0x4
 3928 01af F3       		.byte	0xf3
 3929 01b0 01       		.uleb128 0x1
 3930 01b1 50       		.byte	0x50
 3931 01b2 9F       		.byte	0x9f
 3932 01b3 6C020000 		.4byte	.LVL61
 3933 01b7 76020000 		.4byte	.LVL62
 3934 01bb 0100     		.2byte	0x1
 3935 01bd 50       		.byte	0x50
 3936 01be 76020000 		.4byte	.LVL62
 3937 01c2 7C020000 		.4byte	.LVL64
 3938 01c6 0400     		.2byte	0x4
 3939 01c8 F3       		.byte	0xf3
 3940 01c9 01       		.uleb128 0x1
 3941 01ca 50       		.byte	0x50
 3942 01cb 9F       		.byte	0x9f
 3943 01cc 7C020000 		.4byte	.LVL64
 3944 01d0 7E020000 		.4byte	.LVL65
 3945 01d4 0100     		.2byte	0x1
 3946 01d6 50       		.byte	0x50
ARM GAS  C:\Windows\TEMP\ccTU3rlm.s 			page 110


 3947 01d7 7E020000 		.4byte	.LVL65
 3948 01db 84020000 		.4byte	.LVL67
 3949 01df 0400     		.2byte	0x4
 3950 01e1 F3       		.byte	0xf3
 3951 01e2 01       		.uleb128 0x1
 3952 01e3 50       		.byte	0x50
 3953 01e4 9F       		.byte	0x9f
 3954 01e5 84020000 		.4byte	.LVL67
 3955 01e9 8E020000 		.4byte	.LVL68
 3956 01ed 0100     		.2byte	0x1
 3957 01ef 50       		.byte	0x50
 3958 01f0 8E020000 		.4byte	.LVL68
 3959 01f4 00030000 		.4byte	.LFE10
 3960 01f8 0400     		.2byte	0x4
 3961 01fa F3       		.byte	0xf3
 3962 01fb 01       		.uleb128 0x1
 3963 01fc 50       		.byte	0x50
 3964 01fd 9F       		.byte	0x9f
 3965 01fe 00000000 		.4byte	0
 3966 0202 00000000 		.4byte	0
 3967              	.LLST7:
 3968 0206 00000000 		.4byte	.LVL22
 3969 020a 0C000000 		.4byte	.LVL23
 3970 020e 0100     		.2byte	0x1
 3971 0210 51       		.byte	0x51
 3972 0211 0C000000 		.4byte	.LVL23
 3973 0215 AE020000 		.4byte	.LVL70
 3974 0219 0100     		.2byte	0x1
 3975 021b 55       		.byte	0x55
 3976 021c AE020000 		.4byte	.LVL70
 3977 0220 00030000 		.4byte	.LFE10
 3978 0224 0400     		.2byte	0x4
 3979 0226 F3       		.byte	0xf3
 3980 0227 01       		.uleb128 0x1
 3981 0228 51       		.byte	0x51
 3982 0229 9F       		.byte	0x9f
 3983 022a 00000000 		.4byte	0
 3984 022e 00000000 		.4byte	0
 3985              	.LLST8:
 3986 0232 FE000000 		.4byte	.LVL32
 3987 0236 08010000 		.4byte	.LVL33
 3988 023a 0100     		.2byte	0x1
 3989 023c 53       		.byte	0x53
 3990 023d 00000000 		.4byte	0
 3991 0241 00000000 		.4byte	0
 3992              	.LLST9:
 3993 0245 46010000 		.4byte	.LVL41
 3994 0249 6E010000 		.4byte	.LVL42
 3995 024d 0100     		.2byte	0x1
 3996 024f 55       		.byte	0x55
 3997 0250 00000000 		.4byte	0
 3998 0254 00000000 		.4byte	0
 3999              	.LLST10:
 4000 0258 B8010000 		.4byte	.LVL47
 4001 025c C0010000 		.4byte	.LVL48
 4002 0260 0100     		.2byte	0x1
 4003 0262 55       		.byte	0x55
ARM GAS  C:\Windows\TEMP\ccTU3rlm.s 			page 111


 4004 0263 00000000 		.4byte	0
 4005 0267 00000000 		.4byte	0
 4006              	.LLST11:
 4007 026b 5C020000 		.4byte	.LVL55
 4008 026f 61020000 		.4byte	.LVL57-1
 4009 0273 0100     		.2byte	0x1
 4010 0275 51       		.byte	0x51
 4011 0276 00000000 		.4byte	0
 4012 027a 00000000 		.4byte	0
 4013              		.section	.debug_aranges,"",%progbits
 4014 0000 3C000000 		.4byte	0x3c
 4015 0004 0200     		.2byte	0x2
 4016 0006 00000000 		.4byte	.Ldebug_info0
 4017 000a 04       		.byte	0x4
 4018 000b 00       		.byte	0
 4019 000c 0000     		.2byte	0
 4020 000e 0000     		.2byte	0
 4021 0010 00000000 		.4byte	.LFB4
 4022 0014 10000000 		.4byte	.LFE4-.LFB4
 4023 0018 00000000 		.4byte	.LFB2
 4024 001c 4C000000 		.4byte	.LFE2-.LFB2
 4025 0020 00000000 		.4byte	.LFB3
 4026 0024 18000000 		.4byte	.LFE3-.LFB3
 4027 0028 00000000 		.4byte	.LFB7
 4028 002c 24000000 		.4byte	.LFE7-.LFB7
 4029 0030 00000000 		.4byte	.LFB10
 4030 0034 00030000 		.4byte	.LFE10-.LFB10
 4031 0038 00000000 		.4byte	0
 4032 003c 00000000 		.4byte	0
 4033              		.section	.debug_ranges,"",%progbits
 4034              	.Ldebug_ranges0:
 4035 0000 00000000 		.4byte	.LFB4
 4036 0004 10000000 		.4byte	.LFE4
 4037 0008 00000000 		.4byte	.LFB2
 4038 000c 4C000000 		.4byte	.LFE2
 4039 0010 00000000 		.4byte	.LFB3
 4040 0014 18000000 		.4byte	.LFE3
 4041 0018 00000000 		.4byte	.LFB7
 4042 001c 24000000 		.4byte	.LFE7
 4043 0020 00000000 		.4byte	.LFB10
 4044 0024 00030000 		.4byte	.LFE10
 4045 0028 00000000 		.4byte	0
 4046 002c 00000000 		.4byte	0
 4047              		.section	.debug_line,"",%progbits
 4048              	.Ldebug_line0:
 4049 0000 30020000 		.section	.debug_str,"MS",%progbits,1
 4049      02002801 
 4049      00000201 
 4049      FB0E0D00 
 4049      01010101 
 4050              	.LASF353:
 4051 0000 6379426C 		.ascii	"cyBle_peerBonding\000"
 4051      655F7065 
 4051      6572426F 
 4051      6E64696E 
 4051      6700
 4052              	.LASF266:
ARM GAS  C:\Windows\TEMP\ccTU3rlm.s 			page 112


 4053 0012 4359424C 		.ascii	"CYBLE_GATT_ERR_INVALID_CRC\000"
 4053      455F4741 
 4053      54545F45 
 4053      52525F49 
 4053      4E56414C 
 4054              	.LASF16:
 4055 002d 73697A65 		.ascii	"sizetype\000"
 4055      74797065 
 4055      00
 4056              	.LASF192:
 4057 0036 656B6579 		.ascii	"ekeySize\000"
 4057      53697A65 
 4057      00
 4058              	.LASF235:
 4059 003f 4359424C 		.ascii	"CYBLE_GATT_HANDLE_VALUE_CNF\000"
 4059      455F4741 
 4059      54545F48 
 4059      414E444C 
 4059      455F5641 
 4060              	.LASF371:
 4061 005b 4379426C 		.ascii	"CyBle_SetDeviceAddress\000"
 4061      655F5365 
 4061      74446576 
 4061      69636541 
 4061      64647265 
 4062              	.LASF37:
 4063 0072 4359424C 		.ascii	"CYBLE_EVT_GAP_NUMERIC_COMPARISON_REQUEST\000"
 4063      455F4556 
 4063      545F4741 
 4063      505F4E55 
 4063      4D455249 
 4064              	.LASF373:
 4065 009b 4379426C 		.ascii	"CyBle_GapSetIoCap\000"
 4065      655F4761 
 4065      70536574 
 4065      496F4361 
 4065      7000
 4066              	.LASF343:
 4067 00ad 61706952 		.ascii	"apiResult\000"
 4067      6573756C 
 4067      7400
 4068              	.LASF332:
 4069 00b7 4379426C 		.ascii	"CyBle_WriteReqHandler\000"
 4069      655F5772 
 4069      69746552 
 4069      65714861 
 4069      6E646C65 
 4070              	.LASF144:
 4071 00cd 72657175 		.ascii	"request\000"
 4071      65737400 
 4072              	.LASF181:
 4073 00d5 4359424C 		.ascii	"CYBLE_GAP_AUTH_ERROR_CODE_SPEC_MAX_VALUE\000"
 4073      455F4741 
 4073      505F4155 
 4073      54485F45 
 4073      52524F52 
 4074              	.LASF274:
ARM GAS  C:\Windows\TEMP\ccTU3rlm.s 			page 113


 4075 00fe 4359424C 		.ascii	"CYBLE_GATT_ERR_CCCD_IMPROPERLY_CONFIGURED\000"
 4075      455F4741 
 4075      54545F45 
 4075      52525F43 
 4075      4343445F 
 4076              	.LASF334:
 4077 0128 6576656E 		.ascii	"eventParam\000"
 4077      74506172 
 4077      616D00
 4078              	.LASF31:
 4079 0133 4359424C 		.ascii	"CYBLE_EVT_GAP_DEVICE_CONNECTED\000"
 4079      455F4556 
 4079      545F4741 
 4079      505F4445 
 4079      56494345 
 4080              	.LASF164:
 4081 0152 4359424C 		.ascii	"CYBLE_GAP_IOCAP_NOINPUT_NOOUTPUT\000"
 4081      455F4741 
 4081      505F494F 
 4081      4341505F 
 4081      4E4F494E 
 4082              	.LASF49:
 4083 0173 4359424C 		.ascii	"CYBLE_EVT_GATT_CONNECT_IND\000"
 4083      455F4556 
 4083      545F4741 
 4083      54545F43 
 4083      4F4E4E45 
 4084              	.LASF305:
 4085 018e 4359424C 		.ascii	"CYBLE_AIOS_ANALOG\000"
 4085      455F4149 
 4085      4F535F41 
 4085      4E414C4F 
 4085      4700
 4086              	.LASF228:
 4087 01a0 4359424C 		.ascii	"CYBLE_GATT_WRITE_CMD\000"
 4087      455F4741 
 4087      54545F57 
 4087      52495445 
 4087      5F434D44 
 4088              	.LASF11:
 4089 01b5 75696E74 		.ascii	"uint32\000"
 4089      333200
 4090              	.LASF323:
 4091 01bc 67617053 		.ascii	"gapServiceCharHandle\000"
 4091      65727669 
 4091      63654368 
 4091      61724861 
 4091      6E646C65 
 4092              	.LASF138:
 4093 01d1 626C6550 		.ascii	"blePwrLevelInDbm\000"
 4093      77724C65 
 4093      76656C49 
 4093      6E44626D 
 4093      00
 4094              	.LASF240:
 4095 01e2 4359424C 		.ascii	"CYBLE_GATT_ERR_READ_NOT_PERMITTED\000"
 4095      455F4741 
ARM GAS  C:\Windows\TEMP\ccTU3rlm.s 			page 114


 4095      54545F45 
 4095      52525F52 
 4095      4541445F 
 4096              	.LASF255:
 4097 0204 4359424C 		.ascii	"CYBLE_GATT_ERR_INSUFFICIENT_RESOURCE\000"
 4097      455F4741 
 4097      54545F45 
 4097      52525F49 
 4097      4E535546 
 4098              	.LASF336:
 4099 0229 61646472 		.ascii	"addressValid\000"
 4099      65737356 
 4099      616C6964 
 4099      00
 4100              	.LASF229:
 4101 0236 4359424C 		.ascii	"CYBLE_GATT_PREPARE_WRITE_REQ\000"
 4101      455F4741 
 4101      54545F50 
 4101      52455041 
 4101      52455F57 
 4102              	.LASF254:
 4103 0253 4359424C 		.ascii	"CYBLE_GATT_ERR_UNSUPPORTED_GROUP_TYPE\000"
 4103      455F4741 
 4103      54545F45 
 4103      52525F55 
 4103      4E535550 
 4104              	.LASF105:
 4105 0279 4359424C 		.ascii	"CYBLE_ERROR_L2CAP_CONNECTION_ENTITY_NOT_FOUND\000"
 4105      455F4552 
 4105      524F525F 
 4105      4C324341 
 4105      505F434F 
 4106              	.LASF111:
 4107 02a7 4359424C 		.ascii	"CYBLE_ERROR_MIC_AUTH_FAILED\000"
 4107      455F4552 
 4107      524F525F 
 4107      4D49435F 
 4107      41555448 
 4108              	.LASF69:
 4109 02c3 4359424C 		.ascii	"CYBLE_EVT_GATTS_DATA_SIGNED_CMD_REQ\000"
 4109      455F4556 
 4109      545F4741 
 4109      5454535F 
 4109      44415441 
 4110              	.LASF81:
 4111 02e7 4359424C 		.ascii	"CYBLE_EVT_L2CAP_CBFC_RX_CREDIT_IND\000"
 4111      455F4556 
 4111      545F4C32 
 4111      4341505F 
 4111      43424643 
 4112              	.LASF283:
 4113 030a 4359424C 		.ascii	"CYBLE_GATT_VALUE_T\000"
 4113      455F4741 
 4113      54545F56 
 4113      414C5545 
 4113      5F5400
 4114              	.LASF374:
ARM GAS  C:\Windows\TEMP\ccTU3rlm.s 			page 115


 4115 031d 474E5520 		.ascii	"GNU C11 5.4.1 20160609 (release) [ARM/embedded-5-br"
 4115      43313120 
 4115      352E342E 
 4115      31203230 
 4115      31363036 
 4116 0350 616E6368 		.ascii	"anch revision 237715] -mcpu=cortex-m0 -mthumb -g -O"
 4116      20726576 
 4116      6973696F 
 4116      6E203233 
 4116      37373135 
 4117 0383 67202D66 		.ascii	"g -ffunction-sections -ffat-lto-objects\000"
 4117      66756E63 
 4117      74696F6E 
 4117      2D736563 
 4117      74696F6E 
 4118              	.LASF341:
 4119 03ab 6D656D52 		.ascii	"memReq\000"
 4119      657100
 4120              	.LASF223:
 4121 03b2 4359424C 		.ascii	"CYBLE_GATT_READ_MULTIPLE_RSP\000"
 4121      455F4741 
 4121      54545F52 
 4121      4541445F 
 4121      4D554C54 
 4122              	.LASF149:
 4123 03cf 74797065 		.ascii	"type\000"
 4123      00
 4124              	.LASF155:
 4125 03d4 4359424C 		.ascii	"CYBLE_TO_REASON_CODE_T\000"
 4125      455F544F 
 4125      5F524541 
 4125      534F4E5F 
 4125      434F4445 
 4126              	.LASF256:
 4127 03eb 4359424C 		.ascii	"CYBLE_GATT_ERR_TRIGGER_CODITION_VALUE_NOT_SUPPORTED"
 4127      455F4741 
 4127      54545F45 
 4127      52525F54 
 4127      52494747 
 4128 041e 00       		.ascii	"\000"
 4129              	.LASF182:
 4130 041f 4359424C 		.ascii	"CYBLE_GAP_AUTH_ERROR_AUTHENTICATION_TIMEOUT\000"
 4130      455F4741 
 4130      505F4155 
 4130      54485F45 
 4130      52524F52 
 4131              	.LASF174:
 4132 044b 4359424C 		.ascii	"CYBLE_GAP_AUTH_ERROR_UNSPECIFIED_REASON\000"
 4132      455F4741 
 4132      505F4155 
 4132      54485F45 
 4132      52524F52 
 4133              	.LASF217:
 4134 0473 4359424C 		.ascii	"CYBLE_GATT_READ_BY_TYPE_RSP\000"
 4134      455F4741 
 4134      54545F52 
 4134      4541445F 
ARM GAS  C:\Windows\TEMP\ccTU3rlm.s 			page 116


 4134      42595F54 
 4135              	.LASF298:
 4136 048f 4359424C 		.ascii	"CYBLE_CALLBACK_T\000"
 4136      455F4341 
 4136      4C4C4241 
 4136      434B5F54 
 4136      00
 4137              	.LASF66:
 4138 04a0 4359424C 		.ascii	"CYBLE_EVT_GATTC_HANDLE_VALUE_NTF\000"
 4138      455F4556 
 4138      545F4741 
 4138      5454435F 
 4138      48414E44 
 4139              	.LASF25:
 4140 04c1 4359424C 		.ascii	"CYBLE_EVT_GAP_AUTH_REQ\000"
 4140      455F4556 
 4140      545F4741 
 4140      505F4155 
 4140      54485F52 
 4141              	.LASF281:
 4142 04d8 4359424C 		.ascii	"CYBLE_CONN_HANDLE_T\000"
 4142      455F434F 
 4142      4E4E5F48 
 4142      414E444C 
 4142      455F5400 
 4143              	.LASF100:
 4144 04ec 4359424C 		.ascii	"CYBLE_ERROR_BT_ON_NOT_COMPLETED\000"
 4144      455F4552 
 4144      524F525F 
 4144      42545F4F 
 4144      4E5F4E4F 
 4145              	.LASF161:
 4146 050c 4359424C 		.ascii	"CYBLE_GAP_IOCAP_DISPLAY_ONLY\000"
 4146      455F4741 
 4146      505F494F 
 4146      4341505F 
 4146      44495350 
 4147              	.LASF46:
 4148 0529 4359424C 		.ascii	"CYBLE_EVT_GAP_AUTH_REQ_REPLY_ERR\000"
 4148      455F4556 
 4148      545F4741 
 4148      505F4155 
 4148      54485F52 
 4149              	.LASF127:
 4150 054a 4359424C 		.ascii	"CYBLE_LL_PWR_LVL_NEG_3_DBM\000"
 4150      455F4C4C 
 4150      5F505752 
 4150      5F4C564C 
 4150      5F4E4547 
 4151              	.LASF306:
 4152 0565 4359424C 		.ascii	"CYBLE_AIOS_AGGREGATE\000"
 4152      455F4149 
 4152      4F535F41 
 4152      47475245 
 4152      47415445 
 4153              	.LASF320:
 4154 057a 4359424C 		.ascii	"CYBLE_STATE_ADVERTISING\000"
ARM GAS  C:\Windows\TEMP\ccTU3rlm.s 			page 117


 4154      455F5354 
 4154      4154455F 
 4154      41445645 
 4154      52544953 
 4155              	.LASF39:
 4156 0592 4359424C 		.ascii	"CYBLE_EVT_GAP_OOB_GENERATED_NOTIFICATION\000"
 4156      455F4556 
 4156      545F4741 
 4156      505F4F4F 
 4156      425F4745 
 4157              	.LASF364:
 4158 05bb 4379426C 		.ascii	"CyBle_GattsWriteRsp\000"
 4158      655F4761 
 4158      74747357 
 4158      72697465 
 4158      52737000 
 4159              	.LASF279:
 4160 05cf 62644861 		.ascii	"bdHandle\000"
 4160      6E646C65 
 4160      00
 4161              	.LASF268:
 4162 05d8 4359424C 		.ascii	"CYBLE_GATTS_ERR_NETWORK_NOT_AVAILABLE\000"
 4162      455F4741 
 4162      5454535F 
 4162      4552525F 
 4162      4E455457 
 4163              	.LASF167:
 4164 05fe 4359424C 		.ascii	"CYBLE_GAP_AUTH_ERROR_PASSKEY_ENTRY_FAILED\000"
 4164      455F4741 
 4164      505F4155 
 4164      54485F45 
 4164      52524F52 
 4165              	.LASF271:
 4166 0628 4359424C 		.ascii	"CYBLE_GATT_ERR_ANCS_INVALID_COMMAND\000"
 4166      455F4741 
 4166      54545F45 
 4166      52525F41 
 4166      4E43535F 
 4167              	.LASF204:
 4168 064c 6C6F6361 		.ascii	"localResolvablePvtAddr\000"
 4168      6C526573 
 4168      6F6C7661 
 4168      626C6550 
 4168      76744164 
 4169              	.LASF125:
 4170 0663 4359424C 		.ascii	"CYBLE_LL_PWR_LVL_NEG_12_DBM\000"
 4170      455F4C4C 
 4170      5F505752 
 4170      5F4C564C 
 4170      5F4E4547 
 4171              	.LASF211:
 4172 067f 4359424C 		.ascii	"CYBLE_GATT_XCHNG_MTU_RSP\000"
 4172      455F4741 
 4172      54545F58 
 4172      43484E47 
 4172      5F4D5455 
 4173              	.LASF62:
ARM GAS  C:\Windows\TEMP\ccTU3rlm.s 			page 118


 4174 0698 4359424C 		.ascii	"CYBLE_EVT_GATTS_WRITE_CMD_REQ\000"
 4174      455F4556 
 4174      545F4741 
 4174      5454535F 
 4174      57524954 
 4175              	.LASF82:
 4176 06b6 4359424C 		.ascii	"CYBLE_EVT_L2CAP_CBFC_TX_CREDIT_IND\000"
 4176      455F4556 
 4176      545F4C32 
 4176      4341505F 
 4176      43424643 
 4177              	.LASF4:
 4178 06d9 6C6F6E67 		.ascii	"long int\000"
 4178      20696E74 
 4178      00
 4179              	.LASF186:
 4180 06e2 4359424C 		.ascii	"CYBLE_GAP_RANDOM_RESOLVABLE_ADDR_TYPE\000"
 4180      455F4741 
 4180      505F5241 
 4180      4E444F4D 
 4180      5F524553 
 4181              	.LASF156:
 4182 0708 4359424C 		.ascii	"CYBLE_GAP_SEC_LEVEL_1\000"
 4182      455F4741 
 4182      505F5345 
 4182      435F4C45 
 4182      56454C5F 
 4183              	.LASF157:
 4184 071e 4359424C 		.ascii	"CYBLE_GAP_SEC_LEVEL_2\000"
 4184      455F4741 
 4184      505F5345 
 4184      435F4C45 
 4184      56454C5F 
 4185              	.LASF158:
 4186 0734 4359424C 		.ascii	"CYBLE_GAP_SEC_LEVEL_3\000"
 4186      455F4741 
 4186      505F5345 
 4186      435F4C45 
 4186      56454C5F 
 4187              	.LASF159:
 4188 074a 4359424C 		.ascii	"CYBLE_GAP_SEC_LEVEL_4\000"
 4188      455F4741 
 4188      505F5345 
 4188      435F4C45 
 4188      56454C5F 
 4189              	.LASF215:
 4190 0760 4359424C 		.ascii	"CYBLE_GATT_FIND_BY_TYPE_VALUE_RSP\000"
 4190      455F4741 
 4190      54545F46 
 4190      494E445F 
 4190      42595F54 
 4191              	.LASF18:
 4192 0782 4359424C 		.ascii	"CYBLE_EVT_STACK_ON\000"
 4192      455F4556 
 4192      545F5354 
 4192      41434B5F 
 4192      4F4E00
ARM GAS  C:\Windows\TEMP\ccTU3rlm.s 			page 119


 4193              	.LASF107:
 4194 0795 4359424C 		.ascii	"CYBLE_ERROR_L2CAP_PSM_NOT_IN_RANGE\000"
 4194      455F4552 
 4194      524F525F 
 4194      4C324341 
 4194      505F5053 
 4195              	.LASF349:
 4196 07b8 6379426C 		.ascii	"cyBle_deviceAddress\000"
 4196      655F6465 
 4196      76696365 
 4196      41646472 
 4196      65737300 
 4197              	.LASF267:
 4198 07cc 4359424C 		.ascii	"CYBLE_GATTS_ERR_HPS_INVALID_REQUEST\000"
 4198      455F4741 
 4198      5454535F 
 4198      4552525F 
 4198      4850535F 
 4199              	.LASF242:
 4200 07f0 4359424C 		.ascii	"CYBLE_GATT_ERR_INVALID_PDU\000"
 4200      455F4741 
 4200      54545F45 
 4200      52525F49 
 4200      4E56414C 
 4201              	.LASF170:
 4202 080b 4359424C 		.ascii	"CYBLE_GAP_AUTH_ERROR_CONFIRM_VALUE_NOT_MATCH\000"
 4202      455F4741 
 4202      505F4155 
 4202      54485F45 
 4202      52524F52 
 4203              	.LASF120:
 4204 0838 4359424C 		.ascii	"CYBLE_ERROR_CHAR_IS_NOT_DISCOVERED\000"
 4204      455F4552 
 4204      524F525F 
 4204      43484152 
 4204      5F49535F 
 4205              	.LASF286:
 4206 085b 4359424C 		.ascii	"CYBLE_GATT_HANDLE_VALUE_PAIR_T\000"
 4206      455F4741 
 4206      54545F48 
 4206      414E444C 
 4206      455F5641 
 4207              	.LASF139:
 4208 087a 626C6553 		.ascii	"bleSsChId\000"
 4208      73436849 
 4208      6400
 4209              	.LASF75:
 4210 0884 4359424C 		.ascii	"CYBLE_EVT_L2CAP_COMMAND_REJ\000"
 4210      455F4556 
 4210      545F4C32 
 4210      4341505F 
 4210      434F4D4D 
 4211              	.LASF328:
 4212 08a0 7270614F 		.ascii	"rpaOnlyCharHandle\000"
 4212      6E6C7943 
 4212      68617248 
 4212      616E646C 
ARM GAS  C:\Windows\TEMP\ccTU3rlm.s 			page 120


 4212      6500
 4213              	.LASF221:
 4214 08b2 4359424C 		.ascii	"CYBLE_GATT_READ_BLOB_RSP\000"
 4214      455F4741 
 4214      54545F52 
 4214      4541445F 
 4214      424C4F42 
 4215              	.LASF251:
 4216 08cb 4359424C 		.ascii	"CYBLE_GATT_ERR_INVALID_ATTRIBUTE_LEN\000"
 4216      455F4741 
 4216      54545F45 
 4216      52525F49 
 4216      4E56414C 
 4217              	.LASF108:
 4218 08f0 4359424C 		.ascii	"CYBLE_ERROR_GATT_DB_INVALID_ATTR_HANDLE\000"
 4218      455F4552 
 4218      524F525F 
 4218      47415454 
 4218      5F44425F 
 4219              	.LASF0:
 4220 0918 7369676E 		.ascii	"signed char\000"
 4220      65642063 
 4220      68617200 
 4221              	.LASF124:
 4222 0924 4359424C 		.ascii	"CYBLE_LL_PWR_LVL_NEG_18_DBM\000"
 4222      455F4C4C 
 4222      5F505752 
 4222      5F4C564C 
 4222      5F4E4547 
 4223              	.LASF212:
 4224 0940 4359424C 		.ascii	"CYBLE_GATT_FIND_INFO_REQ\000"
 4224      455F4741 
 4224      54545F46 
 4224      494E445F 
 4224      494E464F 
 4225              	.LASF20:
 4226 0959 4359424C 		.ascii	"CYBLE_EVT_HARDWARE_ERROR\000"
 4226      455F4556 
 4226      545F4841 
 4226      52445741 
 4226      52455F45 
 4227              	.LASF379:
 4228 0972 4379426C 		.ascii	"CyBle_EventHandler\000"
 4228      655F4576 
 4228      656E7448 
 4228      616E646C 
 4228      657200
 4229              	.LASF89:
 4230 0985 4359424C 		.ascii	"CYBLE_ERROR_OK\000"
 4230      455F4552 
 4230      524F525F 
 4230      4F4B00
 4231              	.LASF137:
 4232 0994 4359424C 		.ascii	"CYBLE_BLESS_PHY_CH_GRP_ID_T\000"
 4232      455F424C 
 4232      4553535F 
 4232      5048595F 
ARM GAS  C:\Windows\TEMP\ccTU3rlm.s 			page 121


 4232      43485F47 
 4233              	.LASF202:
 4234 09b0 70656572 		.ascii	"peerBdAddr\000"
 4234      42644164 
 4234      647200
 4235              	.LASF208:
 4236 09bb 4359424C 		.ascii	"CYBLE_GAP_ENHANCE_CONN_COMPLETE_T\000"
 4236      455F4741 
 4236      505F454E 
 4236      48414E43 
 4236      455F434F 
 4237              	.LASF53:
 4238 09dd 4359424C 		.ascii	"CYBLE_EVT_GATTC_READ_BY_GROUP_TYPE_RSP\000"
 4238      455F4556 
 4238      545F4741 
 4238      5454435F 
 4238      52454144 
 4239              	.LASF180:
 4240 0a04 4359424C 		.ascii	"CYBLE_GAP_AUTH_ERROR_CROSS_TRANSPORT_KEY_GEN_DER_NO"
 4240      455F4741 
 4240      505F4155 
 4240      54485F45 
 4240      52524F52 
 4241 0a37 545F414C 		.ascii	"T_ALLOWED\000"
 4241      4C4F5745 
 4241      4400
 4242              	.LASF317:
 4243 0a41 4359424C 		.ascii	"CYBLE_STATE_STOPPED\000"
 4243      455F5354 
 4243      4154455F 
 4243      53544F50 
 4243      50454400 
 4244              	.LASF295:
 4245 0a55 4359424C 		.ascii	"CYBLE_GATTS_ERR_PARAM_T\000"
 4245      455F4741 
 4245      5454535F 
 4245      4552525F 
 4245      50415241 
 4246              	.LASF1:
 4247 0a6d 756E7369 		.ascii	"unsigned char\000"
 4247      676E6564 
 4247      20636861 
 4247      7200
 4248              	.LASF52:
 4249 0a7b 4359424C 		.ascii	"CYBLE_EVT_GATTC_XCHNG_MTU_RSP\000"
 4249      455F4556 
 4249      545F4741 
 4249      5454435F 
 4249      5843484E 
 4250              	.LASF234:
 4251 0a99 4359424C 		.ascii	"CYBLE_GATT_HANDLE_VALUE_IND\000"
 4251      455F4741 
 4251      54545F48 
 4251      414E444C 
 4251      455F5641 
 4252              	.LASF43:
 4253 0ab5 4359424C 		.ascii	"CYBLE_EVT_GAP_SMP_NEGOTIATED_AUTH_INFO\000"
ARM GAS  C:\Windows\TEMP\ccTU3rlm.s 			page 122


 4253      455F4556 
 4253      545F4741 
 4253      505F534D 
 4253      505F4E45 
 4254              	.LASF44:
 4255 0adc 4359424C 		.ascii	"CYBLE_EVT_GAP_CONN_ESTB\000"
 4255      455F4556 
 4255      545F4741 
 4255      505F434F 
 4255      4E4E5F45 
 4256              	.LASF294:
 4257 0af4 6572726F 		.ascii	"errorCode\000"
 4257      72436F64 
 4257      6500
 4258              	.LASF176:
 4259 0afe 4359424C 		.ascii	"CYBLE_GAP_AUTH_ERROR_INVALID_PARAMETERS\000"
 4259      455F4741 
 4259      505F4155 
 4259      54485F45 
 4259      52524F52 
 4260              	.LASF146:
 4261 0b26 636F6E66 		.ascii	"configMemory\000"
 4261      69674D65 
 4261      6D6F7279 
 4261      00
 4262              	.LASF79:
 4263 0b33 4359424C 		.ascii	"CYBLE_EVT_L2CAP_CBFC_DISCONN_CNF\000"
 4263      455F4556 
 4263      545F4C32 
 4263      4341505F 
 4263      43424643 
 4264              	.LASF56:
 4265 0b54 4359424C 		.ascii	"CYBLE_EVT_GATTC_FIND_BY_TYPE_VALUE_RSP\000"
 4265      455F4556 
 4265      545F4741 
 4265      5454435F 
 4265      46494E44 
 4266              	.LASF187:
 4267 0b7b 4359424C 		.ascii	"CYBLE_GAP_PUBLIC_IDENTITY_ADDR_TYPE\000"
 4267      455F4741 
 4267      505F5055 
 4267      424C4943 
 4267      5F494445 
 4268              	.LASF40:
 4269 0b9f 4359424C 		.ascii	"CYBLE_EVT_GAP_DATA_LENGTH_CHANGE\000"
 4269      455F4556 
 4269      545F4741 
 4269      505F4441 
 4269      54415F4C 
 4270              	.LASF14:
 4271 0bc0 63686172 		.ascii	"char\000"
 4271      00
 4272              	.LASF128:
 4273 0bc5 4359424C 		.ascii	"CYBLE_LL_PWR_LVL_NEG_2_DBM\000"
 4273      455F4C4C 
 4273      5F505752 
 4273      5F4C564C 
ARM GAS  C:\Windows\TEMP\ccTU3rlm.s 			page 123


 4273      5F4E4547 
 4274              	.LASF227:
 4275 0be0 4359424C 		.ascii	"CYBLE_GATT_WRITE_RSP\000"
 4275      455F4741 
 4275      54545F57 
 4275      52495445 
 4275      5F525350 
 4276              	.LASF311:
 4277 0bf5 4359424C 		.ascii	"CYBLE_AIOS_CHAR_EXTENDED_PROPERTIES\000"
 4277      455F4149 
 4277      4F535F43 
 4277      4841525F 
 4277      45585445 
 4278              	.LASF59:
 4279 0c19 4359424C 		.ascii	"CYBLE_EVT_GATTC_READ_MULTI_RSP\000"
 4279      455F4556 
 4279      545F4741 
 4279      5454435F 
 4279      52454144 
 4280              	.LASF195:
 4281 0c38 4359424C 		.ascii	"CYBLE_GAP_AUTH_INFO_T\000"
 4281      455F4741 
 4281      505F4155 
 4281      54485F49 
 4281      4E464F5F 
 4282              	.LASF163:
 4283 0c4e 4359424C 		.ascii	"CYBLE_GAP_IOCAP_KEYBOARD_ONLY\000"
 4283      455F4741 
 4283      505F494F 
 4283      4341505F 
 4283      4B455942 
 4284              	.LASF17:
 4285 0c6c 4359424C 		.ascii	"CYBLE_EVT_HOST_INVALID\000"
 4285      455F4556 
 4285      545F484F 
 4285      53545F49 
 4285      4E56414C 
 4286              	.LASF263:
 4287 0c83 4359424C 		.ascii	"CYBLE_GATT_ERR_MISSING_CRC\000"
 4287      455F4741 
 4287      54545F45 
 4287      52525F4D 
 4287      49535349 
 4288              	.LASF252:
 4289 0c9e 4359424C 		.ascii	"CYBLE_GATT_ERR_UNLIKELY_ERROR\000"
 4289      455F4741 
 4289      54545F45 
 4289      52525F55 
 4289      4E4C494B 
 4290              	.LASF42:
 4291 0cbc 4359424C 		.ascii	"CYBLE_EVT_GAPC_DIRECT_ADV_REPORT\000"
 4291      455F4556 
 4291      545F4741 
 4291      50435F44 
 4291      49524543 
 4292              	.LASF210:
 4293 0cdd 4359424C 		.ascii	"CYBLE_GATT_XCNHG_MTU_REQ\000"
ARM GAS  C:\Windows\TEMP\ccTU3rlm.s 			page 124


 4293      455F4741 
 4293      54545F58 
 4293      434E4847 
 4293      5F4D5455 
 4294              	.LASF96:
 4295 0cf6 4359424C 		.ascii	"CYBLE_ERROR_NO_DEVICE_ENTITY\000"
 4295      455F4552 
 4295      524F525F 
 4295      4E4F5F44 
 4295      45564943 
 4296              	.LASF58:
 4297 0d13 4359424C 		.ascii	"CYBLE_EVT_GATTC_READ_BLOB_RSP\000"
 4297      455F4556 
 4297      545F4741 
 4297      5454435F 
 4297      52454144 
 4298              	.LASF335:
 4299 0d31 64657669 		.ascii	"deviceAddress\000"
 4299      63654164 
 4299      64726573 
 4299      7300
 4300              	.LASF348:
 4301 0d3f 6379426C 		.ascii	"cyBle_eventHandlerFlag\000"
 4301      655F6576 
 4301      656E7448 
 4301      616E646C 
 4301      6572466C 
 4302              	.LASF65:
 4303 0d56 4359424C 		.ascii	"CYBLE_EVT_GATTC_EXEC_WRITE_RSP\000"
 4303      455F4556 
 4303      545F4741 
 4303      5454435F 
 4303      45584543 
 4304              	.LASF257:
 4305 0d75 4359424C 		.ascii	"CYBLE_GATT_ERR_HEART_RATE_CONTROL_POINT_NOT_SUPPORT"
 4305      455F4741 
 4305      54545F45 
 4305      52525F48 
 4305      45415254 
 4306 0da8 454400   		.ascii	"ED\000"
 4307              	.LASF249:
 4308 0dab 4359424C 		.ascii	"CYBLE_GATT_ERR_ATTRIBUTE_NOT_LONG\000"
 4308      455F4741 
 4308      54545F45 
 4308      52525F41 
 4308      54545249 
 4309              	.LASF160:
 4310 0dcd 4359424C 		.ascii	"CYBLE_GAP_SEC_LEVEL_MASK\000"
 4310      455F4741 
 4310      505F5345 
 4310      435F4C45 
 4310      56454C5F 
 4311              	.LASF70:
 4312 0de6 4359424C 		.ascii	"CYBLE_EVT_GATTC_STOP_CMD_COMPLETE\000"
 4312      455F4556 
 4312      545F4741 
 4312      5454435F 
ARM GAS  C:\Windows\TEMP\ccTU3rlm.s 			page 125


 4312      53544F50 
 4313              	.LASF188:
 4314 0e08 4359424C 		.ascii	"CYBLE_GAP_RANDOM_IDENTITY_ADDR_TYPE\000"
 4314      455F4741 
 4314      505F5241 
 4314      4E444F4D 
 4314      5F494445 
 4315              	.LASF273:
 4316 0e2c 4359424C 		.ascii	"CYBLE_GATT_ERR_ANCS_ACTION_FAILED\000"
 4316      455F4741 
 4316      54545F45 
 4316      52525F41 
 4316      4E43535F 
 4317              	.LASF359:
 4318 0e4e 6379426C 		.ascii	"cyBle_gaps\000"
 4318      655F6761 
 4318      707300
 4319              	.LASF357:
 4320 0e59 6379426C 		.ascii	"cyBle_connHandle\000"
 4320      655F636F 
 4320      6E6E4861 
 4320      6E646C65 
 4320      00
 4321              	.LASF209:
 4322 0e6a 4359424C 		.ascii	"CYBLE_GATT_ERROR_RSP\000"
 4322      455F4741 
 4322      54545F45 
 4322      52524F52 
 4322      5F525350 
 4323              	.LASF116:
 4324 0e7f 4359424C 		.ascii	"CYBLE_ERROR_CONTROLLER_BUSY\000"
 4324      455F4552 
 4324      524F525F 
 4324      434F4E54 
 4324      524F4C4C 
 4325              	.LASF90:
 4326 0e9b 4359424C 		.ascii	"CYBLE_ERROR_INVALID_PARAMETER\000"
 4326      455F4552 
 4326      524F525F 
 4326      494E5641 
 4326      4C49445F 
 4327              	.LASF302:
 4328 0eb9 626F756E 		.ascii	"boundedDevCount\000"
 4328      64656444 
 4328      6576436F 
 4328      756E7400 
 4329              	.LASF179:
 4330 0ec9 4359424C 		.ascii	"CYBLE_GAP_AUTH_ERROR_BR_EDR_PAIRING_IN_PROGRESS\000"
 4330      455F4741 
 4330      505F4155 
 4330      54485F45 
 4330      52524F52 
 4331              	.LASF92:
 4332 0ef9 4359424C 		.ascii	"CYBLE_ERROR_MEMORY_ALLOCATION_FAILED\000"
 4332      455F4552 
 4332      524F525F 
 4332      4D454D4F 
ARM GAS  C:\Windows\TEMP\ccTU3rlm.s 			page 126


 4332      52595F41 
 4333              	.LASF291:
 4334 0f1e 70726570 		.ascii	"prepareWriteQueueSize\000"
 4334      61726557 
 4334      72697465 
 4334      51756575 
 4334      6553697A 
 4335              	.LASF350:
 4336 0f34 6379426C 		.ascii	"cyBle_sflashDeviceAddress\000"
 4336      655F7366 
 4336      6C617368 
 4336      44657669 
 4336      63654164 
 4337              	.LASF300:
 4338 0f4e 61747456 		.ascii	"attValuesCCCDFlashMemory\000"
 4338      616C7565 
 4338      73434343 
 4338      44466C61 
 4338      73684D65 
 4339              	.LASF236:
 4340 0f67 4359424C 		.ascii	"CYBLE_GATT_SIGNED_WRITE_CMD\000"
 4340      455F4741 
 4340      54545F53 
 4340      49474E45 
 4340      445F5752 
 4341              	.LASF264:
 4342 0f83 4359424C 		.ascii	"CYBLE_GATTS_ERR_CCCD_IMPROPERLY_CONFIGURED\000"
 4342      455F4741 
 4342      5454535F 
 4342      4552525F 
 4342      43434344 
 4343              	.LASF375:
 4344 0fae 47656E65 		.ascii	"Generated_Source\\PSoC4\\Bluetooth_eventHandler.c\000"
 4344      72617465 
 4344      645F536F 
 4344      75726365 
 4344      5C50536F 
 4345              	.LASF315:
 4346 0fde 4359424C 		.ascii	"CYBLE_AIOS_NUM_OF_DIGITAL_DESCR\000"
 4346      455F4149 
 4346      4F535F4E 
 4346      554D5F4F 
 4346      465F4449 
 4347              	.LASF232:
 4348 0ffe 4359424C 		.ascii	"CYBLE_GATT_EXECUTE_WRITE_RSP\000"
 4348      455F4741 
 4348      54545F45 
 4348      58454355 
 4348      54455F57 
 4349              	.LASF117:
 4350 101b 4359424C 		.ascii	"CYBLE_ERROR_MAX\000"
 4350      455F4552 
 4350      524F525F 
 4350      4D415800 
 4351              	.LASF74:
 4352 102b 4359424C 		.ascii	"CYBLE_EVT_L2CAP_CONN_PARAM_UPDATE_RSP\000"
 4352      455F4556 
ARM GAS  C:\Windows\TEMP\ccTU3rlm.s 			page 127


 4352      545F4C32 
 4352      4341505F 
 4352      434F4E4E 
 4353              	.LASF183:
 4354 1051 4359424C 		.ascii	"CYBLE_GAP_AUTH_ERROR_LINK_DISCONNECTED\000"
 4354      455F4741 
 4354      505F4155 
 4354      54485F45 
 4354      52524F52 
 4355              	.LASF86:
 4356 1078 4359424C 		.ascii	"CYBLE_EVT_HCI_PKT\000"
 4356      455F4556 
 4356      545F4843 
 4356      495F504B 
 4356      5400
 4357              	.LASF207:
 4358 108a 6D617374 		.ascii	"masterClockAccuracy\000"
 4358      6572436C 
 4358      6F636B41 
 4358      63637572 
 4358      61637900 
 4359              	.LASF299:
 4360 109e 73746163 		.ascii	"stackFlashptr\000"
 4360      6B466C61 
 4360      73687074 
 4360      7200
 4361              	.LASF376:
 4362 10ac 433A5C55 		.ascii	"C:\\Users\\Oleg\\Documents\\Programming\\POK\\Cyber"
 4362      73657273 
 4362      5C4F6C65 
 4362      675C446F 
 4362      63756D65 
 4363 10d9 506F6E67 		.ascii	"Pong\\CyberPong.cydsn\000"
 4363      5C437962 
 4363      6572506F 
 4363      6E672E63 
 4363      7964736E 
 4364              	.LASF258:
 4365 10ee 4359424C 		.ascii	"CYBLE_GATT_ERR_USER_DATA_ACCESS_NOT_PERMITTED\000"
 4365      455F4741 
 4365      54545F45 
 4365      52525F55 
 4365      5345525F 
 4366              	.LASF28:
 4367 111c 4359424C 		.ascii	"CYBLE_EVT_GAP_AUTH_COMPLETE\000"
 4367      455F4556 
 4367      545F4741 
 4367      505F4155 
 4367      54485F43 
 4368              	.LASF29:
 4369 1138 4359424C 		.ascii	"CYBLE_EVT_GAP_AUTH_FAILED\000"
 4369      455F4556 
 4369      545F4741 
 4369      505F4155 
 4369      54485F46 
 4370              	.LASF145:
 4371 1152 616C6C6F 		.ascii	"allocFree\000"
ARM GAS  C:\Windows\TEMP\ccTU3rlm.s 			page 128


 4371      63467265 
 4371      6500
 4372              	.LASF122:
 4373 115c 4359424C 		.ascii	"CYBLE_ERROR_STACK_BUSY\000"
 4373      455F4552 
 4373      524F525F 
 4373      53544143 
 4373      4B5F4255 
 4374              	.LASF225:
 4375 1173 4359424C 		.ascii	"CYBLE_GATT_READ_BY_GROUP_RSP\000"
 4375      455F4741 
 4375      54545F52 
 4375      4541445F 
 4375      42595F47 
 4376              	.LASF93:
 4377 1190 4359424C 		.ascii	"CYBLE_ERROR_INSUFFICIENT_RESOURCES\000"
 4377      455F4552 
 4377      524F525F 
 4377      494E5355 
 4377      46464943 
 4378              	.LASF309:
 4379 11b3 4359424C 		.ascii	"CYBLE_AIOS_CHAR_PRESENTATION_FORMAT\000"
 4379      455F4149 
 4379      4F535F43 
 4379      4841525F 
 4379      50524553 
 4380              	.LASF262:
 4381 11d7 4359424C 		.ascii	"CYBLE_GATT_ERR_OP_CODE_NOT_SUPPORTED\000"
 4381      455F4741 
 4381      54545F45 
 4381      52525F4F 
 4381      505F434F 
 4382              	.LASF131:
 4383 11fc 4359424C 		.ascii	"CYBLE_LL_PWR_LVL_3_DBM\000"
 4383      455F4C4C 
 4383      5F505752 
 4383      5F4C564C 
 4383      5F335F44 
 4384              	.LASF5:
 4385 1213 6C6F6E67 		.ascii	"long unsigned int\000"
 4385      20756E73 
 4385      69676E65 
 4385      6420696E 
 4385      7400
 4386              	.LASF218:
 4387 1225 4359424C 		.ascii	"CYBLE_GATT_READ_REQ\000"
 4387      455F4741 
 4387      54545F52 
 4387      4541445F 
 4387      52455100 
 4388              	.LASF196:
 4389 1239 73746174 		.ascii	"status\000"
 4389      757300
 4390              	.LASF129:
 4391 1240 4359424C 		.ascii	"CYBLE_LL_PWR_LVL_NEG_1_DBM\000"
 4391      455F4C4C 
 4391      5F505752 
ARM GAS  C:\Windows\TEMP\ccTU3rlm.s 			page 129


 4391      5F4C564C 
 4391      5F4E4547 
 4392              	.LASF113:
 4393 125b 4359424C 		.ascii	"CYBLE_ERROR_UNSUPPORTED_FEATURE_OR_PARAMETER_VALUE\000"
 4393      455F4552 
 4393      524F525F 
 4393      554E5355 
 4393      50504F52 
 4394              	.LASF142:
 4395 128e 4359424C 		.ascii	"CYBLE_INVALID_REQUEST\000"
 4395      455F494E 
 4395      56414C49 
 4395      445F5245 
 4395      51554553 
 4396              	.LASF173:
 4397 12a4 4359424C 		.ascii	"CYBLE_GAP_AUTH_ERROR_COMMAND_NOT_SUPPORTED\000"
 4397      455F4741 
 4397      505F4155 
 4397      54485F45 
 4397      52524F52 
 4398              	.LASF169:
 4399 12cf 4359424C 		.ascii	"CYBLE_GAP_AUTH_ERROR_AUTHENTICATION_REQ_NOT_MET\000"
 4399      455F4741 
 4399      505F4155 
 4399      54485F45 
 4399      52524F52 
 4400              	.LASF313:
 4401 12ff 4359424C 		.ascii	"CYBLE_AIOS_TIME_TRIGGER_SETTINGS\000"
 4401      455F4149 
 4401      4F535F54 
 4401      494D455F 
 4401      54524947 
 4402              	.LASF233:
 4403 1320 4359424C 		.ascii	"CYBLE_GATT_HANDLE_VALUE_NTF\000"
 4403      455F4741 
 4403      54545F48 
 4403      414E444C 
 4403      455F5641 
 4404              	.LASF103:
 4405 133c 4359424C 		.ascii	"CYBLE_ERROR_L2CAP_PSM_ALREADY_REGISTERED\000"
 4405      455F4552 
 4405      524F525F 
 4405      4C324341 
 4405      505F5053 
 4406              	.LASF270:
 4407 1365 4359424C 		.ascii	"CYBLE_GATT_ERR_ANCS_UNKNOWN_COMMAND\000"
 4407      455F4741 
 4407      54545F45 
 4407      52525F41 
 4407      4E43535F 
 4408              	.LASF292:
 4409 1389 4359424C 		.ascii	"CYBLE_PREPARE_WRITE_REQUEST_MEMORY_T\000"
 4409      455F5052 
 4409      45504152 
 4409      455F5752 
 4409      4954455F 
 4410              	.LASF34:
ARM GAS  C:\Windows\TEMP\ccTU3rlm.s 			page 130


 4411 13ae 4359424C 		.ascii	"CYBLE_EVT_GAP_CONNECTION_UPDATE_COMPLETE\000"
 4411      455F4556 
 4411      545F4741 
 4411      505F434F 
 4411      4E4E4543 
 4412              	.LASF358:
 4413 13d7 6379426C 		.ascii	"cyBle_busyStatus\000"
 4413      655F6275 
 4413      73795374 
 4413      61747573 
 4413      00
 4414              	.LASF372:
 4415 13e8 4379426C 		.ascii	"CyBle_ChangeAdDeviceAddress\000"
 4415      655F4368 
 4415      616E6765 
 4415      41644465 
 4415      76696365 
 4416              	.LASF318:
 4417 1404 4359424C 		.ascii	"CYBLE_STATE_INITIALIZING\000"
 4417      455F5354 
 4417      4154455F 
 4417      494E4954 
 4417      49414C49 
 4418              	.LASF345:
 4419 141d 6379426C 		.ascii	"cyBle_mtuSize\000"
 4419      655F6D74 
 4419      7553697A 
 4419      6500
 4420              	.LASF175:
 4421 142b 4359424C 		.ascii	"CYBLE_GAP_AUTH_ERROR_REPEATED_ATTEMPTS\000"
 4421      455F4741 
 4421      505F4155 
 4421      54485F45 
 4421      52524F52 
 4422              	.LASF78:
 4423 1452 4359424C 		.ascii	"CYBLE_EVT_L2CAP_CBFC_DISCONN_IND\000"
 4423      455F4556 
 4423      545F4C32 
 4423      4341505F 
 4423      43424643 
 4424              	.LASF26:
 4425 1473 4359424C 		.ascii	"CYBLE_EVT_GAP_PASSKEY_ENTRY_REQUEST\000"
 4425      455F4556 
 4425      545F4741 
 4425      505F5041 
 4425      53534B45 
 4426              	.LASF177:
 4427 1497 4359424C 		.ascii	"CYBLE_GAP_AUTH_ERROR_DHKEY_CHECK_FAILED\000"
 4427      455F4741 
 4427      505F4155 
 4427      54485F45 
 4427      52524F52 
 4428              	.LASF133:
 4429 14bf 4359424C 		.ascii	"CYBLE_BLESS_PWR_LVL_T\000"
 4429      455F424C 
 4429      4553535F 
 4429      5057525F 
ARM GAS  C:\Windows\TEMP\ccTU3rlm.s 			page 131


 4429      4C564C5F 
 4430              	.LASF303:
 4431 14d5 43595F42 		.ascii	"CY_BLE_FLASH_STORAGE\000"
 4431      4C455F46 
 4431      4C415348 
 4431      5F53544F 
 4431      52414745 
 4432              	.LASF355:
 4433 14ea 6379426C 		.ascii	"cyBle_flashStorage\000"
 4433      655F666C 
 4433      61736853 
 4433      746F7261 
 4433      676500
 4434              	.LASF185:
 4435 14fd 4359424C 		.ascii	"CYBLE_GAP_PUBLIC_ADDR_TYPE\000"
 4435      455F4741 
 4435      505F5055 
 4435      424C4943 
 4435      5F414444 
 4436              	.LASF172:
 4437 1518 4359424C 		.ascii	"CYBLE_GAP_AUTH_ERROR_INSUFFICIENT_ENCRYPTION_KEY_SI"
 4437      455F4741 
 4437      505F4155 
 4437      54485F45 
 4437      52524F52 
 4438 154b 5A4500   		.ascii	"ZE\000"
 4439              	.LASF368:
 4440 154e 4379426C 		.ascii	"CyBle_GapSetLeEventMask\000"
 4440      655F4761 
 4440      70536574 
 4440      4C654576 
 4440      656E744D 
 4441              	.LASF6:
 4442 1566 6C6F6E67 		.ascii	"long long int\000"
 4442      206C6F6E 
 4442      6720696E 
 4442      7400
 4443              	.LASF366:
 4444 1574 4379426C 		.ascii	"CyBle_SetTxPowerLevel\000"
 4444      655F5365 
 4444      74547850 
 4444      6F776572 
 4444      4C657665 
 4445              	.LASF377:
 4446 158a 4379426C 		.ascii	"CyBle_GattDisconnectEventHandler\000"
 4446      655F4761 
 4446      74744469 
 4446      73636F6E 
 4446      6E656374 
 4447              	.LASF147:
 4448 15ab 4359424C 		.ascii	"CYBLE_MEMORY_REQUEST_T\000"
 4448      455F4D45 
 4448      4D4F5259 
 4448      5F524551 
 4448      55455354 
 4449              	.LASF190:
 4450 15c2 73656375 		.ascii	"security\000"
ARM GAS  C:\Windows\TEMP\ccTU3rlm.s 			page 132


 4450      72697479 
 4450      00
 4451              	.LASF247:
 4452 15cb 4359424C 		.ascii	"CYBLE_GATT_ERR_PREPARE_WRITE_QUEUE_FULL\000"
 4452      455F4741 
 4452      54545F45 
 4452      52525F50 
 4452      52455041 
 4453              	.LASF104:
 4454 15f3 4359424C 		.ascii	"CYBLE_ERROR_L2CAP_PSM_NOT_REGISTERED\000"
 4454      455F4552 
 4454      524F525F 
 4454      4C324341 
 4454      505F5053 
 4455              	.LASF94:
 4456 1618 4359424C 		.ascii	"CYBLE_ERROR_OOB_NOT_AVAILABLE\000"
 4456      455F4552 
 4456      524F525F 
 4456      4F4F425F 
 4456      4E4F545F 
 4457              	.LASF13:
 4458 1636 646F7562 		.ascii	"double\000"
 4458      6C6500
 4459              	.LASF109:
 4460 163d 4359424C 		.ascii	"CYBLE_ERROR_DEVICE_ALREADY_EXISTS\000"
 4460      455F4552 
 4460      524F525F 
 4460      44455649 
 4460      43455F41 
 4461              	.LASF84:
 4462 165f 4359424C 		.ascii	"CYBLE_EVT_PENDING_FLASH_WRITE\000"
 4462      455F4556 
 4462      545F5045 
 4462      4E44494E 
 4462      475F464C 
 4463              	.LASF250:
 4464 167d 4359424C 		.ascii	"CYBLE_GATT_ERR_INSUFFICIENT_ENC_KEY_SIZE\000"
 4464      455F4741 
 4464      54545F45 
 4464      52525F49 
 4464      4E535546 
 4465              	.LASF132:
 4466 16a6 4359424C 		.ascii	"CYBLE_LL_PWR_LVL_MAX\000"
 4466      455F4C4C 
 4466      5F505752 
 4466      5F4C564C 
 4466      5F4D4158 
 4467              	.LASF324:
 4468 16bb 64657669 		.ascii	"deviceNameCharHandle\000"
 4468      63654E61 
 4468      6D654368 
 4468      61724861 
 4468      6E646C65 
 4469              	.LASF275:
 4470 16d0 4359424C 		.ascii	"CYBLE_GATT_ERR_PROCEDURE_ALREADY_IN_PROGRESS\000"
 4470      455F4741 
 4470      54545F45 
ARM GAS  C:\Windows\TEMP\ccTU3rlm.s 			page 133


 4470      52525F50 
 4470      524F4345 
 4471              	.LASF41:
 4472 16fd 4359424C 		.ascii	"CYBLE_EVT_GAP_ENHANCE_CONN_COMPLETE\000"
 4472      455F4556 
 4472      545F4741 
 4472      505F454E 
 4472      48414E43 
 4473              	.LASF106:
 4474 1721 4359424C 		.ascii	"CYBLE_ERROR_L2CAP_CHANNEL_NOT_FOUND\000"
 4474      455F4552 
 4474      524F525F 
 4474      4C324341 
 4474      505F4348 
 4475              	.LASF97:
 4476 1745 4359424C 		.ascii	"CYBLE_ERROR_REPEATED_ATTEMPTS\000"
 4476      455F4552 
 4476      524F525F 
 4476      52455045 
 4476      41544544 
 4477              	.LASF333:
 4478 1763 4379426C 		.ascii	"CyBle_ValueConfirmation\000"
 4478      655F5661 
 4478      6C756543 
 4478      6F6E6669 
 4478      726D6174 
 4479              	.LASF12:
 4480 177b 666C6F61 		.ascii	"float\000"
 4480      7400
 4481              	.LASF110:
 4482 1781 4359424C 		.ascii	"CYBLE_ERROR_FLASH_WRITE_NOT_PERMITED\000"
 4482      455F4552 
 4482      524F525F 
 4482      464C4153 
 4482      485F5752 
 4483              	.LASF71:
 4484 17a6 4359424C 		.ascii	"CYBLE_EVT_GATTS_READ_CHAR_VAL_ACCESS_REQ\000"
 4484      455F4556 
 4484      545F4741 
 4484      5454535F 
 4484      52454144 
 4485              	.LASF293:
 4486 17cf 6F70636F 		.ascii	"opcode\000"
 4486      646500
 4487              	.LASF246:
 4488 17d6 4359424C 		.ascii	"CYBLE_GATT_ERR_INSUFFICIENT_AUTHORIZATION\000"
 4488      455F4741 
 4488      54545F45 
 4488      52525F49 
 4488      4E535546 
 4489              	.LASF285:
 4490 1800 61747472 		.ascii	"attrHandle\000"
 4490      48616E64 
 4490      6C6500
 4491              	.LASF191:
 4492 180b 626F6E64 		.ascii	"bonding\000"
 4492      696E6700 
ARM GAS  C:\Windows\TEMP\ccTU3rlm.s 			page 134


 4493              	.LASF297:
 4494 1813 4359424C 		.ascii	"CYBLE_GATTS_WRITE_REQ_PARAM_T\000"
 4494      455F4741 
 4494      5454535F 
 4494      57524954 
 4494      455F5245 
 4495              	.LASF8:
 4496 1831 756E7369 		.ascii	"unsigned int\000"
 4496      676E6564 
 4496      20696E74 
 4496      00
 4497              	.LASF63:
 4498 183e 4359424C 		.ascii	"CYBLE_EVT_GATTS_PREP_WRITE_REQ\000"
 4498      455F4556 
 4498      545F4741 
 4498      5454535F 
 4498      50524550 
 4499              	.LASF243:
 4500 185d 4359424C 		.ascii	"CYBLE_GATT_ERR_INSUFFICIENT_AUTHENTICATION\000"
 4500      455F4741 
 4500      54545F45 
 4500      52525F49 
 4500      4E535546 
 4501              	.LASF304:
 4502 1888 4359424C 		.ascii	"CYBLE_AIOS_DIGITAL\000"
 4502      455F4149 
 4502      4F535F44 
 4502      49474954 
 4502      414C00
 4503              	.LASF288:
 4504 189b 4359424C 		.ascii	"CYBLE_GATT_XCHG_MTU_PARAM_T\000"
 4504      455F4741 
 4504      54545F58 
 4504      4348475F 
 4504      4D54555F 
 4505              	.LASF307:
 4506 18b7 4359424C 		.ascii	"CYBLE_AIOS_CHAR_COUNT\000"
 4506      455F4149 
 4506      4F535F43 
 4506      4841525F 
 4506      434F554E 
 4507              	.LASF135:
 4508 18cd 4359424C 		.ascii	"CYBLE_LL_CONN_CH_TYPE\000"
 4508      455F4C4C 
 4508      5F434F4E 
 4508      4E5F4348 
 4508      5F545950 
 4509              	.LASF362:
 4510 18e3 4379426C 		.ascii	"CyBle_GattsWriteEventHandler\000"
 4510      655F4761 
 4510      74747357 
 4510      72697465 
 4510      4576656E 
 4511              	.LASF261:
 4512 1900 4359424C 		.ascii	"CYBLE_GATTS_ERR_PROCEDURE_ALREADY_IN_PROGRESS\000"
 4512      455F4741 
 4512      5454535F 
ARM GAS  C:\Windows\TEMP\ccTU3rlm.s 			page 135


 4512      4552525F 
 4512      50524F43 
 4513              	.LASF203:
 4514 192e 70656572 		.ascii	"peerBdAddrType\000"
 4514      42644164 
 4514      64725479 
 4514      706500
 4515              	.LASF331:
 4516 193d 6572725F 		.ascii	"err_param\000"
 4516      70617261 
 4516      6D00
 4517              	.LASF102:
 4518 1947 4359424C 		.ascii	"CYBLE_ERROR_L2CAP_PSM_WRONG_ENCODING\000"
 4518      455F4552 
 4518      524F525F 
 4518      4C324341 
 4518      505F5053 
 4519              	.LASF230:
 4520 196c 4359424C 		.ascii	"CYBLE_GATT_PREPARE_WRITE_RSP\000"
 4520      455F4741 
 4520      54545F50 
 4520      52455041 
 4520      52455F57 
 4521              	.LASF342:
 4522 1989 67507265 		.ascii	"gPrepWriteReqMem\000"
 4522      70577269 
 4522      74655265 
 4522      714D656D 
 4522      00
 4523              	.LASF248:
 4524 199a 4359424C 		.ascii	"CYBLE_GATT_ERR_ATTRIBUTE_NOT_FOUND\000"
 4524      455F4741 
 4524      54545F45 
 4524      52525F41 
 4524      54545249 
 4525              	.LASF88:
 4526 19bd 4359424C 		.ascii	"CYBLE_EVT_MAX\000"
 4526      455F4556 
 4526      545F4D41 
 4526      5800
 4527              	.LASF35:
 4528 19cb 4359424C 		.ascii	"CYBLE_EVT_GAPC_SCAN_START_STOP\000"
 4528      455F4556 
 4528      545F4741 
 4528      50435F53 
 4528      43414E5F 
 4529              	.LASF378:
 4530 19ea 4379426C 		.ascii	"CyBle_IsDeviceAddressValid\000"
 4530      655F4973 
 4530      44657669 
 4530      63654164 
 4530      64726573 
 4531              	.LASF184:
 4532 1a05 4359424C 		.ascii	"CYBLE_GAP_AUTH_FAILED_REASON_T\000"
 4532      455F4741 
 4532      505F4155 
 4532      54485F46 
ARM GAS  C:\Windows\TEMP\ccTU3rlm.s 			page 136


 4532      41494C45 
 4533              	.LASF60:
 4534 1a24 4359424C 		.ascii	"CYBLE_EVT_GATTS_WRITE_REQ\000"
 4534      455F4556 
 4534      545F4741 
 4534      5454535F 
 4534      57524954 
 4535              	.LASF326:
 4536 1a3e 70726566 		.ascii	"prefConnParamCharHandle\000"
 4536      436F6E6E 
 4536      50617261 
 4536      6D436861 
 4536      7248616E 
 4537              	.LASF27:
 4538 1a56 4359424C 		.ascii	"CYBLE_EVT_GAP_PASSKEY_DISPLAY_REQUEST\000"
 4538      455F4556 
 4538      545F4741 
 4538      505F5041 
 4538      53534B45 
 4539              	.LASF119:
 4540 1a7c 4359424C 		.ascii	"CYBLE_ERROR_IND_DISABLED\000"
 4540      455F4552 
 4540      524F525F 
 4540      494E445F 
 4540      44495341 
 4541              	.LASF118:
 4542 1a95 4359424C 		.ascii	"CYBLE_ERROR_NTF_DISABLED\000"
 4542      455F4552 
 4542      524F525F 
 4542      4E54465F 
 4542      44495341 
 4543              	.LASF222:
 4544 1aae 4359424C 		.ascii	"CYBLE_GATT_READ_MULTIPLE_REQ\000"
 4544      455F4741 
 4544      54545F52 
 4544      4541445F 
 4544      4D554C54 
 4545              	.LASF310:
 4546 1acb 4359424C 		.ascii	"CYBLE_AIOS_CHAR_USER_DESCRIPTION_DESCR\000"
 4546      455F4149 
 4546      4F535F43 
 4546      4841525F 
 4546      55534552 
 4547              	.LASF57:
 4548 1af2 4359424C 		.ascii	"CYBLE_EVT_GATTC_READ_RSP\000"
 4548      455F4556 
 4548      545F4741 
 4548      5454435F 
 4548      52454144 
 4549              	.LASF245:
 4550 1b0b 4359424C 		.ascii	"CYBLE_GATT_ERR_INVALID_OFFSET\000"
 4550      455F4741 
 4550      54545F45 
 4550      52525F49 
 4550      4E56414C 
 4551              	.LASF216:
 4552 1b29 4359424C 		.ascii	"CYBLE_GATT_READ_BY_TYPE_REQ\000"
ARM GAS  C:\Windows\TEMP\ccTU3rlm.s 			page 137


 4552      455F4741 
 4552      54545F52 
 4552      4541445F 
 4552      42595F54 
 4553              	.LASF77:
 4554 1b45 4359424C 		.ascii	"CYBLE_EVT_L2CAP_CBFC_CONN_CNF\000"
 4554      455F4556 
 4554      545F4C32 
 4554      4341505F 
 4554      43424643 
 4555              	.LASF276:
 4556 1b63 4359424C 		.ascii	"CYBLE_GATT_ERR_OUT_OF_RANGE\000"
 4556      455F4741 
 4556      54545F45 
 4556      52525F4F 
 4556      55545F4F 
 4557              	.LASF87:
 4558 1b7f 4359424C 		.ascii	"CYBLE_EVT_FLASH_CORRUPT\000"
 4558      455F4556 
 4558      545F464C 
 4558      4153485F 
 4558      434F5252 
 4559              	.LASF15:
 4560 1b97 6C6F6E67 		.ascii	"long double\000"
 4560      20646F75 
 4560      626C6500 
 4561              	.LASF214:
 4562 1ba3 4359424C 		.ascii	"CYBLE_GATT_FIND_BY_TYPE_VALUE_REQ\000"
 4562      455F4741 
 4562      54545F46 
 4562      494E445F 
 4562      42595F54 
 4563              	.LASF126:
 4564 1bc5 4359424C 		.ascii	"CYBLE_LL_PWR_LVL_NEG_6_DBM\000"
 4564      455F4C4C 
 4564      5F505752 
 4564      5F4C564C 
 4564      5F4E4547 
 4565              	.LASF23:
 4566 1be0 4359424C 		.ascii	"CYBLE_EVT_MEMORY_REQUEST\000"
 4566      455F4556 
 4566      545F4D45 
 4566      4D4F5259 
 4566      5F524551 
 4567              	.LASF325:
 4568 1bf9 61707065 		.ascii	"appearanceCharHandle\000"
 4568      6172616E 
 4568      63654368 
 4568      61724861 
 4568      6E646C65 
 4569              	.LASF370:
 4570 1c0e 4379426C 		.ascii	"CyBle_GattsExchangeMtuRsp\000"
 4570      655F4761 
 4570      74747345 
 4570      78636861 
 4570      6E67654D 
 4571              	.LASF166:
ARM GAS  C:\Windows\TEMP\ccTU3rlm.s 			page 138


 4572 1c28 4359424C 		.ascii	"CYBLE_GAP_AUTH_ERROR_NONE\000"
 4572      455F4741 
 4572      505F4155 
 4572      54485F45 
 4572      52524F52 
 4573              	.LASF33:
 4574 1c42 4359424C 		.ascii	"CYBLE_EVT_GAP_ENCRYPT_CHANGE\000"
 4574      455F4556 
 4574      545F4741 
 4574      505F454E 
 4574      43525950 
 4575              	.LASF363:
 4576 1c5f 4379426C 		.ascii	"CyBle_AiossWriteEventHandler\000"
 4576      655F4169 
 4576      6F737357 
 4576      72697465 
 4576      4576656E 
 4577              	.LASF289:
 4578 1c7c 71756575 		.ascii	"queueBuffer\000"
 4578      65427566 
 4578      66657200 
 4579              	.LASF51:
 4580 1c88 4359424C 		.ascii	"CYBLE_EVT_GATTS_XCNHG_MTU_REQ\000"
 4580      455F4556 
 4580      545F4741 
 4580      5454535F 
 4580      58434E48 
 4581              	.LASF213:
 4582 1ca6 4359424C 		.ascii	"CYBLE_GATT_FIND_INFO_RSP\000"
 4582      455F4741 
 4582      54545F46 
 4582      494E445F 
 4582      494E464F 
 4583              	.LASF168:
 4584 1cbf 4359424C 		.ascii	"CYBLE_GAP_AUTH_ERROR_OOB_DATA_NOT_AVAILABLE\000"
 4584      455F4741 
 4584      505F4155 
 4584      54485F45 
 4584      52524F52 
 4585              	.LASF47:
 4586 1ceb 4359424C 		.ascii	"CYBLE_EVT_GAP_SMP_LOC_P256_KEYS_GEN_AND_SET_COMPLET"
 4586      455F4556 
 4586      545F4741 
 4586      505F534D 
 4586      505F4C4F 
 4587 1d1e 4500     		.ascii	"E\000"
 4588              	.LASF141:
 4589 1d20 4359424C 		.ascii	"CYBLE_PREPARED_WRITE_REQUEST\000"
 4589      455F5052 
 4589      45504152 
 4589      45445F57 
 4589      52495445 
 4590              	.LASF200:
 4591 1d3d 4359424C 		.ascii	"CYBLE_GAP_CONN_PARAM_UPDATED_IN_CONTROLLER_T\000"
 4591      455F4741 
 4591      505F434F 
 4591      4E4E5F50 
ARM GAS  C:\Windows\TEMP\ccTU3rlm.s 			page 139


 4591      4152414D 
 4592              	.LASF7:
 4593 1d6a 6C6F6E67 		.ascii	"long long unsigned int\000"
 4593      206C6F6E 
 4593      6720756E 
 4593      7369676E 
 4593      65642069 
 4594              	.LASF239:
 4595 1d81 4359424C 		.ascii	"CYBLE_GATT_ERR_INVALID_HANDLE\000"
 4595      455F4741 
 4595      54545F45 
 4595      52525F49 
 4595      4E56414C 
 4596              	.LASF19:
 4597 1d9f 4359424C 		.ascii	"CYBLE_EVT_TIMEOUT\000"
 4597      455F4556 
 4597      545F5449 
 4597      4D454F55 
 4597      5400
 4598              	.LASF205:
 4599 1db1 70656572 		.ascii	"peerResolvablePvtAddr\000"
 4599      5265736F 
 4599      6C766162 
 4599      6C655076 
 4599      74416464 
 4600              	.LASF237:
 4601 1dc7 4359424C 		.ascii	"CYBLE_GATT_UNKNOWN_PDU_IND\000"
 4601      455F4741 
 4601      54545F55 
 4601      4E4B4E4F 
 4601      574E5F50 
 4602              	.LASF121:
 4603 1de2 4359424C 		.ascii	"CYBLE_ERROR_INVALID_STATE\000"
 4603      455F4552 
 4603      524F525F 
 4603      494E5641 
 4603      4C49445F 
 4604              	.LASF278:
 4605 1dfc 4359424C 		.ascii	"CYBLE_GATT_DB_ATTR_HANDLE_T\000"
 4605      455F4741 
 4605      54545F44 
 4605      425F4154 
 4605      54525F48 
 4606              	.LASF338:
 4607 1e18 626C6553 		.ascii	"bleSsPowerLevel\000"
 4607      73506F77 
 4607      65724C65 
 4607      76656C00 
 4608              	.LASF80:
 4609 1e28 4359424C 		.ascii	"CYBLE_EVT_L2CAP_CBFC_DATA_READ\000"
 4609      455F4556 
 4609      545F4C32 
 4609      4341505F 
 4609      43424643 
 4610              	.LASF238:
 4611 1e47 4359424C 		.ascii	"CYBLE_GATT_ERR_NONE\000"
 4611      455F4741 
ARM GAS  C:\Windows\TEMP\ccTU3rlm.s 			page 140


 4611      54545F45 
 4611      52525F4E 
 4611      4F4E4500 
 4612              	.LASF284:
 4613 1e5b 76616C75 		.ascii	"value\000"
 4613      6500
 4614              	.LASF290:
 4615 1e61 746F7461 		.ascii	"totalAttrValueLength\000"
 4615      6C417474 
 4615      7256616C 
 4615      75654C65 
 4615      6E677468 
 4616              	.LASF346:
 4617 1e76 4379426C 		.ascii	"CyBle_ApplCallback\000"
 4617      655F4170 
 4617      706C4361 
 4617      6C6C6261 
 4617      636B00
 4618              	.LASF114:
 4619 1e89 4359424C 		.ascii	"CYBLE_ERROR_FLASH_WRITE\000"
 4619      455F4552 
 4619      524F525F 
 4619      464C4153 
 4619      485F5752 
 4620              	.LASF152:
 4621 1ea1 4359424C 		.ascii	"CYBLE_GAP_SCAN_TO\000"
 4621      455F4741 
 4621      505F5343 
 4621      414E5F54 
 4621      4F00
 4622              	.LASF260:
 4623 1eb3 4359424C 		.ascii	"CYBLE_GATT_ERR_HTS_OUT_OF_RANGE\000"
 4623      455F4741 
 4623      54545F45 
 4623      52525F48 
 4623      54535F4F 
 4624              	.LASF329:
 4625 1ed3 4359424C 		.ascii	"CYBLE_GAPS_T\000"
 4625      455F4741 
 4625      50535F54 
 4625      00
 4626              	.LASF150:
 4627 1ee0 4359424C 		.ascii	"CYBLE_GAP_BD_ADDR_T\000"
 4627      455F4741 
 4627      505F4244 
 4627      5F414444 
 4627      525F5400 
 4628              	.LASF220:
 4629 1ef4 4359424C 		.ascii	"CYBLE_GATT_READ_BLOB_REQ\000"
 4629      455F4741 
 4629      54545F52 
 4629      4541445F 
 4629      424C4F42 
 4630              	.LASF151:
 4631 1f0d 4359424C 		.ascii	"CYBLE_GAP_ADV_MODE_TO\000"
 4631      455F4741 
 4631      505F4144 
ARM GAS  C:\Windows\TEMP\ccTU3rlm.s 			page 141


 4631      565F4D4F 
 4631      44455F54 
 4632              	.LASF296:
 4633 1f23 68616E64 		.ascii	"handleValPair\000"
 4633      6C655661 
 4633      6C506169 
 4633      7200
 4634              	.LASF287:
 4635 1f31 636F6E6E 		.ascii	"connHandle\000"
 4635      48616E64 
 4635      6C6500
 4636              	.LASF171:
 4637 1f3c 4359424C 		.ascii	"CYBLE_GAP_AUTH_ERROR_PAIRING_NOT_SUPPORTED\000"
 4637      455F4741 
 4637      505F4155 
 4637      54485F45 
 4637      52524F52 
 4638              	.LASF154:
 4639 1f67 4359424C 		.ascii	"CYBLE_GENERIC_TO\000"
 4639      455F4745 
 4639      4E455249 
 4639      435F544F 
 4639      00
 4640              	.LASF352:
 4641 1f78 6379426C 		.ascii	"cyBle_pendingFlashWrite\000"
 4641      655F7065 
 4641      6E64696E 
 4641      67466C61 
 4641      73685772 
 4642              	.LASF55:
 4643 1f90 4359424C 		.ascii	"CYBLE_EVT_GATTC_FIND_INFO_RSP\000"
 4643      455F4556 
 4643      545F4741 
 4643      5454435F 
 4643      46494E44 
 4644              	.LASF54:
 4645 1fae 4359424C 		.ascii	"CYBLE_EVT_GATTC_READ_BY_TYPE_RSP\000"
 4645      455F4556 
 4645      545F4741 
 4645      5454435F 
 4645      52454144 
 4646              	.LASF265:
 4647 1fcf 4359424C 		.ascii	"CYBLE_GATTS_ERR_OPERATION_FAILED\000"
 4647      455F4741 
 4647      5454535F 
 4647      4552525F 
 4647      4F504552 
 4648              	.LASF356:
 4649 1ff0 6379426C 		.ascii	"cyBle_state\000"
 4649      655F7374 
 4649      61746500 
 4650              	.LASF367:
 4651 1ffc 4379426C 		.ascii	"CyBle_EnableDefaultDevicePrivacy\000"
 4651      655F456E 
 4651      61626C65 
 4651      44656661 
 4651      756C7444 
ARM GAS  C:\Windows\TEMP\ccTU3rlm.s 			page 142


 4652              	.LASF115:
 4653 201d 4359424C 		.ascii	"CYBLE_ERROR_LL_SAME_TRANSACTION_COLLISION\000"
 4653      455F4552 
 4653      524F525F 
 4653      4C4C5F53 
 4653      414D455F 
 4654              	.LASF194:
 4655 2047 70616972 		.ascii	"pairingProperties\000"
 4655      696E6750 
 4655      726F7065 
 4655      72746965 
 4655      7300
 4656              	.LASF61:
 4657 2059 4359424C 		.ascii	"CYBLE_EVT_GATTC_WRITE_RSP\000"
 4657      455F4556 
 4657      545F4741 
 4657      5454435F 
 4657      57524954 
 4658              	.LASF321:
 4659 2073 4359424C 		.ascii	"CYBLE_STATE_DISCONNECTED\000"
 4659      455F5354 
 4659      4154455F 
 4659      44495343 
 4659      4F4E4E45 
 4660              	.LASF340:
 4661 208c 6C654D61 		.ascii	"leMask\000"
 4661      736B00
 4662              	.LASF30:
 4663 2093 4359424C 		.ascii	"CYBLE_EVT_GAPP_ADVERTISEMENT_START_STOP\000"
 4663      455F4556 
 4663      545F4741 
 4663      50505F41 
 4663      44564552 
 4664              	.LASF9:
 4665 20bb 75696E74 		.ascii	"uint8\000"
 4665      3800
 4666              	.LASF351:
 4667 20c1 6379426C 		.ascii	"cyBle_authInfo\000"
 4667      655F6175 
 4667      7468496E 
 4667      666F00
 4668              	.LASF38:
 4669 20d0 4359424C 		.ascii	"CYBLE_EVT_GAP_KEYPRESS_NOTIFICATION\000"
 4669      455F4556 
 4669      545F4741 
 4669      505F4B45 
 4669      59505245 
 4670              	.LASF226:
 4671 20f4 4359424C 		.ascii	"CYBLE_GATT_WRITE_REQ\000"
 4671      455F4741 
 4671      54545F57 
 4671      52495445 
 4671      5F524551 
 4672              	.LASF2:
 4673 2109 73686F72 		.ascii	"short int\000"
 4673      7420696E 
 4673      7400
ARM GAS  C:\Windows\TEMP\ccTU3rlm.s 			page 143


 4674              	.LASF193:
 4675 2113 61757468 		.ascii	"authErr\000"
 4675      45727200 
 4676              	.LASF112:
 4677 211b 4359424C 		.ascii	"CYBLE_ERROR_HARDWARE_FAILURE\000"
 4677      455F4552 
 4677      524F525F 
 4677      48415244 
 4677      57415245 
 4678              	.LASF259:
 4679 2138 4359424C 		.ascii	"CYBLE_GATT_ERR_CPS_INAPPROPRIATE_CONNECTION_PARAMET"
 4679      455F4741 
 4679      54545F45 
 4679      52525F43 
 4679      50535F49 
 4680 216b 45525300 		.ascii	"ERS\000"
 4681              	.LASF244:
 4682 216f 4359424C 		.ascii	"CYBLE_GATT_ERR_REQUEST_NOT_SUPPORTED\000"
 4682      455F4741 
 4682      54545F45 
 4682      52525F52 
 4682      45515545 
 4683              	.LASF48:
 4684 2194 4359424C 		.ascii	"CYBLE_EVT_GATTC_ERROR_RSP\000"
 4684      455F4556 
 4684      545F4741 
 4684      5454435F 
 4684      4552524F 
 4685              	.LASF165:
 4686 21ae 4359424C 		.ascii	"CYBLE_GAP_IOCAP_KEYBOARD_DISPLAY\000"
 4686      455F4741 
 4686      505F494F 
 4686      4341505F 
 4686      4B455942 
 4687              	.LASF322:
 4688 21cf 4359424C 		.ascii	"CYBLE_STATE_T\000"
 4688      455F5354 
 4688      4154455F 
 4688      5400
 4689              	.LASF76:
 4690 21dd 4359424C 		.ascii	"CYBLE_EVT_L2CAP_CBFC_CONN_IND\000"
 4690      455F4556 
 4690      545F4C32 
 4690      4341505F 
 4690      43424643 
 4691              	.LASF64:
 4692 21fb 4359424C 		.ascii	"CYBLE_EVT_GATTS_EXEC_WRITE_REQ\000"
 4692      455F4556 
 4692      545F4741 
 4692      5454535F 
 4692      45584543 
 4693              	.LASF24:
 4694 221a 4359424C 		.ascii	"CYBLE_EVT_GAPC_SCAN_PROGRESS_RESULT\000"
 4694      455F4556 
 4694      545F4741 
 4694      50435F53 
 4694      43414E5F 
ARM GAS  C:\Windows\TEMP\ccTU3rlm.s 			page 144


 4695              	.LASF277:
 4696 223e 4359424C 		.ascii	"CYBLE_GATT_ERR_CODE_T\000"
 4696      455F4741 
 4696      54545F45 
 4696      52525F43 
 4696      4F44455F 
 4697              	.LASF301:
 4698 2254 63636364 		.ascii	"cccdCount\000"
 4698      436F756E 
 4698      7400
 4699              	.LASF272:
 4700 225e 4359424C 		.ascii	"CYBLE_GATT_ERR_ANCS_INVALID_PARAMETER\000"
 4700      455F4741 
 4700      54545F45 
 4700      52525F41 
 4700      4E43535F 
 4701              	.LASF98:
 4702 2284 4359424C 		.ascii	"CYBLE_ERROR_GAP_ROLE\000"
 4702      455F4552 
 4702      524F525F 
 4702      4741505F 
 4702      524F4C45 
 4703              	.LASF347:
 4704 2299 6379426C 		.ascii	"cyBle_stackMemoryRam\000"
 4704      655F7374 
 4704      61636B4D 
 4704      656D6F72 
 4704      7952616D 
 4705              	.LASF360:
 4706 22ae 6379426C 		.ascii	"cyBle_advertisingIntervalType\000"
 4706      655F6164 
 4706      76657274 
 4706      6973696E 
 4706      67496E74 
 4707              	.LASF45:
 4708 22cc 4359424C 		.ascii	"CYBLE_EVT_GAP_SCAN_REQ_RECVD\000"
 4708      455F4556 
 4708      545F4741 
 4708      505F5343 
 4708      414E5F52 
 4709              	.LASF327:
 4710 22e9 63656E74 		.ascii	"centralAddrResolutionCharHandle\000"
 4710      72616C41 
 4710      64647252 
 4710      65736F6C 
 4710      7574696F 
 4711              	.LASF148:
 4712 2309 62644164 		.ascii	"bdAddr\000"
 4712      647200
 4713              	.LASF269:
 4714 2310 4359424C 		.ascii	"CYBLE_GATT_ERR_ANS_COMMAND_NOT_SUPPORTED\000"
 4714      455F4741 
 4714      54545F45 
 4714      52525F41 
 4714      4E535F43 
 4715              	.LASF361:
 4716 2339 4379426C 		.ascii	"CyBle_GattsErrorRsp\000"
ARM GAS  C:\Windows\TEMP\ccTU3rlm.s 			page 145


 4716      655F4761 
 4716      74747345 
 4716      72726F72 
 4716      52737000 
 4717              	.LASF380:
 4718 234d 636F6E6E 		.ascii	"connCParam\000"
 4718      43506172 
 4718      616D00
 4719              	.LASF219:
 4720 2358 4359424C 		.ascii	"CYBLE_GATT_READ_RSP\000"
 4720      455F4741 
 4720      54545F52 
 4720      4541445F 
 4720      52535000 
 4721              	.LASF339:
 4722 236c 62644164 		.ascii	"bdAddrLoc\000"
 4722      64724C6F 
 4722      6300
 4723              	.LASF95:
 4724 2376 4359424C 		.ascii	"CYBLE_ERROR_NO_CONNECTION\000"
 4724      455F4552 
 4724      524F525F 
 4724      4E4F5F43 
 4724      4F4E4E45 
 4725              	.LASF130:
 4726 2390 4359424C 		.ascii	"CYBLE_LL_PWR_LVL_0_DBM\000"
 4726      455F4C4C 
 4726      5F505752 
 4726      5F4C564C 
 4726      5F305F44 
 4727              	.LASF381:
 4728 23a7 6D656D63 		.ascii	"memcpy\000"
 4728      707900
 4729              	.LASF134:
 4730 23ae 4359424C 		.ascii	"CYBLE_LL_ADV_CH_TYPE\000"
 4730      455F4C4C 
 4730      5F414456 
 4730      5F43485F 
 4730      54595045 
 4731              	.LASF85:
 4732 23c3 4359424C 		.ascii	"CYBLE_EVT_LE_PING_AUTH_TIMEOUT\000"
 4732      455F4556 
 4732      545F4C45 
 4732      5F50494E 
 4732      475F4155 
 4733              	.LASF123:
 4734 23e2 4359424C 		.ascii	"CYBLE_API_RESULT_T\000"
 4734      455F4150 
 4734      495F5245 
 4734      53554C54 
 4734      5F5400
 4735              	.LASF354:
 4736 23f5 6379426C 		.ascii	"cyBle_attValuesCCCD\000"
 4736      655F6174 
 4736      7456616C 
 4736      75657343 
 4736      43434400 
ARM GAS  C:\Windows\TEMP\ccTU3rlm.s 			page 146


 4737              	.LASF369:
 4738 2409 4379426C 		.ascii	"CyBle_GappAuthReqReply\000"
 4738      655F4761 
 4738      70704175 
 4738      74685265 
 4738      71526570 
 4739              	.LASF67:
 4740 2420 4359424C 		.ascii	"CYBLE_EVT_GATTC_HANDLE_VALUE_IND\000"
 4740      455F4556 
 4740      545F4741 
 4740      5454435F 
 4740      48414E44 
 4741              	.LASF337:
 4742 2441 6576656E 		.ascii	"eventCode\000"
 4742      74436F64 
 4742      6500
 4743              	.LASF101:
 4744 244b 4359424C 		.ascii	"CYBLE_ERROR_SEC_FAILED\000"
 4744      455F4552 
 4744      524F525F 
 4744      5345435F 
 4744      4641494C 
 4745              	.LASF22:
 4746 2462 4359424C 		.ascii	"CYBLE_EVT_STACK_BUSY_STATUS\000"
 4746      455F4556 
 4746      545F5354 
 4746      41434B5F 
 4746      42555359 
 4747              	.LASF198:
 4748 247e 636F6E6E 		.ascii	"connLatency\000"
 4748      4C617465 
 4748      6E637900 
 4749              	.LASF178:
 4750 248a 4359424C 		.ascii	"CYBLE_GAP_AUTH_ERROR_NUMERIC_COMPARISON_FAILED\000"
 4750      455F4741 
 4750      505F4155 
 4750      54485F45 
 4750      52524F52 
 4751              	.LASF162:
 4752 24b9 4359424C 		.ascii	"CYBLE_GAP_IOCAP_DISPLAY_YESNO\000"
 4752      455F4741 
 4752      505F494F 
 4752      4341505F 
 4752      44495350 
 4753              	.LASF36:
 4754 24d7 4359424C 		.ascii	"CYBLE_EVT_GAP_KEYINFO_EXCHNGE_CMPLT\000"
 4754      455F4556 
 4754      545F4741 
 4754      505F4B45 
 4754      59494E46 
 4755              	.LASF231:
 4756 24fb 4359424C 		.ascii	"CYBLE_GATT_EXECUTE_WRITE_REQ\000"
 4756      455F4741 
 4756      54545F45 
 4756      58454355 
 4756      54455F57 
 4757              	.LASF140:
ARM GAS  C:\Windows\TEMP\ccTU3rlm.s 			page 147


 4758 2518 4359424C 		.ascii	"CYBLE_BLESS_PWR_IN_DB_T\000"
 4758      455F424C 
 4758      4553535F 
 4758      5057525F 
 4758      494E5F44 
 4759              	.LASF136:
 4760 2530 4359424C 		.ascii	"CYBLE_LL_MAX_CH_TYPE\000"
 4760      455F4C4C 
 4760      5F4D4158 
 4760      5F43485F 
 4760      54595045 
 4761              	.LASF73:
 4762 2545 4359424C 		.ascii	"CYBLE_EVT_L2CAP_CONN_PARAM_UPDATE_REQ\000"
 4762      455F4556 
 4762      545F4C32 
 4762      4341505F 
 4762      434F4E4E 
 4763              	.LASF312:
 4764 256b 4359424C 		.ascii	"CYBLE_AIOS_VALUE_TRIGGER_SETTINGS\000"
 4764      455F4149 
 4764      4F535F56 
 4764      414C5545 
 4764      5F545249 
 4765              	.LASF365:
 4766 258d 4379426C 		.ascii	"CyBle_AiossConfirmationEventHandler\000"
 4766      655F4169 
 4766      6F737343 
 4766      6F6E6669 
 4766      726D6174 
 4767              	.LASF143:
 4768 25b1 4359424C 		.ascii	"CYBLE_PROTOCOL_REQ_T\000"
 4768      455F5052 
 4768      4F544F43 
 4768      4F4C5F52 
 4768      45515F54 
 4769              	.LASF330:
 4770 25c6 67617474 		.ascii	"gattErr\000"
 4770      45727200 
 4771              	.LASF241:
 4772 25ce 4359424C 		.ascii	"CYBLE_GATT_ERR_WRITE_NOT_PERMITTED\000"
 4772      455F4741 
 4772      54545F45 
 4772      52525F57 
 4772      52495445 
 4773              	.LASF197:
 4774 25f1 636F6E6E 		.ascii	"connIntv\000"
 4774      496E7476 
 4774      00
 4775              	.LASF3:
 4776 25fa 73686F72 		.ascii	"short unsigned int\000"
 4776      7420756E 
 4776      7369676E 
 4776      65642069 
 4776      6E7400
 4777              	.LASF253:
 4778 260d 4359424C 		.ascii	"CYBLE_GATT_ERR_INSUFFICIENT_ENCRYPTION\000"
 4778      455F4741 
ARM GAS  C:\Windows\TEMP\ccTU3rlm.s 			page 148


 4778      54545F45 
 4778      52525F49 
 4778      4E535546 
 4779              	.LASF206:
 4780 2634 726F6C65 		.ascii	"role\000"
 4780      00
 4781              	.LASF189:
 4782 2639 4359424C 		.ascii	"CYBLE_GAP_ADV_ADDR_TYPE_T\000"
 4782      455F4741 
 4782      505F4144 
 4782      565F4144 
 4782      44525F54 
 4783              	.LASF319:
 4784 2653 4359424C 		.ascii	"CYBLE_STATE_CONNECTED\000"
 4784      455F5354 
 4784      4154455F 
 4784      434F4E4E 
 4784      45435445 
 4785              	.LASF282:
 4786 2669 61637475 		.ascii	"actualLen\000"
 4786      616C4C65 
 4786      6E00
 4787              	.LASF344:
 4788 2673 636F6E6E 		.ascii	"connEnhanceParam\000"
 4788      456E6861 
 4788      6E636550 
 4788      6172616D 
 4788      00
 4789              	.LASF224:
 4790 2684 4359424C 		.ascii	"CYBLE_GATT_READ_BY_GROUP_REQ\000"
 4790      455F4741 
 4790      54545F52 
 4790      4541445F 
 4790      42595F47 
 4791              	.LASF308:
 4792 26a1 4359424C 		.ascii	"CYBLE_AIOS_CCCD\000"
 4792      455F4149 
 4792      4F535F43 
 4792      43434400 
 4793              	.LASF314:
 4794 26b1 4359424C 		.ascii	"CYBLE_AIOS_VRD\000"
 4794      455F4149 
 4794      4F535F56 
 4794      524400
 4795              	.LASF280:
 4796 26c0 61747449 		.ascii	"attId\000"
 4796      6400
 4797              	.LASF91:
 4798 26c6 4359424C 		.ascii	"CYBLE_ERROR_INVALID_OPERATION\000"
 4798      455F4552 
 4798      524F525F 
 4798      494E5641 
 4798      4C49445F 
 4799              	.LASF21:
 4800 26e4 4359424C 		.ascii	"CYBLE_EVT_HCI_STATUS\000"
 4800      455F4556 
 4800      545F4843 
ARM GAS  C:\Windows\TEMP\ccTU3rlm.s 			page 149


 4800      495F5354 
 4800      41545553 
 4801              	.LASF50:
 4802 26f9 4359424C 		.ascii	"CYBLE_EVT_GATT_DISCONNECT_IND\000"
 4802      455F4556 
 4802      545F4741 
 4802      54545F44 
 4802      4953434F 
 4803              	.LASF199:
 4804 2717 73757065 		.ascii	"supervisionTO\000"
 4804      72766973 
 4804      696F6E54 
 4804      4F00
 4805              	.LASF153:
 4806 2725 4359424C 		.ascii	"CYBLE_GATT_RSP_TO\000"
 4806      455F4741 
 4806      54545F52 
 4806      53505F54 
 4806      4F00
 4807              	.LASF83:
 4808 2737 4359424C 		.ascii	"CYBLE_EVT_L2CAP_CBFC_DATA_WRITE_IND\000"
 4808      455F4556 
 4808      545F4C32 
 4808      4341505F 
 4808      43424643 
 4809              	.LASF316:
 4810 275b 4359424C 		.ascii	"CYBLE_AIOS_DESCR_COUNT\000"
 4810      455F4149 
 4810      4F535F44 
 4810      45534352 
 4810      5F434F55 
 4811              	.LASF72:
 4812 2772 4359424C 		.ascii	"CYBLE_EVT_GATTC_LONG_PROCEDURE_END\000"
 4812      455F4556 
 4812      545F4741 
 4812      5454435F 
 4812      4C4F4E47 
 4813              	.LASF201:
 4814 2795 73757065 		.ascii	"supervisionTo\000"
 4814      72766973 
 4814      696F6E54 
 4814      6F00
 4815              	.LASF32:
 4816 27a3 4359424C 		.ascii	"CYBLE_EVT_GAP_DEVICE_DISCONNECTED\000"
 4816      455F4556 
 4816      545F4741 
 4816      505F4445 
 4816      56494345 
 4817              	.LASF68:
 4818 27c5 4359424C 		.ascii	"CYBLE_EVT_GATTS_HANDLE_VALUE_CNF\000"
 4818      455F4556 
 4818      545F4741 
 4818      5454535F 
 4818      48414E44 
 4819              	.LASF10:
 4820 27e6 75696E74 		.ascii	"uint16\000"
 4820      313600
ARM GAS  C:\Windows\TEMP\ccTU3rlm.s 			page 150


 4821              	.LASF99:
 4822 27ed 4359424C 		.ascii	"CYBLE_ERROR_TX_POWER_READ\000"
 4822      455F4552 
 4822      524F525F 
 4822      54585F50 
 4822      4F574552 
 4823              		.ident	"GCC: (GNU Tools for ARM Embedded Processors) 5.4.1 20160609 (release) [ARM/embedded-5-bran
