ARM GAS  C:\Windows\TEMP\ccw00nia.s 			page 1


   1              		.syntax unified
   2              		.cpu cortex-m0
   3              		.fpu softvfp
   4              		.eabi_attribute 20, 1
   5              		.eabi_attribute 21, 1
   6              		.eabi_attribute 23, 3
   7              		.eabi_attribute 24, 1
   8              		.eabi_attribute 25, 1
   9              		.eabi_attribute 26, 1
  10              		.eabi_attribute 30, 1
  11              		.eabi_attribute 34, 0
  12              		.eabi_attribute 18, 4
  13              		.thumb
  14              		.syntax unified
  15              		.file	"cyfitter_cfg.c"
  16              		.text
  17              	.Ltext0:
  18              		.cfi_sections	.debug_frame
  19              		.section	.text.cfg_write_bytes32,"ax",%progbits
  20              		.align	2
  21              		.code	16
  22              		.thumb_func
  23              		.type	cfg_write_bytes32, %function
  24              	cfg_write_bytes32:
  25              	.LFB5:
  26              		.file 1 "Generated_Source\\PSoC4\\cyfitter_cfg.c"
   1:Generated_Source\PSoC4/cyfitter_cfg.c **** 
   2:Generated_Source\PSoC4/cyfitter_cfg.c **** /*******************************************************************************
   3:Generated_Source\PSoC4/cyfitter_cfg.c **** * File Name: cyfitter_cfg.c
   4:Generated_Source\PSoC4/cyfitter_cfg.c **** * 
   5:Generated_Source\PSoC4/cyfitter_cfg.c **** * PSoC Creator  4.4
   6:Generated_Source\PSoC4/cyfitter_cfg.c **** *
   7:Generated_Source\PSoC4/cyfitter_cfg.c **** * Description:
   8:Generated_Source\PSoC4/cyfitter_cfg.c **** * This file contains device initialization code.
   9:Generated_Source\PSoC4/cyfitter_cfg.c **** * Except for the user defined sections in CyClockStartupError(), this file should not be modified.
  10:Generated_Source\PSoC4/cyfitter_cfg.c **** * This file is automatically generated by PSoC Creator.
  11:Generated_Source\PSoC4/cyfitter_cfg.c **** *
  12:Generated_Source\PSoC4/cyfitter_cfg.c **** ********************************************************************************
  13:Generated_Source\PSoC4/cyfitter_cfg.c **** * Copyright (c) 2007-2020 Cypress Semiconductor.  All rights reserved.
  14:Generated_Source\PSoC4/cyfitter_cfg.c **** * You may use this file only in accordance with the license, terms, conditions, 
  15:Generated_Source\PSoC4/cyfitter_cfg.c **** * disclaimers, and limitations in the end user license agreement accompanying 
  16:Generated_Source\PSoC4/cyfitter_cfg.c **** * the software package with which this file was provided.
  17:Generated_Source\PSoC4/cyfitter_cfg.c **** ********************************************************************************/
  18:Generated_Source\PSoC4/cyfitter_cfg.c **** 
  19:Generated_Source\PSoC4/cyfitter_cfg.c **** #include <string.h>
  20:Generated_Source\PSoC4/cyfitter_cfg.c **** #include "cytypes.h"
  21:Generated_Source\PSoC4/cyfitter_cfg.c **** #include "cydevice_trm.h"
  22:Generated_Source\PSoC4/cyfitter_cfg.c **** #include "cyfitter.h"
  23:Generated_Source\PSoC4/cyfitter_cfg.c **** #include "CyLib.h"
  24:Generated_Source\PSoC4/cyfitter_cfg.c **** #include "CyLFClk.h"
  25:Generated_Source\PSoC4/cyfitter_cfg.c **** #include "cyfitter_cfg.h"
  26:Generated_Source\PSoC4/cyfitter_cfg.c **** 
  27:Generated_Source\PSoC4/cyfitter_cfg.c **** 
  28:Generated_Source\PSoC4/cyfitter_cfg.c **** #if defined(__GNUC__) || defined(__ARMCC_VERSION)
  29:Generated_Source\PSoC4/cyfitter_cfg.c ****     #define CYPACKED 
  30:Generated_Source\PSoC4/cyfitter_cfg.c ****     #define CYPACKED_ATTR __attribute__ ((packed))
  31:Generated_Source\PSoC4/cyfitter_cfg.c ****     #define CYALIGNED __attribute__ ((aligned))
ARM GAS  C:\Windows\TEMP\ccw00nia.s 			page 2


  32:Generated_Source\PSoC4/cyfitter_cfg.c ****     #define CY_CFG_UNUSED __attribute__ ((unused))
  33:Generated_Source\PSoC4/cyfitter_cfg.c ****     #ifndef CY_CFG_SECTION
  34:Generated_Source\PSoC4/cyfitter_cfg.c ****         #define CY_CFG_SECTION __attribute__ ((section(".psocinit")))
  35:Generated_Source\PSoC4/cyfitter_cfg.c ****     #endif
  36:Generated_Source\PSoC4/cyfitter_cfg.c ****     
  37:Generated_Source\PSoC4/cyfitter_cfg.c ****     #if defined(__ARMCC_VERSION)
  38:Generated_Source\PSoC4/cyfitter_cfg.c ****         #define CY_CFG_MEMORY_BARRIER() __memory_changed()
  39:Generated_Source\PSoC4/cyfitter_cfg.c ****     #else
  40:Generated_Source\PSoC4/cyfitter_cfg.c ****         #define CY_CFG_MEMORY_BARRIER() __sync_synchronize()
  41:Generated_Source\PSoC4/cyfitter_cfg.c ****     #endif
  42:Generated_Source\PSoC4/cyfitter_cfg.c ****     
  43:Generated_Source\PSoC4/cyfitter_cfg.c **** #elif defined(__ICCARM__)
  44:Generated_Source\PSoC4/cyfitter_cfg.c ****     #include <intrinsics.h>
  45:Generated_Source\PSoC4/cyfitter_cfg.c **** 
  46:Generated_Source\PSoC4/cyfitter_cfg.c ****     #define CYPACKED __packed
  47:Generated_Source\PSoC4/cyfitter_cfg.c ****     #define CYPACKED_ATTR 
  48:Generated_Source\PSoC4/cyfitter_cfg.c ****     #define CYALIGNED _Pragma("data_alignment=4")
  49:Generated_Source\PSoC4/cyfitter_cfg.c ****     #define CY_CFG_UNUSED _Pragma("diag_suppress=Pe177")
  50:Generated_Source\PSoC4/cyfitter_cfg.c ****     #define CY_CFG_SECTION _Pragma("location=\".psocinit\"")
  51:Generated_Source\PSoC4/cyfitter_cfg.c ****     
  52:Generated_Source\PSoC4/cyfitter_cfg.c ****     #define CY_CFG_MEMORY_BARRIER() __DMB()
  53:Generated_Source\PSoC4/cyfitter_cfg.c ****     
  54:Generated_Source\PSoC4/cyfitter_cfg.c **** #else
  55:Generated_Source\PSoC4/cyfitter_cfg.c ****     #error Unsupported toolchain
  56:Generated_Source\PSoC4/cyfitter_cfg.c **** #endif
  57:Generated_Source\PSoC4/cyfitter_cfg.c **** 
  58:Generated_Source\PSoC4/cyfitter_cfg.c **** #ifndef CYCODE
  59:Generated_Source\PSoC4/cyfitter_cfg.c ****     #define CYCODE
  60:Generated_Source\PSoC4/cyfitter_cfg.c **** #endif
  61:Generated_Source\PSoC4/cyfitter_cfg.c **** #ifndef CYDATA
  62:Generated_Source\PSoC4/cyfitter_cfg.c ****     #define CYDATA
  63:Generated_Source\PSoC4/cyfitter_cfg.c **** #endif
  64:Generated_Source\PSoC4/cyfitter_cfg.c **** #ifndef CYFAR
  65:Generated_Source\PSoC4/cyfitter_cfg.c ****     #define CYFAR
  66:Generated_Source\PSoC4/cyfitter_cfg.c **** #endif
  67:Generated_Source\PSoC4/cyfitter_cfg.c **** #ifndef CYXDATA
  68:Generated_Source\PSoC4/cyfitter_cfg.c ****     #define CYXDATA
  69:Generated_Source\PSoC4/cyfitter_cfg.c **** #endif
  70:Generated_Source\PSoC4/cyfitter_cfg.c **** 
  71:Generated_Source\PSoC4/cyfitter_cfg.c **** 
  72:Generated_Source\PSoC4/cyfitter_cfg.c **** CY_CFG_UNUSED
  73:Generated_Source\PSoC4/cyfitter_cfg.c **** static void CYMEMZERO(void *s, size_t n);
  74:Generated_Source\PSoC4/cyfitter_cfg.c **** CY_CFG_UNUSED
  75:Generated_Source\PSoC4/cyfitter_cfg.c **** static void CYMEMZERO(void *s, size_t n)
  76:Generated_Source\PSoC4/cyfitter_cfg.c **** {
  77:Generated_Source\PSoC4/cyfitter_cfg.c **** 	(void)memset(s, 0, n);
  78:Generated_Source\PSoC4/cyfitter_cfg.c **** }
  79:Generated_Source\PSoC4/cyfitter_cfg.c **** CY_CFG_UNUSED
  80:Generated_Source\PSoC4/cyfitter_cfg.c **** static void CYCONFIGCPY(void *dest, const void *src, size_t n);
  81:Generated_Source\PSoC4/cyfitter_cfg.c **** CY_CFG_UNUSED
  82:Generated_Source\PSoC4/cyfitter_cfg.c **** static void CYCONFIGCPY(void *dest, const void *src, size_t n)
  83:Generated_Source\PSoC4/cyfitter_cfg.c **** {
  84:Generated_Source\PSoC4/cyfitter_cfg.c **** 	(void)memcpy(dest, src, n);
  85:Generated_Source\PSoC4/cyfitter_cfg.c **** }
  86:Generated_Source\PSoC4/cyfitter_cfg.c **** CY_CFG_UNUSED
  87:Generated_Source\PSoC4/cyfitter_cfg.c **** static void CYCONFIGCPYCODE(void *dest, const void *src, size_t n);
  88:Generated_Source\PSoC4/cyfitter_cfg.c **** CY_CFG_UNUSED
ARM GAS  C:\Windows\TEMP\ccw00nia.s 			page 3


  89:Generated_Source\PSoC4/cyfitter_cfg.c **** static void CYCONFIGCPYCODE(void *dest, const void *src, size_t n)
  90:Generated_Source\PSoC4/cyfitter_cfg.c **** {
  91:Generated_Source\PSoC4/cyfitter_cfg.c **** 	(void)memcpy(dest, src, n);
  92:Generated_Source\PSoC4/cyfitter_cfg.c **** }
  93:Generated_Source\PSoC4/cyfitter_cfg.c **** 
  94:Generated_Source\PSoC4/cyfitter_cfg.c **** 
  95:Generated_Source\PSoC4/cyfitter_cfg.c **** 
  96:Generated_Source\PSoC4/cyfitter_cfg.c **** 
  97:Generated_Source\PSoC4/cyfitter_cfg.c **** /* Clock startup error codes                                                   */
  98:Generated_Source\PSoC4/cyfitter_cfg.c **** #define CYCLOCKSTART_NO_ERROR    0u
  99:Generated_Source\PSoC4/cyfitter_cfg.c **** #define CYCLOCKSTART_XTAL_ERROR  1u
 100:Generated_Source\PSoC4/cyfitter_cfg.c **** #define CYCLOCKSTART_32KHZ_ERROR 2u
 101:Generated_Source\PSoC4/cyfitter_cfg.c **** #define CYCLOCKSTART_PLL_ERROR   3u
 102:Generated_Source\PSoC4/cyfitter_cfg.c **** #define CYCLOCKSTART_FLL_ERROR   4u
 103:Generated_Source\PSoC4/cyfitter_cfg.c **** #define CYCLOCKSTART_WCO_ERROR   5u
 104:Generated_Source\PSoC4/cyfitter_cfg.c **** 
 105:Generated_Source\PSoC4/cyfitter_cfg.c **** 
 106:Generated_Source\PSoC4/cyfitter_cfg.c **** #ifdef CY_NEED_CYCLOCKSTARTUPERROR
 107:Generated_Source\PSoC4/cyfitter_cfg.c **** /*******************************************************************************
 108:Generated_Source\PSoC4/cyfitter_cfg.c **** * Function Name: CyClockStartupError
 109:Generated_Source\PSoC4/cyfitter_cfg.c **** ********************************************************************************
 110:Generated_Source\PSoC4/cyfitter_cfg.c **** * Summary:
 111:Generated_Source\PSoC4/cyfitter_cfg.c **** *  If an error is encountered during clock configuration (crystal startup error,
 112:Generated_Source\PSoC4/cyfitter_cfg.c **** *  PLL lock error, etc.), the system will end up here.  Unless reimplemented by
 113:Generated_Source\PSoC4/cyfitter_cfg.c **** *  the customer, this function will stop in an infinite loop.
 114:Generated_Source\PSoC4/cyfitter_cfg.c **** *
 115:Generated_Source\PSoC4/cyfitter_cfg.c **** * Parameters:
 116:Generated_Source\PSoC4/cyfitter_cfg.c **** *   void
 117:Generated_Source\PSoC4/cyfitter_cfg.c **** *
 118:Generated_Source\PSoC4/cyfitter_cfg.c **** * Return:
 119:Generated_Source\PSoC4/cyfitter_cfg.c **** *   void
 120:Generated_Source\PSoC4/cyfitter_cfg.c **** *
 121:Generated_Source\PSoC4/cyfitter_cfg.c **** *******************************************************************************/
 122:Generated_Source\PSoC4/cyfitter_cfg.c **** CY_CFG_UNUSED
 123:Generated_Source\PSoC4/cyfitter_cfg.c **** static void CyClockStartupError(uint8 errorCode);
 124:Generated_Source\PSoC4/cyfitter_cfg.c **** CY_CFG_UNUSED
 125:Generated_Source\PSoC4/cyfitter_cfg.c **** static void CyClockStartupError(uint8 errorCode)
 126:Generated_Source\PSoC4/cyfitter_cfg.c **** {
 127:Generated_Source\PSoC4/cyfitter_cfg.c ****     /* To remove the compiler warning if errorCode not used.                */
 128:Generated_Source\PSoC4/cyfitter_cfg.c ****     errorCode = errorCode;
 129:Generated_Source\PSoC4/cyfitter_cfg.c **** 
 130:Generated_Source\PSoC4/cyfitter_cfg.c ****     /* If we have a clock startup error (bad MHz crystal, PLL lock, etc.),  */
 131:Generated_Source\PSoC4/cyfitter_cfg.c ****     /* we will end up here to allow the customer to implement something to  */
 132:Generated_Source\PSoC4/cyfitter_cfg.c ****     /* deal with the clock condition.                                       */
 133:Generated_Source\PSoC4/cyfitter_cfg.c **** 
 134:Generated_Source\PSoC4/cyfitter_cfg.c **** #ifdef CY_CFG_CLOCK_STARTUP_ERROR_CALLBACK
 135:Generated_Source\PSoC4/cyfitter_cfg.c ****     CY_CFG_Clock_Startup_ErrorCallback();
 136:Generated_Source\PSoC4/cyfitter_cfg.c **** #else
 137:Generated_Source\PSoC4/cyfitter_cfg.c ****     /*  If not using CY_CFG_CLOCK_STARTUP_ERROR_CALLBACK, place your clock startup code here. */
 138:Generated_Source\PSoC4/cyfitter_cfg.c ****     /* `#START CyClockStartupError` */
 139:Generated_Source\PSoC4/cyfitter_cfg.c **** 
 140:Generated_Source\PSoC4/cyfitter_cfg.c **** 
 141:Generated_Source\PSoC4/cyfitter_cfg.c **** 
 142:Generated_Source\PSoC4/cyfitter_cfg.c ****     /* `#END` */
 143:Generated_Source\PSoC4/cyfitter_cfg.c **** 
 144:Generated_Source\PSoC4/cyfitter_cfg.c ****     while(1) {}
 145:Generated_Source\PSoC4/cyfitter_cfg.c **** #endif /* CY_CFG_CLOCK_STARTUP_ERROR_CALLBACK */
ARM GAS  C:\Windows\TEMP\ccw00nia.s 			page 4


 146:Generated_Source\PSoC4/cyfitter_cfg.c **** }
 147:Generated_Source\PSoC4/cyfitter_cfg.c **** #endif
 148:Generated_Source\PSoC4/cyfitter_cfg.c **** 
 149:Generated_Source\PSoC4/cyfitter_cfg.c **** #define CY_CFG_BASE_ADDR_COUNT 10u
 150:Generated_Source\PSoC4/cyfitter_cfg.c **** CYPACKED typedef struct
 151:Generated_Source\PSoC4/cyfitter_cfg.c **** {
 152:Generated_Source\PSoC4/cyfitter_cfg.c **** 	uint8 offset;
 153:Generated_Source\PSoC4/cyfitter_cfg.c **** 	uint8 value;
 154:Generated_Source\PSoC4/cyfitter_cfg.c **** } CYPACKED_ATTR cy_cfg_addrvalue_t;
 155:Generated_Source\PSoC4/cyfitter_cfg.c **** 
 156:Generated_Source\PSoC4/cyfitter_cfg.c **** 
 157:Generated_Source\PSoC4/cyfitter_cfg.c **** 
 158:Generated_Source\PSoC4/cyfitter_cfg.c **** /*******************************************************************************
 159:Generated_Source\PSoC4/cyfitter_cfg.c **** * Function Name: cfg_write_bytes32
 160:Generated_Source\PSoC4/cyfitter_cfg.c **** ********************************************************************************
 161:Generated_Source\PSoC4/cyfitter_cfg.c **** * Summary:
 162:Generated_Source\PSoC4/cyfitter_cfg.c **** *  This function is used for setting up the chip configuration areas that
 163:Generated_Source\PSoC4/cyfitter_cfg.c **** *  contain relatively sparse data.
 164:Generated_Source\PSoC4/cyfitter_cfg.c **** *
 165:Generated_Source\PSoC4/cyfitter_cfg.c **** * Parameters:
 166:Generated_Source\PSoC4/cyfitter_cfg.c **** *   void
 167:Generated_Source\PSoC4/cyfitter_cfg.c **** *
 168:Generated_Source\PSoC4/cyfitter_cfg.c **** * Return:
 169:Generated_Source\PSoC4/cyfitter_cfg.c **** *   void
 170:Generated_Source\PSoC4/cyfitter_cfg.c **** *
 171:Generated_Source\PSoC4/cyfitter_cfg.c **** *******************************************************************************/
 172:Generated_Source\PSoC4/cyfitter_cfg.c **** static void cfg_write_bytes32(const uint32 addr_table[], const cy_cfg_addrvalue_t data_table[]);
 173:Generated_Source\PSoC4/cyfitter_cfg.c **** static void cfg_write_bytes32(const uint32 addr_table[], const cy_cfg_addrvalue_t data_table[])
 174:Generated_Source\PSoC4/cyfitter_cfg.c **** {
  27              		.loc 1 174 0
  28              		.cfi_startproc
  29              		@ args = 0, pretend = 0, frame = 0
  30              		@ frame_needed = 0, uses_anonymous_args = 0
  31              	.LVL0:
  32 0000 F0B5     		push	{r4, r5, r6, r7, lr}
  33              		.cfi_def_cfa_offset 20
  34              		.cfi_offset 4, -20
  35              		.cfi_offset 5, -16
  36              		.cfi_offset 6, -12
  37              		.cfi_offset 7, -8
  38              		.cfi_offset 14, -4
  39              	.LVL1:
 175:Generated_Source\PSoC4/cyfitter_cfg.c **** 	/* For 32-bit little-endian architectures */
 176:Generated_Source\PSoC4/cyfitter_cfg.c **** 	uint32 i, j = 0u;
  40              		.loc 1 176 0
  41 0002 0025     		movs	r5, #0
 177:Generated_Source\PSoC4/cyfitter_cfg.c **** 	for (i = 0u; i < CY_CFG_BASE_ADDR_COUNT; i++)
  42              		.loc 1 177 0
  43 0004 0027     		movs	r7, #0
  44 0006 11E0     		b	.L2
  45              	.LVL2:
  46              	.L5:
  47              	.LBB2:
 178:Generated_Source\PSoC4/cyfitter_cfg.c **** 	{
 179:Generated_Source\PSoC4/cyfitter_cfg.c **** 		uint32 baseAddr = addr_table[i];
  48              		.loc 1 179 0
  49 0008 BB00     		lsls	r3, r7, #2
ARM GAS  C:\Windows\TEMP\ccw00nia.s 			page 5


  50 000a C658     		ldr	r6, [r0, r3]
  51              	.LVL3:
 180:Generated_Source\PSoC4/cyfitter_cfg.c **** 		uint8 count = (uint8)baseAddr;
  52              		.loc 1 180 0
  53 000c F3B2     		uxtb	r3, r6
  54              	.LVL4:
 181:Generated_Source\PSoC4/cyfitter_cfg.c **** 		baseAddr &= 0xFFFFFF00u;
  55              		.loc 1 181 0
  56 000e FF22     		movs	r2, #255
  57 0010 9643     		bics	r6, r2
  58              	.LVL5:
 182:Generated_Source\PSoC4/cyfitter_cfg.c **** 		while (count != 0u)
  59              		.loc 1 182 0
  60 0012 08E0     		b	.L3
  61              	.L4:
 183:Generated_Source\PSoC4/cyfitter_cfg.c **** 		{
 184:Generated_Source\PSoC4/cyfitter_cfg.c **** 			CY_SET_REG8((void *)(baseAddr + data_table[j].offset), data_table[j].value);
  62              		.loc 1 184 0
  63 0014 6A00     		lsls	r2, r5, #1
  64 0016 8A18     		adds	r2, r1, r2
  65 0018 1478     		ldrb	r4, [r2]
  66 001a A419     		adds	r4, r4, r6
  67 001c 5278     		ldrb	r2, [r2, #1]
  68 001e 2270     		strb	r2, [r4]
 185:Generated_Source\PSoC4/cyfitter_cfg.c **** 			j++;
  69              		.loc 1 185 0
  70 0020 0135     		adds	r5, r5, #1
  71              	.LVL6:
 186:Generated_Source\PSoC4/cyfitter_cfg.c **** 			count--;
  72              		.loc 1 186 0
  73 0022 013B     		subs	r3, r3, #1
  74              	.LVL7:
  75 0024 DBB2     		uxtb	r3, r3
  76              	.LVL8:
  77              	.L3:
 182:Generated_Source\PSoC4/cyfitter_cfg.c **** 		{
  78              		.loc 1 182 0
  79 0026 002B     		cmp	r3, #0
  80 0028 F4D1     		bne	.L4
  81              	.LBE2:
 177:Generated_Source\PSoC4/cyfitter_cfg.c **** 	{
  82              		.loc 1 177 0 discriminator 2
  83 002a 0137     		adds	r7, r7, #1
  84              	.LVL9:
  85              	.L2:
 177:Generated_Source\PSoC4/cyfitter_cfg.c **** 	{
  86              		.loc 1 177 0 is_stmt 0 discriminator 1
  87 002c 092F     		cmp	r7, #9
  88 002e EBD9     		bls	.L5
 187:Generated_Source\PSoC4/cyfitter_cfg.c **** 		}
 188:Generated_Source\PSoC4/cyfitter_cfg.c **** 	}
 189:Generated_Source\PSoC4/cyfitter_cfg.c **** }
  89              		.loc 1 189 0 is_stmt 1
  90              		@ sp needed
  91              	.LVL10:
  92              	.LVL11:
  93 0030 F0BD     		pop	{r4, r5, r6, r7, pc}
ARM GAS  C:\Windows\TEMP\ccw00nia.s 			page 6


  94              		.cfi_endproc
  95              	.LFE5:
  96              		.size	cfg_write_bytes32, .-cfg_write_bytes32
  97 0032 C046     		.section	.text.AnalogSetDefault,"ax",%progbits
  98              		.align	2
  99              		.code	16
 100              		.thumb_func
 101              		.type	AnalogSetDefault, %function
 102              	AnalogSetDefault:
 103              	.LFB7:
 190:Generated_Source\PSoC4/cyfitter_cfg.c **** 
 191:Generated_Source\PSoC4/cyfitter_cfg.c **** 
 192:Generated_Source\PSoC4/cyfitter_cfg.c **** /*******************************************************************************
 193:Generated_Source\PSoC4/cyfitter_cfg.c **** * Function Name: ClockSetup
 194:Generated_Source\PSoC4/cyfitter_cfg.c **** ********************************************************************************
 195:Generated_Source\PSoC4/cyfitter_cfg.c **** *
 196:Generated_Source\PSoC4/cyfitter_cfg.c **** * Summary:
 197:Generated_Source\PSoC4/cyfitter_cfg.c **** *   Performs the initialization of all of the clocks in the device based on the
 198:Generated_Source\PSoC4/cyfitter_cfg.c **** *   settings in the Clock tab of the DWR.  This includes enabling the requested
 199:Generated_Source\PSoC4/cyfitter_cfg.c **** *   clocks and setting the necessary dividers to produce the desired frequency. 
 200:Generated_Source\PSoC4/cyfitter_cfg.c **** *
 201:Generated_Source\PSoC4/cyfitter_cfg.c **** * Parameters:
 202:Generated_Source\PSoC4/cyfitter_cfg.c **** *   void
 203:Generated_Source\PSoC4/cyfitter_cfg.c **** *
 204:Generated_Source\PSoC4/cyfitter_cfg.c **** * Return:
 205:Generated_Source\PSoC4/cyfitter_cfg.c **** *   void
 206:Generated_Source\PSoC4/cyfitter_cfg.c **** *
 207:Generated_Source\PSoC4/cyfitter_cfg.c **** *******************************************************************************/
 208:Generated_Source\PSoC4/cyfitter_cfg.c **** static void ClockSetup(void);
 209:Generated_Source\PSoC4/cyfitter_cfg.c **** CY_CFG_SECTION
 210:Generated_Source\PSoC4/cyfitter_cfg.c **** static void ClockSetup(void)
 211:Generated_Source\PSoC4/cyfitter_cfg.c **** {
 212:Generated_Source\PSoC4/cyfitter_cfg.c **** 
 213:Generated_Source\PSoC4/cyfitter_cfg.c **** 	/* Set Flash Cycles based on max possible frequency in case a glitch occurs during ClockSetup(). *
 214:Generated_Source\PSoC4/cyfitter_cfg.c **** 	CY_SET_REG32((void CYXDATA *)(CYREG_CPUSS_FLASH_CTL), (0x0012u));
 215:Generated_Source\PSoC4/cyfitter_cfg.c **** 
 216:Generated_Source\PSoC4/cyfitter_cfg.c **** 	/* Start the WCO */
 217:Generated_Source\PSoC4/cyfitter_cfg.c **** 	CySysClkWcoStart();
 218:Generated_Source\PSoC4/cyfitter_cfg.c **** 	CyDelayCycles(12000000u); /* WCO may take up to 500ms to start */
 219:Generated_Source\PSoC4/cyfitter_cfg.c **** 	(void)CySysClkWcoSetPowerMode(CY_SYS_CLK_WCO_LPM);    /* Switch to the low power mode */
 220:Generated_Source\PSoC4/cyfitter_cfg.c **** 
 221:Generated_Source\PSoC4/cyfitter_cfg.c **** 	/* Setup and trim IMO based on desired frequency. */
 222:Generated_Source\PSoC4/cyfitter_cfg.c **** 	CySysClkWriteImoFreq(48u);
 223:Generated_Source\PSoC4/cyfitter_cfg.c **** 	/* CYDEV_CLK_ILO_CONFIG Starting address: CYDEV_CLK_ILO_CONFIG */
 224:Generated_Source\PSoC4/cyfitter_cfg.c **** 	CY_SET_REG32((void *)(CYREG_CLK_ILO_CONFIG), 0x80000006u);
 225:Generated_Source\PSoC4/cyfitter_cfg.c **** 
 226:Generated_Source\PSoC4/cyfitter_cfg.c **** 	/* CYDEV_WDT_CONFIG Starting address: CYDEV_WDT_CONFIG */
 227:Generated_Source\PSoC4/cyfitter_cfg.c **** 	CY_SET_REG32((void *)(CYREG_WDT_CONFIG), 0x40000000u);
 228:Generated_Source\PSoC4/cyfitter_cfg.c **** 
 229:Generated_Source\PSoC4/cyfitter_cfg.c **** 
 230:Generated_Source\PSoC4/cyfitter_cfg.c **** 	/* Enable fast start mode for XO */
 231:Generated_Source\PSoC4/cyfitter_cfg.c **** 	CY_SET_REG32((void*)CYREG_BLE_BLERD_BB_XO, CY_GET_REG32((void*)CYREG_BLE_BLERD_BB_XO) | (uint32)0x
 232:Generated_Source\PSoC4/cyfitter_cfg.c **** 	CY_SET_REG32((void *)(CYREG_BLE_BLERD_BB_XO_CAPTRIM), 0x00003E2Du);
 233:Generated_Source\PSoC4/cyfitter_cfg.c **** 	/*Set XTAL(ECO) divider*/
 234:Generated_Source\PSoC4/cyfitter_cfg.c **** 	CY_SET_REG32((void *)(CYREG_BLE_BLESS_XTAL_CLK_DIV_CONFIG), 0x00000000u);
 235:Generated_Source\PSoC4/cyfitter_cfg.c **** 	/* Disable Crystal Stable Interrupt before enabling ECO */
 236:Generated_Source\PSoC4/cyfitter_cfg.c **** 	CY_SET_REG32((void*)CYREG_BLE_BLESS_LL_DSM_CTRL, CY_GET_REG32((void*)CYREG_BLE_BLESS_LL_DSM_CTRL) 
ARM GAS  C:\Windows\TEMP\ccw00nia.s 			page 7


 237:Generated_Source\PSoC4/cyfitter_cfg.c **** 	/* Start the ECO and do not check status since it is not needed for HFCLK */
 238:Generated_Source\PSoC4/cyfitter_cfg.c **** 	(void)CySysClkEcoStart(2000u);
 239:Generated_Source\PSoC4/cyfitter_cfg.c **** 	CyDelayUs(1500u); /* Wait to stabilize */
 240:Generated_Source\PSoC4/cyfitter_cfg.c **** 
 241:Generated_Source\PSoC4/cyfitter_cfg.c **** 	/* Setup phase aligned clocks */
 242:Generated_Source\PSoC4/cyfitter_cfg.c **** 	CY_SET_REG32((void *)CYREG_PERI_DIV_16_CTL2, 0x00005F00u);
 243:Generated_Source\PSoC4/cyfitter_cfg.c **** 	CY_SET_REG32((void *)CYREG_PERI_DIV_CMD, 0x8000FF42u);
 244:Generated_Source\PSoC4/cyfitter_cfg.c **** 	CY_SET_REG32((void *)CYREG_PERI_DIV_16_CTL0, 0x00000100u);
 245:Generated_Source\PSoC4/cyfitter_cfg.c **** 	CY_SET_REG32((void *)CYREG_PERI_DIV_CMD, 0x8000FF40u);
 246:Generated_Source\PSoC4/cyfitter_cfg.c **** 	CY_SET_REG32((void *)CYREG_PERI_DIV_16_CTL1, 0x00002200u);
 247:Generated_Source\PSoC4/cyfitter_cfg.c **** 	CY_SET_REG32((void *)CYREG_PERI_DIV_CMD, 0x8000FF41u);
 248:Generated_Source\PSoC4/cyfitter_cfg.c **** 
 249:Generated_Source\PSoC4/cyfitter_cfg.c **** 	/* CYDEV_CLK_IMO_CONFIG Starting address: CYDEV_CLK_IMO_CONFIG */
 250:Generated_Source\PSoC4/cyfitter_cfg.c **** 	CY_SET_REG32((void *)(CYREG_CLK_IMO_CONFIG), 0x80000000u);
 251:Generated_Source\PSoC4/cyfitter_cfg.c **** 
 252:Generated_Source\PSoC4/cyfitter_cfg.c **** 	/* CYDEV_CLK_SELECT Starting address: CYDEV_CLK_SELECT */
 253:Generated_Source\PSoC4/cyfitter_cfg.c **** 	CY_SET_REG32((void *)(CYREG_CLK_SELECT), 0x00040000u);
 254:Generated_Source\PSoC4/cyfitter_cfg.c **** 
 255:Generated_Source\PSoC4/cyfitter_cfg.c **** 	/* CYDEV_PERI_PCLK_CTL14 Starting address: CYDEV_PERI_PCLK_CTL14 */
 256:Generated_Source\PSoC4/cyfitter_cfg.c **** 	CY_SET_REG32((void *)(CYREG_PERI_PCLK_CTL14), 0x00000042u);
 257:Generated_Source\PSoC4/cyfitter_cfg.c **** 
 258:Generated_Source\PSoC4/cyfitter_cfg.c **** 	/* CYDEV_PERI_PCLK_CTL12 Starting address: CYDEV_PERI_PCLK_CTL12 */
 259:Generated_Source\PSoC4/cyfitter_cfg.c **** 	CY_SET_REG32((void *)(CYREG_PERI_PCLK_CTL12), 0x00000040u);
 260:Generated_Source\PSoC4/cyfitter_cfg.c **** 
 261:Generated_Source\PSoC4/cyfitter_cfg.c **** 	/* CYDEV_PERI_PCLK_CTL10 Starting address: CYDEV_PERI_PCLK_CTL10 */
 262:Generated_Source\PSoC4/cyfitter_cfg.c **** 	CY_SET_REG32((void *)(CYREG_PERI_PCLK_CTL10), 0x00000040u);
 263:Generated_Source\PSoC4/cyfitter_cfg.c **** 
 264:Generated_Source\PSoC4/cyfitter_cfg.c **** 	/* CYDEV_PERI_PCLK_CTL9 Starting address: CYDEV_PERI_PCLK_CTL9 */
 265:Generated_Source\PSoC4/cyfitter_cfg.c **** 	CY_SET_REG32((void *)(CYREG_PERI_PCLK_CTL9), 0x00000040u);
 266:Generated_Source\PSoC4/cyfitter_cfg.c **** 
 267:Generated_Source\PSoC4/cyfitter_cfg.c **** 	/* CYDEV_PERI_PCLK_CTL8 Starting address: CYDEV_PERI_PCLK_CTL8 */
 268:Generated_Source\PSoC4/cyfitter_cfg.c **** 	CY_SET_REG32((void *)(CYREG_PERI_PCLK_CTL8), 0x00000040u);
 269:Generated_Source\PSoC4/cyfitter_cfg.c **** 
 270:Generated_Source\PSoC4/cyfitter_cfg.c **** 	/* CYDEV_PERI_PCLK_CTL7 Starting address: CYDEV_PERI_PCLK_CTL7 */
 271:Generated_Source\PSoC4/cyfitter_cfg.c **** 	CY_SET_REG32((void *)(CYREG_PERI_PCLK_CTL7), 0x00000040u);
 272:Generated_Source\PSoC4/cyfitter_cfg.c **** 
 273:Generated_Source\PSoC4/cyfitter_cfg.c **** 	/* CYDEV_PERI_PCLK_CTL1 Starting address: CYDEV_PERI_PCLK_CTL1 */
 274:Generated_Source\PSoC4/cyfitter_cfg.c **** 	CY_SET_REG32((void *)(CYREG_PERI_PCLK_CTL1), 0x00000041u);
 275:Generated_Source\PSoC4/cyfitter_cfg.c **** 
 276:Generated_Source\PSoC4/cyfitter_cfg.c **** 	(void)CyIntSetVector(8u, &CySysWdtIsr);
 277:Generated_Source\PSoC4/cyfitter_cfg.c **** 	CyIntEnable(8u);
 278:Generated_Source\PSoC4/cyfitter_cfg.c **** 	CY_SET_REG32((void *)(CYREG_WDT_CONFIG), 0x40000000u);
 279:Generated_Source\PSoC4/cyfitter_cfg.c **** }
 280:Generated_Source\PSoC4/cyfitter_cfg.c **** 
 281:Generated_Source\PSoC4/cyfitter_cfg.c **** 
 282:Generated_Source\PSoC4/cyfitter_cfg.c **** /* Analog API Functions */
 283:Generated_Source\PSoC4/cyfitter_cfg.c **** 
 284:Generated_Source\PSoC4/cyfitter_cfg.c **** 
 285:Generated_Source\PSoC4/cyfitter_cfg.c **** /*******************************************************************************
 286:Generated_Source\PSoC4/cyfitter_cfg.c **** * Function Name: AnalogSetDefault
 287:Generated_Source\PSoC4/cyfitter_cfg.c **** ********************************************************************************
 288:Generated_Source\PSoC4/cyfitter_cfg.c **** *
 289:Generated_Source\PSoC4/cyfitter_cfg.c **** * Summary:
 290:Generated_Source\PSoC4/cyfitter_cfg.c **** *  Sets up the analog portions of the chip to default values based on chip
 291:Generated_Source\PSoC4/cyfitter_cfg.c **** *  configuration options from the project.
 292:Generated_Source\PSoC4/cyfitter_cfg.c **** *
 293:Generated_Source\PSoC4/cyfitter_cfg.c **** * Parameters:
ARM GAS  C:\Windows\TEMP\ccw00nia.s 			page 8


 294:Generated_Source\PSoC4/cyfitter_cfg.c **** *  void
 295:Generated_Source\PSoC4/cyfitter_cfg.c **** *
 296:Generated_Source\PSoC4/cyfitter_cfg.c **** * Return:
 297:Generated_Source\PSoC4/cyfitter_cfg.c **** *  void
 298:Generated_Source\PSoC4/cyfitter_cfg.c **** *
 299:Generated_Source\PSoC4/cyfitter_cfg.c **** *******************************************************************************/
 300:Generated_Source\PSoC4/cyfitter_cfg.c **** static void AnalogSetDefault(void);
 301:Generated_Source\PSoC4/cyfitter_cfg.c **** static void AnalogSetDefault(void)
 302:Generated_Source\PSoC4/cyfitter_cfg.c **** {
 104              		.loc 1 302 0
 105              		.cfi_startproc
 106              		@ args = 0, pretend = 0, frame = 0
 107              		@ frame_needed = 0, uses_anonymous_args = 0
 108              		@ link register save eliminated.
 303:Generated_Source\PSoC4/cyfitter_cfg.c **** 	CY_SET_XTND_REG32((void CYFAR *)CYREG_CTBM0_DFT_CTRL, 0x00000003u);
 109              		.loc 1 303 0
 110 0000 0323     		movs	r3, #3
 111 0002 044A     		ldr	r2, .L7
 112 0004 1360     		str	r3, [r2]
 304:Generated_Source\PSoC4/cyfitter_cfg.c **** 	CY_SET_XTND_REG32((void CYFAR *)CYREG_CTBM1_DFT_CTRL, 0x00000003u);
 113              		.loc 1 304 0
 114 0006 044A     		ldr	r2, .L7+4
 115 0008 1360     		str	r3, [r2]
 305:Generated_Source\PSoC4/cyfitter_cfg.c **** 	CY_SET_XTND_REG32((void CYFAR *)CYREG_PASS_DSAB_DSAB_CTRL, 0x00000000u);
 116              		.loc 1 305 0
 117 000a 0022     		movs	r2, #0
 118 000c 034B     		ldr	r3, .L7+8
 119 000e 1A60     		str	r2, [r3]
 306:Generated_Source\PSoC4/cyfitter_cfg.c **** }
 120              		.loc 1 306 0
 121              		@ sp needed
 122 0010 7047     		bx	lr
 123              	.L8:
 124 0012 C046     		.align	2
 125              	.L7:
 126 0014 30003040 		.word	1076887600
 127 0018 30003140 		.word	1076953136
 128 001c 000E3F40 		.word	1077874176
 129              		.cfi_endproc
 130              	.LFE7:
 131              		.size	AnalogSetDefault, .-AnalogSetDefault
 132              		.section	.text.CYMEMZERO,"ax",%progbits
 133              		.align	2
 134              		.code	16
 135              		.thumb_func
 136              		.type	CYMEMZERO, %function
 137              	CYMEMZERO:
 138              	.LFB2:
  76:Generated_Source\PSoC4/cyfitter_cfg.c **** 	(void)memset(s, 0, n);
 139              		.loc 1 76 0
 140              		.cfi_startproc
 141              		@ args = 0, pretend = 0, frame = 0
 142              		@ frame_needed = 0, uses_anonymous_args = 0
 143              	.LVL12:
 144 0000 10B5     		push	{r4, lr}
 145              		.cfi_def_cfa_offset 8
 146              		.cfi_offset 4, -8
ARM GAS  C:\Windows\TEMP\ccw00nia.s 			page 9


 147              		.cfi_offset 14, -4
 148 0002 0A00     		movs	r2, r1
  77:Generated_Source\PSoC4/cyfitter_cfg.c **** }
 149              		.loc 1 77 0
 150 0004 0021     		movs	r1, #0
 151              	.LVL13:
 152 0006 FFF7FEFF 		bl	memset
 153              	.LVL14:
  78:Generated_Source\PSoC4/cyfitter_cfg.c **** CY_CFG_UNUSED
 154              		.loc 1 78 0
 155              		@ sp needed
 156 000a 10BD     		pop	{r4, pc}
 157              		.cfi_endproc
 158              	.LFE2:
 159              		.size	CYMEMZERO, .-CYMEMZERO
 160              		.section	.text.CYCONFIGCPYCODE,"ax",%progbits
 161              		.align	2
 162              		.code	16
 163              		.thumb_func
 164              		.type	CYCONFIGCPYCODE, %function
 165              	CYCONFIGCPYCODE:
 166              	.LFB4:
  90:Generated_Source\PSoC4/cyfitter_cfg.c **** 	(void)memcpy(dest, src, n);
 167              		.loc 1 90 0
 168              		.cfi_startproc
 169              		@ args = 0, pretend = 0, frame = 0
 170              		@ frame_needed = 0, uses_anonymous_args = 0
 171              	.LVL15:
 172 0000 10B5     		push	{r4, lr}
 173              		.cfi_def_cfa_offset 8
 174              		.cfi_offset 4, -8
 175              		.cfi_offset 14, -4
  91:Generated_Source\PSoC4/cyfitter_cfg.c **** }
 176              		.loc 1 91 0
 177 0002 FFF7FEFF 		bl	memcpy
 178              	.LVL16:
  92:Generated_Source\PSoC4/cyfitter_cfg.c **** 
 179              		.loc 1 92 0
 180              		@ sp needed
 181 0006 10BD     		pop	{r4, pc}
 182              		.cfi_endproc
 183              	.LFE4:
 184              		.size	CYCONFIGCPYCODE, .-CYCONFIGCPYCODE
 185              		.section	.psocinit,"ax",%progbits
 186              		.align	2
 187              		.code	16
 188              		.thumb_func
 189              		.type	ClockSetup, %function
 190              	ClockSetup:
 191              	.LFB6:
 211:Generated_Source\PSoC4/cyfitter_cfg.c **** 
 192              		.loc 1 211 0
 193              		.cfi_startproc
 194              		@ args = 0, pretend = 0, frame = 0
 195              		@ frame_needed = 0, uses_anonymous_args = 0
 196 0000 70B5     		push	{r4, r5, r6, lr}
 197              		.cfi_def_cfa_offset 16
ARM GAS  C:\Windows\TEMP\ccw00nia.s 			page 10


 198              		.cfi_offset 4, -16
 199              		.cfi_offset 5, -12
 200              		.cfi_offset 6, -8
 201              		.cfi_offset 14, -4
 214:Generated_Source\PSoC4/cyfitter_cfg.c **** 
 202              		.loc 1 214 0
 203 0002 1222     		movs	r2, #18
 204 0004 2F4B     		ldr	r3, .L12
 205 0006 1A60     		str	r2, [r3]
 217:Generated_Source\PSoC4/cyfitter_cfg.c **** 	CyDelayCycles(12000000u); /* WCO may take up to 500ms to start */
 206              		.loc 1 217 0
 207 0008 FFF7FEFF 		bl	CySysClkWcoStart
 208              	.LVL17:
 218:Generated_Source\PSoC4/cyfitter_cfg.c **** 	(void)CySysClkWcoSetPowerMode(CY_SYS_CLK_WCO_LPM);    /* Switch to the low power mode */
 209              		.loc 1 218 0
 210 000c 2E48     		ldr	r0, .L12+4
 211 000e FFF7FEFF 		bl	CyDelayCycles
 212              	.LVL18:
 219:Generated_Source\PSoC4/cyfitter_cfg.c **** 
 213              		.loc 1 219 0
 214 0012 0120     		movs	r0, #1
 215 0014 FFF7FEFF 		bl	CySysClkWcoSetPowerMode
 216              	.LVL19:
 222:Generated_Source\PSoC4/cyfitter_cfg.c **** 	/* CYDEV_CLK_ILO_CONFIG Starting address: CYDEV_CLK_ILO_CONFIG */
 217              		.loc 1 222 0
 218 0018 3020     		movs	r0, #48
 219 001a FFF7FEFF 		bl	CySysClkWriteImoFreq
 220              	.LVL20:
 224:Generated_Source\PSoC4/cyfitter_cfg.c **** 
 221              		.loc 1 224 0
 222 001e 2B4A     		ldr	r2, .L12+8
 223 0020 2B4B     		ldr	r3, .L12+12
 224 0022 1A60     		str	r2, [r3]
 227:Generated_Source\PSoC4/cyfitter_cfg.c **** 
 225              		.loc 1 227 0
 226 0024 2B4C     		ldr	r4, .L12+16
 227 0026 8025     		movs	r5, #128
 228 0028 ED05     		lsls	r5, r5, #23
 229 002a 2560     		str	r5, [r4]
 231:Generated_Source\PSoC4/cyfitter_cfg.c **** 	CY_SET_REG32((void *)(CYREG_BLE_BLERD_BB_XO_CAPTRIM), 0x00003E2Du);
 230              		.loc 1 231 0
 231 002c 2A4A     		ldr	r2, .L12+20
 232 002e 1168     		ldr	r1, [r2]
 233 0030 0223     		movs	r3, #2
 234 0032 0B43     		orrs	r3, r1
 235 0034 1360     		str	r3, [r2]
 232:Generated_Source\PSoC4/cyfitter_cfg.c **** 	/*Set XTAL(ECO) divider*/
 236              		.loc 1 232 0
 237 0036 294A     		ldr	r2, .L12+24
 238 0038 294B     		ldr	r3, .L12+28
 239 003a 1A60     		str	r2, [r3]
 234:Generated_Source\PSoC4/cyfitter_cfg.c **** 	/* Disable Crystal Stable Interrupt before enabling ECO */
 240              		.loc 1 234 0
 241 003c 0022     		movs	r2, #0
 242 003e 294B     		ldr	r3, .L12+32
 243 0040 1A60     		str	r2, [r3]
 236:Generated_Source\PSoC4/cyfitter_cfg.c **** 	/* Start the ECO and do not check status since it is not needed for HFCLK */
ARM GAS  C:\Windows\TEMP\ccw00nia.s 			page 11


 244              		.loc 1 236 0
 245 0042 294A     		ldr	r2, .L12+36
 246 0044 1368     		ldr	r3, [r2]
 247 0046 0821     		movs	r1, #8
 248 0048 8B43     		bics	r3, r1
 249 004a 1360     		str	r3, [r2]
 238:Generated_Source\PSoC4/cyfitter_cfg.c **** 	CyDelayUs(1500u); /* Wait to stabilize */
 250              		.loc 1 238 0
 251 004c FA20     		movs	r0, #250
 252 004e C000     		lsls	r0, r0, #3
 253 0050 FFF7FEFF 		bl	CySysClkEcoStart
 254              	.LVL21:
 239:Generated_Source\PSoC4/cyfitter_cfg.c **** 
 255              		.loc 1 239 0
 256 0054 2548     		ldr	r0, .L12+40
 257 0056 FFF7FEFF 		bl	CyDelayUs
 258              	.LVL22:
 242:Generated_Source\PSoC4/cyfitter_cfg.c **** 	CY_SET_REG32((void *)CYREG_PERI_DIV_CMD, 0x8000FF42u);
 259              		.loc 1 242 0
 260 005a BE22     		movs	r2, #190
 261 005c D201     		lsls	r2, r2, #7
 262 005e 244B     		ldr	r3, .L12+44
 263 0060 1A60     		str	r2, [r3]
 243:Generated_Source\PSoC4/cyfitter_cfg.c **** 	CY_SET_REG32((void *)CYREG_PERI_DIV_16_CTL0, 0x00000100u);
 264              		.loc 1 243 0
 265 0062 244B     		ldr	r3, .L12+48
 266 0064 244A     		ldr	r2, .L12+52
 267 0066 1A60     		str	r2, [r3]
 244:Generated_Source\PSoC4/cyfitter_cfg.c **** 	CY_SET_REG32((void *)CYREG_PERI_DIV_CMD, 0x8000FF40u);
 268              		.loc 1 244 0
 269 0068 8021     		movs	r1, #128
 270 006a 4900     		lsls	r1, r1, #1
 271 006c 234A     		ldr	r2, .L12+56
 272 006e 1160     		str	r1, [r2]
 245:Generated_Source\PSoC4/cyfitter_cfg.c **** 	CY_SET_REG32((void *)CYREG_PERI_DIV_16_CTL1, 0x00002200u);
 273              		.loc 1 245 0
 274 0070 234A     		ldr	r2, .L12+60
 275 0072 1A60     		str	r2, [r3]
 246:Generated_Source\PSoC4/cyfitter_cfg.c **** 	CY_SET_REG32((void *)CYREG_PERI_DIV_CMD, 0x8000FF41u);
 276              		.loc 1 246 0
 277 0074 8821     		movs	r1, #136
 278 0076 8901     		lsls	r1, r1, #6
 279 0078 224A     		ldr	r2, .L12+64
 280 007a 1160     		str	r1, [r2]
 247:Generated_Source\PSoC4/cyfitter_cfg.c **** 
 281              		.loc 1 247 0
 282 007c 224A     		ldr	r2, .L12+68
 283 007e 1A60     		str	r2, [r3]
 250:Generated_Source\PSoC4/cyfitter_cfg.c **** 
 284              		.loc 1 250 0
 285 0080 8022     		movs	r2, #128
 286 0082 1206     		lsls	r2, r2, #24
 287 0084 214B     		ldr	r3, .L12+72
 288 0086 1A60     		str	r2, [r3]
 253:Generated_Source\PSoC4/cyfitter_cfg.c **** 
 289              		.loc 1 253 0
 290 0088 8022     		movs	r2, #128
ARM GAS  C:\Windows\TEMP\ccw00nia.s 			page 12


 291 008a D202     		lsls	r2, r2, #11
 292 008c 204B     		ldr	r3, .L12+76
 293 008e 1A60     		str	r2, [r3]
 256:Generated_Source\PSoC4/cyfitter_cfg.c **** 
 294              		.loc 1 256 0
 295 0090 4222     		movs	r2, #66
 296 0092 204B     		ldr	r3, .L12+80
 297 0094 1A60     		str	r2, [r3]
 259:Generated_Source\PSoC4/cyfitter_cfg.c **** 
 298              		.loc 1 259 0
 299 0096 4023     		movs	r3, #64
 300 0098 1F4A     		ldr	r2, .L12+84
 301 009a 1360     		str	r3, [r2]
 262:Generated_Source\PSoC4/cyfitter_cfg.c **** 
 302              		.loc 1 262 0
 303 009c 1F4A     		ldr	r2, .L12+88
 304 009e 1360     		str	r3, [r2]
 265:Generated_Source\PSoC4/cyfitter_cfg.c **** 
 305              		.loc 1 265 0
 306 00a0 1F4A     		ldr	r2, .L12+92
 307 00a2 1360     		str	r3, [r2]
 268:Generated_Source\PSoC4/cyfitter_cfg.c **** 
 308              		.loc 1 268 0
 309 00a4 1F4A     		ldr	r2, .L12+96
 310 00a6 1360     		str	r3, [r2]
 271:Generated_Source\PSoC4/cyfitter_cfg.c **** 
 311              		.loc 1 271 0
 312 00a8 1F4A     		ldr	r2, .L12+100
 313 00aa 1360     		str	r3, [r2]
 274:Generated_Source\PSoC4/cyfitter_cfg.c **** 
 314              		.loc 1 274 0
 315 00ac 4122     		movs	r2, #65
 316 00ae 1F4B     		ldr	r3, .L12+104
 317 00b0 1A60     		str	r2, [r3]
 276:Generated_Source\PSoC4/cyfitter_cfg.c **** 	CyIntEnable(8u);
 318              		.loc 1 276 0
 319 00b2 1F49     		ldr	r1, .L12+108
 320 00b4 0820     		movs	r0, #8
 321 00b6 FFF7FEFF 		bl	CyIntSetVector
 322              	.LVL23:
 277:Generated_Source\PSoC4/cyfitter_cfg.c **** 	CY_SET_REG32((void *)(CYREG_WDT_CONFIG), 0x40000000u);
 323              		.loc 1 277 0
 324 00ba 0820     		movs	r0, #8
 325 00bc FFF7FEFF 		bl	CyIntEnable
 326              	.LVL24:
 278:Generated_Source\PSoC4/cyfitter_cfg.c **** }
 327              		.loc 1 278 0
 328 00c0 2560     		str	r5, [r4]
 279:Generated_Source\PSoC4/cyfitter_cfg.c **** 
 329              		.loc 1 279 0
 330              		@ sp needed
 331 00c2 70BD     		pop	{r4, r5, r6, pc}
 332              	.L13:
 333              		.align	2
 334              	.L12:
 335 00c4 30001040 		.word	1074790448
 336 00c8 001BB700 		.word	12000000
ARM GAS  C:\Windows\TEMP\ccw00nia.s 			page 13


 337 00cc 06000080 		.word	-2147483642
 338 00d0 04010B40 		.word	1074462980
 339 00d4 0C020B40 		.word	1074463244
 340 00d8 78002E40 		.word	1076756600
 341 00dc 2D3E0000 		.word	15917
 342 00e0 7C002E40 		.word	1076756604
 343 00e4 64F02E40 		.word	1076818020
 344 00e8 6CF02E40 		.word	1076818028
 345 00ec DC050000 		.word	1500
 346 00f0 08030140 		.word	1073808136
 347 00f4 00000140 		.word	1073807360
 348 00f8 42FF0080 		.word	-2147418302
 349 00fc 00030140 		.word	1073808128
 350 0100 40FF0080 		.word	-2147418304
 351 0104 04030140 		.word	1073808132
 352 0108 41FF0080 		.word	-2147418303
 353 010c 08010B40 		.word	1074462984
 354 0110 00010B40 		.word	1074462976
 355 0114 38010140 		.word	1073807672
 356 0118 30010140 		.word	1073807664
 357 011c 28010140 		.word	1073807656
 358 0120 24010140 		.word	1073807652
 359 0124 20010140 		.word	1073807648
 360 0128 1C010140 		.word	1073807644
 361 012c 04010140 		.word	1073807620
 362 0130 00000000 		.word	CySysWdtIsr
 363              		.cfi_endproc
 364              	.LFE6:
 365              		.size	ClockSetup, .-ClockSetup
 366              		.align	2
 367              		.global	cyfitter_cfg
 368              		.code	16
 369              		.thumb_func
 370              		.type	cyfitter_cfg, %function
 371              	cyfitter_cfg:
 372              	.LFB8:
 307:Generated_Source\PSoC4/cyfitter_cfg.c **** 
 308:Generated_Source\PSoC4/cyfitter_cfg.c **** 
 309:Generated_Source\PSoC4/cyfitter_cfg.c **** 
 310:Generated_Source\PSoC4/cyfitter_cfg.c **** 
 311:Generated_Source\PSoC4/cyfitter_cfg.c **** /*******************************************************************************
 312:Generated_Source\PSoC4/cyfitter_cfg.c **** * Function Name: cyfitter_cfg
 313:Generated_Source\PSoC4/cyfitter_cfg.c **** ********************************************************************************
 314:Generated_Source\PSoC4/cyfitter_cfg.c **** * Summary:
 315:Generated_Source\PSoC4/cyfitter_cfg.c **** *  This function is called by the start-up code for the selected device. It
 316:Generated_Source\PSoC4/cyfitter_cfg.c **** *  performs all of the necessary device configuration based on the design
 317:Generated_Source\PSoC4/cyfitter_cfg.c **** *  settings.  This includes settings from the Design Wide Resources (DWR) such
 318:Generated_Source\PSoC4/cyfitter_cfg.c **** *  as Clocks and Pins as well as any component configuration that is necessary.
 319:Generated_Source\PSoC4/cyfitter_cfg.c **** *
 320:Generated_Source\PSoC4/cyfitter_cfg.c **** * Parameters:
 321:Generated_Source\PSoC4/cyfitter_cfg.c **** *   void
 322:Generated_Source\PSoC4/cyfitter_cfg.c **** *
 323:Generated_Source\PSoC4/cyfitter_cfg.c **** * Return:
 324:Generated_Source\PSoC4/cyfitter_cfg.c **** *   void
 325:Generated_Source\PSoC4/cyfitter_cfg.c **** *
 326:Generated_Source\PSoC4/cyfitter_cfg.c **** *******************************************************************************/
 327:Generated_Source\PSoC4/cyfitter_cfg.c **** CY_CFG_SECTION
ARM GAS  C:\Windows\TEMP\ccw00nia.s 			page 14


 328:Generated_Source\PSoC4/cyfitter_cfg.c **** void cyfitter_cfg(void)
 329:Generated_Source\PSoC4/cyfitter_cfg.c **** {
 373              		.loc 1 329 0
 374              		.cfi_startproc
 375              		@ args = 0, pretend = 0, frame = 0
 376              		@ frame_needed = 0, uses_anonymous_args = 0
 377 0134 70B5     		push	{r4, r5, r6, lr}
 378              		.cfi_def_cfa_offset 16
 379              		.cfi_offset 4, -16
 380              		.cfi_offset 5, -12
 381              		.cfi_offset 6, -8
 382              		.cfi_offset 14, -4
 330:Generated_Source\PSoC4/cyfitter_cfg.c **** 	/* Disable interrupts by default. Let user enable if/when they want. */
 331:Generated_Source\PSoC4/cyfitter_cfg.c **** 	CyGlobalIntDisable;
 383              		.loc 1 331 0
 384              		.syntax divided
 385              	@ 331 "Generated_Source\PSoC4\cyfitter_cfg.c" 1
 386 0136 72B6     		CPSID   i
 387              	@ 0 "" 2
 332:Generated_Source\PSoC4/cyfitter_cfg.c **** 
 333:Generated_Source\PSoC4/cyfitter_cfg.c **** 	CY_SET_REG32((void *)(CYREG_BLE_BLESS_LL_DSM_CTRL), 0x00000000u);
 388              		.loc 1 333 0
 389              		.thumb
 390              		.syntax unified
 391 0138 0022     		movs	r2, #0
 392 013a 434B     		ldr	r3, .L19
 393 013c 1A60     		str	r2, [r3]
 334:Generated_Source\PSoC4/cyfitter_cfg.c **** 
 335:Generated_Source\PSoC4/cyfitter_cfg.c **** 	/* Enable the clock in the interrupt controller for the routed interrupts */
 336:Generated_Source\PSoC4/cyfitter_cfg.c **** 	CY_SET_REG8((void *)CYREG_UDB_UDBIF_INT_CLK_CTL, 0x01u);
 394              		.loc 1 336 0
 395 013e 0132     		adds	r2, r2, #1
 396 0140 424B     		ldr	r3, .L19+4
 397 0142 1A70     		strb	r2, [r3]
 398              	.LVL25:
 399              	.LBB3:
 337:Generated_Source\PSoC4/cyfitter_cfg.c **** 	{
 338:Generated_Source\PSoC4/cyfitter_cfg.c **** 		static const uint32 CYCODE cy_cfg_addr_table[] = {
 339:Generated_Source\PSoC4/cyfitter_cfg.c **** 			0x400F0002u, /* Base address: 0x400F0000 Count: 2 */
 340:Generated_Source\PSoC4/cyfitter_cfg.c **** 			0x400F3036u, /* Base address: 0x400F3000 Count: 54 */
 341:Generated_Source\PSoC4/cyfitter_cfg.c **** 			0x400F3148u, /* Base address: 0x400F3100 Count: 72 */
 342:Generated_Source\PSoC4/cyfitter_cfg.c **** 			0x400F3239u, /* Base address: 0x400F3200 Count: 57 */
 343:Generated_Source\PSoC4/cyfitter_cfg.c **** 			0x400F335Du, /* Base address: 0x400F3300 Count: 93 */
 344:Generated_Source\PSoC4/cyfitter_cfg.c **** 			0x400F4007u, /* Base address: 0x400F4000 Count: 7 */
 345:Generated_Source\PSoC4/cyfitter_cfg.c **** 			0x400F4112u, /* Base address: 0x400F4100 Count: 18 */
 346:Generated_Source\PSoC4/cyfitter_cfg.c **** 			0x400F4210u, /* Base address: 0x400F4200 Count: 16 */
 347:Generated_Source\PSoC4/cyfitter_cfg.c **** 			0x400F4315u, /* Base address: 0x400F4300 Count: 21 */
 348:Generated_Source\PSoC4/cyfitter_cfg.c **** 			0x400F6002u, /* Base address: 0x400F6000 Count: 2 */
 349:Generated_Source\PSoC4/cyfitter_cfg.c **** 		};
 350:Generated_Source\PSoC4/cyfitter_cfg.c **** 
 351:Generated_Source\PSoC4/cyfitter_cfg.c **** 		static const cy_cfg_addrvalue_t CYCODE cy_cfg_data_table[] = {
 352:Generated_Source\PSoC4/cyfitter_cfg.c **** 			{0x73u, 0x0Fu},
 353:Generated_Source\PSoC4/cyfitter_cfg.c **** 			{0x80u, 0x03u},
 354:Generated_Source\PSoC4/cyfitter_cfg.c **** 			{0x03u, 0x01u},
 355:Generated_Source\PSoC4/cyfitter_cfg.c **** 			{0x04u, 0x04u},
 356:Generated_Source\PSoC4/cyfitter_cfg.c **** 			{0x06u, 0x08u},
 357:Generated_Source\PSoC4/cyfitter_cfg.c **** 			{0x0Au, 0x02u},
ARM GAS  C:\Windows\TEMP\ccw00nia.s 			page 15


 358:Generated_Source\PSoC4/cyfitter_cfg.c **** 			{0x0Eu, 0x0Cu},
 359:Generated_Source\PSoC4/cyfitter_cfg.c **** 			{0x12u, 0x10u},
 360:Generated_Source\PSoC4/cyfitter_cfg.c **** 			{0x1Eu, 0x03u},
 361:Generated_Source\PSoC4/cyfitter_cfg.c **** 			{0x20u, 0x02u},
 362:Generated_Source\PSoC4/cyfitter_cfg.c **** 			{0x22u, 0x01u},
 363:Generated_Source\PSoC4/cyfitter_cfg.c **** 			{0x2Au, 0x10u},
 364:Generated_Source\PSoC4/cyfitter_cfg.c **** 			{0x2Eu, 0x01u},
 365:Generated_Source\PSoC4/cyfitter_cfg.c **** 			{0x30u, 0x10u},
 366:Generated_Source\PSoC4/cyfitter_cfg.c **** 			{0x31u, 0x01u},
 367:Generated_Source\PSoC4/cyfitter_cfg.c **** 			{0x32u, 0x03u},
 368:Generated_Source\PSoC4/cyfitter_cfg.c **** 			{0x34u, 0x04u},
 369:Generated_Source\PSoC4/cyfitter_cfg.c **** 			{0x36u, 0x08u},
 370:Generated_Source\PSoC4/cyfitter_cfg.c **** 			{0x3Eu, 0x51u},
 371:Generated_Source\PSoC4/cyfitter_cfg.c **** 			{0x40u, 0x25u},
 372:Generated_Source\PSoC4/cyfitter_cfg.c **** 			{0x41u, 0x01u},
 373:Generated_Source\PSoC4/cyfitter_cfg.c **** 			{0x42u, 0x06u},
 374:Generated_Source\PSoC4/cyfitter_cfg.c **** 			{0x46u, 0xE0u},
 375:Generated_Source\PSoC4/cyfitter_cfg.c **** 			{0x47u, 0xE0u},
 376:Generated_Source\PSoC4/cyfitter_cfg.c **** 			{0x48u, 0x28u},
 377:Generated_Source\PSoC4/cyfitter_cfg.c **** 			{0x49u, 0xFFu},
 378:Generated_Source\PSoC4/cyfitter_cfg.c **** 			{0x4Au, 0xFFu},
 379:Generated_Source\PSoC4/cyfitter_cfg.c **** 			{0x4Bu, 0xFFu},
 380:Generated_Source\PSoC4/cyfitter_cfg.c **** 			{0x4Fu, 0x01u},
 381:Generated_Source\PSoC4/cyfitter_cfg.c **** 			{0x52u, 0xBFu},
 382:Generated_Source\PSoC4/cyfitter_cfg.c **** 			{0x53u, 0x18u},
 383:Generated_Source\PSoC4/cyfitter_cfg.c **** 			{0x54u, 0x03u},
 384:Generated_Source\PSoC4/cyfitter_cfg.c **** 			{0x56u, 0x04u},
 385:Generated_Source\PSoC4/cyfitter_cfg.c **** 			{0x58u, 0x04u},
 386:Generated_Source\PSoC4/cyfitter_cfg.c **** 			{0x59u, 0x04u},
 387:Generated_Source\PSoC4/cyfitter_cfg.c **** 			{0x5Au, 0x0Du},
 388:Generated_Source\PSoC4/cyfitter_cfg.c **** 			{0x5Bu, 0x04u},
 389:Generated_Source\PSoC4/cyfitter_cfg.c **** 			{0x5Cu, 0x11u},
 390:Generated_Source\PSoC4/cyfitter_cfg.c **** 			{0x5Du, 0x13u},
 391:Generated_Source\PSoC4/cyfitter_cfg.c **** 			{0x5Fu, 0x01u},
 392:Generated_Source\PSoC4/cyfitter_cfg.c **** 			{0x60u, 0x40u},
 393:Generated_Source\PSoC4/cyfitter_cfg.c **** 			{0x61u, 0xA8u},
 394:Generated_Source\PSoC4/cyfitter_cfg.c **** 			{0x62u, 0x40u},
 395:Generated_Source\PSoC4/cyfitter_cfg.c **** 			{0x63u, 0x20u},
 396:Generated_Source\PSoC4/cyfitter_cfg.c **** 			{0x64u, 0x40u},
 397:Generated_Source\PSoC4/cyfitter_cfg.c **** 			{0x65u, 0xA8u},
 398:Generated_Source\PSoC4/cyfitter_cfg.c **** 			{0x66u, 0x40u},
 399:Generated_Source\PSoC4/cyfitter_cfg.c **** 			{0x67u, 0x20u},
 400:Generated_Source\PSoC4/cyfitter_cfg.c **** 			{0x68u, 0x40u},
 401:Generated_Source\PSoC4/cyfitter_cfg.c **** 			{0x69u, 0x20u},
 402:Generated_Source\PSoC4/cyfitter_cfg.c **** 			{0x6Au, 0x10u},
 403:Generated_Source\PSoC4/cyfitter_cfg.c **** 			{0x6Bu, 0x80u},
 404:Generated_Source\PSoC4/cyfitter_cfg.c **** 			{0x6Cu, 0x40u},
 405:Generated_Source\PSoC4/cyfitter_cfg.c **** 			{0x6Du, 0xA8u},
 406:Generated_Source\PSoC4/cyfitter_cfg.c **** 			{0x6Eu, 0x40u},
 407:Generated_Source\PSoC4/cyfitter_cfg.c **** 			{0x6Fu, 0xA8u},
 408:Generated_Source\PSoC4/cyfitter_cfg.c **** 			{0x00u, 0x10u},
 409:Generated_Source\PSoC4/cyfitter_cfg.c **** 			{0x01u, 0x04u},
 410:Generated_Source\PSoC4/cyfitter_cfg.c **** 			{0x03u, 0x01u},
 411:Generated_Source\PSoC4/cyfitter_cfg.c **** 			{0x04u, 0x04u},
 412:Generated_Source\PSoC4/cyfitter_cfg.c **** 			{0x05u, 0x80u},
 413:Generated_Source\PSoC4/cyfitter_cfg.c **** 			{0x06u, 0x80u},
 414:Generated_Source\PSoC4/cyfitter_cfg.c **** 			{0x08u, 0x80u},
ARM GAS  C:\Windows\TEMP\ccw00nia.s 			page 16


 415:Generated_Source\PSoC4/cyfitter_cfg.c **** 			{0x09u, 0x02u},
 416:Generated_Source\PSoC4/cyfitter_cfg.c **** 			{0x0Eu, 0x10u},
 417:Generated_Source\PSoC4/cyfitter_cfg.c **** 			{0x0Fu, 0x02u},
 418:Generated_Source\PSoC4/cyfitter_cfg.c **** 			{0x10u, 0xBAu},
 419:Generated_Source\PSoC4/cyfitter_cfg.c **** 			{0x12u, 0x20u},
 420:Generated_Source\PSoC4/cyfitter_cfg.c **** 			{0x15u, 0x20u},
 421:Generated_Source\PSoC4/cyfitter_cfg.c **** 			{0x16u, 0x40u},
 422:Generated_Source\PSoC4/cyfitter_cfg.c **** 			{0x17u, 0x40u},
 423:Generated_Source\PSoC4/cyfitter_cfg.c **** 			{0x18u, 0x10u},
 424:Generated_Source\PSoC4/cyfitter_cfg.c **** 			{0x1Au, 0x49u},
 425:Generated_Source\PSoC4/cyfitter_cfg.c **** 			{0x1Cu, 0x08u},
 426:Generated_Source\PSoC4/cyfitter_cfg.c **** 			{0x1Du, 0xA0u},
 427:Generated_Source\PSoC4/cyfitter_cfg.c **** 			{0x1Eu, 0x10u},
 428:Generated_Source\PSoC4/cyfitter_cfg.c **** 			{0x1Fu, 0x01u},
 429:Generated_Source\PSoC4/cyfitter_cfg.c **** 			{0x21u, 0x02u},
 430:Generated_Source\PSoC4/cyfitter_cfg.c **** 			{0x25u, 0x01u},
 431:Generated_Source\PSoC4/cyfitter_cfg.c **** 			{0x26u, 0x01u},
 432:Generated_Source\PSoC4/cyfitter_cfg.c **** 			{0x27u, 0x50u},
 433:Generated_Source\PSoC4/cyfitter_cfg.c **** 			{0x2Du, 0x01u},
 434:Generated_Source\PSoC4/cyfitter_cfg.c **** 			{0x2Eu, 0x80u},
 435:Generated_Source\PSoC4/cyfitter_cfg.c **** 			{0x2Fu, 0x0Au},
 436:Generated_Source\PSoC4/cyfitter_cfg.c **** 			{0x35u, 0x80u},
 437:Generated_Source\PSoC4/cyfitter_cfg.c **** 			{0x36u, 0x02u},
 438:Generated_Source\PSoC4/cyfitter_cfg.c **** 			{0x37u, 0x20u},
 439:Generated_Source\PSoC4/cyfitter_cfg.c **** 			{0x38u, 0x0Eu},
 440:Generated_Source\PSoC4/cyfitter_cfg.c **** 			{0x3Cu, 0x04u},
 441:Generated_Source\PSoC4/cyfitter_cfg.c **** 			{0x3Eu, 0x12u},
 442:Generated_Source\PSoC4/cyfitter_cfg.c **** 			{0x3Fu, 0x40u},
 443:Generated_Source\PSoC4/cyfitter_cfg.c **** 			{0x40u, 0x04u},
 444:Generated_Source\PSoC4/cyfitter_cfg.c **** 			{0x41u, 0x80u},
 445:Generated_Source\PSoC4/cyfitter_cfg.c **** 			{0x45u, 0xA1u},
 446:Generated_Source\PSoC4/cyfitter_cfg.c **** 			{0x48u, 0x04u},
 447:Generated_Source\PSoC4/cyfitter_cfg.c **** 			{0x4Au, 0x01u},
 448:Generated_Source\PSoC4/cyfitter_cfg.c **** 			{0x4Bu, 0x40u},
 449:Generated_Source\PSoC4/cyfitter_cfg.c **** 			{0x4Cu, 0x04u},
 450:Generated_Source\PSoC4/cyfitter_cfg.c **** 			{0x4Du, 0x01u},
 451:Generated_Source\PSoC4/cyfitter_cfg.c **** 			{0x4Fu, 0x02u},
 452:Generated_Source\PSoC4/cyfitter_cfg.c **** 			{0x51u, 0x10u},
 453:Generated_Source\PSoC4/cyfitter_cfg.c **** 			{0x52u, 0x02u},
 454:Generated_Source\PSoC4/cyfitter_cfg.c **** 			{0x5Au, 0x40u},
 455:Generated_Source\PSoC4/cyfitter_cfg.c **** 			{0x5Bu, 0x10u},
 456:Generated_Source\PSoC4/cyfitter_cfg.c **** 			{0x60u, 0x80u},
 457:Generated_Source\PSoC4/cyfitter_cfg.c **** 			{0x61u, 0x80u},
 458:Generated_Source\PSoC4/cyfitter_cfg.c **** 			{0x62u, 0x40u},
 459:Generated_Source\PSoC4/cyfitter_cfg.c **** 			{0x68u, 0x8Au},
 460:Generated_Source\PSoC4/cyfitter_cfg.c **** 			{0x6Bu, 0x20u},
 461:Generated_Source\PSoC4/cyfitter_cfg.c **** 			{0x70u, 0x21u},
 462:Generated_Source\PSoC4/cyfitter_cfg.c **** 			{0x72u, 0x02u},
 463:Generated_Source\PSoC4/cyfitter_cfg.c **** 			{0x78u, 0x10u},
 464:Generated_Source\PSoC4/cyfitter_cfg.c **** 			{0x7Eu, 0x20u},
 465:Generated_Source\PSoC4/cyfitter_cfg.c **** 			{0x86u, 0x04u},
 466:Generated_Source\PSoC4/cyfitter_cfg.c **** 			{0x8Au, 0x01u},
 467:Generated_Source\PSoC4/cyfitter_cfg.c **** 			{0x8Bu, 0x01u},
 468:Generated_Source\PSoC4/cyfitter_cfg.c **** 			{0xC0u, 0xB7u},
 469:Generated_Source\PSoC4/cyfitter_cfg.c **** 			{0xC2u, 0xA9u},
 470:Generated_Source\PSoC4/cyfitter_cfg.c **** 			{0xC4u, 0xDBu},
 471:Generated_Source\PSoC4/cyfitter_cfg.c **** 			{0xCAu, 0xB0u},
ARM GAS  C:\Windows\TEMP\ccw00nia.s 			page 17


 472:Generated_Source\PSoC4/cyfitter_cfg.c **** 			{0xCCu, 0xB0u},
 473:Generated_Source\PSoC4/cyfitter_cfg.c **** 			{0xCEu, 0xF1u},
 474:Generated_Source\PSoC4/cyfitter_cfg.c **** 			{0xD0u, 0xBCu},
 475:Generated_Source\PSoC4/cyfitter_cfg.c **** 			{0xD2u, 0x2Cu},
 476:Generated_Source\PSoC4/cyfitter_cfg.c **** 			{0xD6u, 0x0Cu},
 477:Generated_Source\PSoC4/cyfitter_cfg.c **** 			{0xD8u, 0x01u},
 478:Generated_Source\PSoC4/cyfitter_cfg.c **** 			{0xDEu, 0x44u},
 479:Generated_Source\PSoC4/cyfitter_cfg.c **** 			{0xE4u, 0x08u},
 480:Generated_Source\PSoC4/cyfitter_cfg.c **** 			{0x84u, 0x14u},
 481:Generated_Source\PSoC4/cyfitter_cfg.c **** 			{0x86u, 0x28u},
 482:Generated_Source\PSoC4/cyfitter_cfg.c **** 			{0x8Bu, 0x0Cu},
 483:Generated_Source\PSoC4/cyfitter_cfg.c **** 			{0x8Eu, 0x02u},
 484:Generated_Source\PSoC4/cyfitter_cfg.c **** 			{0x90u, 0x02u},
 485:Generated_Source\PSoC4/cyfitter_cfg.c **** 			{0x91u, 0x02u},
 486:Generated_Source\PSoC4/cyfitter_cfg.c **** 			{0x93u, 0x01u},
 487:Generated_Source\PSoC4/cyfitter_cfg.c **** 			{0x95u, 0x08u},
 488:Generated_Source\PSoC4/cyfitter_cfg.c **** 			{0x97u, 0x04u},
 489:Generated_Source\PSoC4/cyfitter_cfg.c **** 			{0x9Au, 0x0Cu},
 490:Generated_Source\PSoC4/cyfitter_cfg.c **** 			{0xA2u, 0x30u},
 491:Generated_Source\PSoC4/cyfitter_cfg.c **** 			{0xA6u, 0x01u},
 492:Generated_Source\PSoC4/cyfitter_cfg.c **** 			{0xA8u, 0x02u},
 493:Generated_Source\PSoC4/cyfitter_cfg.c **** 			{0xAAu, 0x01u},
 494:Generated_Source\PSoC4/cyfitter_cfg.c **** 			{0xABu, 0x03u},
 495:Generated_Source\PSoC4/cyfitter_cfg.c **** 			{0xB0u, 0x03u},
 496:Generated_Source\PSoC4/cyfitter_cfg.c **** 			{0xB1u, 0x02u},
 497:Generated_Source\PSoC4/cyfitter_cfg.c **** 			{0xB2u, 0x18u},
 498:Generated_Source\PSoC4/cyfitter_cfg.c **** 			{0xB3u, 0x08u},
 499:Generated_Source\PSoC4/cyfitter_cfg.c **** 			{0xB4u, 0x04u},
 500:Generated_Source\PSoC4/cyfitter_cfg.c **** 			{0xB5u, 0x04u},
 501:Generated_Source\PSoC4/cyfitter_cfg.c **** 			{0xB6u, 0x20u},
 502:Generated_Source\PSoC4/cyfitter_cfg.c **** 			{0xB7u, 0x01u},
 503:Generated_Source\PSoC4/cyfitter_cfg.c **** 			{0xB8u, 0x20u},
 504:Generated_Source\PSoC4/cyfitter_cfg.c **** 			{0xBFu, 0x55u},
 505:Generated_Source\PSoC4/cyfitter_cfg.c **** 			{0xC0u, 0x62u},
 506:Generated_Source\PSoC4/cyfitter_cfg.c **** 			{0xC1u, 0x03u},
 507:Generated_Source\PSoC4/cyfitter_cfg.c **** 			{0xC6u, 0x02u},
 508:Generated_Source\PSoC4/cyfitter_cfg.c **** 			{0xC7u, 0x06u},
 509:Generated_Source\PSoC4/cyfitter_cfg.c **** 			{0xC8u, 0x14u},
 510:Generated_Source\PSoC4/cyfitter_cfg.c **** 			{0xC9u, 0xFFu},
 511:Generated_Source\PSoC4/cyfitter_cfg.c **** 			{0xCAu, 0xFFu},
 512:Generated_Source\PSoC4/cyfitter_cfg.c **** 			{0xCBu, 0xFFu},
 513:Generated_Source\PSoC4/cyfitter_cfg.c **** 			{0xCCu, 0xEAu},
 514:Generated_Source\PSoC4/cyfitter_cfg.c **** 			{0xCDu, 0x04u},
 515:Generated_Source\PSoC4/cyfitter_cfg.c **** 			{0xCFu, 0x04u},
 516:Generated_Source\PSoC4/cyfitter_cfg.c **** 			{0xD0u, 0x08u},
 517:Generated_Source\PSoC4/cyfitter_cfg.c **** 			{0xD8u, 0x0Du},
 518:Generated_Source\PSoC4/cyfitter_cfg.c **** 			{0xD9u, 0x04u},
 519:Generated_Source\PSoC4/cyfitter_cfg.c **** 			{0xDAu, 0x0Du},
 520:Generated_Source\PSoC4/cyfitter_cfg.c **** 			{0xDBu, 0x04u},
 521:Generated_Source\PSoC4/cyfitter_cfg.c **** 			{0xDCu, 0x03u},
 522:Generated_Source\PSoC4/cyfitter_cfg.c **** 			{0xDDu, 0x03u},
 523:Generated_Source\PSoC4/cyfitter_cfg.c **** 			{0xDFu, 0x01u},
 524:Generated_Source\PSoC4/cyfitter_cfg.c **** 			{0xE0u, 0x40u},
 525:Generated_Source\PSoC4/cyfitter_cfg.c **** 			{0xE1u, 0x40u},
 526:Generated_Source\PSoC4/cyfitter_cfg.c **** 			{0xE2u, 0x80u},
 527:Generated_Source\PSoC4/cyfitter_cfg.c **** 			{0xE4u, 0x60u},
 528:Generated_Source\PSoC4/cyfitter_cfg.c **** 			{0xE5u, 0x40u},
ARM GAS  C:\Windows\TEMP\ccw00nia.s 			page 18


 529:Generated_Source\PSoC4/cyfitter_cfg.c **** 			{0xE6u, 0xA0u},
 530:Generated_Source\PSoC4/cyfitter_cfg.c **** 			{0xE8u, 0x10u},
 531:Generated_Source\PSoC4/cyfitter_cfg.c **** 			{0xE9u, 0x50u},
 532:Generated_Source\PSoC4/cyfitter_cfg.c **** 			{0xEAu, 0x90u},
 533:Generated_Source\PSoC4/cyfitter_cfg.c **** 			{0xEBu, 0x50u},
 534:Generated_Source\PSoC4/cyfitter_cfg.c **** 			{0xECu, 0x20u},
 535:Generated_Source\PSoC4/cyfitter_cfg.c **** 			{0xEEu, 0xA0u},
 536:Generated_Source\PSoC4/cyfitter_cfg.c **** 			{0xEFu, 0x08u},
 537:Generated_Source\PSoC4/cyfitter_cfg.c **** 			{0x01u, 0x08u},
 538:Generated_Source\PSoC4/cyfitter_cfg.c **** 			{0x03u, 0x02u},
 539:Generated_Source\PSoC4/cyfitter_cfg.c **** 			{0x05u, 0x94u},
 540:Generated_Source\PSoC4/cyfitter_cfg.c **** 			{0x07u, 0x40u},
 541:Generated_Source\PSoC4/cyfitter_cfg.c **** 			{0x09u, 0x12u},
 542:Generated_Source\PSoC4/cyfitter_cfg.c **** 			{0x0Cu, 0x20u},
 543:Generated_Source\PSoC4/cyfitter_cfg.c **** 			{0x0Eu, 0x10u},
 544:Generated_Source\PSoC4/cyfitter_cfg.c **** 			{0x0Fu, 0x02u},
 545:Generated_Source\PSoC4/cyfitter_cfg.c **** 			{0x10u, 0xA0u},
 546:Generated_Source\PSoC4/cyfitter_cfg.c **** 			{0x13u, 0x20u},
 547:Generated_Source\PSoC4/cyfitter_cfg.c **** 			{0x16u, 0x40u},
 548:Generated_Source\PSoC4/cyfitter_cfg.c **** 			{0x17u, 0x80u},
 549:Generated_Source\PSoC4/cyfitter_cfg.c **** 			{0x19u, 0x88u},
 550:Generated_Source\PSoC4/cyfitter_cfg.c **** 			{0x1Au, 0x04u},
 551:Generated_Source\PSoC4/cyfitter_cfg.c **** 			{0x1Bu, 0x02u},
 552:Generated_Source\PSoC4/cyfitter_cfg.c **** 			{0x1Cu, 0x04u},
 553:Generated_Source\PSoC4/cyfitter_cfg.c **** 			{0x1Du, 0x16u},
 554:Generated_Source\PSoC4/cyfitter_cfg.c **** 			{0x1Fu, 0x08u},
 555:Generated_Source\PSoC4/cyfitter_cfg.c **** 			{0x22u, 0x81u},
 556:Generated_Source\PSoC4/cyfitter_cfg.c **** 			{0x23u, 0x18u},
 557:Generated_Source\PSoC4/cyfitter_cfg.c **** 			{0x24u, 0x80u},
 558:Generated_Source\PSoC4/cyfitter_cfg.c **** 			{0x25u, 0x50u},
 559:Generated_Source\PSoC4/cyfitter_cfg.c **** 			{0x27u, 0x20u},
 560:Generated_Source\PSoC4/cyfitter_cfg.c **** 			{0x29u, 0x20u},
 561:Generated_Source\PSoC4/cyfitter_cfg.c **** 			{0x2Eu, 0x42u},
 562:Generated_Source\PSoC4/cyfitter_cfg.c **** 			{0x2Fu, 0x28u},
 563:Generated_Source\PSoC4/cyfitter_cfg.c **** 			{0x30u, 0x08u},
 564:Generated_Source\PSoC4/cyfitter_cfg.c **** 			{0x33u, 0x01u},
 565:Generated_Source\PSoC4/cyfitter_cfg.c **** 			{0x34u, 0x62u},
 566:Generated_Source\PSoC4/cyfitter_cfg.c **** 			{0x37u, 0x04u},
 567:Generated_Source\PSoC4/cyfitter_cfg.c **** 			{0x38u, 0x20u},
 568:Generated_Source\PSoC4/cyfitter_cfg.c **** 			{0x3Cu, 0x80u},
 569:Generated_Source\PSoC4/cyfitter_cfg.c **** 			{0x3Du, 0x09u},
 570:Generated_Source\PSoC4/cyfitter_cfg.c **** 			{0x42u, 0x04u},
 571:Generated_Source\PSoC4/cyfitter_cfg.c **** 			{0x43u, 0x08u},
 572:Generated_Source\PSoC4/cyfitter_cfg.c **** 			{0x46u, 0x10u},
 573:Generated_Source\PSoC4/cyfitter_cfg.c **** 			{0x47u, 0x20u},
 574:Generated_Source\PSoC4/cyfitter_cfg.c **** 			{0x4Au, 0x08u},
 575:Generated_Source\PSoC4/cyfitter_cfg.c **** 			{0x4Eu, 0x08u},
 576:Generated_Source\PSoC4/cyfitter_cfg.c **** 			{0x50u, 0x80u},
 577:Generated_Source\PSoC4/cyfitter_cfg.c **** 			{0x52u, 0x08u},
 578:Generated_Source\PSoC4/cyfitter_cfg.c **** 			{0x56u, 0x12u},
 579:Generated_Source\PSoC4/cyfitter_cfg.c **** 			{0x57u, 0x20u},
 580:Generated_Source\PSoC4/cyfitter_cfg.c **** 			{0x68u, 0x08u},
 581:Generated_Source\PSoC4/cyfitter_cfg.c **** 			{0x69u, 0x05u},
 582:Generated_Source\PSoC4/cyfitter_cfg.c **** 			{0x6Bu, 0x01u},
 583:Generated_Source\PSoC4/cyfitter_cfg.c **** 			{0x6Eu, 0x40u},
 584:Generated_Source\PSoC4/cyfitter_cfg.c **** 			{0x6Fu, 0x04u},
 585:Generated_Source\PSoC4/cyfitter_cfg.c **** 			{0x77u, 0x80u},
ARM GAS  C:\Windows\TEMP\ccw00nia.s 			page 19


 586:Generated_Source\PSoC4/cyfitter_cfg.c **** 			{0x78u, 0x10u},
 587:Generated_Source\PSoC4/cyfitter_cfg.c **** 			{0x7Eu, 0x20u},
 588:Generated_Source\PSoC4/cyfitter_cfg.c **** 			{0x80u, 0x60u},
 589:Generated_Source\PSoC4/cyfitter_cfg.c **** 			{0x81u, 0x04u},
 590:Generated_Source\PSoC4/cyfitter_cfg.c **** 			{0x87u, 0x28u},
 591:Generated_Source\PSoC4/cyfitter_cfg.c **** 			{0x88u, 0x02u},
 592:Generated_Source\PSoC4/cyfitter_cfg.c **** 			{0x89u, 0x40u},
 593:Generated_Source\PSoC4/cyfitter_cfg.c **** 			{0x8Bu, 0x10u},
 594:Generated_Source\PSoC4/cyfitter_cfg.c **** 			{0x8Eu, 0x80u},
 595:Generated_Source\PSoC4/cyfitter_cfg.c **** 			{0x90u, 0x20u},
 596:Generated_Source\PSoC4/cyfitter_cfg.c **** 			{0x92u, 0x10u},
 597:Generated_Source\PSoC4/cyfitter_cfg.c **** 			{0x94u, 0x04u},
 598:Generated_Source\PSoC4/cyfitter_cfg.c **** 			{0x95u, 0x04u},
 599:Generated_Source\PSoC4/cyfitter_cfg.c **** 			{0x96u, 0x02u},
 600:Generated_Source\PSoC4/cyfitter_cfg.c **** 			{0x98u, 0x50u},
 601:Generated_Source\PSoC4/cyfitter_cfg.c **** 			{0x99u, 0x20u},
 602:Generated_Source\PSoC4/cyfitter_cfg.c **** 			{0x9Au, 0x40u},
 603:Generated_Source\PSoC4/cyfitter_cfg.c **** 			{0x9Bu, 0x40u},
 604:Generated_Source\PSoC4/cyfitter_cfg.c **** 			{0x9Du, 0x80u},
 605:Generated_Source\PSoC4/cyfitter_cfg.c **** 			{0xA0u, 0x60u},
 606:Generated_Source\PSoC4/cyfitter_cfg.c **** 			{0xA2u, 0x20u},
 607:Generated_Source\PSoC4/cyfitter_cfg.c **** 			{0xA3u, 0x01u},
 608:Generated_Source\PSoC4/cyfitter_cfg.c **** 			{0xA7u, 0x02u},
 609:Generated_Source\PSoC4/cyfitter_cfg.c **** 			{0xA8u, 0x10u},
 610:Generated_Source\PSoC4/cyfitter_cfg.c **** 			{0xACu, 0x40u},
 611:Generated_Source\PSoC4/cyfitter_cfg.c **** 			{0xADu, 0x20u},
 612:Generated_Source\PSoC4/cyfitter_cfg.c **** 			{0xB0u, 0x40u},
 613:Generated_Source\PSoC4/cyfitter_cfg.c **** 			{0xB2u, 0x01u},
 614:Generated_Source\PSoC4/cyfitter_cfg.c **** 			{0xB5u, 0x80u},
 615:Generated_Source\PSoC4/cyfitter_cfg.c **** 			{0xB7u, 0x09u},
 616:Generated_Source\PSoC4/cyfitter_cfg.c **** 			{0xC0u, 0xF5u},
 617:Generated_Source\PSoC4/cyfitter_cfg.c **** 			{0xC2u, 0xEAu},
 618:Generated_Source\PSoC4/cyfitter_cfg.c **** 			{0xC4u, 0x9Eu},
 619:Generated_Source\PSoC4/cyfitter_cfg.c **** 			{0xCAu, 0xF4u},
 620:Generated_Source\PSoC4/cyfitter_cfg.c **** 			{0xCCu, 0xF3u},
 621:Generated_Source\PSoC4/cyfitter_cfg.c **** 			{0xCEu, 0xD4u},
 622:Generated_Source\PSoC4/cyfitter_cfg.c **** 			{0xD0u, 0x66u},
 623:Generated_Source\PSoC4/cyfitter_cfg.c **** 			{0xD2u, 0x24u},
 624:Generated_Source\PSoC4/cyfitter_cfg.c **** 			{0xDEu, 0x44u},
 625:Generated_Source\PSoC4/cyfitter_cfg.c **** 			{0xE0u, 0x29u},
 626:Generated_Source\PSoC4/cyfitter_cfg.c **** 			{0xE6u, 0x04u},
 627:Generated_Source\PSoC4/cyfitter_cfg.c **** 			{0xE8u, 0x80u},
 628:Generated_Source\PSoC4/cyfitter_cfg.c **** 			{0xEAu, 0x44u},
 629:Generated_Source\PSoC4/cyfitter_cfg.c **** 			{0xEEu, 0x02u},
 630:Generated_Source\PSoC4/cyfitter_cfg.c **** 			{0x00u, 0x08u},
 631:Generated_Source\PSoC4/cyfitter_cfg.c **** 			{0x02u, 0x08u},
 632:Generated_Source\PSoC4/cyfitter_cfg.c **** 			{0x05u, 0x40u},
 633:Generated_Source\PSoC4/cyfitter_cfg.c **** 			{0x06u, 0x10u},
 634:Generated_Source\PSoC4/cyfitter_cfg.c **** 			{0x0Au, 0x40u},
 635:Generated_Source\PSoC4/cyfitter_cfg.c **** 			{0xC0u, 0xF0u},
 636:Generated_Source\PSoC4/cyfitter_cfg.c **** 			{0xC2u, 0x10u},
 637:Generated_Source\PSoC4/cyfitter_cfg.c **** 			{0x6Eu, 0x40u},
 638:Generated_Source\PSoC4/cyfitter_cfg.c **** 			{0x72u, 0x02u},
 639:Generated_Source\PSoC4/cyfitter_cfg.c **** 			{0x74u, 0x20u},
 640:Generated_Source\PSoC4/cyfitter_cfg.c **** 			{0x82u, 0x08u},
 641:Generated_Source\PSoC4/cyfitter_cfg.c **** 			{0x84u, 0x20u},
 642:Generated_Source\PSoC4/cyfitter_cfg.c **** 			{0x88u, 0x04u},
ARM GAS  C:\Windows\TEMP\ccw00nia.s 			page 20


 643:Generated_Source\PSoC4/cyfitter_cfg.c **** 			{0x92u, 0x40u},
 644:Generated_Source\PSoC4/cyfitter_cfg.c **** 			{0x9Au, 0x02u},
 645:Generated_Source\PSoC4/cyfitter_cfg.c **** 			{0xA0u, 0x04u},
 646:Generated_Source\PSoC4/cyfitter_cfg.c **** 			{0xA2u, 0x08u},
 647:Generated_Source\PSoC4/cyfitter_cfg.c **** 			{0xAEu, 0x10u},
 648:Generated_Source\PSoC4/cyfitter_cfg.c **** 			{0xB1u, 0x40u},
 649:Generated_Source\PSoC4/cyfitter_cfg.c **** 			{0xB6u, 0x02u},
 650:Generated_Source\PSoC4/cyfitter_cfg.c **** 			{0xDAu, 0x80u},
 651:Generated_Source\PSoC4/cyfitter_cfg.c **** 			{0xDCu, 0x60u},
 652:Generated_Source\PSoC4/cyfitter_cfg.c **** 			{0xE0u, 0x20u},
 653:Generated_Source\PSoC4/cyfitter_cfg.c **** 			{0xE2u, 0x40u},
 654:Generated_Source\PSoC4/cyfitter_cfg.c **** 			{0xE8u, 0x40u},
 655:Generated_Source\PSoC4/cyfitter_cfg.c **** 			{0x12u, 0x80u},
 656:Generated_Source\PSoC4/cyfitter_cfg.c **** 			{0x13u, 0x80u},
 657:Generated_Source\PSoC4/cyfitter_cfg.c **** 			{0x14u, 0x10u},
 658:Generated_Source\PSoC4/cyfitter_cfg.c **** 			{0x17u, 0x10u},
 659:Generated_Source\PSoC4/cyfitter_cfg.c **** 			{0x52u, 0x40u},
 660:Generated_Source\PSoC4/cyfitter_cfg.c **** 			{0x55u, 0x08u},
 661:Generated_Source\PSoC4/cyfitter_cfg.c **** 			{0x59u, 0x80u},
 662:Generated_Source\PSoC4/cyfitter_cfg.c **** 			{0x5Eu, 0x80u},
 663:Generated_Source\PSoC4/cyfitter_cfg.c **** 			{0x87u, 0x80u},
 664:Generated_Source\PSoC4/cyfitter_cfg.c **** 			{0x8Au, 0x40u},
 665:Generated_Source\PSoC4/cyfitter_cfg.c **** 			{0x8Bu, 0x80u},
 666:Generated_Source\PSoC4/cyfitter_cfg.c **** 			{0xC4u, 0x0Fu},
 667:Generated_Source\PSoC4/cyfitter_cfg.c **** 			{0xD4u, 0x07u},
 668:Generated_Source\PSoC4/cyfitter_cfg.c **** 			{0xD6u, 0x04u},
 669:Generated_Source\PSoC4/cyfitter_cfg.c **** 			{0xE4u, 0x01u},
 670:Generated_Source\PSoC4/cyfitter_cfg.c **** 			{0xE6u, 0x04u},
 671:Generated_Source\PSoC4/cyfitter_cfg.c **** 			{0x53u, 0x80u},
 672:Generated_Source\PSoC4/cyfitter_cfg.c **** 			{0x57u, 0x06u},
 673:Generated_Source\PSoC4/cyfitter_cfg.c **** 			{0x5Bu, 0x20u},
 674:Generated_Source\PSoC4/cyfitter_cfg.c **** 			{0x81u, 0x08u},
 675:Generated_Source\PSoC4/cyfitter_cfg.c **** 			{0x82u, 0x80u},
 676:Generated_Source\PSoC4/cyfitter_cfg.c **** 			{0x87u, 0x02u},
 677:Generated_Source\PSoC4/cyfitter_cfg.c **** 			{0x89u, 0x80u},
 678:Generated_Source\PSoC4/cyfitter_cfg.c **** 			{0x8Bu, 0x20u},
 679:Generated_Source\PSoC4/cyfitter_cfg.c **** 			{0x8Fu, 0x04u},
 680:Generated_Source\PSoC4/cyfitter_cfg.c **** 			{0x9Du, 0x80u},
 681:Generated_Source\PSoC4/cyfitter_cfg.c **** 			{0xA2u, 0x80u},
 682:Generated_Source\PSoC4/cyfitter_cfg.c **** 			{0xA3u, 0x80u},
 683:Generated_Source\PSoC4/cyfitter_cfg.c **** 			{0xA5u, 0x08u},
 684:Generated_Source\PSoC4/cyfitter_cfg.c **** 			{0xABu, 0x10u},
 685:Generated_Source\PSoC4/cyfitter_cfg.c **** 			{0xACu, 0x10u},
 686:Generated_Source\PSoC4/cyfitter_cfg.c **** 			{0xB2u, 0x40u},
 687:Generated_Source\PSoC4/cyfitter_cfg.c **** 			{0xD4u, 0x07u},
 688:Generated_Source\PSoC4/cyfitter_cfg.c **** 			{0xD6u, 0x04u},
 689:Generated_Source\PSoC4/cyfitter_cfg.c **** 			{0xE0u, 0x02u},
 690:Generated_Source\PSoC4/cyfitter_cfg.c **** 			{0xE4u, 0x05u},
 691:Generated_Source\PSoC4/cyfitter_cfg.c **** 			{0xE8u, 0x04u},
 692:Generated_Source\PSoC4/cyfitter_cfg.c **** 			{0x01u, 0x0Au},
 693:Generated_Source\PSoC4/cyfitter_cfg.c **** 			{0x10u, 0x0Au},
 694:Generated_Source\PSoC4/cyfitter_cfg.c **** 		};
 695:Generated_Source\PSoC4/cyfitter_cfg.c **** 
 696:Generated_Source\PSoC4/cyfitter_cfg.c **** 
 697:Generated_Source\PSoC4/cyfitter_cfg.c **** 
 698:Generated_Source\PSoC4/cyfitter_cfg.c **** 		CYPACKED typedef struct {
 699:Generated_Source\PSoC4/cyfitter_cfg.c **** 			void CYFAR *address;
ARM GAS  C:\Windows\TEMP\ccw00nia.s 			page 21


 700:Generated_Source\PSoC4/cyfitter_cfg.c **** 			uint16 size;
 701:Generated_Source\PSoC4/cyfitter_cfg.c **** 		} CYPACKED_ATTR cfg_memset_t;
 702:Generated_Source\PSoC4/cyfitter_cfg.c **** 
 703:Generated_Source\PSoC4/cyfitter_cfg.c **** 
 704:Generated_Source\PSoC4/cyfitter_cfg.c **** 		CYPACKED typedef struct {
 705:Generated_Source\PSoC4/cyfitter_cfg.c **** 			void CYFAR *dest;
 706:Generated_Source\PSoC4/cyfitter_cfg.c **** 			const void CYCODE *src;
 707:Generated_Source\PSoC4/cyfitter_cfg.c **** 			uint16 size;
 708:Generated_Source\PSoC4/cyfitter_cfg.c **** 		} CYPACKED_ATTR cfg_memcpy_t;
 709:Generated_Source\PSoC4/cyfitter_cfg.c **** 
 710:Generated_Source\PSoC4/cyfitter_cfg.c **** 		static const cfg_memset_t CYCODE cfg_memset_list[] = {
 711:Generated_Source\PSoC4/cyfitter_cfg.c **** 			/* address, size */
 712:Generated_Source\PSoC4/cyfitter_cfg.c **** 			{(void CYFAR *)(CYDEV_UDB_P0_U0_BASE), 128u},
 713:Generated_Source\PSoC4/cyfitter_cfg.c **** 			{(void CYFAR *)(CYDEV_UDB_P0_ROUTE_BASE), 256u},
 714:Generated_Source\PSoC4/cyfitter_cfg.c **** 			{(void CYFAR *)(CYDEV_UDB_P1_U1_BASE), 384u},
 715:Generated_Source\PSoC4/cyfitter_cfg.c **** 			{(void CYFAR *)(CYDEV_UDB_DSI0_BASE), 1024u},
 716:Generated_Source\PSoC4/cyfitter_cfg.c **** 		};
 717:Generated_Source\PSoC4/cyfitter_cfg.c **** 
 718:Generated_Source\PSoC4/cyfitter_cfg.c **** 		/* UDB_0_1_1_CONFIG Address: CYDEV_UDB_P0_U1_BASE Size (bytes): 128 */
 719:Generated_Source\PSoC4/cyfitter_cfg.c **** 		static const uint8 CYCODE BS_UDB_0_1_1_CONFIG_VAL[] = {
 720:Generated_Source\PSoC4/cyfitter_cfg.c **** 			0x00u, 0x00u, 0x02u, 0x40u, 0x06u, 0x2Cu, 0x30u, 0x10u, 0x00u, 0x08u, 0x00u, 0x00u, 0x08u, 0x35u
 721:Generated_Source\PSoC4/cyfitter_cfg.c **** 			0x00u, 0x01u, 0x00u, 0x00u, 0x04u, 0x00u, 0x02u, 0x00u, 0x00u, 0x00u, 0x00u, 0x40u, 0x00u, 0x02u
 722:Generated_Source\PSoC4/cyfitter_cfg.c **** 			0x1Eu, 0x00u, 0x60u, 0x20u, 0x00u, 0x00u, 0x00u, 0x00u, 0x02u, 0x1Bu, 0x01u, 0x24u, 0x22u, 0x00u
 723:Generated_Source\PSoC4/cyfitter_cfg.c **** 			0x01u, 0x3Fu, 0x06u, 0x40u, 0x40u, 0x00u, 0x38u, 0x00u, 0x00u, 0x00u, 0x88u, 0x00u, 0x00u, 0x00u
 724:Generated_Source\PSoC4/cyfitter_cfg.c **** 			0x64u, 0x01u, 0x02u, 0x00u, 0x00u, 0x90u, 0x00u, 0x00u, 0x02u, 0xFFu, 0xFFu, 0xFFu, 0x0Fu, 0x0Fu
 725:Generated_Source\PSoC4/cyfitter_cfg.c **** 			0x00u, 0x00u, 0x00u, 0x00u, 0x00u, 0x00u, 0x00u, 0x00u, 0x0Eu, 0x0Eu, 0x0Eu, 0x00u, 0x33u, 0x03u
 726:Generated_Source\PSoC4/cyfitter_cfg.c **** 			0x40u, 0xA8u, 0x40u, 0x20u, 0x40u, 0xA8u, 0x40u, 0x20u, 0x40u, 0x20u, 0x10u, 0x80u, 0x40u, 0xA8u
 727:Generated_Source\PSoC4/cyfitter_cfg.c **** 			0x00u, 0x00u, 0x00u, 0x00u, 0x00u, 0x00u, 0x00u, 0x00u, 0x00u, 0x00u, 0x00u, 0x00u, 0x00u, 0x00u
 728:Generated_Source\PSoC4/cyfitter_cfg.c **** 
 729:Generated_Source\PSoC4/cyfitter_cfg.c **** 		/* UDB_0_0_1_CONFIG Address: CYDEV_UDB_P1_U0_BASE Size (bytes): 128 */
 730:Generated_Source\PSoC4/cyfitter_cfg.c **** 		static const uint8 CYCODE BS_UDB_0_0_1_CONFIG_VAL[] = {
 731:Generated_Source\PSoC4/cyfitter_cfg.c **** 			0x20u, 0x10u, 0x5Cu, 0x20u, 0x80u, 0x00u, 0x00u, 0x04u, 0x12u, 0x00u, 0x24u, 0x00u, 0x0Eu, 0x00u
 732:Generated_Source\PSoC4/cyfitter_cfg.c **** 			0x00u, 0x00u, 0x00u, 0x01u, 0x00u, 0x03u, 0x10u, 0x0Cu, 0x00u, 0x00u, 0x80u, 0x30u, 0x00u, 0x00u
 733:Generated_Source\PSoC4/cyfitter_cfg.c **** 			0x20u, 0x00u, 0x42u, 0x40u, 0x00u, 0x00u, 0x00u, 0x40u, 0x00u, 0x00u, 0x00u, 0x40u, 0x00u, 0x05u
 734:Generated_Source\PSoC4/cyfitter_cfg.c **** 			0x01u, 0x20u, 0x80u, 0x40u, 0x7Eu, 0x0Fu, 0x00u, 0x10u, 0x00u, 0x00u, 0x00u, 0x00u, 0x00u, 0x00u
 735:Generated_Source\PSoC4/cyfitter_cfg.c **** 			0x23u, 0x06u, 0x00u, 0x00u, 0x00u, 0x00u, 0x20u, 0x60u, 0x28u, 0xFFu, 0xFFu, 0xFFu, 0xEAu, 0x04u
 736:Generated_Source\PSoC4/cyfitter_cfg.c **** 			0x08u, 0x00u, 0x83u, 0x80u, 0x00u, 0x00u, 0x00u, 0x00u, 0x0Eu, 0x0Eu, 0x0Eu, 0x0Eu, 0x33u, 0x33u
 737:Generated_Source\PSoC4/cyfitter_cfg.c **** 			0x00u, 0x00u, 0x00u, 0x00u, 0x00u, 0x00u, 0xA0u, 0x00u, 0x40u, 0x40u, 0x90u, 0x50u, 0x60u, 0x40u
 738:Generated_Source\PSoC4/cyfitter_cfg.c **** 			0x00u, 0x00u, 0x00u, 0x00u, 0x00u, 0x00u, 0x00u, 0x00u, 0x00u, 0x00u, 0x00u, 0x00u, 0x00u, 0x00u
 739:Generated_Source\PSoC4/cyfitter_cfg.c **** 
 740:Generated_Source\PSoC4/cyfitter_cfg.c **** 		static const cfg_memcpy_t CYCODE cfg_memcpy_list [] = {
 741:Generated_Source\PSoC4/cyfitter_cfg.c **** 			/* dest, src, size */
 742:Generated_Source\PSoC4/cyfitter_cfg.c **** 			{(void CYFAR *)(CYDEV_UDB_P0_U1_BASE), BS_UDB_0_1_1_CONFIG_VAL, 128u},
 743:Generated_Source\PSoC4/cyfitter_cfg.c **** 			{(void CYFAR *)(CYDEV_UDB_P1_U0_BASE), BS_UDB_0_0_1_CONFIG_VAL, 128u},
 744:Generated_Source\PSoC4/cyfitter_cfg.c **** 		};
 745:Generated_Source\PSoC4/cyfitter_cfg.c **** 
 746:Generated_Source\PSoC4/cyfitter_cfg.c **** 		uint8 CYDATA i;
 747:Generated_Source\PSoC4/cyfitter_cfg.c **** 
 748:Generated_Source\PSoC4/cyfitter_cfg.c **** 		/* Zero out critical memory blocks before beginning configuration */
 749:Generated_Source\PSoC4/cyfitter_cfg.c **** 		for (i = 0u; i < (sizeof(cfg_memset_list)/sizeof(cfg_memset_list[0])); i++)
 400              		.loc 1 749 0
 401 0144 0024     		movs	r4, #0
 402 0146 0FE0     		b	.L15
 403              	.LVL26:
 404              	.L16:
 405              	.LBB4:
 750:Generated_Source\PSoC4/cyfitter_cfg.c **** 		{
ARM GAS  C:\Windows\TEMP\ccw00nia.s 			page 22


 751:Generated_Source\PSoC4/cyfitter_cfg.c **** 			const cfg_memset_t CYCODE * CYDATA ms = &cfg_memset_list[i];
 752:Generated_Source\PSoC4/cyfitter_cfg.c **** 			CYMEMZERO(ms->address, (size_t)(uint32)(ms->size));
 406              		.loc 1 752 0 discriminator 3
 407 0148 4148     		ldr	r0, .L19+8
 408 014a 6200     		lsls	r2, r4, #1
 409 014c 1319     		adds	r3, r2, r4
 410 014e 5900     		lsls	r1, r3, #1
 411 0150 0B00     		movs	r3, r1
 412 0152 4118     		adds	r1, r0, r1
 413 0154 8988     		ldrh	r1, [r1, #4]
 414 0156 1A5A     		ldrh	r2, [r3, r0]
 415 0158 C318     		adds	r3, r0, r3
 416 015a 5888     		ldrh	r0, [r3, #2]
 417 015c 0004     		lsls	r0, r0, #16
 418 015e 1043     		orrs	r0, r2
 419 0160 FFF7FEFF 		bl	CYMEMZERO
 420              	.LVL27:
 421              	.LBE4:
 749:Generated_Source\PSoC4/cyfitter_cfg.c **** 		{
 422              		.loc 1 749 0 discriminator 3
 423 0164 0134     		adds	r4, r4, #1
 424              	.LVL28:
 425 0166 E4B2     		uxtb	r4, r4
 426              	.LVL29:
 427              	.L15:
 749:Generated_Source\PSoC4/cyfitter_cfg.c **** 		{
 428              		.loc 1 749 0 is_stmt 0 discriminator 1
 429 0168 032C     		cmp	r4, #3
 430 016a EDD9     		bls	.L16
 431 016c 0024     		movs	r4, #0
 432              	.LVL30:
 433 016e 14E0     		b	.L17
 434              	.LVL31:
 435              	.L18:
 436              	.LBB5:
 753:Generated_Source\PSoC4/cyfitter_cfg.c **** 		}
 754:Generated_Source\PSoC4/cyfitter_cfg.c **** 
 755:Generated_Source\PSoC4/cyfitter_cfg.c **** 		/* Copy device configuration data into registers */
 756:Generated_Source\PSoC4/cyfitter_cfg.c **** 		for (i = 0u; i < (sizeof(cfg_memcpy_list)/sizeof(cfg_memcpy_list[0])); i++)
 757:Generated_Source\PSoC4/cyfitter_cfg.c **** 		{
 758:Generated_Source\PSoC4/cyfitter_cfg.c **** 			const cfg_memcpy_t CYCODE * CYDATA mc = &cfg_memcpy_list[i];
 759:Generated_Source\PSoC4/cyfitter_cfg.c **** 			void * CYDATA destPtr = mc->dest;
 437              		.loc 1 759 0 is_stmt 1 discriminator 3
 438 0170 374E     		ldr	r6, .L19+8
 439 0172 A200     		lsls	r2, r4, #2
 440 0174 1119     		adds	r1, r2, r4
 441 0176 4B00     		lsls	r3, r1, #1
 442 0178 F318     		adds	r3, r6, r3
 443 017a 198B     		ldrh	r1, [r3, #24]
 444 017c 588B     		ldrh	r0, [r3, #26]
 445 017e 0004     		lsls	r0, r0, #16
 446 0180 0843     		orrs	r0, r1
 447              	.LVL32:
 760:Generated_Source\PSoC4/cyfitter_cfg.c **** 			const void CYCODE * CYDATA srcPtr = mc->src;
 448              		.loc 1 760 0 discriminator 3
 449 0182 9D8B     		ldrh	r5, [r3, #28]
 450 0184 D98B     		ldrh	r1, [r3, #30]
ARM GAS  C:\Windows\TEMP\ccw00nia.s 			page 23


 451 0186 0904     		lsls	r1, r1, #16
 452 0188 2943     		orrs	r1, r5
 453              	.LVL33:
 761:Generated_Source\PSoC4/cyfitter_cfg.c **** 			uint16 CYDATA numBytes = mc->size;
 454              		.loc 1 761 0 discriminator 3
 455 018a 1319     		adds	r3, r2, r4
 456 018c 5A00     		lsls	r2, r3, #1
 457 018e B218     		adds	r2, r6, r2
 458 0190 128C     		ldrh	r2, [r2, #32]
 459              	.LVL34:
 762:Generated_Source\PSoC4/cyfitter_cfg.c **** 			CYCONFIGCPYCODE(destPtr, srcPtr, numBytes);
 460              		.loc 1 762 0 discriminator 3
 461 0192 FFF7FEFF 		bl	CYCONFIGCPYCODE
 462              	.LVL35:
 463              	.LBE5:
 756:Generated_Source\PSoC4/cyfitter_cfg.c **** 		{
 464              		.loc 1 756 0 discriminator 3
 465 0196 0134     		adds	r4, r4, #1
 466              	.LVL36:
 467 0198 E4B2     		uxtb	r4, r4
 468              	.LVL37:
 469              	.L17:
 756:Generated_Source\PSoC4/cyfitter_cfg.c **** 		{
 470              		.loc 1 756 0 is_stmt 0 discriminator 1
 471 019a 012C     		cmp	r4, #1
 472 019c E8D9     		bls	.L18
 763:Generated_Source\PSoC4/cyfitter_cfg.c **** 		}
 764:Generated_Source\PSoC4/cyfitter_cfg.c **** 
 765:Generated_Source\PSoC4/cyfitter_cfg.c **** 		cfg_write_bytes32(cy_cfg_addr_table, cy_cfg_data_table);
 473              		.loc 1 765 0 is_stmt 1
 474 019e 2C49     		ldr	r1, .L19+8
 475 01a0 2C31     		adds	r1, r1, #44
 476 01a2 2C48     		ldr	r0, .L19+12
 477 01a4 5830     		adds	r0, r0, #88
 478 01a6 FFF7FEFF 		bl	cfg_write_bytes32
 479              	.LVL38:
 766:Generated_Source\PSoC4/cyfitter_cfg.c **** 
 767:Generated_Source\PSoC4/cyfitter_cfg.c **** 		/* HSIOM Starting address: CYDEV_HSIOM_BASE */
 768:Generated_Source\PSoC4/cyfitter_cfg.c **** 		CY_SET_REG32((void *)(CYDEV_HSIOM_BASE), 0xEE000000u);
 480              		.loc 1 768 0
 481 01aa EE22     		movs	r2, #238
 482 01ac 1206     		lsls	r2, r2, #24
 483 01ae 2A4B     		ldr	r3, .L19+16
 484 01b0 1A60     		str	r2, [r3]
 769:Generated_Source\PSoC4/cyfitter_cfg.c **** 		CY_SET_REG32((void *)(CYREG_HSIOM_PORT_SEL1), 0x00990000u);
 485              		.loc 1 769 0
 486 01b2 9923     		movs	r3, #153
 487 01b4 1B04     		lsls	r3, r3, #16
 488 01b6 294A     		ldr	r2, .L19+20
 489 01b8 1360     		str	r3, [r2]
 770:Generated_Source\PSoC4/cyfitter_cfg.c **** 		CY_SET_REG32((void *)(CYREG_HSIOM_PORT_SEL2), 0x00003333u);
 490              		.loc 1 770 0
 491 01ba 294A     		ldr	r2, .L19+24
 492 01bc 2949     		ldr	r1, .L19+28
 493 01be 0A60     		str	r2, [r1]
 771:Generated_Source\PSoC4/cyfitter_cfg.c **** 		CY_SET_REG32((void *)(CYREG_HSIOM_PORT_SEL3), 0x00003333u);
 494              		.loc 1 771 0
ARM GAS  C:\Windows\TEMP\ccw00nia.s 			page 24


 495 01c0 2949     		ldr	r1, .L19+32
 496 01c2 0A60     		str	r2, [r1]
 772:Generated_Source\PSoC4/cyfitter_cfg.c **** 
 773:Generated_Source\PSoC4/cyfitter_cfg.c **** 		/* UDB_PA_0 Starting address: CYDEV_UDB_PA0_BASE */
 774:Generated_Source\PSoC4/cyfitter_cfg.c **** 		CY_SET_REG32((void *)(CYDEV_UDB_PA0_BASE), 0x00990000u);
 497              		.loc 1 774 0
 498 01c4 294A     		ldr	r2, .L19+36
 499 01c6 1360     		str	r3, [r2]
 775:Generated_Source\PSoC4/cyfitter_cfg.c **** 
 776:Generated_Source\PSoC4/cyfitter_cfg.c **** 		/* UDB_PA_1 Starting address: CYDEV_UDB_PA1_BASE */
 777:Generated_Source\PSoC4/cyfitter_cfg.c **** 		CY_SET_REG32((void *)(CYDEV_UDB_PA1_BASE), 0x00990000u);
 500              		.loc 1 777 0
 501 01c8 294A     		ldr	r2, .L19+40
 502 01ca 1360     		str	r3, [r2]
 778:Generated_Source\PSoC4/cyfitter_cfg.c **** 
 779:Generated_Source\PSoC4/cyfitter_cfg.c **** 		/* UDB_PA_2 Starting address: CYDEV_UDB_PA2_BASE */
 780:Generated_Source\PSoC4/cyfitter_cfg.c **** 		CY_SET_REG32((void *)(CYDEV_UDB_PA2_BASE), 0x00990000u);
 503              		.loc 1 780 0
 504 01cc 294A     		ldr	r2, .L19+44
 505 01ce 1360     		str	r3, [r2]
 781:Generated_Source\PSoC4/cyfitter_cfg.c **** 		CY_SET_REG32((void *)(CYREG_UDB_PA2_CFG8), 0x004B0000u);
 506              		.loc 1 781 0
 507 01d0 9621     		movs	r1, #150
 508 01d2 C903     		lsls	r1, r1, #15
 509 01d4 284A     		ldr	r2, .L19+48
 510 01d6 1160     		str	r1, [r2]
 782:Generated_Source\PSoC4/cyfitter_cfg.c **** 
 783:Generated_Source\PSoC4/cyfitter_cfg.c **** 		/* UDB_PA_3 Starting address: CYDEV_UDB_PA3_BASE */
 784:Generated_Source\PSoC4/cyfitter_cfg.c **** 		CY_SET_REG32((void *)(CYDEV_UDB_PA3_BASE), 0x00990000u);
 511              		.loc 1 784 0
 512 01d8 284A     		ldr	r2, .L19+52
 513 01da 1360     		str	r3, [r2]
 785:Generated_Source\PSoC4/cyfitter_cfg.c **** 		CY_SET_REG32((void *)(CYREG_UDB_PA3_CFG8), 0x008D0000u);
 514              		.loc 1 785 0
 515 01dc 8D22     		movs	r2, #141
 516 01de 1204     		lsls	r2, r2, #16
 517 01e0 274B     		ldr	r3, .L19+56
 518 01e2 1A60     		str	r2, [r3]
 786:Generated_Source\PSoC4/cyfitter_cfg.c **** 
 787:Generated_Source\PSoC4/cyfitter_cfg.c **** 		/* INT_SELECT Starting address: CYDEV_CPUSS_INT_SEL */
 788:Generated_Source\PSoC4/cyfitter_cfg.c **** 		CY_SET_REG32((void *)(CYREG_CPUSS_INT_SEL), 0x0000000Eu);
 519              		.loc 1 788 0
 520 01e4 0E23     		movs	r3, #14
 521 01e6 274A     		ldr	r2, .L19+60
 522 01e8 1360     		str	r3, [r2]
 789:Generated_Source\PSoC4/cyfitter_cfg.c **** 
 790:Generated_Source\PSoC4/cyfitter_cfg.c **** 		/* INT_CONFIG Starting address: CYDEV_UDB_INT_CFG */
 791:Generated_Source\PSoC4/cyfitter_cfg.c **** 		CY_SET_REG32((void *)(CYREG_UDB_INT_CFG), 0x0000000Eu);
 523              		.loc 1 791 0
 524 01ea 274A     		ldr	r2, .L19+64
 525 01ec 1360     		str	r3, [r2]
 792:Generated_Source\PSoC4/cyfitter_cfg.c **** 
 793:Generated_Source\PSoC4/cyfitter_cfg.c **** 		/* Enable UDB array and digital routing */
 794:Generated_Source\PSoC4/cyfitter_cfg.c **** 		CY_SET_XTND_REG8((void *)CYREG_UDB_UDBIF_WAIT_CFG, (uint8)((CY_GET_XTND_REG8((void *)CYREG_UDB_UD
 526              		.loc 1 794 0
 527 01ee 2749     		ldr	r1, .L19+68
 528 01f0 0B78     		ldrb	r3, [r1]
ARM GAS  C:\Windows\TEMP\ccw00nia.s 			page 25


 529 01f2 3C22     		movs	r2, #60
 530 01f4 9343     		bics	r3, r2
 531 01f6 1422     		movs	r2, #20
 532 01f8 1343     		orrs	r3, r2
 533 01fa DBB2     		uxtb	r3, r3
 534 01fc 0B70     		strb	r3, [r1]
 795:Generated_Source\PSoC4/cyfitter_cfg.c **** 		CY_SET_XTND_REG8((void *)CYREG_UDB_UDBIF_BANK_CTL, (uint8)(CY_GET_XTND_REG8((void *)CYREG_UDB_UDB
 535              		.loc 1 795 0
 536 01fe 244A     		ldr	r2, .L19+72
 537 0200 1178     		ldrb	r1, [r2]
 538 0202 1623     		movs	r3, #22
 539 0204 0B43     		orrs	r3, r1
 540 0206 DBB2     		uxtb	r3, r3
 541 0208 1370     		strb	r3, [r2]
 542              	.LBE3:
 796:Generated_Source\PSoC4/cyfitter_cfg.c **** 	}
 797:Generated_Source\PSoC4/cyfitter_cfg.c **** 
 798:Generated_Source\PSoC4/cyfitter_cfg.c **** 	/* Perform second pass device configuration. These items must be configured in specific order afte
 799:Generated_Source\PSoC4/cyfitter_cfg.c **** 	/* IOPINS0_0 Starting address: CYDEV_GPIO_PRT0_BASE */
 800:Generated_Source\PSoC4/cyfitter_cfg.c **** 	CY_SET_REG32((void *)(CYDEV_GPIO_PRT0_BASE), 0x0000001Fu);
 543              		.loc 1 800 0
 544 020a 1F22     		movs	r2, #31
 545 020c 214B     		ldr	r3, .L19+76
 546 020e 1A60     		str	r2, [r3]
 801:Generated_Source\PSoC4/cyfitter_cfg.c **** 	CY_SET_REG32((void *)(CYREG_GPIO_PRT0_PC), 0x00DB2492u);
 547              		.loc 1 801 0
 548 0210 214A     		ldr	r2, .L19+80
 549 0212 224B     		ldr	r3, .L19+84
 550 0214 1A60     		str	r2, [r3]
 802:Generated_Source\PSoC4/cyfitter_cfg.c **** 
 803:Generated_Source\PSoC4/cyfitter_cfg.c **** 	/* IOPINS0_1 Starting address: CYDEV_GPIO_PRT1_BASE */
 804:Generated_Source\PSoC4/cyfitter_cfg.c **** 	CY_SET_REG32((void *)(CYDEV_GPIO_PRT1_BASE), 0x00000020u);
 551              		.loc 1 804 0
 552 0216 2023     		movs	r3, #32
 553 0218 214A     		ldr	r2, .L19+88
 554 021a 1360     		str	r3, [r2]
 805:Generated_Source\PSoC4/cyfitter_cfg.c **** 	CY_SET_REG32((void *)(CYREG_GPIO_PRT1_PC), 0x00031000u);
 555              		.loc 1 805 0
 556 021c C421     		movs	r1, #196
 557 021e 8902     		lsls	r1, r1, #10
 558 0220 204A     		ldr	r2, .L19+92
 559 0222 1160     		str	r1, [r2]
 806:Generated_Source\PSoC4/cyfitter_cfg.c **** 	CY_SET_REG32((void *)(CYREG_GPIO_PRT1_PC2), 0x00000020u);
 560              		.loc 1 806 0
 561 0224 204A     		ldr	r2, .L19+96
 562 0226 1360     		str	r3, [r2]
 807:Generated_Source\PSoC4/cyfitter_cfg.c **** 
 808:Generated_Source\PSoC4/cyfitter_cfg.c **** 	/* IOPINS0_2 Starting address: CYDEV_GPIO_PRT2_BASE */
 809:Generated_Source\PSoC4/cyfitter_cfg.c **** 	CY_SET_REG32((void *)(CYDEV_GPIO_PRT2_BASE), 0x0000000Fu);
 563              		.loc 1 809 0
 564 0228 0F22     		movs	r2, #15
 565 022a 204B     		ldr	r3, .L19+100
 566 022c 1A60     		str	r2, [r3]
 810:Generated_Source\PSoC4/cyfitter_cfg.c **** 	CY_SET_REG32((void *)(CYREG_GPIO_PRT2_PC), 0x00000DB6u);
 567              		.loc 1 810 0
 568 022e 204B     		ldr	r3, .L19+104
 569 0230 2049     		ldr	r1, .L19+108
ARM GAS  C:\Windows\TEMP\ccw00nia.s 			page 26


 570 0232 0B60     		str	r3, [r1]
 811:Generated_Source\PSoC4/cyfitter_cfg.c **** 
 812:Generated_Source\PSoC4/cyfitter_cfg.c **** 	/* IOPINS0_3 Starting address: CYDEV_GPIO_PRT3_BASE */
 813:Generated_Source\PSoC4/cyfitter_cfg.c **** 	CY_SET_REG32((void *)(CYDEV_GPIO_PRT3_BASE), 0x0000000Fu);
 571              		.loc 1 813 0
 572 0234 2049     		ldr	r1, .L19+112
 573 0236 0A60     		str	r2, [r1]
 814:Generated_Source\PSoC4/cyfitter_cfg.c **** 	CY_SET_REG32((void *)(CYREG_GPIO_PRT3_PC), 0x00000DB6u);
 574              		.loc 1 814 0
 575 0238 204A     		ldr	r2, .L19+116
 576 023a 1360     		str	r3, [r2]
 815:Generated_Source\PSoC4/cyfitter_cfg.c **** 
 816:Generated_Source\PSoC4/cyfitter_cfg.c **** 
 817:Generated_Source\PSoC4/cyfitter_cfg.c **** 	/* Setup clocks based on selections from Clock DWR */
 818:Generated_Source\PSoC4/cyfitter_cfg.c **** 	ClockSetup();
 577              		.loc 1 818 0
 578 023c FFF7E0FE 		bl	ClockSetup
 579              	.LVL39:
 819:Generated_Source\PSoC4/cyfitter_cfg.c **** 
 820:Generated_Source\PSoC4/cyfitter_cfg.c **** 	/* Perform basic analog initialization to defaults */
 821:Generated_Source\PSoC4/cyfitter_cfg.c **** 	AnalogSetDefault();
 580              		.loc 1 821 0
 581 0240 FFF7FEFF 		bl	AnalogSetDefault
 582              	.LVL40:
 822:Generated_Source\PSoC4/cyfitter_cfg.c **** 
 823:Generated_Source\PSoC4/cyfitter_cfg.c **** }
 583              		.loc 1 823 0
 584              		@ sp needed
 585              	.LVL41:
 586 0244 70BD     		pop	{r4, r5, r6, pc}
 587              	.L20:
 588 0246 C046     		.align	2
 589              	.L19:
 590 0248 6CF02E40 		.word	1076818028
 591 024c 1C700F40 		.word	1074753564
 592 0250 00000000 		.word	.LANCHOR0
 593 0254 80020000 		.word	.LANCHOR1
 594 0258 00000240 		.word	1073872896
 595 025c 00010240 		.word	1073873152
 596 0260 33330000 		.word	13107
 597 0264 00020240 		.word	1073873408
 598 0268 00030240 		.word	1073873664
 599 026c 00500F40 		.word	1074745344
 600 0270 10500F40 		.word	1074745360
 601 0274 20500F40 		.word	1074745376
 602 0278 28500F40 		.word	1074745384
 603 027c 30500F40 		.word	1074745392
 604 0280 38500F40 		.word	1074745400
 605 0284 20001040 		.word	1074790432
 606 0288 00800F40 		.word	1074757632
 607 028c 01700F40 		.word	1074753537
 608 0290 00700F40 		.word	1074753536
 609 0294 00000440 		.word	1074003968
 610 0298 9224DB00 		.word	14361746
 611 029c 08000440 		.word	1074003976
 612 02a0 00010440 		.word	1074004224
 613 02a4 08010440 		.word	1074004232
ARM GAS  C:\Windows\TEMP\ccw00nia.s 			page 27


 614 02a8 18010440 		.word	1074004248
 615 02ac 00020440 		.word	1074004480
 616 02b0 B60D0000 		.word	3510
 617 02b4 08020440 		.word	1074004488
 618 02b8 00030440 		.word	1074004736
 619 02bc 08030440 		.word	1074004744
 620              		.cfi_endproc
 621              	.LFE8:
 622              		.size	cyfitter_cfg, .-cyfitter_cfg
 623              		.section	.rodata
 624              		.align	2
 625              		.set	.LANCHOR0,. + 0
 626              		.set	.LANCHOR1,. + 640
 627              		.type	cfg_memset_list.4921, %object
 628              		.size	cfg_memset_list.4921, 24
 629              	cfg_memset_list.4921:
 630 0000 00300F40 		.word	1074737152
 631 0004 8000     		.short	128
 632 0006 00310F40 		.4byte	1074737408
 633 000a 0001     		.short	256
 634 000c 80320F40 		.word	1074737792
 635 0010 8001     		.short	384
 636 0012 00400F40 		.4byte	1074741248
 637 0016 0004     		.short	1024
 638              		.type	cfg_memcpy_list.4924, %object
 639              		.size	cfg_memcpy_list.4924, 20
 640              	cfg_memcpy_list.4924:
 641 0018 80300F40 		.word	1074737280
 642 001c 00030000 		.word	BS_UDB_0_1_1_CONFIG_VAL.4922
 643 0020 8000     		.short	128
 644 0022 00320F40 		.4byte	1074737664
 645 0026 80030000 		.4byte	BS_UDB_0_0_1_CONFIG_VAL.4923
 646 002a 8000     		.short	128
 647              		.type	cy_cfg_data_table.4911, %object
 648              		.size	cy_cfg_data_table.4911, 684
 649              	cy_cfg_data_table.4911:
 650 002c 73       		.byte	115
 651 002d 0F       		.byte	15
 652 002e 80       		.byte	-128
 653 002f 03       		.byte	3
 654 0030 03       		.byte	3
 655 0031 01       		.byte	1
 656 0032 04       		.byte	4
 657 0033 04       		.byte	4
 658 0034 06       		.byte	6
 659 0035 08       		.byte	8
 660 0036 0A       		.byte	10
 661 0037 02       		.byte	2
 662 0038 0E       		.byte	14
 663 0039 0C       		.byte	12
 664 003a 12       		.byte	18
 665 003b 10       		.byte	16
 666 003c 1E       		.byte	30
 667 003d 03       		.byte	3
 668 003e 20       		.byte	32
 669 003f 02       		.byte	2
 670 0040 22       		.byte	34
ARM GAS  C:\Windows\TEMP\ccw00nia.s 			page 28


 671 0041 01       		.byte	1
 672 0042 2A       		.byte	42
 673 0043 10       		.byte	16
 674 0044 2E       		.byte	46
 675 0045 01       		.byte	1
 676 0046 30       		.byte	48
 677 0047 10       		.byte	16
 678 0048 31       		.byte	49
 679 0049 01       		.byte	1
 680 004a 32       		.byte	50
 681 004b 03       		.byte	3
 682 004c 34       		.byte	52
 683 004d 04       		.byte	4
 684 004e 36       		.byte	54
 685 004f 08       		.byte	8
 686 0050 3E       		.byte	62
 687 0051 51       		.byte	81
 688 0052 40       		.byte	64
 689 0053 25       		.byte	37
 690 0054 41       		.byte	65
 691 0055 01       		.byte	1
 692 0056 42       		.byte	66
 693 0057 06       		.byte	6
 694 0058 46       		.byte	70
 695 0059 E0       		.byte	-32
 696 005a 47       		.byte	71
 697 005b E0       		.byte	-32
 698 005c 48       		.byte	72
 699 005d 28       		.byte	40
 700 005e 49       		.byte	73
 701 005f FF       		.byte	-1
 702 0060 4A       		.byte	74
 703 0061 FF       		.byte	-1
 704 0062 4B       		.byte	75
 705 0063 FF       		.byte	-1
 706 0064 4F       		.byte	79
 707 0065 01       		.byte	1
 708 0066 52       		.byte	82
 709 0067 BF       		.byte	-65
 710 0068 53       		.byte	83
 711 0069 18       		.byte	24
 712 006a 54       		.byte	84
 713 006b 03       		.byte	3
 714 006c 56       		.byte	86
 715 006d 04       		.byte	4
 716 006e 58       		.byte	88
 717 006f 04       		.byte	4
 718 0070 59       		.byte	89
 719 0071 04       		.byte	4
 720 0072 5A       		.byte	90
 721 0073 0D       		.byte	13
 722 0074 5B       		.byte	91
 723 0075 04       		.byte	4
 724 0076 5C       		.byte	92
 725 0077 11       		.byte	17
 726 0078 5D       		.byte	93
 727 0079 13       		.byte	19
ARM GAS  C:\Windows\TEMP\ccw00nia.s 			page 29


 728 007a 5F       		.byte	95
 729 007b 01       		.byte	1
 730 007c 60       		.byte	96
 731 007d 40       		.byte	64
 732 007e 61       		.byte	97
 733 007f A8       		.byte	-88
 734 0080 62       		.byte	98
 735 0081 40       		.byte	64
 736 0082 63       		.byte	99
 737 0083 20       		.byte	32
 738 0084 64       		.byte	100
 739 0085 40       		.byte	64
 740 0086 65       		.byte	101
 741 0087 A8       		.byte	-88
 742 0088 66       		.byte	102
 743 0089 40       		.byte	64
 744 008a 67       		.byte	103
 745 008b 20       		.byte	32
 746 008c 68       		.byte	104
 747 008d 40       		.byte	64
 748 008e 69       		.byte	105
 749 008f 20       		.byte	32
 750 0090 6A       		.byte	106
 751 0091 10       		.byte	16
 752 0092 6B       		.byte	107
 753 0093 80       		.byte	-128
 754 0094 6C       		.byte	108
 755 0095 40       		.byte	64
 756 0096 6D       		.byte	109
 757 0097 A8       		.byte	-88
 758 0098 6E       		.byte	110
 759 0099 40       		.byte	64
 760 009a 6F       		.byte	111
 761 009b A8       		.byte	-88
 762 009c 00       		.byte	0
 763 009d 10       		.byte	16
 764 009e 01       		.byte	1
 765 009f 04       		.byte	4
 766 00a0 03       		.byte	3
 767 00a1 01       		.byte	1
 768 00a2 04       		.byte	4
 769 00a3 04       		.byte	4
 770 00a4 05       		.byte	5
 771 00a5 80       		.byte	-128
 772 00a6 06       		.byte	6
 773 00a7 80       		.byte	-128
 774 00a8 08       		.byte	8
 775 00a9 80       		.byte	-128
 776 00aa 09       		.byte	9
 777 00ab 02       		.byte	2
 778 00ac 0E       		.byte	14
 779 00ad 10       		.byte	16
 780 00ae 0F       		.byte	15
 781 00af 02       		.byte	2
 782 00b0 10       		.byte	16
 783 00b1 BA       		.byte	-70
 784 00b2 12       		.byte	18
ARM GAS  C:\Windows\TEMP\ccw00nia.s 			page 30


 785 00b3 20       		.byte	32
 786 00b4 15       		.byte	21
 787 00b5 20       		.byte	32
 788 00b6 16       		.byte	22
 789 00b7 40       		.byte	64
 790 00b8 17       		.byte	23
 791 00b9 40       		.byte	64
 792 00ba 18       		.byte	24
 793 00bb 10       		.byte	16
 794 00bc 1A       		.byte	26
 795 00bd 49       		.byte	73
 796 00be 1C       		.byte	28
 797 00bf 08       		.byte	8
 798 00c0 1D       		.byte	29
 799 00c1 A0       		.byte	-96
 800 00c2 1E       		.byte	30
 801 00c3 10       		.byte	16
 802 00c4 1F       		.byte	31
 803 00c5 01       		.byte	1
 804 00c6 21       		.byte	33
 805 00c7 02       		.byte	2
 806 00c8 25       		.byte	37
 807 00c9 01       		.byte	1
 808 00ca 26       		.byte	38
 809 00cb 01       		.byte	1
 810 00cc 27       		.byte	39
 811 00cd 50       		.byte	80
 812 00ce 2D       		.byte	45
 813 00cf 01       		.byte	1
 814 00d0 2E       		.byte	46
 815 00d1 80       		.byte	-128
 816 00d2 2F       		.byte	47
 817 00d3 0A       		.byte	10
 818 00d4 35       		.byte	53
 819 00d5 80       		.byte	-128
 820 00d6 36       		.byte	54
 821 00d7 02       		.byte	2
 822 00d8 37       		.byte	55
 823 00d9 20       		.byte	32
 824 00da 38       		.byte	56
 825 00db 0E       		.byte	14
 826 00dc 3C       		.byte	60
 827 00dd 04       		.byte	4
 828 00de 3E       		.byte	62
 829 00df 12       		.byte	18
 830 00e0 3F       		.byte	63
 831 00e1 40       		.byte	64
 832 00e2 40       		.byte	64
 833 00e3 04       		.byte	4
 834 00e4 41       		.byte	65
 835 00e5 80       		.byte	-128
 836 00e6 45       		.byte	69
 837 00e7 A1       		.byte	-95
 838 00e8 48       		.byte	72
 839 00e9 04       		.byte	4
 840 00ea 4A       		.byte	74
 841 00eb 01       		.byte	1
ARM GAS  C:\Windows\TEMP\ccw00nia.s 			page 31


 842 00ec 4B       		.byte	75
 843 00ed 40       		.byte	64
 844 00ee 4C       		.byte	76
 845 00ef 04       		.byte	4
 846 00f0 4D       		.byte	77
 847 00f1 01       		.byte	1
 848 00f2 4F       		.byte	79
 849 00f3 02       		.byte	2
 850 00f4 51       		.byte	81
 851 00f5 10       		.byte	16
 852 00f6 52       		.byte	82
 853 00f7 02       		.byte	2
 854 00f8 5A       		.byte	90
 855 00f9 40       		.byte	64
 856 00fa 5B       		.byte	91
 857 00fb 10       		.byte	16
 858 00fc 60       		.byte	96
 859 00fd 80       		.byte	-128
 860 00fe 61       		.byte	97
 861 00ff 80       		.byte	-128
 862 0100 62       		.byte	98
 863 0101 40       		.byte	64
 864 0102 68       		.byte	104
 865 0103 8A       		.byte	-118
 866 0104 6B       		.byte	107
 867 0105 20       		.byte	32
 868 0106 70       		.byte	112
 869 0107 21       		.byte	33
 870 0108 72       		.byte	114
 871 0109 02       		.byte	2
 872 010a 78       		.byte	120
 873 010b 10       		.byte	16
 874 010c 7E       		.byte	126
 875 010d 20       		.byte	32
 876 010e 86       		.byte	-122
 877 010f 04       		.byte	4
 878 0110 8A       		.byte	-118
 879 0111 01       		.byte	1
 880 0112 8B       		.byte	-117
 881 0113 01       		.byte	1
 882 0114 C0       		.byte	-64
 883 0115 B7       		.byte	-73
 884 0116 C2       		.byte	-62
 885 0117 A9       		.byte	-87
 886 0118 C4       		.byte	-60
 887 0119 DB       		.byte	-37
 888 011a CA       		.byte	-54
 889 011b B0       		.byte	-80
 890 011c CC       		.byte	-52
 891 011d B0       		.byte	-80
 892 011e CE       		.byte	-50
 893 011f F1       		.byte	-15
 894 0120 D0       		.byte	-48
 895 0121 BC       		.byte	-68
 896 0122 D2       		.byte	-46
 897 0123 2C       		.byte	44
 898 0124 D6       		.byte	-42
ARM GAS  C:\Windows\TEMP\ccw00nia.s 			page 32


 899 0125 0C       		.byte	12
 900 0126 D8       		.byte	-40
 901 0127 01       		.byte	1
 902 0128 DE       		.byte	-34
 903 0129 44       		.byte	68
 904 012a E4       		.byte	-28
 905 012b 08       		.byte	8
 906 012c 84       		.byte	-124
 907 012d 14       		.byte	20
 908 012e 86       		.byte	-122
 909 012f 28       		.byte	40
 910 0130 8B       		.byte	-117
 911 0131 0C       		.byte	12
 912 0132 8E       		.byte	-114
 913 0133 02       		.byte	2
 914 0134 90       		.byte	-112
 915 0135 02       		.byte	2
 916 0136 91       		.byte	-111
 917 0137 02       		.byte	2
 918 0138 93       		.byte	-109
 919 0139 01       		.byte	1
 920 013a 95       		.byte	-107
 921 013b 08       		.byte	8
 922 013c 97       		.byte	-105
 923 013d 04       		.byte	4
 924 013e 9A       		.byte	-102
 925 013f 0C       		.byte	12
 926 0140 A2       		.byte	-94
 927 0141 30       		.byte	48
 928 0142 A6       		.byte	-90
 929 0143 01       		.byte	1
 930 0144 A8       		.byte	-88
 931 0145 02       		.byte	2
 932 0146 AA       		.byte	-86
 933 0147 01       		.byte	1
 934 0148 AB       		.byte	-85
 935 0149 03       		.byte	3
 936 014a B0       		.byte	-80
 937 014b 03       		.byte	3
 938 014c B1       		.byte	-79
 939 014d 02       		.byte	2
 940 014e B2       		.byte	-78
 941 014f 18       		.byte	24
 942 0150 B3       		.byte	-77
 943 0151 08       		.byte	8
 944 0152 B4       		.byte	-76
 945 0153 04       		.byte	4
 946 0154 B5       		.byte	-75
 947 0155 04       		.byte	4
 948 0156 B6       		.byte	-74
 949 0157 20       		.byte	32
 950 0158 B7       		.byte	-73
 951 0159 01       		.byte	1
 952 015a B8       		.byte	-72
 953 015b 20       		.byte	32
 954 015c BF       		.byte	-65
 955 015d 55       		.byte	85
ARM GAS  C:\Windows\TEMP\ccw00nia.s 			page 33


 956 015e C0       		.byte	-64
 957 015f 62       		.byte	98
 958 0160 C1       		.byte	-63
 959 0161 03       		.byte	3
 960 0162 C6       		.byte	-58
 961 0163 02       		.byte	2
 962 0164 C7       		.byte	-57
 963 0165 06       		.byte	6
 964 0166 C8       		.byte	-56
 965 0167 14       		.byte	20
 966 0168 C9       		.byte	-55
 967 0169 FF       		.byte	-1
 968 016a CA       		.byte	-54
 969 016b FF       		.byte	-1
 970 016c CB       		.byte	-53
 971 016d FF       		.byte	-1
 972 016e CC       		.byte	-52
 973 016f EA       		.byte	-22
 974 0170 CD       		.byte	-51
 975 0171 04       		.byte	4
 976 0172 CF       		.byte	-49
 977 0173 04       		.byte	4
 978 0174 D0       		.byte	-48
 979 0175 08       		.byte	8
 980 0176 D8       		.byte	-40
 981 0177 0D       		.byte	13
 982 0178 D9       		.byte	-39
 983 0179 04       		.byte	4
 984 017a DA       		.byte	-38
 985 017b 0D       		.byte	13
 986 017c DB       		.byte	-37
 987 017d 04       		.byte	4
 988 017e DC       		.byte	-36
 989 017f 03       		.byte	3
 990 0180 DD       		.byte	-35
 991 0181 03       		.byte	3
 992 0182 DF       		.byte	-33
 993 0183 01       		.byte	1
 994 0184 E0       		.byte	-32
 995 0185 40       		.byte	64
 996 0186 E1       		.byte	-31
 997 0187 40       		.byte	64
 998 0188 E2       		.byte	-30
 999 0189 80       		.byte	-128
 1000 018a E4       		.byte	-28
 1001 018b 60       		.byte	96
 1002 018c E5       		.byte	-27
 1003 018d 40       		.byte	64
 1004 018e E6       		.byte	-26
 1005 018f A0       		.byte	-96
 1006 0190 E8       		.byte	-24
 1007 0191 10       		.byte	16
 1008 0192 E9       		.byte	-23
 1009 0193 50       		.byte	80
 1010 0194 EA       		.byte	-22
 1011 0195 90       		.byte	-112
 1012 0196 EB       		.byte	-21
ARM GAS  C:\Windows\TEMP\ccw00nia.s 			page 34


 1013 0197 50       		.byte	80
 1014 0198 EC       		.byte	-20
 1015 0199 20       		.byte	32
 1016 019a EE       		.byte	-18
 1017 019b A0       		.byte	-96
 1018 019c EF       		.byte	-17
 1019 019d 08       		.byte	8
 1020 019e 01       		.byte	1
 1021 019f 08       		.byte	8
 1022 01a0 03       		.byte	3
 1023 01a1 02       		.byte	2
 1024 01a2 05       		.byte	5
 1025 01a3 94       		.byte	-108
 1026 01a4 07       		.byte	7
 1027 01a5 40       		.byte	64
 1028 01a6 09       		.byte	9
 1029 01a7 12       		.byte	18
 1030 01a8 0C       		.byte	12
 1031 01a9 20       		.byte	32
 1032 01aa 0E       		.byte	14
 1033 01ab 10       		.byte	16
 1034 01ac 0F       		.byte	15
 1035 01ad 02       		.byte	2
 1036 01ae 10       		.byte	16
 1037 01af A0       		.byte	-96
 1038 01b0 13       		.byte	19
 1039 01b1 20       		.byte	32
 1040 01b2 16       		.byte	22
 1041 01b3 40       		.byte	64
 1042 01b4 17       		.byte	23
 1043 01b5 80       		.byte	-128
 1044 01b6 19       		.byte	25
 1045 01b7 88       		.byte	-120
 1046 01b8 1A       		.byte	26
 1047 01b9 04       		.byte	4
 1048 01ba 1B       		.byte	27
 1049 01bb 02       		.byte	2
 1050 01bc 1C       		.byte	28
 1051 01bd 04       		.byte	4
 1052 01be 1D       		.byte	29
 1053 01bf 16       		.byte	22
 1054 01c0 1F       		.byte	31
 1055 01c1 08       		.byte	8
 1056 01c2 22       		.byte	34
 1057 01c3 81       		.byte	-127
 1058 01c4 23       		.byte	35
 1059 01c5 18       		.byte	24
 1060 01c6 24       		.byte	36
 1061 01c7 80       		.byte	-128
 1062 01c8 25       		.byte	37
 1063 01c9 50       		.byte	80
 1064 01ca 27       		.byte	39
 1065 01cb 20       		.byte	32
 1066 01cc 29       		.byte	41
 1067 01cd 20       		.byte	32
 1068 01ce 2E       		.byte	46
 1069 01cf 42       		.byte	66
ARM GAS  C:\Windows\TEMP\ccw00nia.s 			page 35


 1070 01d0 2F       		.byte	47
 1071 01d1 28       		.byte	40
 1072 01d2 30       		.byte	48
 1073 01d3 08       		.byte	8
 1074 01d4 33       		.byte	51
 1075 01d5 01       		.byte	1
 1076 01d6 34       		.byte	52
 1077 01d7 62       		.byte	98
 1078 01d8 37       		.byte	55
 1079 01d9 04       		.byte	4
 1080 01da 38       		.byte	56
 1081 01db 20       		.byte	32
 1082 01dc 3C       		.byte	60
 1083 01dd 80       		.byte	-128
 1084 01de 3D       		.byte	61
 1085 01df 09       		.byte	9
 1086 01e0 42       		.byte	66
 1087 01e1 04       		.byte	4
 1088 01e2 43       		.byte	67
 1089 01e3 08       		.byte	8
 1090 01e4 46       		.byte	70
 1091 01e5 10       		.byte	16
 1092 01e6 47       		.byte	71
 1093 01e7 20       		.byte	32
 1094 01e8 4A       		.byte	74
 1095 01e9 08       		.byte	8
 1096 01ea 4E       		.byte	78
 1097 01eb 08       		.byte	8
 1098 01ec 50       		.byte	80
 1099 01ed 80       		.byte	-128
 1100 01ee 52       		.byte	82
 1101 01ef 08       		.byte	8
 1102 01f0 56       		.byte	86
 1103 01f1 12       		.byte	18
 1104 01f2 57       		.byte	87
 1105 01f3 20       		.byte	32
 1106 01f4 68       		.byte	104
 1107 01f5 08       		.byte	8
 1108 01f6 69       		.byte	105
 1109 01f7 05       		.byte	5
 1110 01f8 6B       		.byte	107
 1111 01f9 01       		.byte	1
 1112 01fa 6E       		.byte	110
 1113 01fb 40       		.byte	64
 1114 01fc 6F       		.byte	111
 1115 01fd 04       		.byte	4
 1116 01fe 77       		.byte	119
 1117 01ff 80       		.byte	-128
 1118 0200 78       		.byte	120
 1119 0201 10       		.byte	16
 1120 0202 7E       		.byte	126
 1121 0203 20       		.byte	32
 1122 0204 80       		.byte	-128
 1123 0205 60       		.byte	96
 1124 0206 81       		.byte	-127
 1125 0207 04       		.byte	4
 1126 0208 87       		.byte	-121
ARM GAS  C:\Windows\TEMP\ccw00nia.s 			page 36


 1127 0209 28       		.byte	40
 1128 020a 88       		.byte	-120
 1129 020b 02       		.byte	2
 1130 020c 89       		.byte	-119
 1131 020d 40       		.byte	64
 1132 020e 8B       		.byte	-117
 1133 020f 10       		.byte	16
 1134 0210 8E       		.byte	-114
 1135 0211 80       		.byte	-128
 1136 0212 90       		.byte	-112
 1137 0213 20       		.byte	32
 1138 0214 92       		.byte	-110
 1139 0215 10       		.byte	16
 1140 0216 94       		.byte	-108
 1141 0217 04       		.byte	4
 1142 0218 95       		.byte	-107
 1143 0219 04       		.byte	4
 1144 021a 96       		.byte	-106
 1145 021b 02       		.byte	2
 1146 021c 98       		.byte	-104
 1147 021d 50       		.byte	80
 1148 021e 99       		.byte	-103
 1149 021f 20       		.byte	32
 1150 0220 9A       		.byte	-102
 1151 0221 40       		.byte	64
 1152 0222 9B       		.byte	-101
 1153 0223 40       		.byte	64
 1154 0224 9D       		.byte	-99
 1155 0225 80       		.byte	-128
 1156 0226 A0       		.byte	-96
 1157 0227 60       		.byte	96
 1158 0228 A2       		.byte	-94
 1159 0229 20       		.byte	32
 1160 022a A3       		.byte	-93
 1161 022b 01       		.byte	1
 1162 022c A7       		.byte	-89
 1163 022d 02       		.byte	2
 1164 022e A8       		.byte	-88
 1165 022f 10       		.byte	16
 1166 0230 AC       		.byte	-84
 1167 0231 40       		.byte	64
 1168 0232 AD       		.byte	-83
 1169 0233 20       		.byte	32
 1170 0234 B0       		.byte	-80
 1171 0235 40       		.byte	64
 1172 0236 B2       		.byte	-78
 1173 0237 01       		.byte	1
 1174 0238 B5       		.byte	-75
 1175 0239 80       		.byte	-128
 1176 023a B7       		.byte	-73
 1177 023b 09       		.byte	9
 1178 023c C0       		.byte	-64
 1179 023d F5       		.byte	-11
 1180 023e C2       		.byte	-62
 1181 023f EA       		.byte	-22
 1182 0240 C4       		.byte	-60
 1183 0241 9E       		.byte	-98
ARM GAS  C:\Windows\TEMP\ccw00nia.s 			page 37


 1184 0242 CA       		.byte	-54
 1185 0243 F4       		.byte	-12
 1186 0244 CC       		.byte	-52
 1187 0245 F3       		.byte	-13
 1188 0246 CE       		.byte	-50
 1189 0247 D4       		.byte	-44
 1190 0248 D0       		.byte	-48
 1191 0249 66       		.byte	102
 1192 024a D2       		.byte	-46
 1193 024b 24       		.byte	36
 1194 024c DE       		.byte	-34
 1195 024d 44       		.byte	68
 1196 024e E0       		.byte	-32
 1197 024f 29       		.byte	41
 1198 0250 E6       		.byte	-26
 1199 0251 04       		.byte	4
 1200 0252 E8       		.byte	-24
 1201 0253 80       		.byte	-128
 1202 0254 EA       		.byte	-22
 1203 0255 44       		.byte	68
 1204 0256 EE       		.byte	-18
 1205 0257 02       		.byte	2
 1206 0258 00       		.byte	0
 1207 0259 08       		.byte	8
 1208 025a 02       		.byte	2
 1209 025b 08       		.byte	8
 1210 025c 05       		.byte	5
 1211 025d 40       		.byte	64
 1212 025e 06       		.byte	6
 1213 025f 10       		.byte	16
 1214 0260 0A       		.byte	10
 1215 0261 40       		.byte	64
 1216 0262 C0       		.byte	-64
 1217 0263 F0       		.byte	-16
 1218 0264 C2       		.byte	-62
 1219 0265 10       		.byte	16
 1220 0266 6E       		.byte	110
 1221 0267 40       		.byte	64
 1222 0268 72       		.byte	114
 1223 0269 02       		.byte	2
 1224 026a 74       		.byte	116
 1225 026b 20       		.byte	32
 1226 026c 82       		.byte	-126
 1227 026d 08       		.byte	8
 1228 026e 84       		.byte	-124
 1229 026f 20       		.byte	32
 1230 0270 88       		.byte	-120
 1231 0271 04       		.byte	4
 1232 0272 92       		.byte	-110
 1233 0273 40       		.byte	64
 1234 0274 9A       		.byte	-102
 1235 0275 02       		.byte	2
 1236 0276 A0       		.byte	-96
 1237 0277 04       		.byte	4
 1238 0278 A2       		.byte	-94
 1239 0279 08       		.byte	8
 1240 027a AE       		.byte	-82
ARM GAS  C:\Windows\TEMP\ccw00nia.s 			page 38


 1241 027b 10       		.byte	16
 1242 027c B1       		.byte	-79
 1243 027d 40       		.byte	64
 1244 027e B6       		.byte	-74
 1245 027f 02       		.byte	2
 1246 0280 DA       		.byte	-38
 1247 0281 80       		.byte	-128
 1248 0282 DC       		.byte	-36
 1249 0283 60       		.byte	96
 1250 0284 E0       		.byte	-32
 1251 0285 20       		.byte	32
 1252 0286 E2       		.byte	-30
 1253 0287 40       		.byte	64
 1254 0288 E8       		.byte	-24
 1255 0289 40       		.byte	64
 1256 028a 12       		.byte	18
 1257 028b 80       		.byte	-128
 1258 028c 13       		.byte	19
 1259 028d 80       		.byte	-128
 1260 028e 14       		.byte	20
 1261 028f 10       		.byte	16
 1262 0290 17       		.byte	23
 1263 0291 10       		.byte	16
 1264 0292 52       		.byte	82
 1265 0293 40       		.byte	64
 1266 0294 55       		.byte	85
 1267 0295 08       		.byte	8
 1268 0296 59       		.byte	89
 1269 0297 80       		.byte	-128
 1270 0298 5E       		.byte	94
 1271 0299 80       		.byte	-128
 1272 029a 87       		.byte	-121
 1273 029b 80       		.byte	-128
 1274 029c 8A       		.byte	-118
 1275 029d 40       		.byte	64
 1276 029e 8B       		.byte	-117
 1277 029f 80       		.byte	-128
 1278 02a0 C4       		.byte	-60
 1279 02a1 0F       		.byte	15
 1280 02a2 D4       		.byte	-44
 1281 02a3 07       		.byte	7
 1282 02a4 D6       		.byte	-42
 1283 02a5 04       		.byte	4
 1284 02a6 E4       		.byte	-28
 1285 02a7 01       		.byte	1
 1286 02a8 E6       		.byte	-26
 1287 02a9 04       		.byte	4
 1288 02aa 53       		.byte	83
 1289 02ab 80       		.byte	-128
 1290 02ac 57       		.byte	87
 1291 02ad 06       		.byte	6
 1292 02ae 5B       		.byte	91
 1293 02af 20       		.byte	32
 1294 02b0 81       		.byte	-127
 1295 02b1 08       		.byte	8
 1296 02b2 82       		.byte	-126
 1297 02b3 80       		.byte	-128
ARM GAS  C:\Windows\TEMP\ccw00nia.s 			page 39


 1298 02b4 87       		.byte	-121
 1299 02b5 02       		.byte	2
 1300 02b6 89       		.byte	-119
 1301 02b7 80       		.byte	-128
 1302 02b8 8B       		.byte	-117
 1303 02b9 20       		.byte	32
 1304 02ba 8F       		.byte	-113
 1305 02bb 04       		.byte	4
 1306 02bc 9D       		.byte	-99
 1307 02bd 80       		.byte	-128
 1308 02be A2       		.byte	-94
 1309 02bf 80       		.byte	-128
 1310 02c0 A3       		.byte	-93
 1311 02c1 80       		.byte	-128
 1312 02c2 A5       		.byte	-91
 1313 02c3 08       		.byte	8
 1314 02c4 AB       		.byte	-85
 1315 02c5 10       		.byte	16
 1316 02c6 AC       		.byte	-84
 1317 02c7 10       		.byte	16
 1318 02c8 B2       		.byte	-78
 1319 02c9 40       		.byte	64
 1320 02ca D4       		.byte	-44
 1321 02cb 07       		.byte	7
 1322 02cc D6       		.byte	-42
 1323 02cd 04       		.byte	4
 1324 02ce E0       		.byte	-32
 1325 02cf 02       		.byte	2
 1326 02d0 E4       		.byte	-28
 1327 02d1 05       		.byte	5
 1328 02d2 E8       		.byte	-24
 1329 02d3 04       		.byte	4
 1330 02d4 01       		.byte	1
 1331 02d5 0A       		.byte	10
 1332 02d6 10       		.byte	16
 1333 02d7 0A       		.byte	10
 1334              		.type	cy_cfg_addr_table.4910, %object
 1335              		.size	cy_cfg_addr_table.4910, 40
 1336              	cy_cfg_addr_table.4910:
 1337 02d8 02000F40 		.word	1074724866
 1338 02dc 36300F40 		.word	1074737206
 1339 02e0 48310F40 		.word	1074737480
 1340 02e4 39320F40 		.word	1074737721
 1341 02e8 5D330F40 		.word	1074738013
 1342 02ec 07400F40 		.word	1074741255
 1343 02f0 12410F40 		.word	1074741522
 1344 02f4 10420F40 		.word	1074741776
 1345 02f8 15430F40 		.word	1074742037
 1346 02fc 02600F40 		.word	1074749442
 1347              		.type	BS_UDB_0_1_1_CONFIG_VAL.4922, %object
 1348              		.size	BS_UDB_0_1_1_CONFIG_VAL.4922, 128
 1349              	BS_UDB_0_1_1_CONFIG_VAL.4922:
 1350 0300 00       		.byte	0
 1351 0301 00       		.byte	0
 1352 0302 02       		.byte	2
 1353 0303 40       		.byte	64
 1354 0304 06       		.byte	6
ARM GAS  C:\Windows\TEMP\ccw00nia.s 			page 40


 1355 0305 2C       		.byte	44
 1356 0306 30       		.byte	48
 1357 0307 10       		.byte	16
 1358 0308 00       		.byte	0
 1359 0309 08       		.byte	8
 1360 030a 00       		.byte	0
 1361 030b 00       		.byte	0
 1362 030c 08       		.byte	8
 1363 030d 35       		.byte	53
 1364 030e 14       		.byte	20
 1365 030f 0A       		.byte	10
 1366 0310 00       		.byte	0
 1367 0311 01       		.byte	1
 1368 0312 00       		.byte	0
 1369 0313 00       		.byte	0
 1370 0314 04       		.byte	4
 1371 0315 00       		.byte	0
 1372 0316 02       		.byte	2
 1373 0317 00       		.byte	0
 1374 0318 00       		.byte	0
 1375 0319 00       		.byte	0
 1376 031a 00       		.byte	0
 1377 031b 40       		.byte	64
 1378 031c 00       		.byte	0
 1379 031d 02       		.byte	2
 1380 031e 08       		.byte	8
 1381 031f 04       		.byte	4
 1382 0320 1E       		.byte	30
 1383 0321 00       		.byte	0
 1384 0322 60       		.byte	96
 1385 0323 20       		.byte	32
 1386 0324 00       		.byte	0
 1387 0325 00       		.byte	0
 1388 0326 00       		.byte	0
 1389 0327 00       		.byte	0
 1390 0328 02       		.byte	2
 1391 0329 1B       		.byte	27
 1392 032a 01       		.byte	1
 1393 032b 24       		.byte	36
 1394 032c 22       		.byte	34
 1395 032d 00       		.byte	0
 1396 032e 5C       		.byte	92
 1397 032f 01       		.byte	1
 1398 0330 01       		.byte	1
 1399 0331 3F       		.byte	63
 1400 0332 06       		.byte	6
 1401 0333 40       		.byte	64
 1402 0334 40       		.byte	64
 1403 0335 00       		.byte	0
 1404 0336 38       		.byte	56
 1405 0337 00       		.byte	0
 1406 0338 00       		.byte	0
 1407 0339 00       		.byte	0
 1408 033a 88       		.byte	-120
 1409 033b 00       		.byte	0
 1410 033c 00       		.byte	0
 1411 033d 00       		.byte	0
ARM GAS  C:\Windows\TEMP\ccw00nia.s 			page 41


 1412 033e 00       		.byte	0
 1413 033f 04       		.byte	4
 1414 0340 64       		.byte	100
 1415 0341 01       		.byte	1
 1416 0342 02       		.byte	2
 1417 0343 00       		.byte	0
 1418 0344 00       		.byte	0
 1419 0345 90       		.byte	-112
 1420 0346 00       		.byte	0
 1421 0347 00       		.byte	0
 1422 0348 02       		.byte	2
 1423 0349 FF       		.byte	-1
 1424 034a FF       		.byte	-1
 1425 034b FF       		.byte	-1
 1426 034c 0F       		.byte	15
 1427 034d 0F       		.byte	15
 1428 034e 0F       		.byte	15
 1429 034f 01       		.byte	1
 1430 0350 00       		.byte	0
 1431 0351 00       		.byte	0
 1432 0352 00       		.byte	0
 1433 0353 00       		.byte	0
 1434 0354 00       		.byte	0
 1435 0355 00       		.byte	0
 1436 0356 00       		.byte	0
 1437 0357 00       		.byte	0
 1438 0358 0E       		.byte	14
 1439 0359 0E       		.byte	14
 1440 035a 0E       		.byte	14
 1441 035b 00       		.byte	0
 1442 035c 33       		.byte	51
 1443 035d 03       		.byte	3
 1444 035e 00       		.byte	0
 1445 035f 01       		.byte	1
 1446 0360 40       		.byte	64
 1447 0361 A8       		.byte	-88
 1448 0362 40       		.byte	64
 1449 0363 20       		.byte	32
 1450 0364 40       		.byte	64
 1451 0365 A8       		.byte	-88
 1452 0366 40       		.byte	64
 1453 0367 20       		.byte	32
 1454 0368 40       		.byte	64
 1455 0369 20       		.byte	32
 1456 036a 10       		.byte	16
 1457 036b 80       		.byte	-128
 1458 036c 40       		.byte	64
 1459 036d A8       		.byte	-88
 1460 036e 40       		.byte	64
 1461 036f A8       		.byte	-88
 1462 0370 00       		.byte	0
 1463 0371 00       		.byte	0
 1464 0372 00       		.byte	0
 1465 0373 00       		.byte	0
 1466 0374 00       		.byte	0
 1467 0375 00       		.byte	0
 1468 0376 00       		.byte	0
ARM GAS  C:\Windows\TEMP\ccw00nia.s 			page 42


 1469 0377 00       		.byte	0
 1470 0378 00       		.byte	0
 1471 0379 00       		.byte	0
 1472 037a 00       		.byte	0
 1473 037b 00       		.byte	0
 1474 037c 00       		.byte	0
 1475 037d 00       		.byte	0
 1476 037e 00       		.byte	0
 1477 037f 00       		.byte	0
 1478              		.type	BS_UDB_0_0_1_CONFIG_VAL.4923, %object
 1479              		.size	BS_UDB_0_0_1_CONFIG_VAL.4923, 128
 1480              	BS_UDB_0_0_1_CONFIG_VAL.4923:
 1481 0380 20       		.byte	32
 1482 0381 10       		.byte	16
 1483 0382 5C       		.byte	92
 1484 0383 20       		.byte	32
 1485 0384 80       		.byte	-128
 1486 0385 00       		.byte	0
 1487 0386 00       		.byte	0
 1488 0387 04       		.byte	4
 1489 0388 12       		.byte	18
 1490 0389 00       		.byte	0
 1491 038a 24       		.byte	36
 1492 038b 00       		.byte	0
 1493 038c 0E       		.byte	14
 1494 038d 00       		.byte	0
 1495 038e 10       		.byte	16
 1496 038f 02       		.byte	2
 1497 0390 00       		.byte	0
 1498 0391 00       		.byte	0
 1499 0392 00       		.byte	0
 1500 0393 01       		.byte	1
 1501 0394 00       		.byte	0
 1502 0395 03       		.byte	3
 1503 0396 10       		.byte	16
 1504 0397 0C       		.byte	12
 1505 0398 00       		.byte	0
 1506 0399 00       		.byte	0
 1507 039a 80       		.byte	-128
 1508 039b 30       		.byte	48
 1509 039c 00       		.byte	0
 1510 039d 00       		.byte	0
 1511 039e 0A       		.byte	10
 1512 039f 08       		.byte	8
 1513 03a0 20       		.byte	32
 1514 03a1 00       		.byte	0
 1515 03a2 42       		.byte	66
 1516 03a3 40       		.byte	64
 1517 03a4 00       		.byte	0
 1518 03a5 00       		.byte	0
 1519 03a6 00       		.byte	0
 1520 03a7 40       		.byte	64
 1521 03a8 00       		.byte	0
 1522 03a9 00       		.byte	0
 1523 03aa 00       		.byte	0
 1524 03ab 40       		.byte	64
 1525 03ac 00       		.byte	0
ARM GAS  C:\Windows\TEMP\ccw00nia.s 			page 43


 1526 03ad 05       		.byte	5
 1527 03ae 01       		.byte	1
 1528 03af 0A       		.byte	10
 1529 03b0 01       		.byte	1
 1530 03b1 20       		.byte	32
 1531 03b2 80       		.byte	-128
 1532 03b3 40       		.byte	64
 1533 03b4 7E       		.byte	126
 1534 03b5 0F       		.byte	15
 1535 03b6 00       		.byte	0
 1536 03b7 10       		.byte	16
 1537 03b8 00       		.byte	0
 1538 03b9 00       		.byte	0
 1539 03ba 00       		.byte	0
 1540 03bb 00       		.byte	0
 1541 03bc 00       		.byte	0
 1542 03bd 00       		.byte	0
 1543 03be 00       		.byte	0
 1544 03bf 41       		.byte	65
 1545 03c0 23       		.byte	35
 1546 03c1 06       		.byte	6
 1547 03c2 00       		.byte	0
 1548 03c3 00       		.byte	0
 1549 03c4 00       		.byte	0
 1550 03c5 00       		.byte	0
 1551 03c6 20       		.byte	32
 1552 03c7 60       		.byte	96
 1553 03c8 28       		.byte	40
 1554 03c9 FF       		.byte	-1
 1555 03ca FF       		.byte	-1
 1556 03cb FF       		.byte	-1
 1557 03cc EA       		.byte	-22
 1558 03cd 04       		.byte	4
 1559 03ce 00       		.byte	0
 1560 03cf 04       		.byte	4
 1561 03d0 08       		.byte	8
 1562 03d1 00       		.byte	0
 1563 03d2 83       		.byte	-125
 1564 03d3 80       		.byte	-128
 1565 03d4 00       		.byte	0
 1566 03d5 00       		.byte	0
 1567 03d6 00       		.byte	0
 1568 03d7 00       		.byte	0
 1569 03d8 0E       		.byte	14
 1570 03d9 0E       		.byte	14
 1571 03da 0E       		.byte	14
 1572 03db 0E       		.byte	14
 1573 03dc 33       		.byte	51
 1574 03dd 33       		.byte	51
 1575 03de 00       		.byte	0
 1576 03df 01       		.byte	1
 1577 03e0 00       		.byte	0
 1578 03e1 00       		.byte	0
 1579 03e2 00       		.byte	0
 1580 03e3 00       		.byte	0
 1581 03e4 00       		.byte	0
 1582 03e5 00       		.byte	0
ARM GAS  C:\Windows\TEMP\ccw00nia.s 			page 44


 1583 03e6 A0       		.byte	-96
 1584 03e7 00       		.byte	0
 1585 03e8 40       		.byte	64
 1586 03e9 40       		.byte	64
 1587 03ea 90       		.byte	-112
 1588 03eb 50       		.byte	80
 1589 03ec 60       		.byte	96
 1590 03ed 40       		.byte	64
 1591 03ee A0       		.byte	-96
 1592 03ef 08       		.byte	8
 1593 03f0 00       		.byte	0
 1594 03f1 00       		.byte	0
 1595 03f2 00       		.byte	0
 1596 03f3 00       		.byte	0
 1597 03f4 00       		.byte	0
 1598 03f5 00       		.byte	0
 1599 03f6 00       		.byte	0
 1600 03f7 00       		.byte	0
 1601 03f8 00       		.byte	0
 1602 03f9 00       		.byte	0
 1603 03fa 00       		.byte	0
 1604 03fb 00       		.byte	0
 1605 03fc 00       		.byte	0
 1606 03fd 00       		.byte	0
 1607 03fe 00       		.byte	0
 1608 03ff 00       		.byte	0
 1609              		.text
 1610              	.Letext0:
 1611              		.file 2 "c:\\program files (x86)\\cypress\\psoc creator\\4.4\\psoc creator\\import\\gnu\\arm\\5.4.
 1612              		.file 3 "Generated_Source\\PSoC4\\cytypes.h"
 1613              		.file 4 "Generated_Source\\PSoC4\\CyLFClk.h"
 1614              		.file 5 "Generated_Source\\PSoC4\\CyLib.h"