ARM GAS  C:\Windows\TEMP\ccuL5CZU.s 			page 1


   1              		.syntax unified
   2              		.cpu cortex-m0
   3              		.fpu softvfp
   4              		.eabi_attribute 20, 1
   5              		.eabi_attribute 21, 1
   6              		.eabi_attribute 23, 3
   7              		.eabi_attribute 24, 1
   8              		.eabi_attribute 25, 1
   9              		.eabi_attribute 26, 1
  10              		.eabi_attribute 30, 1
  11              		.eabi_attribute 34, 0
  12              		.eabi_attribute 18, 4
  13              		.thumb
  14              		.syntax unified
  15              		.file	"debug.c"
  16              		.text
  17              	.Ltext0:
  18              		.cfi_sections	.debug_frame
  19              		.section	.text.Print,"ax",%progbits
  20              		.align	2
  21              		.global	Print
  22              		.code	16
  23              		.thumb_func
  24              		.type	Print, %function
  25              	Print:
  26              	.LFB36:
  27              		.file 1 "debug.c"
   1:debug.c       **** #include "debug.h"
   2:debug.c       **** #include "ballServeController.h"
   3:debug.c       **** 
   4:debug.c       **** void Print(char text[]) {
  28              		.loc 1 4 0
  29              		.cfi_startproc
  30              		@ args = 0, pretend = 0, frame = 0
  31              		@ frame_needed = 0, uses_anonymous_args = 0
  32              	.LVL0:
  33 0000 10B5     		push	{r4, lr}
  34              		.cfi_def_cfa_offset 8
  35              		.cfi_offset 4, -8
  36              		.cfi_offset 14, -4
   5:debug.c       ****     UART_UartPutString(text);
  37              		.loc 1 5 0
  38 0002 FFF7FEFF 		bl	UART_UartPutString
  39              	.LVL1:
   6:debug.c       **** }
  40              		.loc 1 6 0
  41              		@ sp needed
  42 0006 10BD     		pop	{r4, pc}
  43              		.cfi_endproc
  44              	.LFE36:
  45              		.size	Print, .-Print
  46              		.section	.text.Println,"ax",%progbits
  47              		.align	2
  48              		.global	Println
  49              		.code	16
  50              		.thumb_func
  51              		.type	Println, %function
ARM GAS  C:\Windows\TEMP\ccuL5CZU.s 			page 2


  52              	Println:
  53              	.LFB37:
   7:debug.c       **** void Println(char text[]) {
  54              		.loc 1 7 0
  55              		.cfi_startproc
  56              		@ args = 0, pretend = 0, frame = 0
  57              		@ frame_needed = 0, uses_anonymous_args = 0
  58              	.LVL2:
  59 0000 10B5     		push	{r4, lr}
  60              		.cfi_def_cfa_offset 8
  61              		.cfi_offset 4, -8
  62              		.cfi_offset 14, -4
   8:debug.c       ****     UART_UartPutString(text);
  63              		.loc 1 8 0
  64 0002 FFF7FEFF 		bl	UART_UartPutString
  65              	.LVL3:
   9:debug.c       ****     UART_UartPutChar('\n');
  66              		.loc 1 9 0
  67 0006 0A20     		movs	r0, #10
  68 0008 FFF7FEFF 		bl	UART_SpiUartWriteTxData
  69              	.LVL4:
  10:debug.c       ****     UART_UartPutChar('\r');
  70              		.loc 1 10 0
  71 000c 0D20     		movs	r0, #13
  72 000e FFF7FEFF 		bl	UART_SpiUartWriteTxData
  73              	.LVL5:
  11:debug.c       **** }
  74              		.loc 1 11 0
  75              		@ sp needed
  76 0012 10BD     		pop	{r4, pc}
  77              		.cfi_endproc
  78              	.LFE37:
  79              		.size	Println, .-Println
  80              		.section	.text.PrintMotorSpeeds,"ax",%progbits
  81              		.align	2
  82              		.global	PrintMotorSpeeds
  83              		.code	16
  84              		.thumb_func
  85              		.type	PrintMotorSpeeds, %function
  86              	PrintMotorSpeeds:
  87              	.LFB38:
  12:debug.c       **** 
  13:debug.c       **** int counter = 0;
  14:debug.c       **** void PrintMotorSpeeds() {
  88              		.loc 1 14 0
  89              		.cfi_startproc
  90              		@ args = 0, pretend = 0, frame = 0
  91              		@ frame_needed = 0, uses_anonymous_args = 0
  92 0000 F8B5     		push	{r3, r4, r5, r6, r7, lr}
  93              		.cfi_def_cfa_offset 24
  94              		.cfi_offset 3, -24
  95              		.cfi_offset 4, -20
  96              		.cfi_offset 5, -16
  97              		.cfi_offset 6, -12
  98              		.cfi_offset 7, -8
  99              		.cfi_offset 14, -4
  15:debug.c       ****    // if(disablePrintIfZeroRPM && FanController_GetActualSpeed(1)==0 && FanController_GetActualSpee
ARM GAS  C:\Windows\TEMP\ccuL5CZU.s 			page 3


  16:debug.c       ****    //    FanController_GetActualSpeed(3)==0 && FanController_GetActualSpeed(4)==0)
  17:debug.c       ****    //     return;
  18:debug.c       **** 
  19:debug.c       ****     if (counter < 100000) {
 100              		.loc 1 19 0
 101 0002 274B     		ldr	r3, .L8
 102 0004 1B68     		ldr	r3, [r3]
 103 0006 274A     		ldr	r2, .L8+4
 104 0008 9342     		cmp	r3, r2
 105 000a 03DC     		bgt	.L4
  20:debug.c       ****         counter++;
 106              		.loc 1 20 0
 107 000c 0133     		adds	r3, r3, #1
 108 000e 244A     		ldr	r2, .L8
 109 0010 1360     		str	r3, [r2]
  21:debug.c       ****         return;
 110              		.loc 1 21 0
 111 0012 43E0     		b	.L3
 112              	.L4:
  22:debug.c       ****     }
  23:debug.c       ****     else
  24:debug.c       ****         counter=0;
 113              		.loc 1 24 0
 114 0014 0022     		movs	r2, #0
 115 0016 224B     		ldr	r3, .L8
 116 0018 1A60     		str	r2, [r3]
 117              	.LVL6:
 118              	.LBB2:
  25:debug.c       ****     
  26:debug.c       ****     int current_rpm = 0;
  27:debug.c       ****     for (int i = 1; i < MOTOR_COUNT + 1; i++) {
 119              		.loc 1 27 0
 120 001a 0126     		movs	r6, #1
 121 001c 36E0     		b	.L6
 122              	.LVL7:
 123              	.L7:
  28:debug.c       ****         current_rpm = FanController_GetActualSpeed(i);
 124              		.loc 1 28 0 discriminator 3
 125 001e F5B2     		uxtb	r5, r6
 126 0020 2800     		movs	r0, r5
 127 0022 FFF7FEFF 		bl	FanController_GetActualSpeed
 128              	.LVL8:
 129 0026 0400     		movs	r4, r0
 130              	.LVL9:
  29:debug.c       ****         
  30:debug.c       ****         Print(MotorDirectionStr[i-1]);
 131              		.loc 1 30 0 discriminator 3
 132 0028 771E     		subs	r7, r6, #1
 133 002a BF00     		lsls	r7, r7, #2
 134 002c 1E4B     		ldr	r3, .L8+8
 135 002e F858     		ldr	r0, [r7, r3]
 136              	.LVL10:
 137 0030 FFF7FEFF 		bl	Print
 138              	.LVL11:
  31:debug.c       ****         Print(":");
 139              		.loc 1 31 0 discriminator 3
 140 0034 1D48     		ldr	r0, .L8+12
ARM GAS  C:\Windows\TEMP\ccuL5CZU.s 			page 4


 141 0036 FFF7FEFF 		bl	Print
 142              	.LVL12:
  32:debug.c       ****         
  33:debug.c       ****         sprintf(uart_rpm_buff, "%u", current_rpm / 2);
 143              		.loc 1 33 0 discriminator 3
 144 003a E20F     		lsrs	r2, r4, #31
 145 003c 1219     		adds	r2, r2, r4
 146 003e 5210     		asrs	r2, r2, #1
 147 0040 1B4C     		ldr	r4, .L8+16
 148              	.LVL13:
 149 0042 1C49     		ldr	r1, .L8+20
 150 0044 2000     		movs	r0, r4
 151 0046 FFF7FEFF 		bl	sprintf
 152              	.LVL14:
  34:debug.c       ****         Print(uart_rpm_buff);
 153              		.loc 1 34 0 discriminator 3
 154 004a 2000     		movs	r0, r4
 155 004c FFF7FEFF 		bl	Print
 156              	.LVL15:
  35:debug.c       ****         Print(" ");
 157              		.loc 1 35 0 discriminator 3
 158 0050 1948     		ldr	r0, .L8+24
 159 0052 FFF7FEFF 		bl	Print
 160              	.LVL16:
  36:debug.c       ****         
  37:debug.c       ****         current_rpm = FanController_GetDesiredSpeed(i);
 161              		.loc 1 37 0 discriminator 3
 162 0056 2800     		movs	r0, r5
 163 0058 FFF7FEFF 		bl	FanController_GetDesiredSpeed
 164              	.LVL17:
  38:debug.c       ****         sprintf(uart_rpm_buff, "%u  ", current_rpm / 2);
 165              		.loc 1 38 0 discriminator 3
 166 005c C20F     		lsrs	r2, r0, #31
 167 005e 1018     		adds	r0, r2, r0
 168              	.LVL18:
 169 0060 4210     		asrs	r2, r0, #1
 170 0062 164D     		ldr	r5, .L8+28
 171 0064 2900     		movs	r1, r5
 172 0066 2000     		movs	r0, r4
 173 0068 FFF7FEFF 		bl	sprintf
 174              	.LVL19:
  39:debug.c       ****         Print(uart_rpm_buff);
 175              		.loc 1 39 0 discriminator 3
 176 006c 2000     		movs	r0, r4
 177 006e FFF7FEFF 		bl	Print
 178              	.LVL20:
  40:debug.c       ****         
  41:debug.c       ****         current_rpm = motor_speeds[i-1];
 179              		.loc 1 41 0 discriminator 3
 180 0072 134B     		ldr	r3, .L8+32
 181 0074 FA58     		ldr	r2, [r7, r3]
 182              	.LVL21:
  42:debug.c       ****         sprintf(uart_rpm_buff, "%u  ", current_rpm / 2);
 183              		.loc 1 42 0 discriminator 3
 184 0076 D30F     		lsrs	r3, r2, #31
 185 0078 9A18     		adds	r2, r3, r2
 186              	.LVL22:
ARM GAS  C:\Windows\TEMP\ccuL5CZU.s 			page 5


 187 007a 5210     		asrs	r2, r2, #1
 188 007c 2900     		movs	r1, r5
 189 007e 2000     		movs	r0, r4
 190 0080 FFF7FEFF 		bl	sprintf
 191              	.LVL23:
  43:debug.c       ****         Print(uart_rpm_buff);
 192              		.loc 1 43 0 discriminator 3
 193 0084 2000     		movs	r0, r4
 194 0086 FFF7FEFF 		bl	Print
 195              	.LVL24:
  27:debug.c       ****         current_rpm = FanController_GetActualSpeed(i);
 196              		.loc 1 27 0 discriminator 3
 197 008a 0136     		adds	r6, r6, #1
 198              	.LVL25:
 199              	.L6:
  27:debug.c       ****         current_rpm = FanController_GetActualSpeed(i);
 200              		.loc 1 27 0 is_stmt 0 discriminator 1
 201 008c 042E     		cmp	r6, #4
 202 008e C6DD     		ble	.L7
 203              	.LBE2:
  44:debug.c       ****     }
  45:debug.c       ****     UART_UartPutChar('\n');
 204              		.loc 1 45 0 is_stmt 1
 205 0090 0A20     		movs	r0, #10
 206 0092 FFF7FEFF 		bl	UART_SpiUartWriteTxData
 207              	.LVL26:
  46:debug.c       ****     UART_UartPutChar('\r');
 208              		.loc 1 46 0
 209 0096 0D20     		movs	r0, #13
 210 0098 FFF7FEFF 		bl	UART_SpiUartWriteTxData
 211              	.LVL27:
 212              	.L3:
  47:debug.c       **** }
 213              		.loc 1 47 0
 214              		@ sp needed
 215 009c F8BD     		pop	{r3, r4, r5, r6, r7, pc}
 216              	.L9:
 217 009e C046     		.align	2
 218              	.L8:
 219 00a0 00000000 		.word	.LANCHOR0
 220 00a4 9F860100 		.word	99999
 221 00a8 00000000 		.word	.LANCHOR1
 222 00ac 00000000 		.word	.LC2
 223 00b0 00000000 		.word	uart_rpm_buff
 224 00b4 04000000 		.word	.LC4
 225 00b8 08000000 		.word	.LC7
 226 00bc 0C000000 		.word	.LC9
 227 00c0 00000000 		.word	motor_speeds
 228              		.cfi_endproc
 229              	.LFE38:
 230              		.size	PrintMotorSpeeds, .-PrintMotorSpeeds
 231              		.section	.text.HandleUARTInput,"ax",%progbits
 232              		.align	2
 233              		.global	HandleUARTInput
 234              		.code	16
 235              		.thumb_func
 236              		.type	HandleUARTInput, %function
ARM GAS  C:\Windows\TEMP\ccuL5CZU.s 			page 6


 237              	HandleUARTInput:
 238              	.LFB39:
  48:debug.c       **** 
  49:debug.c       **** void HandleUARTInput(){
 239              		.loc 1 49 0
 240              		.cfi_startproc
 241              		@ args = 0, pretend = 0, frame = 0
 242              		@ frame_needed = 0, uses_anonymous_args = 0
 243 0000 10B5     		push	{r4, lr}
 244              		.cfi_def_cfa_offset 8
 245              		.cfi_offset 4, -8
 246              		.cfi_offset 14, -4
  50:debug.c       ****     char ch = UART_UartGetChar();
 247              		.loc 1 50 0
 248 0002 FFF7FEFF 		bl	UART_UartGetChar
 249              	.LVL28:
 250 0006 C0B2     		uxtb	r0, r0
 251              	.LVL29:
  51:debug.c       ****     if (ch == 'a') {
 252              		.loc 1 51 0
 253 0008 6128     		cmp	r0, #97
 254 000a 05D1     		bne	.L11
  52:debug.c       ****         disablePrintIfZeroRPM = !disablePrintIfZeroRPM;
 255              		.loc 1 52 0
 256 000c 054A     		ldr	r2, .L13
 257 000e 1178     		ldrb	r1, [r2]
 258 0010 0123     		movs	r3, #1
 259 0012 4B40     		eors	r3, r1
 260 0014 1370     		strb	r3, [r2]
 261 0016 04E0     		b	.L10
 262              	.L11:
  53:debug.c       ****     }
  54:debug.c       ****     else if (ch == 's') {
 263              		.loc 1 54 0
 264 0018 7328     		cmp	r0, #115
 265 001a 02D1     		bne	.L10
  55:debug.c       ****         doServe = true;
 266              		.loc 1 55 0
 267 001c 0122     		movs	r2, #1
 268 001e 024B     		ldr	r3, .L13+4
 269 0020 1A70     		strb	r2, [r3]
 270              	.L10:
  56:debug.c       ****     }
  57:debug.c       **** }
 271              		.loc 1 57 0
 272              		@ sp needed
 273 0022 10BD     		pop	{r4, pc}
 274              	.L14:
 275              		.align	2
 276              	.L13:
 277 0024 00000000 		.word	disablePrintIfZeroRPM
 278 0028 00000000 		.word	doServe
 279              		.cfi_endproc
 280              	.LFE39:
 281              		.size	HandleUARTInput, .-HandleUARTInput
 282              		.global	counter
 283              		.comm	isServing,1,1
ARM GAS  C:\Windows\TEMP\ccuL5CZU.s 			page 7


 284              		.comm	doServe,1,1
 285              		.comm	disablePrintIfZeroRPM,1,1
 286              		.comm	motorsEnabled,1,1
 287              		.comm	motor_speeds,16,4
 288              		.comm	str,16,4
 289              		.comm	uart_rpm_buff,4,4
 290              		.section	.rodata
 291              		.align	2
 292              		.set	.LANCHOR1,. + 0
 293              		.type	MotorDirectionStr, %object
 294              		.size	MotorDirectionStr, 16
 295              	MotorDirectionStr:
 296 0000 14000000 		.word	.LC14
 297 0004 1C000000 		.word	.LC15
 298 0008 24000000 		.word	.LC16
 299 000c 28000000 		.word	.LC17
 300              		.section	.rodata.str1.4,"aMS",%progbits,1
 301              		.align	2
 302              	.LC2:
 303 0000 3A00     		.ascii	":\000"
 304 0002 0000     		.space	2
 305              	.LC4:
 306 0004 257500   		.ascii	"%u\000"
 307 0007 00       		.space	1
 308              	.LC7:
 309 0008 2000     		.ascii	" \000"
 310 000a 0000     		.space	2
 311              	.LC9:
 312 000c 25752020 		.ascii	"%u  \000"
 312      00
 313 0011 000000   		.space	3
 314              	.LC14:
 315 0014 4C656674 		.ascii	"Left\000"
 315      00
 316 0019 000000   		.space	3
 317              	.LC15:
 318 001c 52696768 		.ascii	"Right\000"
 318      7400
 319 0022 0000     		.space	2
 320              	.LC16:
 321 0024 546F7000 		.ascii	"Top\000"
 322              	.LC17:
 323 0028 426F7474 		.ascii	"Bottom\000"
 323      6F6D00
 324              		.bss
 325              		.align	2
 326              		.set	.LANCHOR0,. + 0
 327              		.type	counter, %object
 328              		.size	counter, 4
 329              	counter:
 330 0000 00000000 		.space	4
 331              		.text
 332              	.Letext0:
 333              		.file 2 "Generated_Source\\PSoC4/Bluetooth_Stack.h"
 334              		.file 3 "Generated_Source\\PSoC4/Bluetooth_aios.h"
 335              		.file 4 "main_data.h"
 336              		.file 5 "debug.h"
ARM GAS  C:\Windows\TEMP\ccuL5CZU.s 			page 8


 337              		.file 6 "ballServeController.h"
 338              		.file 7 "Generated_Source\\PSoC4/UART_SPI_UART.h"
 339              		.file 8 "Generated_Source\\PSoC4/FanController.h"
 340              		.file 9 "c:\\program files (x86)\\cypress\\psoc creator\\4.4\\psoc creator\\import\\gnu\\arm\\5.4.
 341              		.file 10 "Generated_Source\\PSoC4/cytypes.h"