ARM GAS  C:\Windows\TEMP\ccLbqIwA.s 			page 1


   1              		.syntax unified
   2              		.cpu cortex-m0
   3              		.fpu softvfp
   4              		.eabi_attribute 20, 1
   5              		.eabi_attribute 21, 1
   6              		.eabi_attribute 23, 3
   7              		.eabi_attribute 24, 1
   8              		.eabi_attribute 25, 1
   9              		.eabi_attribute 26, 1
  10              		.eabi_attribute 30, 1
  11              		.eabi_attribute 34, 0
  12              		.eabi_attribute 18, 4
  13              		.thumb
  14              		.syntax unified
  15              		.file	"motorController.c"
  16              		.text
  17              	.Ltext0:
  18              		.cfi_sections	.debug_frame
  19              		.section	.text.Clamp,"ax",%progbits
  20              		.align	2
  21              		.global	Clamp
  22              		.code	16
  23              		.thumb_func
  24              		.type	Clamp, %function
  25              	Clamp:
  26              	.LFB35:
  27              		.file 1 "motorController.c"
   1:motorController.c **** #include "motorController.h"
   2:motorController.c **** 
   3:motorController.c **** 
   4:motorController.c **** int Clamp(int v, int min, int max){
  28              		.loc 1 4 0
  29              		.cfi_startproc
  30              		@ args = 0, pretend = 0, frame = 0
  31              		@ frame_needed = 0, uses_anonymous_args = 0
  32              		@ link register save eliminated.
  33              	.LVL0:
   5:motorController.c ****     if (v < min)
  34              		.loc 1 5 0
  35 0000 8842     		cmp	r0, r1
  36 0002 02DB     		blt	.L3
   6:motorController.c ****         v = min;
   7:motorController.c ****     else if(v > max)
  37              		.loc 1 7 0
  38 0004 9042     		cmp	r0, r2
  39 0006 02DC     		bgt	.L4
  40 0008 02E0     		b	.L2
  41              	.L3:
   6:motorController.c ****         v = min;
  42              		.loc 1 6 0
  43 000a 0800     		movs	r0, r1
  44              	.LVL1:
  45 000c 00E0     		b	.L2
  46              	.LVL2:
  47              	.L4:
   8:motorController.c ****         v = max;    
  48              		.loc 1 8 0
ARM GAS  C:\Windows\TEMP\ccLbqIwA.s 			page 2


  49 000e 1000     		movs	r0, r2
  50              	.LVL3:
  51              	.L2:
   9:motorController.c ****     return v;
  10:motorController.c **** }
  52              		.loc 1 10 0
  53              		@ sp needed
  54 0010 7047     		bx	lr
  55              		.cfi_endproc
  56              	.LFE35:
  57              		.size	Clamp, .-Clamp
  58 0012 C046     		.section	.text.SetMotorSpeed_Single,"ax",%progbits
  59              		.align	2
  60              		.global	SetMotorSpeed_Single
  61              		.code	16
  62              		.thumb_func
  63              		.type	SetMotorSpeed_Single, %function
  64              	SetMotorSpeed_Single:
  65              	.LFB37:
  11:motorController.c **** void SetMotorSpeed(int speeds[]) {
  12:motorController.c ****     for (int i = 0; i < MOTOR_COUNT; i++) {
  13:motorController.c ****         SetMotorSpeed_Single(i, speeds[i]);
  14:motorController.c ****         motor_speeds[i] = speeds[i];
  15:motorController.c ****     }
  16:motorController.c **** }
  17:motorController.c **** void SetMotorSpeed_Single(enum MotorDirection dir, int speed) {
  66              		.loc 1 17 0
  67              		.cfi_startproc
  68              		@ args = 0, pretend = 0, frame = 0
  69              		@ frame_needed = 0, uses_anonymous_args = 0
  70              	.LVL4:
  71 0000 70B5     		push	{r4, r5, r6, lr}
  72              		.cfi_def_cfa_offset 16
  73              		.cfi_offset 4, -16
  74              		.cfi_offset 5, -12
  75              		.cfi_offset 6, -8
  76              		.cfi_offset 14, -4
  77 0002 0400     		movs	r4, r0
  78 0004 0D1E     		subs	r5, r1, #0
  18:motorController.c ****     if(speed == 0) {
  79              		.loc 1 18 0
  80 0006 08D1     		bne	.L6
  19:motorController.c ****         FanController_SetDesiredSpeed(dir+1, 0);
  81              		.loc 1 19 0
  82 0008 0130     		adds	r0, r0, #1
  83              	.LVL5:
  84 000a C0B2     		uxtb	r0, r0
  85 000c 0021     		movs	r1, #0
  86              	.LVL6:
  87 000e FFF7FEFF 		bl	FanController_SetDesiredSpeed
  88              	.LVL7:
  20:motorController.c ****         motor_speeds[dir] = speed;
  89              		.loc 1 20 0
  90 0012 A400     		lsls	r4, r4, #2
  91 0014 0C4B     		ldr	r3, .L10
  92 0016 E550     		str	r5, [r4, r3]
  21:motorController.c ****         return;
ARM GAS  C:\Windows\TEMP\ccLbqIwA.s 			page 3


  93              		.loc 1 21 0
  94 0018 15E0     		b	.L5
  95              	.LVL8:
  96              	.L6:
  22:motorController.c ****     }
  23:motorController.c ****     int clamped = Clamp(speed, MIN_RPM, MAX_RPM);
  97              		.loc 1 23 0
  98 001a 0C4A     		ldr	r2, .L10+4
  99 001c FA21     		movs	r1, #250
 100              	.LVL9:
 101 001e 8900     		lsls	r1, r1, #2
 102 0020 2800     		movs	r0, r5
 103              	.LVL10:
 104 0022 FFF7FEFF 		bl	Clamp
 105              	.LVL11:
 106 0026 0100     		movs	r1, r0
 107              	.LVL12:
  24:motorController.c ****     FanController_SetDesiredSpeed(dir+1, motorsEnabled ? 2*clamped : 0);
 108              		.loc 1 24 0
 109 0028 601C     		adds	r0, r4, #1
 110              	.LVL13:
 111 002a C0B2     		uxtb	r0, r0
 112 002c 084B     		ldr	r3, .L10+8
 113 002e 1B78     		ldrb	r3, [r3]
 114 0030 002B     		cmp	r3, #0
 115 0032 02D0     		beq	.L9
 116              		.loc 1 24 0 is_stmt 0 discriminator 1
 117 0034 4900     		lsls	r1, r1, #1
 118              	.LVL14:
 119 0036 89B2     		uxth	r1, r1
 120 0038 00E0     		b	.L8
 121              	.LVL15:
 122              	.L9:
 123              		.loc 1 24 0
 124 003a 0021     		movs	r1, #0
 125              	.LVL16:
 126              	.L8:
 127              		.loc 1 24 0 discriminator 4
 128 003c FFF7FEFF 		bl	FanController_SetDesiredSpeed
 129              	.LVL17:
  25:motorController.c ****     motor_speeds[dir] = speed;
 130              		.loc 1 25 0 is_stmt 1 discriminator 4
 131 0040 A400     		lsls	r4, r4, #2
 132 0042 014B     		ldr	r3, .L10
 133 0044 E550     		str	r5, [r4, r3]
 134              	.L5:
  26:motorController.c **** }
 135              		.loc 1 26 0
 136              		@ sp needed
 137              	.LVL18:
 138 0046 70BD     		pop	{r4, r5, r6, pc}
 139              	.L11:
 140              		.align	2
 141              	.L10:
 142 0048 00000000 		.word	motor_speeds
 143 004c 0F270000 		.word	9999
 144 0050 00000000 		.word	motorsEnabled
ARM GAS  C:\Windows\TEMP\ccLbqIwA.s 			page 4


 145              		.cfi_endproc
 146              	.LFE37:
 147              		.size	SetMotorSpeed_Single, .-SetMotorSpeed_Single
 148              		.section	.text.SetMotorSpeed,"ax",%progbits
 149              		.align	2
 150              		.global	SetMotorSpeed
 151              		.code	16
 152              		.thumb_func
 153              		.type	SetMotorSpeed, %function
 154              	SetMotorSpeed:
 155              	.LFB36:
  11:motorController.c ****     for (int i = 0; i < MOTOR_COUNT; i++) {
 156              		.loc 1 11 0
 157              		.cfi_startproc
 158              		@ args = 0, pretend = 0, frame = 0
 159              		@ frame_needed = 0, uses_anonymous_args = 0
 160              	.LVL19:
 161 0000 F8B5     		push	{r3, r4, r5, r6, r7, lr}
 162              		.cfi_def_cfa_offset 24
 163              		.cfi_offset 3, -24
 164              		.cfi_offset 4, -20
 165              		.cfi_offset 5, -16
 166              		.cfi_offset 6, -12
 167              		.cfi_offset 7, -8
 168              		.cfi_offset 14, -4
 169 0002 0700     		movs	r7, r0
 170              	.LVL20:
 171              	.LBB2:
  12:motorController.c ****         SetMotorSpeed_Single(i, speeds[i]);
 172              		.loc 1 12 0
 173 0004 0024     		movs	r4, #0
 174 0006 09E0     		b	.L13
 175              	.LVL21:
 176              	.L14:
  13:motorController.c ****         motor_speeds[i] = speeds[i];
 177              		.loc 1 13 0 discriminator 3
 178 0008 A500     		lsls	r5, r4, #2
 179 000a 7E19     		adds	r6, r7, r5
 180 000c E0B2     		uxtb	r0, r4
 181 000e 3168     		ldr	r1, [r6]
 182 0010 FFF7FEFF 		bl	SetMotorSpeed_Single
 183              	.LVL22:
  14:motorController.c ****     }
 184              		.loc 1 14 0 discriminator 3
 185 0014 3268     		ldr	r2, [r6]
 186 0016 034B     		ldr	r3, .L15
 187 0018 EA50     		str	r2, [r5, r3]
  12:motorController.c ****         SetMotorSpeed_Single(i, speeds[i]);
 188              		.loc 1 12 0 discriminator 3
 189 001a 0134     		adds	r4, r4, #1
 190              	.LVL23:
 191              	.L13:
  12:motorController.c ****         SetMotorSpeed_Single(i, speeds[i]);
 192              		.loc 1 12 0 is_stmt 0 discriminator 1
 193 001c 032C     		cmp	r4, #3
 194 001e F3DD     		ble	.L14
 195              	.LBE2:
ARM GAS  C:\Windows\TEMP\ccLbqIwA.s 			page 5


  16:motorController.c **** void SetMotorSpeed_Single(enum MotorDirection dir, int speed) {
 196              		.loc 1 16 0 is_stmt 1
 197              		@ sp needed
 198              	.LVL24:
 199              	.LVL25:
 200 0020 F8BD     		pop	{r3, r4, r5, r6, r7, pc}
 201              	.L16:
 202 0022 C046     		.align	2
 203              	.L15:
 204 0024 00000000 		.word	motor_speeds
 205              		.cfi_endproc
 206              	.LFE36:
 207              		.size	SetMotorSpeed, .-SetMotorSpeed
 208              		.section	.text.SetMotorsEnabled,"ax",%progbits
 209              		.align	2
 210              		.global	SetMotorsEnabled
 211              		.code	16
 212              		.thumb_func
 213              		.type	SetMotorsEnabled, %function
 214              	SetMotorsEnabled:
 215              	.LFB38:
  27:motorController.c **** 
  28:motorController.c **** void SetMotorsEnabled(bool enabled) {
 216              		.loc 1 28 0
 217              		.cfi_startproc
 218              		@ args = 0, pretend = 0, frame = 0
 219              		@ frame_needed = 0, uses_anonymous_args = 0
 220              	.LVL26:
 221 0000 70B5     		push	{r4, r5, r6, lr}
 222              		.cfi_def_cfa_offset 16
 223              		.cfi_offset 4, -16
 224              		.cfi_offset 5, -12
 225              		.cfi_offset 6, -8
 226              		.cfi_offset 14, -4
 227 0002 0500     		movs	r5, r0
  29:motorController.c ****     if(motorsEnabled == enabled)
 228              		.loc 1 29 0
 229 0004 0A4B     		ldr	r3, .L23
 230 0006 1B78     		ldrb	r3, [r3]
 231 0008 8342     		cmp	r3, r0
 232 000a 10D0     		beq	.L17
  30:motorController.c ****         return;
  31:motorController.c ****     motorsEnabled = enabled;
 233              		.loc 1 31 0
 234 000c 084B     		ldr	r3, .L23
 235 000e 1870     		strb	r0, [r3]
 236              	.LVL27:
 237              	.LBB3:
  32:motorController.c ****     for (int i = 0; i < MOTOR_COUNT; i++) {
 238              		.loc 1 32 0
 239 0010 0024     		movs	r4, #0
 240 0012 0AE0     		b	.L19
 241              	.LVL28:
 242              	.L21:
  33:motorController.c ****         SetMotorSpeed_Single(i, enabled ? motor_speeds[i] : 0);
 243              		.loc 1 33 0
 244 0014 E0B2     		uxtb	r0, r4
ARM GAS  C:\Windows\TEMP\ccLbqIwA.s 			page 6


 245 0016 002D     		cmp	r5, #0
 246 0018 03D0     		beq	.L22
 247              		.loc 1 33 0 is_stmt 0 discriminator 1
 248 001a A300     		lsls	r3, r4, #2
 249 001c 054A     		ldr	r2, .L23+4
 250 001e 9958     		ldr	r1, [r3, r2]
 251 0020 00E0     		b	.L20
 252              	.L22:
 253              		.loc 1 33 0
 254 0022 0021     		movs	r1, #0
 255              	.L20:
 256              		.loc 1 33 0 discriminator 4
 257 0024 FFF7FEFF 		bl	SetMotorSpeed_Single
 258              	.LVL29:
  32:motorController.c ****     for (int i = 0; i < MOTOR_COUNT; i++) {
 259              		.loc 1 32 0 is_stmt 1 discriminator 4
 260 0028 0134     		adds	r4, r4, #1
 261              	.LVL30:
 262              	.L19:
  32:motorController.c ****     for (int i = 0; i < MOTOR_COUNT; i++) {
 263              		.loc 1 32 0 is_stmt 0 discriminator 2
 264 002a 032C     		cmp	r4, #3
 265 002c F2DD     		ble	.L21
 266              	.LVL31:
 267              	.L17:
 268              	.LBE3:
  34:motorController.c ****     }
  35:motorController.c **** }
 269              		.loc 1 35 0 is_stmt 1
 270              		@ sp needed
 271 002e 70BD     		pop	{r4, r5, r6, pc}
 272              	.L24:
 273              		.align	2
 274              	.L23:
 275 0030 00000000 		.word	motorsEnabled
 276 0034 00000000 		.word	motor_speeds
 277              		.cfi_endproc
 278              	.LFE38:
 279              		.size	SetMotorsEnabled, .-SetMotorsEnabled
 280              		.comm	motorsEnabled,1,1
 281              		.comm	motor_speeds,16,4
 282              		.comm	str,16,4
 283              		.comm	uart_rpm_buff,4,4
 284              		.text
 285              	.Letext0:
 286              		.file 2 "Generated_Source\\PSoC4/Bluetooth_Stack.h"
 287              		.file 3 "Generated_Source\\PSoC4/Bluetooth_aios.h"
 288              		.file 4 "main_data.h"
 289              		.file 5 "Generated_Source\\PSoC4/FanController.h"