ARM GAS  C:\Windows\TEMP\cctU8eWq.s 			page 1


   1              		.syntax unified
   2              		.cpu cortex-m0
   3              		.fpu softvfp
   4              		.eabi_attribute 20, 1
   5              		.eabi_attribute 21, 1
   6              		.eabi_attribute 23, 3
   7              		.eabi_attribute 24, 1
   8              		.eabi_attribute 25, 1
   9              		.eabi_attribute 26, 1
  10              		.eabi_attribute 30, 1
  11              		.eabi_attribute 34, 0
  12              		.eabi_attribute 18, 4
  13              		.thumb
  14              		.syntax unified
  15              		.file	"main.c"
  16              		.text
  17              	.Ltext0:
  18              		.cfi_sections	.debug_frame
  19              		.section	.text.UART_print_string,"ax",%progbits
  20              		.align	2
  21              		.global	UART_print_string
  22              		.code	16
  23              		.thumb_func
  24              		.type	UART_print_string, %function
  25              	UART_print_string:
  26              	.LFB36:
  27              		.file 1 "main.c"
   1:main.c        **** /* ========================================
   2:main.c        ****  *
   3:main.c        ****  * Copyright YOUR COMPANY, THE YEAR
   4:main.c        ****  * All Rights Reserved
   5:main.c        ****  * UNPUBLISHED, LICENSED SOFTWARE.
   6:main.c        ****  *
   7:main.c        ****  * CONFIDENTIAL AND PROPRIETARY INFORMATION
   8:main.c        ****  * WHICH IS THE PROPERTY OF your company.
   9:main.c        ****  *
  10:main.c        ****  * ========================================
  11:main.c        **** */
  12:main.c        **** #include "project.h"
  13:main.c        **** #include <stdio.h>
  14:main.c        **** #include "main_data.h"
  15:main.c        **** 
  16:main.c        **** 
  17:main.c        **** int8 speed_idx;
  18:main.c        **** int8 isr_triggered = 0;
  19:main.c        **** int8 serving_enabled = 0;
  20:main.c        **** 
  21:main.c        **** int16_t motor_speeds[1];
  22:main.c        **** int16 speed_buf;
  23:main.c        **** 
  24:main.c        **** 
  25:main.c        **** void UART_print_string(char text[]) {
  28              		.loc 1 25 0
  29              		.cfi_startproc
  30              		@ args = 0, pretend = 0, frame = 0
  31              		@ frame_needed = 0, uses_anonymous_args = 0
  32              	.LVL0:
ARM GAS  C:\Windows\TEMP\cctU8eWq.s 			page 2


  33 0000 10B5     		push	{r4, lr}
  34              		.cfi_def_cfa_offset 8
  35              		.cfi_offset 4, -8
  36              		.cfi_offset 14, -4
  37 0002 0400     		movs	r4, r0
  26:main.c        ****     // A utility function to print an array of characters with UART
  27:main.c        ****     UART_UartPutChar('\n');
  38              		.loc 1 27 0
  39 0004 0A20     		movs	r0, #10
  40              	.LVL1:
  41 0006 FFF7FEFF 		bl	UART_SpiUartWriteTxData
  42              	.LVL2:
  28:main.c        ****     UART_UartPutChar('\r');
  43              		.loc 1 28 0
  44 000a 0D20     		movs	r0, #13
  45 000c FFF7FEFF 		bl	UART_SpiUartWriteTxData
  46              	.LVL3:
  29:main.c        ****     UART_UartPutString(text);
  47              		.loc 1 29 0
  48 0010 2000     		movs	r0, r4
  49 0012 FFF7FEFF 		bl	UART_UartPutString
  50              	.LVL4:
  30:main.c        ****     UART_UartPutChar('\n');
  51              		.loc 1 30 0
  52 0016 0A20     		movs	r0, #10
  53 0018 FFF7FEFF 		bl	UART_SpiUartWriteTxData
  54              	.LVL5:
  31:main.c        ****     UART_UartPutChar('\r');
  55              		.loc 1 31 0
  56 001c 0D20     		movs	r0, #13
  57 001e FFF7FEFF 		bl	UART_SpiUartWriteTxData
  58              	.LVL6:
  32:main.c        **** }
  59              		.loc 1 32 0
  60              		@ sp needed
  61              	.LVL7:
  62 0022 10BD     		pop	{r4, pc}
  63              		.cfi_endproc
  64              	.LFE36:
  65              		.size	UART_print_string, .-UART_print_string
  66              		.section	.text.print_all_speed,"ax",%progbits
  67              		.align	2
  68              		.global	print_all_speed
  69              		.code	16
  70              		.thumb_func
  71              		.type	print_all_speed, %function
  72              	print_all_speed:
  73              	.LFB37:
  33:main.c        **** 
  34:main.c        **** 
  35:main.c        **** void print_all_speed() {
  74              		.loc 1 35 0
  75              		.cfi_startproc
  76              		@ args = 0, pretend = 0, frame = 0
  77              		@ frame_needed = 0, uses_anonymous_args = 0
  78 0000 70B5     		push	{r4, r5, r6, lr}
  79              		.cfi_def_cfa_offset 16
ARM GAS  C:\Windows\TEMP\cctU8eWq.s 			page 3


  80              		.cfi_offset 4, -16
  81              		.cfi_offset 5, -12
  82              		.cfi_offset 6, -8
  83              		.cfi_offset 14, -4
  84              	.LVL8:
  85              	.LBB2:
  36:main.c        ****     /*
  37:main.c        ****     Print all the speeds in a line through UART. Since we don't
  38:main.c        ****     use dividers, we need to divide the speeds by 2
  39:main.c        ****     */
  40:main.c        ****     
  41:main.c        ****     uint16_t current_rpm = 0;
  42:main.c        ****     for (int i = 1; i < 2; i++) {
  86              		.loc 1 42 0
  87 0002 0124     		movs	r4, #1
  88 0004 20E0     		b	.L3
  89              	.LVL9:
  90              	.L4:
  91              	.LBB3:
  43:main.c        ****         current_rpm = FanController_GetActualSpeed(i);
  92              		.loc 1 43 0 discriminator 3
  93 0006 2000     		movs	r0, r4
  94 0008 FFF7FEFF 		bl	FanController_GetActualSpeed
  95              	.LVL10:
  96 000c 82B2     		uxth	r2, r0
  97              	.LVL11:
  44:main.c        ****         sprintf(uart_rpm_buff, "%u", current_rpm / 2);
  98              		.loc 1 44 0 discriminator 3
  99 000e 5208     		lsrs	r2, r2, #1
 100              	.LVL12:
 101 0010 124E     		ldr	r6, .L5
 102 0012 134D     		ldr	r5, .L5+4
 103 0014 3100     		movs	r1, r6
 104 0016 2800     		movs	r0, r5
 105              	.LVL13:
 106 0018 FFF7FEFF 		bl	sprintf
 107              	.LVL14:
  45:main.c        ****         UART_UartPutString(uart_rpm_buff);
 108              		.loc 1 45 0 discriminator 3
 109 001c 2800     		movs	r0, r5
 110 001e FFF7FEFF 		bl	UART_UartPutString
 111              	.LVL15:
  46:main.c        ****         UART_UartPutChar(' ');
 112              		.loc 1 46 0 discriminator 3
 113 0022 2020     		movs	r0, #32
 114 0024 FFF7FEFF 		bl	UART_SpiUartWriteTxData
 115              	.LVL16:
  47:main.c        ****         
  48:main.c        ****         current_rpm = FanController_GetDesiredSpeed(i);
 116              		.loc 1 48 0 discriminator 3
 117 0028 2000     		movs	r0, r4
 118 002a FFF7FEFF 		bl	FanController_GetDesiredSpeed
 119              	.LVL17:
 120 002e 82B2     		uxth	r2, r0
 121              	.LVL18:
  49:main.c        ****         sprintf(uart_rpm_buff, "%u", current_rpm / 2);
 122              		.loc 1 49 0 discriminator 3
ARM GAS  C:\Windows\TEMP\cctU8eWq.s 			page 4


 123 0030 5208     		lsrs	r2, r2, #1
 124              	.LVL19:
 125 0032 3100     		movs	r1, r6
 126 0034 2800     		movs	r0, r5
 127              	.LVL20:
 128 0036 FFF7FEFF 		bl	sprintf
 129              	.LVL21:
  50:main.c        ****         UART_UartPutString(uart_rpm_buff);
 130              		.loc 1 50 0 discriminator 3
 131 003a 2800     		movs	r0, r5
 132 003c FFF7FEFF 		bl	UART_UartPutString
 133              	.LVL22:
  51:main.c        ****         UART_UartPutChar(' ');
 134              		.loc 1 51 0 discriminator 3
 135 0040 2020     		movs	r0, #32
 136 0042 FFF7FEFF 		bl	UART_SpiUartWriteTxData
 137              	.LVL23:
 138              	.LBE3:
  42:main.c        ****         current_rpm = FanController_GetActualSpeed(i);
 139              		.loc 1 42 0 discriminator 3
 140 0046 0134     		adds	r4, r4, #1
 141              	.LVL24:
 142              	.L3:
  42:main.c        ****         current_rpm = FanController_GetActualSpeed(i);
 143              		.loc 1 42 0 is_stmt 0 discriminator 1
 144 0048 012C     		cmp	r4, #1
 145 004a DCDD     		ble	.L4
 146              	.LBE2:
  52:main.c        ****     }
  53:main.c        ****     UART_UartPutChar('\n');
 147              		.loc 1 53 0 is_stmt 1
 148 004c 0A20     		movs	r0, #10
 149 004e FFF7FEFF 		bl	UART_SpiUartWriteTxData
 150              	.LVL25:
  54:main.c        ****     UART_UartPutChar('\r');
 151              		.loc 1 54 0
 152 0052 0D20     		movs	r0, #13
 153 0054 FFF7FEFF 		bl	UART_SpiUartWriteTxData
 154              	.LVL26:
  55:main.c        **** }
 155              		.loc 1 55 0
 156              		@ sp needed
 157              	.LVL27:
 158 0058 70BD     		pop	{r4, r5, r6, pc}
 159              	.L6:
 160 005a C046     		.align	2
 161              	.L5:
 162 005c 00000000 		.word	.LC0
 163 0060 00000000 		.word	uart_rpm_buff
 164              		.cfi_endproc
 165              	.LFE37:
 166              		.size	print_all_speed, .-print_all_speed
 167              		.section	.text.write_motor_speed,"ax",%progbits
 168              		.align	2
 169              		.global	write_motor_speed
 170              		.code	16
 171              		.thumb_func
ARM GAS  C:\Windows\TEMP\cctU8eWq.s 			page 5


 172              		.type	write_motor_speed, %function
 173              	write_motor_speed:
 174              	.LFB38:
  56:main.c        **** 
  57:main.c        **** 
  58:main.c        **** void write_motor_speed(int16_t speeds[]) {
 175              		.loc 1 58 0
 176              		.cfi_startproc
 177              		@ args = 0, pretend = 0, frame = 0
 178              		@ frame_needed = 0, uses_anonymous_args = 0
 179              	.LVL28:
 180 0000 70B5     		push	{r4, r5, r6, lr}
 181              		.cfi_def_cfa_offset 16
 182              		.cfi_offset 4, -16
 183              		.cfi_offset 5, -12
 184              		.cfi_offset 6, -8
 185              		.cfi_offset 14, -4
 186 0002 0500     		movs	r5, r0
 187              	.LVL29:
 188              	.LBB4:
  59:main.c        ****     // Write the speed of all motors(An option that limits the speed and the option to stop the mot
  60:main.c        ****     for (int i = 0; i < MOTOR_COUNT; i++) {
 189              		.loc 1 60 0
 190 0004 0024     		movs	r4, #0
 191 0006 12E0     		b	.L8
 192              	.LVL30:
 193              	.L11:
  61:main.c        ****         if (speeds[i] > MIN_RPM && speeds[i] < MAX_RPM) {
 194              		.loc 1 61 0
 195 0008 6300     		lsls	r3, r4, #1
 196 000a 595F     		ldrsh	r1, [r3, r5]
 197 000c 094B     		ldr	r3, .L12
 198 000e CB18     		adds	r3, r1, r3
 199 0010 9BB2     		uxth	r3, r3
 200 0012 094A     		ldr	r2, .L12+4
 201 0014 9342     		cmp	r3, r2
 202 0016 04D8     		bhi	.L9
 203              	.LBB5:
  62:main.c        ****             FanController_SetDesiredSpeed(i+1, 2*speeds[i]);
 204              		.loc 1 62 0
 205 0018 4900     		lsls	r1, r1, #1
 206 001a 601C     		adds	r0, r4, #1
 207 001c FFF7FEFF 		bl	FanController_SetDesiredSpeed
 208              	.LVL31:
 209              	.LBE5:
 210 0020 04E0     		b	.L10
 211              	.L9:
  63:main.c        ****         } else if (speeds[i] == 0) {
 212              		.loc 1 63 0
 213 0022 0029     		cmp	r1, #0
 214 0024 02D1     		bne	.L10
 215              	.LBB6:
  64:main.c        ****             FanController_SetDesiredSpeed(i+1, 0);
 216              		.loc 1 64 0
 217 0026 601C     		adds	r0, r4, #1
 218 0028 FFF7FEFF 		bl	FanController_SetDesiredSpeed
 219              	.LVL32:
ARM GAS  C:\Windows\TEMP\cctU8eWq.s 			page 6


 220              	.L10:
 221              	.LBE6:
  60:main.c        ****         if (speeds[i] > MIN_RPM && speeds[i] < MAX_RPM) {
 222              		.loc 1 60 0 discriminator 2
 223 002c 0134     		adds	r4, r4, #1
 224              	.LVL33:
 225              	.L8:
  60:main.c        ****         if (speeds[i] > MIN_RPM && speeds[i] < MAX_RPM) {
 226              		.loc 1 60 0 is_stmt 0 discriminator 1
 227 002e 032C     		cmp	r4, #3
 228 0030 EADD     		ble	.L11
 229              	.LBE4:
  65:main.c        ****         } else {
  66:main.c        ****             continue;
  67:main.c        ****         }
  68:main.c        ****     }
  69:main.c        **** }
 230              		.loc 1 69 0 is_stmt 1
 231              		@ sp needed
 232              	.LVL34:
 233              	.LVL35:
 234 0032 70BD     		pop	{r4, r5, r6, pc}
 235              	.L13:
 236              		.align	2
 237              	.L12:
 238 0034 17FCFFFF 		.word	-1001
 239 0038 140D0000 		.word	3348
 240              		.cfi_endproc
 241              	.LFE38:
 242              		.size	write_motor_speed, .-write_motor_speed
 243              		.section	.text.handle_UART_input,"ax",%progbits
 244              		.align	2
 245              		.global	handle_UART_input
 246              		.code	16
 247              		.thumb_func
 248              		.type	handle_UART_input, %function
 249              	handle_UART_input:
 250              	.LFB39:
  70:main.c        **** 
  71:main.c        **** void handle_UART_input(char inp_ch) {
 251              		.loc 1 71 0
 252              		.cfi_startproc
 253              		@ args = 0, pretend = 0, frame = 0
 254              		@ frame_needed = 0, uses_anonymous_args = 0
 255              	.LVL36:
 256 0000 70B5     		push	{r4, r5, r6, lr}
 257              		.cfi_def_cfa_offset 16
 258              		.cfi_offset 4, -16
 259              		.cfi_offset 5, -12
 260              		.cfi_offset 6, -8
 261              		.cfi_offset 14, -4
  72:main.c        ****     /* 
  73:main.c        ****     Main input function.
  74:main.c        ****     Responsible for setting modes and writing speeds.
  75:main.c        ****     Operates with most of the global variables.
  76:main.c        ****     */
  77:main.c        ****     
ARM GAS  C:\Windows\TEMP\cctU8eWq.s 			page 7


  78:main.c        ****     if (manual_control_flag) {
 262              		.loc 1 78 0
 263 0002 314B     		ldr	r3, .L23
 264 0004 1B78     		ldrb	r3, [r3]
 265 0006 5BB2     		sxtb	r3, r3
 266 0008 002B     		cmp	r3, #0
 267 000a 5BD0     		beq	.L14
  79:main.c        ****         if(inp_ch == 'p'){
 268              		.loc 1 79 0
 269 000c 7028     		cmp	r0, #112
 270 000e 06D1     		bne	.L16
  80:main.c        ****             print_speed_flag = 0;
 271              		.loc 1 80 0
 272 0010 0022     		movs	r2, #0
 273 0012 2E4B     		ldr	r3, .L23+4
 274 0014 1A70     		strb	r2, [r3]
  81:main.c        ****             UART_print_string("Set The Speeds:");
 275              		.loc 1 81 0
 276 0016 2E48     		ldr	r0, .L23+8
 277              	.LVL37:
 278 0018 FFF7FEFF 		bl	UART_print_string
 279              	.LVL38:
 280 001c 52E0     		b	.L14
 281              	.LVL39:
 282              	.L16:
  82:main.c        ****         }
  83:main.c        ****         else if(inp_ch == 's'){
 283              		.loc 1 83 0
 284 001e 7328     		cmp	r0, #115
 285 0020 03D1     		bne	.L17
  84:main.c        ****             print_speed_flag = 1;
 286              		.loc 1 84 0
 287 0022 0122     		movs	r2, #1
 288 0024 294B     		ldr	r3, .L23+4
 289 0026 1A70     		strb	r2, [r3]
 290 0028 4CE0     		b	.L14
 291              	.L17:
  85:main.c        ****         }
  86:main.c        ****         else if(inp_ch == 'x') {
 292              		.loc 1 86 0
 293 002a 7828     		cmp	r0, #120
 294 002c 09D1     		bne	.L18
 295              	.LBB7:
  87:main.c        ****             UART_print_string("Enabled Serving:");
 296              		.loc 1 87 0
 297 002e 2948     		ldr	r0, .L23+12
 298              	.LVL40:
 299 0030 FFF7FEFF 		bl	UART_print_string
 300              	.LVL41:
  88:main.c        ****             serving_enabled = 1;
 301              		.loc 1 88 0
 302 0034 0122     		movs	r2, #1
 303 0036 284B     		ldr	r3, .L23+16
 304 0038 1A70     		strb	r2, [r3]
  89:main.c        ****             Pin_Serve_Write(1);
 305              		.loc 1 89 0
 306 003a 0120     		movs	r0, #1
ARM GAS  C:\Windows\TEMP\cctU8eWq.s 			page 8


 307 003c FFF7FEFF 		bl	Pin_Serve_Write
 308              	.LVL42:
 309              	.LBE7:
 310 0040 40E0     		b	.L14
 311              	.LVL43:
 312              	.L18:
  90:main.c        ****         }
  91:main.c        ****         else if (inp_ch == 'z') {
 313              		.loc 1 91 0
 314 0042 7A28     		cmp	r0, #122
 315 0044 09D1     		bne	.L19
 316              	.LBB8:
  92:main.c        ****             UART_print_string("Disabled Serving:");
 317              		.loc 1 92 0
 318 0046 2548     		ldr	r0, .L23+20
 319              	.LVL44:
 320 0048 FFF7FEFF 		bl	UART_print_string
 321              	.LVL45:
  93:main.c        ****             serving_enabled = 0;
 322              		.loc 1 93 0
 323 004c 0022     		movs	r2, #0
 324 004e 224B     		ldr	r3, .L23+16
 325 0050 1A70     		strb	r2, [r3]
  94:main.c        ****             Pin_Serve_Write(0);
 326              		.loc 1 94 0
 327 0052 0020     		movs	r0, #0
 328 0054 FFF7FEFF 		bl	Pin_Serve_Write
 329              	.LVL46:
 330              	.LBE8:
 331 0058 34E0     		b	.L14
 332              	.LVL47:
 333              	.L19:
  95:main.c        ****         }
  96:main.c        ****         else if (inp_ch == ' ') {
 334              		.loc 1 96 0
 335 005a 2028     		cmp	r0, #32
 336 005c 0CD1     		bne	.L20
  97:main.c        ****             motor_speeds[speed_idx] = speed_buf;
 337              		.loc 1 97 0
 338 005e 2049     		ldr	r1, .L23+24
 339 0060 0023     		movs	r3, #0
 340 0062 CB56     		ldrsb	r3, [r1, r3]
 341 0064 5C00     		lsls	r4, r3, #1
 342 0066 1F4A     		ldr	r2, .L23+28
 343 0068 1588     		ldrh	r5, [r2]
 344 006a 1F48     		ldr	r0, .L23+32
 345              	.LVL48:
 346 006c 2552     		strh	r5, [r4, r0]
  98:main.c        ****             speed_idx++;
 347              		.loc 1 98 0
 348 006e 0133     		adds	r3, r3, #1
 349 0070 0B70     		strb	r3, [r1]
  99:main.c        ****             speed_buf = 0;
 350              		.loc 1 99 0
 351 0072 0023     		movs	r3, #0
 352 0074 1380     		strh	r3, [r2]
 353 0076 25E0     		b	.L14
ARM GAS  C:\Windows\TEMP\cctU8eWq.s 			page 9


 354              	.LVL49:
 355              	.L20:
 100:main.c        ****         }
 101:main.c        ****         else if(inp_ch == '\r'){
 356              		.loc 1 101 0
 357 0078 0D28     		cmp	r0, #13
 358 007a 15D1     		bne	.L21
 102:main.c        ****             if (speed_idx == MOTOR_COUNT - 1) {
 359              		.loc 1 102 0
 360 007c 184B     		ldr	r3, .L23+24
 361 007e 1B78     		ldrb	r3, [r3]
 362 0080 5BB2     		sxtb	r3, r3
 363 0082 032B     		cmp	r3, #3
 364 0084 04D1     		bne	.L22
 103:main.c        ****                 motor_speeds[speed_idx] = speed_buf;
 365              		.loc 1 103 0
 366 0086 5B00     		lsls	r3, r3, #1
 367 0088 164A     		ldr	r2, .L23+28
 368 008a 1188     		ldrh	r1, [r2]
 369 008c 164A     		ldr	r2, .L23+32
 370 008e 9952     		strh	r1, [r3, r2]
 371              	.L22:
 104:main.c        ****             }
 105:main.c        ****             write_motor_speed(motor_speeds);
 372              		.loc 1 105 0
 373 0090 1548     		ldr	r0, .L23+32
 374              	.LVL50:
 375 0092 FFF7FEFF 		bl	write_motor_speed
 376              	.LVL51:
 106:main.c        ****             speed_buf = 0;
 377              		.loc 1 106 0
 378 0096 0022     		movs	r2, #0
 379 0098 124B     		ldr	r3, .L23+28
 380 009a 1A80     		strh	r2, [r3]
 107:main.c        ****             speed_idx = 0;
 381              		.loc 1 107 0
 382 009c 104B     		ldr	r3, .L23+24
 383 009e 1A70     		strb	r2, [r3]
 108:main.c        ****             UART_UartPutChar('\n');
 384              		.loc 1 108 0
 385 00a0 0A20     		movs	r0, #10
 386 00a2 FFF7FEFF 		bl	UART_SpiUartWriteTxData
 387              	.LVL52:
 388 00a6 0DE0     		b	.L14
 389              	.LVL53:
 390              	.L21:
 109:main.c        ****         }
 110:main.c        ****         else if(inp_ch < HIGHER_NUM_BORDER && inp_ch > LOWER_NUM_BORDER){
 391              		.loc 1 110 0
 392 00a8 0300     		movs	r3, r0
 393 00aa 303B     		subs	r3, r3, #48
 394 00ac DBB2     		uxtb	r3, r3
 395 00ae 092B     		cmp	r3, #9
 396 00b0 08D8     		bhi	.L14
 111:main.c        ****             speed_buf *= 10;
 397              		.loc 1 111 0
 398 00b2 0C4A     		ldr	r2, .L23+28
ARM GAS  C:\Windows\TEMP\cctU8eWq.s 			page 10


 399 00b4 1188     		ldrh	r1, [r2]
 400 00b6 8B00     		lsls	r3, r1, #2
 401 00b8 CB18     		adds	r3, r1, r3
 402 00ba 5B00     		lsls	r3, r3, #1
 403 00bc 9BB2     		uxth	r3, r3
 112:main.c        ****             speed_buf += inp_ch - '0';
 404              		.loc 1 112 0
 405 00be 1818     		adds	r0, r3, r0
 406              	.LVL54:
 407 00c0 3038     		subs	r0, r0, #48
 408 00c2 1080     		strh	r0, [r2]
 409              	.L14:
 113:main.c        ****         }
 114:main.c        ****     }
 115:main.c        **** }
 410              		.loc 1 115 0
 411              		@ sp needed
 412 00c4 70BD     		pop	{r4, r5, r6, pc}
 413              	.L24:
 414 00c6 C046     		.align	2
 415              	.L23:
 416 00c8 00000000 		.word	manual_control_flag
 417 00cc 00000000 		.word	print_speed_flag
 418 00d0 04000000 		.word	.LC5
 419 00d4 14000000 		.word	.LC7
 420 00d8 00000000 		.word	.LANCHOR0
 421 00dc 28000000 		.word	.LC10
 422 00e0 00000000 		.word	speed_idx
 423 00e4 00000000 		.word	speed_buf
 424 00e8 00000000 		.word	motor_speeds
 425              		.cfi_endproc
 426              	.LFE39:
 427              		.size	handle_UART_input, .-handle_UART_input
 428              		.section	.text.Ball_Trigger_Handler,"ax",%progbits
 429              		.align	2
 430              		.global	Ball_Trigger_Handler
 431              		.code	16
 432              		.thumb_func
 433              		.type	Ball_Trigger_Handler, %function
 434              	Ball_Trigger_Handler:
 435              	.LFB40:
 116:main.c        **** 
 117:main.c        **** // Set isr trigger flag to avoid bouncing
 118:main.c        **** CY_ISR (Ball_Trigger_Handler) {
 436              		.loc 1 118 0
 437              		.cfi_startproc
 438              		@ args = 0, pretend = 0, frame = 0
 439              		@ frame_needed = 0, uses_anonymous_args = 0
 440              		@ link register save eliminated.
 119:main.c        ****     isr_triggered = 1;
 441              		.loc 1 119 0
 442 0000 0122     		movs	r2, #1
 443 0002 014B     		ldr	r3, .L26
 444 0004 5A70     		strb	r2, [r3, #1]
 120:main.c        **** }
 445              		.loc 1 120 0
 446              		@ sp needed
ARM GAS  C:\Windows\TEMP\cctU8eWq.s 			page 11


 447 0006 7047     		bx	lr
 448              	.L27:
 449              		.align	2
 450              	.L26:
 451 0008 00000000 		.word	.LANCHOR0
 452              		.cfi_endproc
 453              	.LFE40:
 454              		.size	Ball_Trigger_Handler, .-Ball_Trigger_Handler
 455              		.section	.text.main,"ax",%progbits
 456              		.align	2
 457              		.global	main
 458              		.code	16
 459              		.thumb_func
 460              		.type	main, %function
 461              	main:
 462              	.LFB41:
 121:main.c        **** 
 122:main.c        **** 
 123:main.c        **** int main(void)
 124:main.c        **** {
 463              		.loc 1 124 0
 464              		.cfi_startproc
 465              		@ args = 0, pretend = 0, frame = 0
 466              		@ frame_needed = 0, uses_anonymous_args = 0
 467 0000 10B5     		push	{r4, lr}
 468              		.cfi_def_cfa_offset 8
 469              		.cfi_offset 4, -8
 470              		.cfi_offset 14, -4
 125:main.c        ****     CyGlobalIntEnable; /* Enable global interrupts. */
 471              		.loc 1 125 0
 472              		.syntax divided
 473              	@ 125 "main.c" 1
 474 0002 62B6     		CPSIE   i
 475              	@ 0 "" 2
 126:main.c        **** 
 127:main.c        ****     //FanController_Start();
 128:main.c        ****     //FanController_SetDesiredSpeed(1,5000);
 129:main.c        ****     UART_Start();
 476              		.loc 1 129 0
 477              		.thumb
 478              		.syntax unified
 479 0004 FFF7FEFF 		bl	UART_Start
 480              	.LVL55:
 481              	.L29:
 482              	.LBB9:
 130:main.c        ****     
 131:main.c        ****     
 132:main.c        ****     for(;;){
 133:main.c        ****         //print_all_speed();
 134:main.c        ****         uint16_t current_rpm = Pin_Input_DOWN_Read();
 483              		.loc 1 134 0 discriminator 1
 484 0008 FFF7FEFF 		bl	Pin_Input_DOWN_Read
 485              	.LVL56:
 486 000c 82B2     		uxth	r2, r0
 487              	.LVL57:
 135:main.c        ****         sprintf(uart_rpm_buff, "%u", current_rpm / 2);
 488              		.loc 1 135 0 discriminator 1
ARM GAS  C:\Windows\TEMP\cctU8eWq.s 			page 12


 489 000e 5208     		lsrs	r2, r2, #1
 490              	.LVL58:
 491 0010 054C     		ldr	r4, .L30
 492 0012 0649     		ldr	r1, .L30+4
 493 0014 2000     		movs	r0, r4
 494              	.LVL59:
 495 0016 FFF7FEFF 		bl	sprintf
 496              	.LVL60:
 136:main.c        ****         UART_UartPutString(uart_rpm_buff);
 497              		.loc 1 136 0 discriminator 1
 498 001a 2000     		movs	r0, r4
 499 001c FFF7FEFF 		bl	UART_UartPutString
 500              	.LVL61:
 137:main.c        ****         UART_UartPutChar(' ');
 501              		.loc 1 137 0 discriminator 1
 502 0020 2020     		movs	r0, #32
 503 0022 FFF7FEFF 		bl	UART_SpiUartWriteTxData
 504              	.LVL62:
 505 0026 EFE7     		b	.L29
 506              	.L31:
 507              		.align	2
 508              	.L30:
 509 0028 00000000 		.word	uart_rpm_buff
 510 002c 00000000 		.word	.LC0
 511              	.LBE9:
 512              		.cfi_endproc
 513              	.LFE41:
 514              		.size	main, .-main
 515              		.comm	speed_buf,2,2
 516              		.comm	motor_speeds,2,4
 517              		.global	serving_enabled
 518              		.global	isr_triggered
 519              		.comm	speed_idx,1,1
 520              		.global	conf_iterator
 521              		.global	conf_size
 522              		.global	speed_configs
 523              		.comm	uart_rpm_buff,4,4
 524              		.comm	manual_control_flag,1,1
 525              		.comm	print_speed_flag,1,1
 526              		.data
 527              		.align	2
 528              		.type	conf_size, %object
 529              		.size	conf_size, 2
 530              	conf_size:
 531 0000 0400     		.short	4
 532 0002 0000     		.space	2
 533              		.type	speed_configs, %object
 534              		.size	speed_configs, 32
 535              	speed_configs:
 536 0004 A00F     		.short	4000
 537 0006 0000     		.short	0
 538 0008 A00F     		.short	4000
 539 000a A00F     		.short	4000
 540 000c 0000     		.short	0
 541 000e A00F     		.short	4000
 542 0010 A00F     		.short	4000
 543 0012 A00F     		.short	4000
ARM GAS  C:\Windows\TEMP\cctU8eWq.s 			page 13


 544 0014 A00F     		.short	4000
 545 0016 A00F     		.short	4000
 546 0018 0000     		.short	0
 547 001a A00F     		.short	4000
 548 001c A00F     		.short	4000
 549 001e A00F     		.short	4000
 550 0020 A00F     		.short	4000
 551 0022 0000     		.short	0
 552              		.section	.rodata.str1.4,"aMS",%progbits,1
 553              		.align	2
 554              	.LC0:
 555 0000 257500   		.ascii	"%u\000"
 556 0003 00       		.space	1
 557              	.LC5:
 558 0004 53657420 		.ascii	"Set The Speeds:\000"
 558      54686520 
 558      53706565 
 558      64733A00 
 559              	.LC7:
 560 0014 456E6162 		.ascii	"Enabled Serving:\000"
 560      6C656420 
 560      53657276 
 560      696E673A 
 560      00
 561 0025 000000   		.space	3
 562              	.LC10:
 563 0028 44697361 		.ascii	"Disabled Serving:\000"
 563      626C6564 
 563      20536572 
 563      76696E67 
 563      3A00
 564              		.bss
 565              		.set	.LANCHOR0,. + 0
 566              		.type	serving_enabled, %object
 567              		.size	serving_enabled, 1
 568              	serving_enabled:
 569 0000 00       		.space	1
 570              		.type	isr_triggered, %object
 571              		.size	isr_triggered, 1
 572              	isr_triggered:
 573 0001 00       		.space	1
 574              		.type	conf_iterator, %object
 575              		.size	conf_iterator, 1
 576              	conf_iterator:
 577 0002 00       		.space	1
 578              		.text
 579              	.Letext0:
 580              		.file 2 "c:\\program files (x86)\\cypress\\psoc creator\\4.4\\psoc creator\\import\\gnu\\arm\\5.4.
 581              		.file 3 "c:\\program files (x86)\\cypress\\psoc creator\\4.4\\psoc creator\\import\\gnu\\arm\\5.4.
 582              		.file 4 "Generated_Source\\PSoC4/cytypes.h"
 583              		.file 5 "main_data.h"
 584              		.file 6 "Generated_Source\\PSoC4/UART_SPI_UART.h"
 585              		.file 7 "c:\\program files (x86)\\cypress\\psoc creator\\4.4\\psoc creator\\import\\gnu\\arm\\5.4.
 586              		.file 8 "Generated_Source\\PSoC4/Pin_Input_DOWN.h"
 587              		.file 9 "Generated_Source\\PSoC4/UART.h"