ARM GAS  C:\Windows\TEMP\ccJkWsf2.s 			page 1


   1              		.syntax unified
   2              		.cpu cortex-m0
   3              		.fpu softvfp
   4              		.eabi_attribute 20, 1
   5              		.eabi_attribute 21, 1
   6              		.eabi_attribute 23, 3
   7              		.eabi_attribute 24, 1
   8              		.eabi_attribute 25, 1
   9              		.eabi_attribute 26, 1
  10              		.eabi_attribute 30, 1
  11              		.eabi_attribute 34, 0
  12              		.eabi_attribute 18, 4
  13              		.thumb
  14              		.syntax unified
  15              		.file	"main.c"
  16              		.text
  17              	.Ltext0:
  18              		.cfi_sections	.debug_frame
  19              		.section	.text.Ball_Trigger_Handler,"ax",%progbits
  20              		.align	2
  21              		.global	Ball_Trigger_Handler
  22              		.code	16
  23              		.thumb_func
  24              		.type	Ball_Trigger_Handler, %function
  25              	Ball_Trigger_Handler:
  26              	.LFB38:
  27              		.file 1 "main.c"
   1:main.c        **** /* ========================================
   2:main.c        ****  *
   3:main.c        ****  * Copyright YOUR COMPANY, THE YEAR
   4:main.c        ****  * All Rights Reserved
   5:main.c        ****  * UNPUBLISHED, LICENSED SOFTWARE.
   6:main.c        ****  *
   7:main.c        ****  * CONFIDENTIAL AND PROPRIETARY INFORMATION
   8:main.c        ****  * WHICH IS THE PROPERTY OF your company.
   9:main.c        ****  *
  10:main.c        ****  * ========================================
  11:main.c        **** */
  12:main.c        **** #include "project.h"
  13:main.c        **** #include <stdio.h>
  14:main.c        **** #include "main_data.h"
  15:main.c        **** 
  16:main.c        **** 
  17:main.c        **** int8 speed_idx;
  18:main.c        **** int8 isr_triggered = 0;
  19:main.c        **** int8 serving_enabled = 0;
  20:main.c        **** 
  21:main.c        **** int16_t motor_speeds[4];
  22:main.c        **** int16 speed_buf;
  23:main.c        **** 
  24:main.c        **** 
  25:main.c        **** void UART_print_string(char text[]) {
  26:main.c        ****     // A utility function to print an array of characters with UART
  27:main.c        ****     UART_UartPutChar('\n');
  28:main.c        ****     UART_UartPutChar('\r');
  29:main.c        ****     UART_UartPutString(text);
  30:main.c        ****     UART_UartPutChar('\n');
ARM GAS  C:\Windows\TEMP\ccJkWsf2.s 			page 2


  31:main.c        ****     UART_UartPutChar('\r');
  32:main.c        **** }
  33:main.c        **** 
  34:main.c        **** 
  35:main.c        **** void handle_UART_input(char inp_ch) {
  36:main.c        ****     /* 
  37:main.c        ****     Main input function.
  38:main.c        ****     Responsible for setting modes and writing speeds.
  39:main.c        ****     Operates with most of the global variables.
  40:main.c        ****     */
  41:main.c        ****     
  42:main.c        ****     if (manual_control_flag) {
  43:main.c        ****         if(inp_ch == 'p'){
  44:main.c        ****             print_speed_flag = 0;
  45:main.c        ****             UART_print_string("Set The Speeds:");
  46:main.c        ****         }
  47:main.c        ****         else if(inp_ch == 's'){
  48:main.c        ****             print_speed_flag = 1;
  49:main.c        ****         }
  50:main.c        ****         else if(inp_ch == 'x') {
  51:main.c        ****             UART_print_string("Enabled Serving:");
  52:main.c        ****             serving_enabled = 1;
  53:main.c        ****             Pin_Serve_Write(1);
  54:main.c        ****         }
  55:main.c        ****         else if (inp_ch == 'z') {
  56:main.c        ****             UART_print_string("Disabled Serving:");
  57:main.c        ****             serving_enabled = 0;
  58:main.c        ****             Pin_Serve_Write(0);
  59:main.c        ****         }
  60:main.c        ****         else if (inp_ch == ' ') {
  61:main.c        ****             motor_speeds[speed_idx] = speed_buf;
  62:main.c        ****             speed_idx++;
  63:main.c        ****             speed_buf = 0;
  64:main.c        ****         }
  65:main.c        ****         else if(inp_ch == '\r'){
  66:main.c        ****             if (speed_idx == MOTOR_COUNT - 1) {
  67:main.c        ****                 motor_speeds[speed_idx] = speed_buf;
  68:main.c        ****             }
  69:main.c        ****             speed_buf = 0;
  70:main.c        ****             speed_idx = 0;
  71:main.c        ****             UART_UartPutChar('\n');
  72:main.c        ****         }
  73:main.c        ****         else if(inp_ch < HIGHER_NUM_BORDER && inp_ch > LOWER_NUM_BORDER){
  74:main.c        ****             speed_buf *= 10;
  75:main.c        ****             speed_buf += inp_ch - '0';
  76:main.c        ****         }
  77:main.c        ****     }
  78:main.c        **** }
  79:main.c        **** 
  80:main.c        **** // Set isr trigger flag to avoid bouncing
  81:main.c        **** CY_ISR (Ball_Trigger_Handler) {
  28              		.loc 1 81 0
  29              		.cfi_startproc
  30              		@ args = 0, pretend = 0, frame = 0
  31              		@ frame_needed = 0, uses_anonymous_args = 0
  32              		@ link register save eliminated.
  82:main.c        ****     isr_triggered = 1;
ARM GAS  C:\Windows\TEMP\ccJkWsf2.s 			page 3


  33              		.loc 1 82 0
  34 0000 0122     		movs	r2, #1
  35 0002 014B     		ldr	r3, .L2
  36 0004 1A70     		strb	r2, [r3]
  83:main.c        **** }
  37              		.loc 1 83 0
  38              		@ sp needed
  39 0006 7047     		bx	lr
  40              	.L3:
  41              		.align	2
  42              	.L2:
  43 0008 00000000 		.word	.LANCHOR0
  44              		.cfi_endproc
  45              	.LFE38:
  46              		.size	Ball_Trigger_Handler, .-Ball_Trigger_Handler
  47              		.section	.text.UART_print_string,"ax",%progbits
  48              		.align	2
  49              		.global	UART_print_string
  50              		.code	16
  51              		.thumb_func
  52              		.type	UART_print_string, %function
  53              	UART_print_string:
  54              	.LFB36:
  25:main.c        ****     // A utility function to print an array of characters with UART
  55              		.loc 1 25 0
  56              		.cfi_startproc
  57              		@ args = 0, pretend = 0, frame = 0
  58              		@ frame_needed = 0, uses_anonymous_args = 0
  59              	.LVL0:
  60 0000 10B5     		push	{r4, lr}
  61              		.cfi_def_cfa_offset 8
  62              		.cfi_offset 4, -8
  63              		.cfi_offset 14, -4
  64 0002 0400     		movs	r4, r0
  27:main.c        ****     UART_UartPutChar('\r');
  65              		.loc 1 27 0
  66 0004 0A20     		movs	r0, #10
  67              	.LVL1:
  68 0006 FFF7FEFF 		bl	UART_SpiUartWriteTxData
  69              	.LVL2:
  28:main.c        ****     UART_UartPutString(text);
  70              		.loc 1 28 0
  71 000a 0D20     		movs	r0, #13
  72 000c FFF7FEFF 		bl	UART_SpiUartWriteTxData
  73              	.LVL3:
  29:main.c        ****     UART_UartPutChar('\n');
  74              		.loc 1 29 0
  75 0010 2000     		movs	r0, r4
  76 0012 FFF7FEFF 		bl	UART_UartPutString
  77              	.LVL4:
  30:main.c        ****     UART_UartPutChar('\r');
  78              		.loc 1 30 0
  79 0016 0A20     		movs	r0, #10
  80 0018 FFF7FEFF 		bl	UART_SpiUartWriteTxData
  81              	.LVL5:
  31:main.c        **** }
  82              		.loc 1 31 0
ARM GAS  C:\Windows\TEMP\ccJkWsf2.s 			page 4


  83 001c 0D20     		movs	r0, #13
  84 001e FFF7FEFF 		bl	UART_SpiUartWriteTxData
  85              	.LVL6:
  32:main.c        **** 
  86              		.loc 1 32 0
  87              		@ sp needed
  88              	.LVL7:
  89 0022 10BD     		pop	{r4, pc}
  90              		.cfi_endproc
  91              	.LFE36:
  92              		.size	UART_print_string, .-UART_print_string
  93              		.section	.text.handle_UART_input,"ax",%progbits
  94              		.align	2
  95              		.global	handle_UART_input
  96              		.code	16
  97              		.thumb_func
  98              		.type	handle_UART_input, %function
  99              	handle_UART_input:
 100              	.LFB37:
  35:main.c        ****     /* 
 101              		.loc 1 35 0
 102              		.cfi_startproc
 103              		@ args = 0, pretend = 0, frame = 0
 104              		@ frame_needed = 0, uses_anonymous_args = 0
 105              	.LVL8:
 106 0000 70B5     		push	{r4, r5, r6, lr}
 107              		.cfi_def_cfa_offset 16
 108              		.cfi_offset 4, -16
 109              		.cfi_offset 5, -12
 110              		.cfi_offset 6, -8
 111              		.cfi_offset 14, -4
  42:main.c        ****         if(inp_ch == 'p'){
 112              		.loc 1 42 0
 113 0002 2F4B     		ldr	r3, .L14
 114 0004 1B78     		ldrb	r3, [r3]
 115 0006 5BB2     		sxtb	r3, r3
 116 0008 002B     		cmp	r3, #0
 117 000a 58D0     		beq	.L5
  43:main.c        ****             print_speed_flag = 0;
 118              		.loc 1 43 0
 119 000c 7028     		cmp	r0, #112
 120 000e 06D1     		bne	.L7
  44:main.c        ****             UART_print_string("Set The Speeds:");
 121              		.loc 1 44 0
 122 0010 0022     		movs	r2, #0
 123 0012 2C4B     		ldr	r3, .L14+4
 124 0014 1A70     		strb	r2, [r3]
  45:main.c        ****         }
 125              		.loc 1 45 0
 126 0016 2C48     		ldr	r0, .L14+8
 127              	.LVL9:
 128 0018 FFF7FEFF 		bl	UART_print_string
 129              	.LVL10:
 130 001c 4FE0     		b	.L5
 131              	.LVL11:
 132              	.L7:
  47:main.c        ****             print_speed_flag = 1;
ARM GAS  C:\Windows\TEMP\ccJkWsf2.s 			page 5


 133              		.loc 1 47 0
 134 001e 7328     		cmp	r0, #115
 135 0020 03D1     		bne	.L8
  48:main.c        ****         }
 136              		.loc 1 48 0
 137 0022 0122     		movs	r2, #1
 138 0024 274B     		ldr	r3, .L14+4
 139 0026 1A70     		strb	r2, [r3]
 140 0028 49E0     		b	.L5
 141              	.L8:
  50:main.c        ****             UART_print_string("Enabled Serving:");
 142              		.loc 1 50 0
 143 002a 7828     		cmp	r0, #120
 144 002c 09D1     		bne	.L9
  51:main.c        ****             serving_enabled = 1;
 145              		.loc 1 51 0
 146 002e 2748     		ldr	r0, .L14+12
 147              	.LVL12:
 148 0030 FFF7FEFF 		bl	UART_print_string
 149              	.LVL13:
  52:main.c        ****             Pin_Serve_Write(1);
 150              		.loc 1 52 0
 151 0034 0122     		movs	r2, #1
 152 0036 264B     		ldr	r3, .L14+16
 153 0038 5A70     		strb	r2, [r3, #1]
  53:main.c        ****         }
 154              		.loc 1 53 0
 155 003a 0120     		movs	r0, #1
 156 003c FFF7FEFF 		bl	Pin_Serve_Write
 157              	.LVL14:
 158 0040 3DE0     		b	.L5
 159              	.LVL15:
 160              	.L9:
  55:main.c        ****             UART_print_string("Disabled Serving:");
 161              		.loc 1 55 0
 162 0042 7A28     		cmp	r0, #122
 163 0044 09D1     		bne	.L10
  56:main.c        ****             serving_enabled = 0;
 164              		.loc 1 56 0
 165 0046 2348     		ldr	r0, .L14+20
 166              	.LVL16:
 167 0048 FFF7FEFF 		bl	UART_print_string
 168              	.LVL17:
  57:main.c        ****             Pin_Serve_Write(0);
 169              		.loc 1 57 0
 170 004c 0022     		movs	r2, #0
 171 004e 204B     		ldr	r3, .L14+16
 172 0050 5A70     		strb	r2, [r3, #1]
  58:main.c        ****         }
 173              		.loc 1 58 0
 174 0052 0020     		movs	r0, #0
 175 0054 FFF7FEFF 		bl	Pin_Serve_Write
 176              	.LVL18:
 177 0058 31E0     		b	.L5
 178              	.LVL19:
 179              	.L10:
  60:main.c        ****             motor_speeds[speed_idx] = speed_buf;
ARM GAS  C:\Windows\TEMP\ccJkWsf2.s 			page 6


 180              		.loc 1 60 0
 181 005a 2028     		cmp	r0, #32
 182 005c 0CD1     		bne	.L11
  61:main.c        ****             speed_idx++;
 183              		.loc 1 61 0
 184 005e 1E49     		ldr	r1, .L14+24
 185 0060 0023     		movs	r3, #0
 186 0062 CB56     		ldrsb	r3, [r1, r3]
 187 0064 5C00     		lsls	r4, r3, #1
 188 0066 1D4A     		ldr	r2, .L14+28
 189 0068 1588     		ldrh	r5, [r2]
 190 006a 1D48     		ldr	r0, .L14+32
 191              	.LVL20:
 192 006c 2552     		strh	r5, [r4, r0]
  62:main.c        ****             speed_buf = 0;
 193              		.loc 1 62 0
 194 006e 0133     		adds	r3, r3, #1
 195 0070 0B70     		strb	r3, [r1]
  63:main.c        ****         }
 196              		.loc 1 63 0
 197 0072 0023     		movs	r3, #0
 198 0074 1380     		strh	r3, [r2]
 199 0076 22E0     		b	.L5
 200              	.LVL21:
 201              	.L11:
  65:main.c        ****             if (speed_idx == MOTOR_COUNT - 1) {
 202              		.loc 1 65 0
 203 0078 0D28     		cmp	r0, #13
 204 007a 12D1     		bne	.L12
  66:main.c        ****                 motor_speeds[speed_idx] = speed_buf;
 205              		.loc 1 66 0
 206 007c 164B     		ldr	r3, .L14+24
 207 007e 1B78     		ldrb	r3, [r3]
 208 0080 5BB2     		sxtb	r3, r3
 209 0082 032B     		cmp	r3, #3
 210 0084 04D1     		bne	.L13
  67:main.c        ****             }
 211              		.loc 1 67 0
 212 0086 5B00     		lsls	r3, r3, #1
 213 0088 144A     		ldr	r2, .L14+28
 214 008a 1188     		ldrh	r1, [r2]
 215 008c 144A     		ldr	r2, .L14+32
 216 008e 9952     		strh	r1, [r3, r2]
 217              	.L13:
  69:main.c        ****             speed_idx = 0;
 218              		.loc 1 69 0
 219 0090 0022     		movs	r2, #0
 220 0092 124B     		ldr	r3, .L14+28
 221 0094 1A80     		strh	r2, [r3]
  70:main.c        ****             UART_UartPutChar('\n');
 222              		.loc 1 70 0
 223 0096 104B     		ldr	r3, .L14+24
 224 0098 1A70     		strb	r2, [r3]
  71:main.c        ****         }
 225              		.loc 1 71 0
 226 009a 0A20     		movs	r0, #10
 227              	.LVL22:
ARM GAS  C:\Windows\TEMP\ccJkWsf2.s 			page 7


 228 009c FFF7FEFF 		bl	UART_SpiUartWriteTxData
 229              	.LVL23:
 230 00a0 0DE0     		b	.L5
 231              	.LVL24:
 232              	.L12:
  73:main.c        ****             speed_buf *= 10;
 233              		.loc 1 73 0
 234 00a2 0300     		movs	r3, r0
 235 00a4 303B     		subs	r3, r3, #48
 236 00a6 DBB2     		uxtb	r3, r3
 237 00a8 092B     		cmp	r3, #9
 238 00aa 08D8     		bhi	.L5
  74:main.c        ****             speed_buf += inp_ch - '0';
 239              		.loc 1 74 0
 240 00ac 0B4A     		ldr	r2, .L14+28
 241 00ae 1188     		ldrh	r1, [r2]
 242 00b0 8B00     		lsls	r3, r1, #2
 243 00b2 CB18     		adds	r3, r1, r3
 244 00b4 5B00     		lsls	r3, r3, #1
 245 00b6 9BB2     		uxth	r3, r3
  75:main.c        ****         }
 246              		.loc 1 75 0
 247 00b8 1818     		adds	r0, r3, r0
 248              	.LVL25:
 249 00ba 3038     		subs	r0, r0, #48
 250 00bc 1080     		strh	r0, [r2]
 251              	.L5:
  78:main.c        **** 
 252              		.loc 1 78 0
 253              		@ sp needed
 254 00be 70BD     		pop	{r4, r5, r6, pc}
 255              	.L15:
 256              		.align	2
 257              	.L14:
 258 00c0 00000000 		.word	manual_control_flag
 259 00c4 00000000 		.word	print_speed_flag
 260 00c8 00000000 		.word	.LC3
 261 00cc 10000000 		.word	.LC5
 262 00d0 00000000 		.word	.LANCHOR0
 263 00d4 24000000 		.word	.LC8
 264 00d8 00000000 		.word	speed_idx
 265 00dc 00000000 		.word	speed_buf
 266 00e0 00000000 		.word	motor_speeds
 267              		.cfi_endproc
 268              	.LFE37:
 269              		.size	handle_UART_input, .-handle_UART_input
 270              		.section	.text.main,"ax",%progbits
 271              		.align	2
 272              		.global	main
 273              		.code	16
 274              		.thumb_func
 275              		.type	main, %function
 276              	main:
 277              	.LFB39:
  84:main.c        **** 
  85:main.c        **** 
  86:main.c        **** int main(void)
ARM GAS  C:\Windows\TEMP\ccJkWsf2.s 			page 8


  87:main.c        **** {
 278              		.loc 1 87 0
 279              		.cfi_startproc
 280              		@ args = 0, pretend = 0, frame = 0
 281              		@ frame_needed = 0, uses_anonymous_args = 0
 282 0000 10B5     		push	{r4, lr}
 283              		.cfi_def_cfa_offset 8
 284              		.cfi_offset 4, -8
 285              		.cfi_offset 14, -4
  88:main.c        ****     CyGlobalIntEnable; /* Enable global interrupts. */
 286              		.loc 1 88 0
 287              		.syntax divided
 288              	@ 88 "main.c" 1
 289 0002 62B6     		CPSIE   i
 290              	@ 0 "" 2
  89:main.c        **** 
  90:main.c        ****     /* Start Everything Up */
  91:main.c        ****     //FanController_Start();
  92:main.c        ****     UART_Start();
 291              		.loc 1 92 0
 292              		.thumb
 293              		.syntax unified
 294 0004 FFF7FEFF 		bl	UART_Start
 295              	.LVL26:
  93:main.c        ****     
  94:main.c        ****     ISR_Ball_Trigger_StartEx( Ball_Trigger_Handler );
 296              		.loc 1 94 0
 297 0008 0D48     		ldr	r0, .L17
 298 000a FFF7FEFF 		bl	ISR_Ball_Trigger_StartEx
 299              	.LVL27:
  95:main.c        **** 
  96:main.c        ****     char ch;
  97:main.c        ****     speed_buf = 0;
 300              		.loc 1 97 0
 301 000e 0022     		movs	r2, #0
 302 0010 0C4B     		ldr	r3, .L17+4
 303 0012 1A80     		strh	r2, [r3]
  98:main.c        ****     speed_idx = 0;
 304              		.loc 1 98 0
 305 0014 0C4B     		ldr	r3, .L17+8
 306 0016 1A70     		strb	r2, [r3]
  99:main.c        ****     // By default we don't print any speed
 100:main.c        ****     print_speed_flag = 0;
 307              		.loc 1 100 0
 308 0018 0C4B     		ldr	r3, .L17+12
 309 001a 1A70     		strb	r2, [r3]
 101:main.c        ****     // Manual control is enabled by default
 102:main.c        ****     manual_control_flag = 1;
 310              		.loc 1 102 0
 311 001c 0122     		movs	r2, #1
 312 001e 0C4B     		ldr	r3, .L17+16
 313 0020 1A70     		strb	r2, [r3]
 103:main.c        ****     
 104:main.c        ****     Pin_Output_UP_Write(1);
 314              		.loc 1 104 0
 315 0022 0120     		movs	r0, #1
 316 0024 FFF7FEFF 		bl	Pin_Output_UP_Write
ARM GAS  C:\Windows\TEMP\ccJkWsf2.s 			page 9


 317              	.LVL28:
 105:main.c        ****     Pin_Output_UP_GROUND_Write(0);
 318              		.loc 1 105 0
 319 0028 0020     		movs	r0, #0
 320 002a FFF7FEFF 		bl	Pin_Output_UP_GROUND_Write
 321              	.LVL29:
 106:main.c        ****     
 107:main.c        ****     Pin_Output_DOWN_Write(1);
 322              		.loc 1 107 0
 323 002e 0120     		movs	r0, #1
 324 0030 FFF7FEFF 		bl	Pin_Output_DOWN_Write
 325              	.LVL30:
 108:main.c        ****     Pin_Output_DOWN_GROUND_Write(0);
 326              		.loc 1 108 0
 327 0034 0020     		movs	r0, #0
 328 0036 FFF7FEFF 		bl	Pin_Output_DOWN_GROUND_Write
 329              	.LVL31:
 109:main.c        **** }
 330              		.loc 1 109 0
 331 003a 0020     		movs	r0, #0
 332              		@ sp needed
 333 003c 10BD     		pop	{r4, pc}
 334              	.L18:
 335 003e C046     		.align	2
 336              	.L17:
 337 0040 00000000 		.word	Ball_Trigger_Handler
 338 0044 00000000 		.word	speed_buf
 339 0048 00000000 		.word	speed_idx
 340 004c 00000000 		.word	print_speed_flag
 341 0050 00000000 		.word	manual_control_flag
 342              		.cfi_endproc
 343              	.LFE39:
 344              		.size	main, .-main
 345              		.comm	speed_buf,2,2
 346              		.comm	motor_speeds,8,4
 347              		.global	serving_enabled
 348              		.global	isr_triggered
 349              		.comm	speed_idx,1,1
 350              		.global	conf_iterator
 351              		.global	conf_size
 352              		.global	speed_configs
 353              		.comm	uart_rpm_buff,4,4
 354              		.comm	manual_control_flag,1,1
 355              		.comm	print_speed_flag,1,1
 356              		.data
 357              		.align	2
 358              		.type	conf_size, %object
 359              		.size	conf_size, 2
 360              	conf_size:
 361 0000 0400     		.short	4
 362 0002 0000     		.space	2
 363              		.type	speed_configs, %object
 364              		.size	speed_configs, 32
 365              	speed_configs:
 366 0004 A00F     		.short	4000
 367 0006 0000     		.short	0
 368 0008 A00F     		.short	4000
ARM GAS  C:\Windows\TEMP\ccJkWsf2.s 			page 10


 369 000a A00F     		.short	4000
 370 000c 0000     		.short	0
 371 000e A00F     		.short	4000
 372 0010 A00F     		.short	4000
 373 0012 A00F     		.short	4000
 374 0014 A00F     		.short	4000
 375 0016 A00F     		.short	4000
 376 0018 0000     		.short	0
 377 001a A00F     		.short	4000
 378 001c A00F     		.short	4000
 379 001e A00F     		.short	4000
 380 0020 401F     		.short	8000
 381 0022 A00F     		.short	4000
 382              		.section	.rodata.str1.4,"aMS",%progbits,1
 383              		.align	2
 384              	.LC3:
 385 0000 53657420 		.ascii	"Set The Speeds:\000"
 385      54686520 
 385      53706565 
 385      64733A00 
 386              	.LC5:
 387 0010 456E6162 		.ascii	"Enabled Serving:\000"
 387      6C656420 
 387      53657276 
 387      696E673A 
 387      00
 388 0021 000000   		.space	3
 389              	.LC8:
 390 0024 44697361 		.ascii	"Disabled Serving:\000"
 390      626C6564 
 390      20536572 
 390      76696E67 
 390      3A00
 391              		.bss
 392              		.set	.LANCHOR0,. + 0
 393              		.type	isr_triggered, %object
 394              		.size	isr_triggered, 1
 395              	isr_triggered:
 396 0000 00       		.space	1
 397              		.type	serving_enabled, %object
 398              		.size	serving_enabled, 1
 399              	serving_enabled:
 400 0001 00       		.space	1
 401              		.type	conf_iterator, %object
 402              		.size	conf_iterator, 1
 403              	conf_iterator:
 404 0002 00       		.space	1
 405              		.text
 406              	.Letext0:
 407              		.file 2 "c:\\program files (x86)\\cypress\\psoc creator\\4.4\\psoc creator\\import\\gnu\\arm\\5.4.
 408              		.file 3 "c:\\program files (x86)\\cypress\\psoc creator\\4.4\\psoc creator\\import\\gnu\\arm\\5.4.
 409              		.file 4 "Generated_Source\\PSoC4/cytypes.h"
 410              		.file 5 "main_data.h"
 411              		.file 6 "Generated_Source\\PSoC4/UART_SPI_UART.h"
 412              		.file 7 "Generated_Source\\PSoC4/Pin_Serve.h"
 413              		.file 8 "Generated_Source\\PSoC4/UART.h"
 414              		.file 9 "Generated_Source\\PSoC4/ISR_Ball_Trigger.h"
ARM GAS  C:\Windows\TEMP\ccJkWsf2.s 			page 11


 415              		.file 10 "Generated_Source\\PSoC4/Pin_Output_UP.h"
 416              		.file 11 "Generated_Source\\PSoC4/Pin_Output_UP_GROUND.h"
 417              		.file 12 "Generated_Source\\PSoC4/Pin_Output_DOWN.h"
 418              		.file 13 "Generated_Source\\PSoC4/Pin_Output_DOWN_GROUND.h"