ARM GAS  C:\Windows\TEMP\ccfcd9qV.s 			page 1


   1              		.syntax unified
   2              		.cpu cortex-m0
   3              		.fpu softvfp
   4              		.eabi_attribute 20, 1
   5              		.eabi_attribute 21, 1
   6              		.eabi_attribute 23, 3
   7              		.eabi_attribute 24, 1
   8              		.eabi_attribute 25, 1
   9              		.eabi_attribute 26, 1
  10              		.eabi_attribute 30, 1
  11              		.eabi_attribute 34, 0
  12              		.eabi_attribute 18, 4
  13              		.thumb
  14              		.syntax unified
  15              		.file	"main.c"
  16              		.text
  17              	.Ltext0:
  18              		.cfi_sections	.debug_frame
  19              		.section	.text.Stack_Handler,"ax",%progbits
  20              		.align	2
  21              		.global	Stack_Handler
  22              		.code	16
  23              		.thumb_func
  24              		.type	Stack_Handler, %function
  25              	Stack_Handler:
  26              	.LFB35:
  27              		.file 1 "main.c"
   1:main.c        **** /* ========================================
   2:main.c        ****  *
   3:main.c        ****  * Copyright YOUR COMPANY, THE YEAR
   4:main.c        ****  * All Rights Reserved
   5:main.c        ****  * UNPUBLISHED, LICENSED SOFTWARE.
   6:main.c        ****  *
   7:main.c        ****  * CONFIDENTIAL AND PROPRIETARY INFORMATION
   8:main.c        ****  * WHICH IS THE PROPERTY OF your company.
   9:main.c        ****  *
  10:main.c        ****  * ========================================
  11:main.c        **** */
  12:main.c        **** #include "project.h"
  13:main.c        **** 
  14:main.c        **** void Stack_Handler(uint32 eventCode, void *eventParams)
  15:main.c        **** {
  28              		.loc 1 15 0
  29              		.cfi_startproc
  30              		@ args = 0, pretend = 0, frame = 0
  31              		@ frame_needed = 0, uses_anonymous_args = 0
  32              	.LVL0:
  33 0000 10B5     		push	{r4, lr}
  34              		.cfi_def_cfa_offset 8
  35              		.cfi_offset 4, -8
  36              		.cfi_offset 14, -4
  16:main.c        ****     switch(eventCode){
  37              		.loc 1 16 0
  38 0002 0128     		cmp	r0, #1
  39 0004 01D0     		beq	.L3
  40 0006 2828     		cmp	r0, #40
  41 0008 02D1     		bne	.L1
ARM GAS  C:\Windows\TEMP\ccfcd9qV.s 			page 2


  42              	.L3:
  17:main.c        ****         case CYBLE_EVT_STACK_ON:
  18:main.c        ****         case CYBLE_EVT_GAP_DEVICE_DISCONNECTED:
  19:main.c        ****             CyBle_GappStartAdvertisement(CYBLE_ADVERTISING_FAST);
  43              		.loc 1 19 0
  44 000a 0020     		movs	r0, #0
  45              	.LVL1:
  46 000c FFF7FEFF 		bl	CyBle_GappStartAdvertisement
  47              	.LVL2:
  48              	.L1:
  20:main.c        ****             break;
  21:main.c        ****     }
  22:main.c        **** }
  49              		.loc 1 22 0
  50              		@ sp needed
  51 0010 10BD     		pop	{r4, pc}
  52              		.cfi_endproc
  53              	.LFE35:
  54              		.size	Stack_Handler, .-Stack_Handler
  55 0012 C046     		.section	.text.Ias_Handler,"ax",%progbits
  56              		.align	2
  57              		.global	Ias_Handler
  58              		.code	16
  59              		.thumb_func
  60              		.type	Ias_Handler, %function
  61              	Ias_Handler:
  62              	.LFB36:
  23:main.c        **** 
  24:main.c        **** void Ias_Handler(uint32 eventCode, void *eventParam){
  63              		.loc 1 24 0
  64              		.cfi_startproc
  65              		@ args = 0, pretend = 0, frame = 0
  66              		@ frame_needed = 0, uses_anonymous_args = 0
  67              	.LVL3:
  68 0000 10B5     		push	{r4, lr}
  69              		.cfi_def_cfa_offset 8
  70              		.cfi_offset 4, -8
  71              		.cfi_offset 14, -4
  72              	.LVL4:
  25:main.c        ****         CYBLE_IAS_CHAR_VALUE_T *param = (CYBLE_IAS_CHAR_VALUE_T *)eventParam;
  26:main.c        ****         
  27:main.c        ****         if(*param->value->val == 0)
  73              		.loc 1 27 0
  74 0002 4B68     		ldr	r3, [r1, #4]
  75 0004 1B68     		ldr	r3, [r3]
  76 0006 1B78     		ldrb	r3, [r3]
  77 0008 002B     		cmp	r3, #0
  78 000a 03D1     		bne	.L5
  28:main.c        ****             PWM_WriteCompare(0);
  79              		.loc 1 28 0
  80 000c 0020     		movs	r0, #0
  81              	.LVL5:
  82 000e FFF7FEFF 		bl	PWM_WriteCompare
  83              	.LVL6:
  84 0012 0AE0     		b	.L4
  85              	.LVL7:
  86              	.L5:
ARM GAS  C:\Windows\TEMP\ccfcd9qV.s 			page 3


  29:main.c        ****         else if(*param->value->val == 1)
  87              		.loc 1 29 0
  88 0014 012B     		cmp	r3, #1
  89 0016 04D1     		bne	.L7
  30:main.c        ****             PWM_WriteCompare(500);
  90              		.loc 1 30 0
  91 0018 FA20     		movs	r0, #250
  92              	.LVL8:
  93 001a 4000     		lsls	r0, r0, #1
  94 001c FFF7FEFF 		bl	PWM_WriteCompare
  95              	.LVL9:
  96 0020 03E0     		b	.L4
  97              	.LVL10:
  98              	.L7:
  31:main.c        ****         else
  32:main.c        ****             PWM_WriteCompare(1000);
  99              		.loc 1 32 0
 100 0022 FA20     		movs	r0, #250
 101              	.LVL11:
 102 0024 8000     		lsls	r0, r0, #2
 103 0026 FFF7FEFF 		bl	PWM_WriteCompare
 104              	.LVL12:
 105              	.L4:
  33:main.c        **** } 
 106              		.loc 1 33 0
 107              		@ sp needed
 108 002a 10BD     		pop	{r4, pc}
 109              		.cfi_endproc
 110              	.LFE36:
 111              		.size	Ias_Handler, .-Ias_Handler
 112              		.section	.text.main,"ax",%progbits
 113              		.align	2
 114              		.global	main
 115              		.code	16
 116              		.thumb_func
 117              		.type	main, %function
 118              	main:
 119              	.LFB37:
  34:main.c        **** 
  35:main.c        **** int main(void)
  36:main.c        **** {
 120              		.loc 1 36 0
 121              		.cfi_startproc
 122              		@ Volatile: function does not return.
 123              		@ args = 0, pretend = 0, frame = 0
 124              		@ frame_needed = 0, uses_anonymous_args = 0
 125 0000 10B5     		push	{r4, lr}
 126              		.cfi_def_cfa_offset 8
 127              		.cfi_offset 4, -8
 128              		.cfi_offset 14, -4
  37:main.c        ****     CyGlobalIntEnable; /* Enable global interrupts. */
 129              		.loc 1 37 0
 130              		.syntax divided
 131              	@ 37 "main.c" 1
 132 0002 62B6     		CPSIE   i
 133              	@ 0 "" 2
  38:main.c        ****     
ARM GAS  C:\Windows\TEMP\ccfcd9qV.s 			page 4


  39:main.c        ****     CyBle_Start(Stack_Handler);
 134              		.loc 1 39 0
 135              		.thumb
 136              		.syntax unified
 137 0004 0548     		ldr	r0, .L10
 138 0006 FFF7FEFF 		bl	CyBle_Start
 139              	.LVL13:
  40:main.c        ****     CyBle_IasRegisterAttrCallback(Ias_Handler);
 140              		.loc 1 40 0
 141 000a 0548     		ldr	r0, .L10+4
 142 000c FFF7FEFF 		bl	CyBle_IasRegisterAttrCallback
 143              	.LVL14:
  41:main.c        ****     
  42:main.c        ****     PWM_Start();
 144              		.loc 1 42 0
 145 0010 FFF7FEFF 		bl	PWM_Start
 146              	.LVL15:
 147              	.L9:
  43:main.c        **** 
  44:main.c        ****     for(;;)
  45:main.c        ****     {
  46:main.c        ****         CyBle_ProcessEvents();   
 148              		.loc 1 46 0 discriminator 1
 149 0014 FFF7FEFF 		bl	CyBle_ProcessEvents
 150              	.LVL16:
 151 0018 FCE7     		b	.L9
 152              	.L11:
 153 001a C046     		.align	2
 154              	.L10:
 155 001c 00000000 		.word	Stack_Handler
 156 0020 00000000 		.word	Ias_Handler
 157              		.cfi_endproc
 158              	.LFE37:
 159              		.size	main, .-main
 160              		.text
 161              	.Letext0:
 162              		.file 2 "Generated_Source\\PSoC4/cytypes.h"
 163              		.file 3 "Generated_Source\\PSoC4/Bluetooth_StackGatt.h"
 164              		.file 4 "Generated_Source\\PSoC4/Bluetooth_Stack.h"
 165              		.file 5 "Generated_Source\\PSoC4/Bluetooth_ias.h"
 166              		.file 6 "Generated_Source\\PSoC4/Bluetooth.h"
 167              		.file 7 "Generated_Source\\PSoC4/PWM.h"